
;克雷德头像造砖例程
0804925C B5F0     push    r4-r7,r14                               
0804925E 4657     mov     r7,r10                                  
08049260 464E     mov     r6,r9                                   
08049262 4645     mov     r5,r8                                   
08049264 B4E0     push    r5-r7                                   
08049266 1C05     mov     r5,r0                                   
08049268 062D     lsl     r5,r5,18h                               
0804926A 0E2D     lsr     r5,r5,18h                               
0804926C 4827     ldr     r0,=3000738h                            
0804926E 8846     ldrh    r6,[r0,2h]                              
08049270 3E20     sub     r6,20h                                  
08049272 0436     lsl     r6,r6,10h                               
08049274 0C36     lsr     r6,r6,10h                               
08049276 8880     ldrh    r0,[r0,4h]                              
08049278 3020     add     r0,20h                                  
0804927A 0400     lsl     r0,r0,10h                               
0804927C 0C07     lsr     r7,r0,10h                               
0804927E 4824     ldr     r0,=3000079h                            
08049280 7005     strb    r5,[r0]                                 
08049282 1C34     mov     r4,r6                                   
08049284 3C40     sub     r4,40h                                  
08049286 2080     mov     r0,80h                                  
08049288 19C0     add     r0,r0,r7                                
0804928A 4680     mov     r8,r0                                   
0804928C 1C20     mov     r0,r4                                   
0804928E 4641     mov     r1,r8                                   
08049290 F00EFDF4 bl      8057E7Ch                                
08049294 481E     ldr     r0,=3000079h                            
08049296 7005     strb    r5,[r0]                                 
08049298 20C0     mov     r0,0C0h                                 
0804929A 19C0     add     r0,r0,r7                                
0804929C 4681     mov     r9,r0                                   
0804929E 1C20     mov     r0,r4                                   
080492A0 4649     mov     r1,r9                                   
080492A2 F00EFDEB bl      8057E7Ch                                
080492A6 481A     ldr     r0,=3000079h                            
080492A8 7005     strb    r5,[r0]                                 
080492AA 2080     mov     r0,80h                                  
080492AC 0040     lsl     r0,r0,1h                                
080492AE 19C0     add     r0,r0,r7                                
080492B0 4682     mov     r10,r0                                  
080492B2 1C20     mov     r0,r4                                   
080492B4 4651     mov     r1,r10                                  
080492B6 F00EFDE1 bl      8057E7Ch                                
080492BA 4815     ldr     r0,=3000079h                            
080492BC 7005     strb    r5,[r0]                                 
080492BE 20A0     mov     r0,0A0h                                 
080492C0 0040     lsl     r0,r0,1h                                
080492C2 1839     add     r1,r7,r0                                
080492C4 1C20     mov     r0,r4                                   
080492C6 F00EFDD9 bl      8057E7Ch                                
080492CA 4811     ldr     r0,=3000079h                            
080492CC 7005     strb    r5,[r0]                                 
080492CE 3C40     sub     r4,40h                                  
080492D0 1C20     mov     r0,r4                                   
080492D2 4641     mov     r1,r8                                   
080492D4 F00EFDD2 bl      8057E7Ch                                
080492D8 480D     ldr     r0,=3000079h                            
080492DA 7005     strb    r5,[r0]                                 
080492DC 1C20     mov     r0,r4                                   
080492DE 4649     mov     r1,r9                                   
080492E0 F00EFDCC bl      8057E7Ch                                
080492E4 480A     ldr     r0,=3000079h                            
080492E6 7005     strb    r5,[r0]                                 
080492E8 1C20     mov     r0,r4                                   
080492EA 4651     mov     r1,r10                                  
080492EC F00EFDC6 bl      8057E7Ch                                
080492F0 4807     ldr     r0,=3000079h                            
080492F2 7005     strb    r5,[r0]                                 
080492F4 3EC0     sub     r6,0C0h                                 
080492F6 1C30     mov     r0,r6                                   
080492F8 4649     mov     r1,r9                                   
080492FA F00EFDBF bl      8057E7Ch                                
080492FE BC38     pop     r3-r5                                   
08049300 4698     mov     r8,r3                                   
08049302 46A1     mov     r9,r4                                   
08049304 46AA     mov     r10,r5                                  
08049306 BCF0     pop     r4-r7                                   
08049308 BC01     pop     r0                                      
0804930A 4700     bx      r0                                      

;雕像已经张嘴了调用                              
08049314 B500     push    r14                                     
08049316 4907     ldr     r1,=3000738h                            
08049318 4807     ldr     r0,=8317410h                            
0804931A 6188     str     r0,[r1,18h]                             
0804931C 2200     mov     r2,0h                                   
0804931E 2000     mov     r0,0h                                   
08049320 82C8     strh    r0,[r1,16h]                             
08049322 770A     strb    r2,[r1,1Ch]                             
08049324 3124     add     r1,24h                                  
08049326 200F     mov     r0,0Fh         ;pose写入F                         
08049328 7008     strb    r0,[r1]                                 
0804932A 2004     mov     r0,4h                                   
0804932C F7FFFF6A bl      8049204h       ;造张开嘴后的砖                          
08049330 BC01     pop     r0                                      
08049332 4700     bx      r0                                      
                        

;克雷德头像pose 0
0804933C B530     push    r4,r5,r14                               
0804933E 4C1A     ldr     r4,=3000738h                            
08049340 88A0     ldrh    r0,[r4,4h]     ;读取X坐标                          
08049342 3820     sub     r0,20h         ;向上半格                         
08049344 2200     mov     r2,0h                                   
08049346 2100     mov     r1,0h                                   
08049348 80A0     strh    r0,[r4,4h]     ;再写入                         
0804934A 1C23     mov     r3,r4                                   
0804934C 3327     add     r3,27h                                  
0804934E 2060     mov     r0,60h                                  
08049350 7018     strb    r0,[r3]        ;75F写入60h                         
08049352 1C20     mov     r0,r4                                   
08049354 3028     add     r0,28h                                  
08049356 7002     strb    r2,[r0]        ;760写入0                         
08049358 3302     add     r3,2h                                   
0804935A 2070     mov     r0,70h         ;761写入70h                         
0804935C 7018     strb    r0,[r3]                                 
0804935E 8161     strh    r1,[r4,0Ah]                             
08049360 81A1     strh    r1,[r4,0Ch]                             
08049362 81E1     strh    r1,[r4,0Eh]                             
08049364 8221     strh    r1,[r4,10h]    ;四面分界全为0                          
08049366 4811     ldr     r0,=3000088h                            
08049368 7B01     ldrb    r1,[r0,0Ch]                             
0804936A 2003     mov     r0,3h                                   
0804936C 4008     and     r0,r1                                   
0804936E 1C21     mov     r1,r4                                   
08049370 3121     add     r1,21h         ;759写入3000094的值and3                         
08049372 7008     strb    r0,[r1]                                 
08049374 1C20     mov     r0,r4                                   
08049376 3022     add     r0,22h                                  
08049378 2501     mov     r5,1h                                   
0804937A 7005     strb    r5,[r0]        ;75a写入1                          
0804937C 3003     add     r0,3h                                   
0804937E 7002     strb    r2,[r0]        ;属性写入0                         
08049380 2003     mov     r0,3h                                   
08049382 212A     mov     r1,2Ah         ;检查见2头的事件                         
08049384 F017FA9A bl      80608BCh                                
08049388 2800     cmp     r0,0h                                   
0804938A D103     bne     @@Pass         ;激活过了则跳过                                
0804938C 2001     mov     r0,1h                                   
0804938E 212A     mov     r1,2Ah                                  
08049390 F017FA94 bl      80608BCh       ;否则激活

@@Pass:                                
08049394 2003     mov     r0,3h                                   
08049396 2135     mov     r1,35h                                  
08049398 F017FA90 bl      80608BCh       ;检查克雷德张嘴事件                           
0804939C 2800     cmp     r0,0h                                   
0804939E D007     beq     @@KraidNoOpenMouth                                
080493A0 F7FFFFB8 bl      8049314h       ;克雷德已经张嘴了的调用                         
080493A4 E026     b       @@end                                

@@KraidNoOpenMouth:                      ;克雷德雕像没有张嘴                
080493B0 2003     mov     r0,3h                                   
080493B2 211E     mov     r1,1Eh         ;检查克雷德是否死亡                         
080493B4 F017FA82 bl      80608BCh                                
080493B8 2800     cmp     r0,0h                                   
080493BA D00D     beq     @@KriadNoDeath                                
080493BC 4804     ldr     r0,=8317280h                            
080493BE 61A0     str     r0,[r4,18h]    ;写入OAM                            
080493C0 1C21     mov     r1,r4                                   
080493C2 3124     add     r1,24h                                  
080493C4 2009     mov     r0,9h          ;POSE写入9 张嘴pose                         
080493C6 7008     strb    r0,[r1]                                 
080493C8 4802     ldr     r0,=300007Bh                             
080493CA 7005     strb    r5,[r0]        ;门关闭flag                         
080493CC E00A     b       @@Peer                                

@@KriadNoDeath:                              
080493D8 4808     ldr     r0,=8317208h                            
080493DA 61A0     str     r0,[r4,18h]    ;写入OAM                         
080493DC 1C21     mov     r1,r4                                   
080493DE 3124     add     r1,24h                                  
080493E0 200F     mov     r0,0Fh         ;Pose写入F                         
080493E2 7008     strb    r0,[r1]   

@@Peer:                              
080493E4 4806     ldr     r0,=3000738h                            
080493E6 2200     mov     r2,0h                                   
080493E8 2100     mov     r1,0h                                   
080493EA 82C1     strh    r1,[r0,16h]    ;动画帧清零                         
080493EC 7702     strb    r2,[r0,1Ch]                             
080493EE 2004     mov     r0,4h                                   
080493F0 F7FFFF34 bl      804925Ch       ;造砖

@@end:                               
080493F4 BC30     pop     r4,r5                                   
080493F6 BC01     pop     r0                                      
080493F8 4700     bx      r0                                      


;Pose 9                             
08049404 B500     push    r14                                     
08049406 4917     ldr     r1,=3000738h                            
08049408 8AC8     ldrh    r0,[r1,16h]     ;读取精灵动画                        
0804940A 2800     cmp     r0,0h                                   
0804940C D106     bne     @@Animationing                                
0804940E 7F08     ldrb    r0,[r1,1Ch]                             
08049410 2801     cmp     r0,1h                                   
08049412 D103     bne     @@Animationing                                
08049414 2095     mov     r0,95h                                  
08049416 0040     lsl     r0,r0,1h                                
08049418 F7B9FAFE bl      8002A18h        ;张嘴前的激活声音

@@Animationing:                           ;动画非一开始                              
0804941C 4B11     ldr     r3,=3000738h                            
0804941E 8898     ldrh    r0,[r3,4h]      ;读取X坐标                        
08049420 3020     add     r0,20h          ;向右20h                        
08049422 0400     lsl     r0,r0,10h                               
08049424 0C80     lsr     r0,r0,12h       ;坐标除以4                        
08049426 4910     ldr     r1,=30013B8h                            
08049428 8809     ldrh    r1,[r1]         ;读取右框值                          
0804942A 0889     lsr     r1,r1,2h        ;除以4                        
0804942C 1A40     sub     r0,r0,r1        ;精灵坐标减去                       
0804942E 0400     lsl     r0,r0,10h                               
08049430 0C00     lsr     r0,r0,10h                               
08049432 2878     cmp     r0,78h          ;距离7格?                         
08049434 D114     bne     @@end                                
08049436 1C19     mov     r1,r3                                   
08049438 3124     add     r1,24h                                  
0804943A 2200     mov     r2,0h                                   
0804943C 200B     mov     r0,0Bh          ;pose写入0B                        
0804943E 7008     strb    r0,[r1]                                 
08049440 480A     ldr     r0,=83172B8h                            
08049442 6198     str     r0,[r3,18h]                             
08049444 2100     mov     r1,0h                                   
08049446 82DA     strh    r2,[r3,16h]                             
08049448 7719     strb    r1,[r3,1Ch]                             
0804944A 1C18     mov     r0,r3                                   
0804944C 302D     add     r0,2Dh                                  
0804944E 7001     strb    r1,[r0]                                 
08049450 3001     add     r0,1h                                   
08049452 7001     strb    r1,[r0]                                 
08049454 4806     ldr     r0,=12Bh                                
08049456 F7B9FADF bl      8002A18h                                
0804945A 2004     mov     r0,4h                                   
0804945C F7FFFE92 bl      8049184h        ;造防止回去的砖

@@end:                               
08049460 BC01     pop     r0                                      
08049462 4700     bx      r0                                      


;Pose b                             
08049474 B5F0     push    r4-r7,r14                               
08049476 4647     mov     r7,r8                                   
08049478 B480     push    r7                                      
0804947A 481A     ldr     r0,=30013D4h                            
0804947C 8A41     ldrh    r1,[r0,12h]    ;sa X坐标                         
0804947E 4C1A     ldr     r4,=3000738h                            
08049480 88A0     ldrh    r0,[r4,4h]     ;精灵X坐标                         
08049482 2288     mov     r2,88h                                  
08049484 0092     lsl     r2,r2,2h       ;8格半                          
08049486 1880     add     r0,r0,r2       ;精灵X坐标右边八格半                         
08049488 4281     cmp     r1,r0          ;人物的坐标相比                         
0804948A DD02     ble     @@Pass         ;小于或等                         
0804948C 2001     mov     r0,1h                                   
0804948E F7FFFE79 bl      8049184h       ;如果非则去掉造砖

@@Pass:                                
08049492 8AE0     ldrh    r0,[r4,16h]                             
08049494 281D     cmp     r0,1Dh         ;动画                         
08049496 D105     bne     @@Pass2                                
08049498 7F20     ldrb    r0,[r4,1Ch]                             
0804949A 2801     cmp     r0,1h                                   
0804949C D102     bne     @@Pass2                                
0804949E 2001     mov     r0,1h                                   
080494A0 F7FFFEDC bl      804925Ch       ;动画到了1D的时候去除砖块   

@@Pass2:                               
080494A4 F7C6FB90 bl      800FBC8h                                
080494A8 2800     cmp     r0,0h                                   
080494AA D021     beq     @@AnimationNoEnd                                
080494AC F7FFFF32 bl      8049314h       ;张嘴调用,造张嘴砖                         
080494B0 2001     mov     r0,1h                                   
080494B2 2135     mov     r1,35h                                  
080494B4 F017FA02 bl      80608BCh       ;事件35激活 右头张嘴事件                      
080494B8 2003     mov     r0,3h                                   
080494BA 2125     mov     r1,25h                                  
080494BC F017F9FE bl      80608BCh       ;检查25事件 莱德利死亡                         
080494C0 2800     cmp     r0,0h                                   
080494C2 D006     beq     @@RidleyNoDeath                                
080494C4 2003     mov     r0,3h                                   
080494C6 2136     mov     r1,36h                                  
080494C8 F017F9F8 bl      80608BCh       ;检查左头张嘴事件                         
080494CC 2800     cmp     r0,0h                                   
080494CE D100     bne     @@RidleyNoDeath                                
080494D0 E0A2     b       @@end 

@@RidleyNoDeath:                         ;莱德利没有死亡或左头已经张嘴      
080494D2 4906     ldr     r1,=300007Bh                            
080494D4 2314     mov     r3,14h                                  
080494D6 425B     neg     r3,r3                                   
080494D8 1C18     mov     r0,r3                                   
080494DA 7008     strb    r0,[r1]        ;写入门开计时                         
080494DC 2001     mov     r0,1h                                   
080494DE F7FFFE51 bl      8049184h       ;去掉砖块                         
080494E2 E099     b       @@end                                

@@AnimationNoEnd:                              
080494F0 4923     ldr     r1,=3000738h                            
080494F2 8AC8     ldrh    r0,[r1,16h]                             
080494F4 3809     sub     r0,9h          ;动画减9                         
080494F6 0400     lsl     r0,r0,10h                               
080494F8 0C00     lsr     r0,r0,10h                               
080494FA 281E     cmp     r0,1Eh                                  
080494FC D900     bls     @@Pass3        ;仍小于1E                         
080494FE E08B     b       @@end                 

@@Pass3:               
08049500 1C0D     mov     r5,r1                                   
08049502 352E     add     r5,2Eh                                  
08049504 7828     ldrb    r0,[r5]                                 
08049506 3001     add     r0,1h         ;766加1再写入                          
08049508 7028     strb    r0,[r5]                                 
0804950A 1C0C     mov     r4,r1                                   
0804950C 342D     add     r4,2Dh                                  
0804950E 7821     ldrb    r1,[r4]                                 
08049510 1C48     add     r0,r1,1       ;765加1再写入                           
08049512 7020     strb    r0,[r4]                                 
08049514 201F     mov     r0,1Fh                                  
08049516 4680     mov     r8,r0                                   
08049518 4008     and     r0,r1         ;765之前的值and 1F                           
0804951A 2800     cmp     r0,0h                                   
0804951C D103     bne     @@Pass4                                
0804951E 200A     mov     r0,0Ah                                  
08049520 2181     mov     r1,81h                                  
08049522 F00BFF0F bl      8055344h      ;震动

@@Pass4:                               
08049526 7827     ldrb    r7,[r4]                                 
08049528 782A     ldrb    r2,[r5]                                 
0804952A 4816     ldr     r0,=30013BAh                            
0804952C 8800     ldrh    r0,[r0]                                 
0804952E 3840     sub     r0,40h                                  
08049530 0400     lsl     r0,r0,10h                               
08049532 0C06     lsr     r6,r0,10h                               
08049534 4914     ldr     r1,=30013B8h                            
08049536 238C     mov     r3,8Ch                                  
08049538 009B     lsl     r3,r3,2h                                
0804953A 1C18     mov     r0,r3                                   
0804953C 8809     ldrh    r1,[r1]                                 
0804953E 1840     add     r0,r0,r1                                
08049540 0400     lsl     r0,r0,10h                               
08049542 0C05     lsr     r5,r0,10h                               
08049544 4811     ldr     r0,=300083Ch                            
08049546 7804     ldrb    r4,[r0]                                 
08049548 1C10     mov     r0,r2                                   
0804954A 4641     mov     r1,r8                                   
0804954C 4008     and     r0,r1                                   
0804954E 2800     cmp     r0,0h                                   
08049550 D131     bne     80495B6h                                
08049552 2020     mov     r0,20h                                  
08049554 4002     and     r2,r0                                   
08049556 2A00     cmp     r2,0h                                   
08049558 D01C     beq     8049594h                                
0804955A 0123     lsl     r3,r4,4h                                
0804955C 3B78     sub     r3,78h                                  
0804955E 1AEB     sub     r3,r5,r3                                
08049560 2000     mov     r0,0h                                   
08049562 2105     mov     r1,5h                                   
08049564 1C32     mov     r2,r6                                   
08049566 F7C8FC6F bl      8011E48h                                
0804956A 00E3     lsl     r3,r4,3h                                
0804956C 4A08     ldr     r2,=0FFFFFE70h                          
0804956E 189B     add     r3,r3,r2                                
08049570 18EB     add     r3,r5,r3                                
08049572 2000     mov     r0,0h                                   
08049574 2108     mov     r1,8h                                   
08049576 1C32     mov     r2,r6                                   
08049578 F7C8FC66 bl      8011E48h                                
0804957C E01B     b       80495B6h                                
0804957E 0000     lsl     r0,r0,0h                                
08049580 0738     lsl     r0,r7,1Ch                               
08049582 0300     lsl     r0,r0,0Ch                               
08049584 13BA     asr     r2,r7,0Eh                               
08049586 0300     lsl     r0,r0,0Ch                               
08049588 13B8     asr     r0,r7,0Eh                               
0804958A 0300     lsl     r0,r0,0Ch                               
0804958C 083C     lsr     r4,r7,20h                               
0804958E 0300     lsl     r0,r0,0Ch                               
08049590 FE70     bl      lr+0CE0h                                
08049592 FFFF     bl      lr+0FFEh                                
08049594 0123     lsl     r3,r4,4h                                
08049596 33A0     add     r3,0A0h                                 
08049598 1AEB     sub     r3,r5,r3                                
0804959A 2000     mov     r0,0h                                   
0804959C 2107     mov     r1,7h                                   
0804959E 1C32     mov     r2,r6                                   
080495A0 F7C8FC52 bl      8011E48h                                
080495A4 00E3     lsl     r3,r4,3h                                
080495A6 4810     ldr     r0,=0FFFFFED4h                          
080495A8 181B     add     r3,r3,r0                                
080495AA 18EB     add     r3,r5,r3                                
080495AC 2000     mov     r0,0h                                   
080495AE 2105     mov     r1,5h                                   
080495B0 1C32     mov     r2,r6                                   
080495B2 F7C8FC49 bl      8011E48h                                
080495B6 200F     mov     r0,0Fh                                  
080495B8 4007     and     r7,r0                                   
080495BA 2F00     cmp     r7,0h                                   
080495BC D12C     bne     @@end                                
080495BE 2C07     cmp     r4,7h                                   
080495C0 D918     bls     80495F4h                                
080495C2 0164     lsl     r4,r4,5h                                
080495C4 4909     ldr     r1,=0FFFFFE3Eh                          
080495C6 1863     add     r3,r4,r1                                
080495C8 18EB     add     r3,r5,r3                                
080495CA 2000     mov     r0,0h                                   
080495CC 2108     mov     r1,8h                                   
080495CE 1C32     mov     r2,r6                                   
080495D0 F7C8FC3A bl      8011E48h                                
080495D4 4A06     ldr     r2,=0FFFFFDB2h                          
080495D6 18A4     add     r4,r4,r2                                
080495D8 1B2C     sub     r4,r5,r4                                
080495DA 2000     mov     r0,0h                                   
080495DC 2106     mov     r1,6h                                   
080495DE 1C32     mov     r2,r6                                   
080495E0 1C23     mov     r3,r4                                   
080495E2 F7C8FC31 bl      8011E48h                                
080495E6 E017     b       @@end                                
080495E8 FED4     bl      lr+0DA8h                                
080495EA FFFF     bl      lr+0FFEh                                
080495EC FE3E     bl      lr+0C7Ch                                
080495EE FFFF     bl      lr+0FFEh                                
080495F0 FDB2     bl      lr+0B64h                                
080495F2 FFFF     bl      lr+0FFEh                                
080495F4 0163     lsl     r3,r4,5h                                
080495F6 480B     ldr     r0,=0FFFFFE84h                          
080495F8 181B     add     r3,r3,r0                                
080495FA 1AEB     sub     r3,r5,r3                                
080495FC 2000     mov     r0,0h                                   
080495FE 2106     mov     r1,6h                                   
08049600 1C32     mov     r2,r6                                   
08049602 F7C8FC21 bl      8011E48h                                
08049606 00E3     lsl     r3,r4,3h                                
08049608 4907     ldr     r1,=0FFFFFD88h                          
0804960A 185B     add     r3,r3,r1                                
0804960C 18EB     add     r3,r5,r3                                
0804960E 2000     mov     r0,0h                                   
08049610 2108     mov     r1,8h                                   
08049612 1C32     mov     r2,r6                                   
08049614 F7C8FC18 bl      8011E48h 

@@end:                               
08049618 BC08     pop     r3                                      
0804961A 4698     mov     r8,r3                                   
0804961C BCF0     pop     r4-r7                                   
0804961E BC01     pop     r0                                      
08049620 4700     bx      r0                                      


                               
0804962C B570     push    r4-r6,r14                               
0804962E 464E     mov     r6,r9                                   
08049630 4645     mov     r5,r8                                   
08049632 B460     push    r5,r6                                   
08049634 1C06     mov     r6,r0                                   
08049636 0636     lsl     r6,r6,18h                               
08049638 0E36     lsr     r6,r6,18h                               
0804963A 4814     ldr     r0,=3000738h                            
0804963C 8845     ldrh    r5,[r0,2h]                              
0804963E 3D20     sub     r5,20h                                  
08049640 042D     lsl     r5,r5,10h                               
08049642 0C2D     lsr     r5,r5,10h                               
08049644 8884     ldrh    r4,[r0,4h]                              
08049646 3C20     sub     r4,20h                                  
08049648 0424     lsl     r4,r4,10h                               
0804964A 0C24     lsr     r4,r4,10h                               
0804964C 4810     ldr     r0,=3000079h                            
0804964E 4680     mov     r8,r0                                   
08049650 7006     strb    r6,[r0]                                 
08049652 4810     ldr     r0,=0FFFFFF00h                          
08049654 4681     mov     r9,r0                                   
08049656 444D     add     r5,r9                                   
08049658 1C21     mov     r1,r4                                   
0804965A 3980     sub     r1,80h                                  
0804965C 1C28     mov     r0,r5                                   
0804965E F00EFC0D bl      8057E7Ch                                
08049662 4640     mov     r0,r8                                   
08049664 7006     strb    r6,[r0]                                 
08049666 1C21     mov     r1,r4                                   
08049668 39C0     sub     r1,0C0h                                 
0804966A 1C28     mov     r0,r5                                   
0804966C F00EFC06 bl      8057E7Ch                                
08049670 4640     mov     r0,r8                                   
08049672 7006     strb    r6,[r0]                                 
08049674 444C     add     r4,r9                                   
08049676 1C28     mov     r0,r5                                   
08049678 1C21     mov     r1,r4                                   
0804967A F00EFBFF bl      8057E7Ch                                
0804967E BC18     pop     r3,r4                                   
08049680 4698     mov     r8,r3                                   
08049682 46A1     mov     r9,r4                                   
08049684 BC70     pop     r4-r6                                   
08049686 BC01     pop     r0                                      
08049688 4700     bx      r0                                      
0804968A 0000     lsl     r0,r0,0h                                
0804968C 0738     lsl     r0,r7,1Ch                               
0804968E 0300     lsl     r0,r0,0Ch                               
08049690 0079     lsl     r1,r7,1h                                
08049692 0300     lsl     r0,r0,0Ch                               
08049694 FF00     bl      lr+0E00h                                
08049696 FFFF     bl      lr+0FFEh                                
08049698 B570     push    r4-r6,r14                               
0804969A 4656     mov     r6,r10                                  
0804969C 464D     mov     r5,r9                                   
0804969E 4644     mov     r4,r8                                   
080496A0 B470     push    r4-r6                                   
080496A2 1C06     mov     r6,r0                                   
080496A4 0636     lsl     r6,r6,18h                               
080496A6 0E36     lsr     r6,r6,18h                               
080496A8 4818     ldr     r0,=3000738h                            
080496AA 8845     ldrh    r5,[r0,2h]                              
080496AC 3D20     sub     r5,20h                                  
080496AE 042D     lsl     r5,r5,10h                               
080496B0 0C2D     lsr     r5,r5,10h                               
080496B2 8884     ldrh    r4,[r0,4h]                              
080496B4 3C20     sub     r4,20h                                  
080496B6 0424     lsl     r4,r4,10h                               
080496B8 0C24     lsr     r4,r4,10h                               
080496BA 4815     ldr     r0,=3000079h                            
080496BC 4680     mov     r8,r0                                   
080496BE 7006     strb    r6,[r0]                                 
080496C0 2040     mov     r0,40h                                  
080496C2 4240     neg     r0,r0                                   
080496C4 1940     add     r0,r0,r5                                
080496C6 4681     mov     r9,r0                                   
080496C8 1C21     mov     r1,r4                                   
080496CA F00EFBD7 bl      8057E7Ch                                
080496CE 4640     mov     r0,r8                                   
080496D0 7006     strb    r6,[r0]                                 
080496D2 2040     mov     r0,40h                                  
080496D4 4240     neg     r0,r0                                   
080496D6 1900     add     r0,r0,r4                                
080496D8 4682     mov     r10,r0                                  
080496DA 4648     mov     r0,r9                                   
080496DC 4651     mov     r1,r10                                  
080496DE F00EFBCD bl      8057E7Ch                                
080496E2 4640     mov     r0,r8                                   
080496E4 7006     strb    r6,[r0]                                 
080496E6 3D80     sub     r5,80h                                  
080496E8 1C28     mov     r0,r5                                   
080496EA 1C21     mov     r1,r4                                   
080496EC F00EFBC6 bl      8057E7Ch                                
080496F0 4640     mov     r0,r8                                   
080496F2 7006     strb    r6,[r0]                                 
080496F4 1C28     mov     r0,r5                                   
080496F6 4651     mov     r1,r10                                  
080496F8 F00EFBC0 bl      8057E7Ch                                
080496FC BC38     pop     r3-r5                                   
080496FE 4698     mov     r8,r3                                   
08049700 46A1     mov     r9,r4                                   
08049702 46AA     mov     r10,r5                                  
08049704 BC70     pop     r4-r6                                   
08049706 BC01     pop     r0                                      
08049708 4700     bx      r0                                      
0804970A 0000     lsl     r0,r0,0h                                
0804970C 0738     lsl     r0,r7,1Ch                               
0804970E 0300     lsl     r0,r0,0Ch                               
08049710 0079     lsl     r1,r7,1h                                
08049712 0300     lsl     r0,r0,0Ch                               
08049714 B500     push    r14                                     
08049716 4907     ldr     r1,=3000738h                            
08049718 4807     ldr     r0,=8317628h                            
0804971A 6188     str     r0,[r1,18h]                             
0804971C 2200     mov     r2,0h                                   
0804971E 2000     mov     r0,0h                                   
08049720 82C8     strh    r0,[r1,16h]                             
08049722 770A     strb    r2,[r1,1Ch]                             
08049724 3124     add     r1,24h                                  
08049726 200F     mov     r0,0Fh                                  
08049728 7008     strb    r0,[r1]                                 
0804972A 2004     mov     r0,4h                                   
0804972C F7FFFF7E bl      804962Ch                                
08049730 BC01     pop     r0                                      
08049732 4700     bx      r0                                      
08049734 0738     lsl     r0,r7,1Ch                               
08049736 0300     lsl     r0,r0,0Ch                               
08049738 7628     strb    r0,[r5,18h]                             
0804973A 0831     lsr     r1,r6,20h                               
0804973C B530     push    r4,r5,r14                               
0804973E 4C15     ldr     r4,=3000738h                            
08049740 88A0     ldrh    r0,[r4,4h]                              
08049742 3020     add     r0,20h                                  
08049744 2200     mov     r2,0h                                   
08049746 2100     mov     r1,0h                                   
08049748 80A0     strh    r0,[r4,4h]                              
0804974A 1C23     mov     r3,r4                                   
0804974C 3327     add     r3,27h                                  
0804974E 2058     mov     r0,58h                                  
08049750 7018     strb    r0,[r3]                                 
08049752 1C20     mov     r0,r4                                   
08049754 3028     add     r0,28h                                  
08049756 7002     strb    r2,[r0]                                 
08049758 3302     add     r3,2h                                   
0804975A 2070     mov     r0,70h                                  
0804975C 7018     strb    r0,[r3]                                 
0804975E 8161     strh    r1,[r4,0Ah]                             
08049760 81A1     strh    r1,[r4,0Ch]                             
08049762 81E1     strh    r1,[r4,0Eh]                             
08049764 8221     strh    r1,[r4,10h]                             
08049766 480C     ldr     r0,=3000088h                            
08049768 7B01     ldrb    r1,[r0,0Ch]                             
0804976A 2003     mov     r0,3h                                   
0804976C 4008     and     r0,r1                                   
0804976E 1C21     mov     r1,r4                                   
08049770 3121     add     r1,21h                                  
08049772 7008     strb    r0,[r1]                                 
08049774 1C20     mov     r0,r4                                   
08049776 3022     add     r0,22h                                  
08049778 2501     mov     r5,1h                                   
0804977A 7005     strb    r5,[r0]                                 
0804977C 3003     add     r0,3h                                   
0804977E 7002     strb    r2,[r0]                                 
08049780 2003     mov     r0,3h                                   
08049782 2136     mov     r1,36h                                  
08049784 F017F89A bl      80608BCh                                
08049788 2800     cmp     r0,0h                                   
0804978A D007     beq     804979Ch                                
0804978C F7FFFFC2 bl      8049714h                                
08049790 E026     b       80497E0h                                
08049792 0000     lsl     r0,r0,0h                                
08049794 0738     lsl     r0,r7,1Ch                               
08049796 0300     lsl     r0,r0,0Ch                               
08049798 0088     lsl     r0,r1,2h                                
0804979A 0300     lsl     r0,r0,0Ch                               
0804979C 2003     mov     r0,3h                                   
0804979E 2125     mov     r1,25h                                  
080497A0 F017F88C bl      80608BCh                                
080497A4 2800     cmp     r0,0h                                   
080497A6 D00D     beq     80497C4h                                
080497A8 4804     ldr     r0,=8317498h                            
080497AA 61A0     str     r0,[r4,18h]                             
080497AC 1C21     mov     r1,r4                                   
080497AE 3124     add     r1,24h                                  
080497B0 2009     mov     r0,9h                                   
080497B2 7008     strb    r0,[r1]                                 
080497B4 4802     ldr     r0,=300007Bh                            
080497B6 7005     strb    r5,[r0]                                 
080497B8 E00A     b       80497D0h                                
080497BA 0000     lsl     r0,r0,0h                                
080497BC 7498     strb    r0,[r3,12h]                             
080497BE 0831     lsr     r1,r6,20h                               
080497C0 007B     lsl     r3,r7,1h                                
080497C2 0300     lsl     r0,r0,0Ch                               
080497C4 4808     ldr     r0,=8317420h                            
080497C6 61A0     str     r0,[r4,18h]                             
080497C8 1C21     mov     r1,r4                                   
080497CA 3124     add     r1,24h                                  
080497CC 200F     mov     r0,0Fh                                  
080497CE 7008     strb    r0,[r1]                                 
080497D0 4806     ldr     r0,=3000738h                            
080497D2 2200     mov     r2,0h                                   
080497D4 2100     mov     r1,0h                                   
080497D6 82C1     strh    r1,[r0,16h]                             
080497D8 7702     strb    r2,[r0,1Ch]                             
080497DA 2004     mov     r0,4h                                   
080497DC F7FFFF5C bl      8049698h                                
080497E0 BC30     pop     r4,r5                                   
080497E2 BC01     pop     r0                                      
080497E4 4700     bx      r0                                      
080497E6 0000     lsl     r0,r0,0h                                
080497E8 7420     strb    r0,[r4,10h]                             
080497EA 0831     lsr     r1,r6,20h                               
080497EC 0738     lsl     r0,r7,1Ch                               
080497EE 0300     lsl     r0,r0,0Ch                               
080497F0 B500     push    r14                                     
080497F2 4912     ldr     r1,=3000738h                            
080497F4 8AC8     ldrh    r0,[r1,16h]                             
080497F6 2800     cmp     r0,0h                                   
080497F8 D106     bne     8049808h                                
080497FA 7F08     ldrb    r0,[r1,1Ch]                             
080497FC 2801     cmp     r0,1h                                   
080497FE D103     bne     8049808h                                
08049800 2095     mov     r0,95h                                  
08049802 0040     lsl     r0,r0,1h                                
08049804 F7B9F908 bl      8002A18h                                
08049808 4A0C     ldr     r2,=3000738h                            
0804980A 8890     ldrh    r0,[r2,4h]                              
0804980C 3020     add     r0,20h                                  
0804980E 0400     lsl     r0,r0,10h                               
08049810 0C80     lsr     r0,r0,12h                               
08049812 490B     ldr     r1,=30013B8h                            
08049814 8809     ldrh    r1,[r1]                                 
08049816 0889     lsr     r1,r1,2h                                
08049818 1A40     sub     r0,r0,r1                                
0804981A 0400     lsl     r0,r0,10h                               
0804981C 0C00     lsr     r0,r0,10h                               
0804981E 2878     cmp     r0,78h                                  
08049820 D109     bne     8049836h                                
08049822 1C11     mov     r1,r2                                   
08049824 3124     add     r1,24h                                  
08049826 200B     mov     r0,0Bh                                  
08049828 7008     strb    r0,[r1]                                 
0804982A 3108     add     r1,8h                                   
0804982C 203C     mov     r0,3Ch                                  
0804982E 7008     strb    r0,[r1]                                 
08049830 2004     mov     r0,4h                                   
08049832 F7FFFCA7 bl      8049184h                                
08049836 BC01     pop     r0                                      
08049838 4700     bx      r0                                      
0804983A 0000     lsl     r0,r0,0h                                
0804983C 0738     lsl     r0,r7,1Ch                               
0804983E 0300     lsl     r0,r0,0Ch                               
08049840 13B8     asr     r0,r7,0Eh                               
08049842 0300     lsl     r0,r0,0Ch                               
08049844 B5F0     push    r4-r7,r14                               
08049846 4647     mov     r7,r8                                   
08049848 B480     push    r7                                      
0804984A 481A     ldr     r0,=30013D4h                            
0804984C 8A41     ldrh    r1,[r0,12h]                             
0804984E 4C1A     ldr     r4,=3000738h                            
08049850 88A0     ldrh    r0,[r4,4h]                              
08049852 2288     mov     r2,88h                                  
08049854 0092     lsl     r2,r2,2h                                
08049856 1880     add     r0,r0,r2                                
08049858 4281     cmp     r1,r0                                   
0804985A DD02     ble     8049862h                                
0804985C 2001     mov     r0,1h                                   
0804985E F7FFFC91 bl      8049184h                                
08049862 1C20     mov     r0,r4                                   
08049864 302C     add     r0,2Ch                                  
08049866 7800     ldrb    r0,[r0]                                 
08049868 2800     cmp     r0,0h                                   
0804986A D029     beq     80498C0h                                
0804986C 8AE0     ldrh    r0,[r4,16h]                             
0804986E 2800     cmp     r0,0h                                   
08049870 D106     bne     8049880h                                
08049872 7F20     ldrb    r0,[r4,1Ch]                             
08049874 2801     cmp     r0,1h                                   
08049876 D103     bne     8049880h                                
08049878 2095     mov     r0,95h                                  
0804987A 0040     lsl     r0,r0,1h                                
0804987C F7B9F8CC bl      8002A18h                                
08049880 4A0D     ldr     r2,=3000738h                            
08049882 1C11     mov     r1,r2                                   
08049884 312C     add     r1,2Ch                                  
08049886 7808     ldrb    r0,[r1]                                 
08049888 3801     sub     r0,1h                                   
0804988A 7008     strb    r0,[r1]                                 
0804988C 0600     lsl     r0,r0,18h                               
0804988E 0E03     lsr     r3,r0,18h                               
08049890 2B00     cmp     r3,0h                                   
08049892 D000     beq     8049896h                                
08049894 E0C6     b       8049A24h                                
08049896 4809     ldr     r0,=83174D0h                            
08049898 6190     str     r0,[r2,18h]                             
0804989A 2100     mov     r1,0h                                   
0804989C 82D3     strh    r3,[r2,16h]                             
0804989E 7711     strb    r1,[r2,1Ch]                             
080498A0 1C10     mov     r0,r2                                   
080498A2 302D     add     r0,2Dh                                  
080498A4 7001     strb    r1,[r0]                                 
080498A6 3001     add     r0,1h                                   
080498A8 7001     strb    r1,[r0]                                 
080498AA 2087     mov     r0,87h                                  
080498AC 0080     lsl     r0,r0,2h                                
080498AE F7B9F8B3 bl      8002A18h                                
080498B2 E0B7     b       8049A24h                                
080498B4 13D4     asr     r4,r2,0Fh                               
080498B6 0300     lsl     r0,r0,0Ch                               
080498B8 0738     lsl     r0,r7,1Ch                               
080498BA 0300     lsl     r0,r0,0Ch                               
080498BC 74D0     strb    r0,[r2,13h]                             
080498BE 0831     lsr     r1,r6,20h                               
080498C0 8AE0     ldrh    r0,[r4,16h]                             
080498C2 281D     cmp     r0,1Dh                                  
080498C4 D105     bne     80498D2h                                
080498C6 7F20     ldrb    r0,[r4,1Ch]                             
080498C8 2801     cmp     r0,1h                                   
080498CA D102     bne     80498D2h                                
080498CC 2001     mov     r0,1h                                   
080498CE F7FFFEE3 bl      8049698h                                
080498D2 F7C6F979 bl      800FBC8h                                
080498D6 2800     cmp     r0,0h                                   
080498D8 D010     beq     80498FCh                                
080498DA F7FFFF1B bl      8049714h                                
080498DE 2001     mov     r0,1h                                   
080498E0 2136     mov     r1,36h                                  
080498E2 F016FFEB bl      80608BCh                                
080498E6 4904     ldr     r1,=300007Bh                            
080498E8 2314     mov     r3,14h                                  
080498EA 425B     neg     r3,r3                                   
080498EC 1C18     mov     r0,r3                                   
080498EE 7008     strb    r0,[r1]                                 
080498F0 2001     mov     r0,1h                                   
080498F2 F7FFFC47 bl      8049184h                                
080498F6 E095     b       8049A24h                                
080498F8 007B     lsl     r3,r7,1h                                
080498FA 0300     lsl     r0,r0,0Ch                               
080498FC 4923     ldr     r1,=3000738h                            
080498FE 8AC8     ldrh    r0,[r1,16h]                             
08049900 3809     sub     r0,9h                                   
08049902 0400     lsl     r0,r0,10h                               
08049904 0C00     lsr     r0,r0,10h                               
08049906 281E     cmp     r0,1Eh                                  
08049908 D900     bls     804990Ch                                
0804990A E08B     b       8049A24h                                
0804990C 1C0D     mov     r5,r1                                   
0804990E 352E     add     r5,2Eh                                  
08049910 7828     ldrb    r0,[r5]                                 
08049912 3001     add     r0,1h                                   
08049914 7028     strb    r0,[r5]                                 
08049916 1C0C     mov     r4,r1                                   
08049918 342D     add     r4,2Dh                                  
0804991A 7821     ldrb    r1,[r4]                                 
0804991C 1C48     add     r0,r1,1                                 
0804991E 7020     strb    r0,[r4]                                 
08049920 201F     mov     r0,1Fh                                  
08049922 4680     mov     r8,r0                                   
08049924 4008     and     r0,r1                                   
08049926 2800     cmp     r0,0h                                   
08049928 D103     bne     8049932h                                
0804992A 200A     mov     r0,0Ah                                  
0804992C 2181     mov     r1,81h                                  
0804992E F00BFD09 bl      8055344h                                
08049932 7827     ldrb    r7,[r4]                                 
08049934 782A     ldrb    r2,[r5]                                 
08049936 4816     ldr     r0,=30013BAh                            
08049938 8800     ldrh    r0,[r0]                                 
0804993A 3840     sub     r0,40h                                  
0804993C 0400     lsl     r0,r0,10h                               
0804993E 0C06     lsr     r6,r0,10h                               
08049940 4914     ldr     r1,=30013B8h                            
08049942 23C8     mov     r3,0C8h                                 
08049944 005B     lsl     r3,r3,1h                                
08049946 1C18     mov     r0,r3                                   
08049948 8809     ldrh    r1,[r1]                                 
0804994A 1840     add     r0,r0,r1                                
0804994C 0400     lsl     r0,r0,10h                               
0804994E 0C05     lsr     r5,r0,10h                               
08049950 4811     ldr     r0,=300083Ch                            
08049952 7804     ldrb    r4,[r0]                                 
08049954 1C10     mov     r0,r2                                   
08049956 4641     mov     r1,r8                                   
08049958 4008     and     r0,r1                                   
0804995A 2800     cmp     r0,0h                                   
0804995C D131     bne     80499C2h                                
0804995E 2020     mov     r0,20h                                  
08049960 4002     and     r2,r0                                   
08049962 2A00     cmp     r2,0h                                   
08049964 D01C     beq     80499A0h                                
08049966 0123     lsl     r3,r4,4h                                
08049968 3B78     sub     r3,78h                                  
0804996A 1AEB     sub     r3,r5,r3                                
0804996C 2000     mov     r0,0h                                   
0804996E 2105     mov     r1,5h                                   
08049970 1C32     mov     r2,r6                                   
08049972 F7C8FA69 bl      8011E48h                                
08049976 00E3     lsl     r3,r4,3h                                
08049978 4A08     ldr     r2,=0FFFFFE70h                          
0804997A 189B     add     r3,r3,r2                                
0804997C 18EB     add     r3,r5,r3                                
0804997E 2000     mov     r0,0h                                   
08049980 2108     mov     r1,8h                                   
08049982 1C32     mov     r2,r6                                   
08049984 F7C8FA60 bl      8011E48h                                
08049988 E01B     b       80499C2h                                
0804998A 0000     lsl     r0,r0,0h                                
0804998C 0738     lsl     r0,r7,1Ch                               
0804998E 0300     lsl     r0,r0,0Ch                               
08049990 13BA     asr     r2,r7,0Eh                               
08049992 0300     lsl     r0,r0,0Ch                               
08049994 13B8     asr     r0,r7,0Eh                               
08049996 0300     lsl     r0,r0,0Ch                               
08049998 083C     lsr     r4,r7,20h                               
0804999A 0300     lsl     r0,r0,0Ch                               
0804999C FE70     bl      lr+0CE0h                                
0804999E FFFF     bl      lr+0FFEh                                
080499A0 0123     lsl     r3,r4,4h                                
080499A2 33A0     add     r3,0A0h                                 
080499A4 1AEB     sub     r3,r5,r3                                
080499A6 2000     mov     r0,0h                                   
080499A8 2107     mov     r1,7h                                   
080499AA 1C32     mov     r2,r6                                   
080499AC F7C8FA4C bl      8011E48h                                
080499B0 00E3     lsl     r3,r4,3h                                
080499B2 4810     ldr     r0,=0FFFFFED4h                          
080499B4 181B     add     r3,r3,r0                                
080499B6 18EB     add     r3,r5,r3                                
080499B8 2000     mov     r0,0h                                   
080499BA 2105     mov     r1,5h                                   
080499BC 1C32     mov     r2,r6                                   
080499BE F7C8FA43 bl      8011E48h                                
080499C2 200F     mov     r0,0Fh                                  
080499C4 4007     and     r7,r0                                   
080499C6 2F00     cmp     r7,0h                                   
080499C8 D12C     bne     8049A24h                                
080499CA 2C07     cmp     r4,7h                                   
080499CC D918     bls     8049A00h                                
080499CE 0164     lsl     r4,r4,5h                                
080499D0 4909     ldr     r1,=0FFFFFE3Eh                          
080499D2 1863     add     r3,r4,r1                                
080499D4 18EB     add     r3,r5,r3                                
080499D6 2000     mov     r0,0h                                   
080499D8 2108     mov     r1,8h                                   
080499DA 1C32     mov     r2,r6                                   
080499DC F7C8FA34 bl      8011E48h                                
080499E0 4A06     ldr     r2,=0FFFFFDB2h                          
080499E2 18A4     add     r4,r4,r2                                
080499E4 1B2C     sub     r4,r5,r4                                
080499E6 2000     mov     r0,0h                                   
080499E8 2106     mov     r1,6h                                   
080499EA 1C32     mov     r2,r6                                   
080499EC 1C23     mov     r3,r4                                   
080499EE F7C8FA2B bl      8011E48h                                
080499F2 E017     b       8049A24h                                
080499F4 FED4     bl      lr+0DA8h                                
080499F6 FFFF     bl      lr+0FFEh                                
080499F8 FE3E     bl      lr+0C7Ch                                
080499FA FFFF     bl      lr+0FFEh                                
080499FC FDB2     bl      lr+0B64h                                
080499FE FFFF     bl      lr+0FFEh                                
08049A00 0163     lsl     r3,r4,5h                                
08049A02 480B     ldr     r0,=0FFFFFE84h                          
08049A04 181B     add     r3,r3,r0                                
08049A06 1AEB     sub     r3,r5,r3                                
08049A08 2000     mov     r0,0h                                   
08049A0A 2106     mov     r1,6h                                   
08049A0C 1C32     mov     r2,r6                                   
08049A0E F7C8FA1B bl      8011E48h                                
08049A12 00E3     lsl     r3,r4,3h                                
08049A14 4907     ldr     r1,=0FFFFFD88h                          
08049A16 185B     add     r3,r3,r1                                
08049A18 18EB     add     r3,r5,r3                                
08049A1A 2000     mov     r0,0h                                   
08049A1C 2108     mov     r1,8h                                   
08049A1E 1C32     mov     r2,r6                                   
08049A20 F7C8FA12 bl      8011E48h                                
08049A24 BC08     pop     r3                                      
08049A26 4698     mov     r8,r3                                   
08049A28 BCF0     pop     r4-r7                                   
08049A2A BC01     pop     r0                                      
08049A2C 4700     bx      r0                                      

//////////////////////////////////////////////////////////////////////////////////////////\

;克雷德头像主程序                               
08049A38 B570     push    r4-r6,r14                               
08049A3A 4807     ldr     r0,=3000738h                            
08049A3C 1C02     mov     r2,r0                                   
08049A3E 3226     add     r2,26h                                  
08049A40 2101     mov     r1,1h                                   
08049A42 7011     strb    r1,[r2]       ;75e写入1                           
08049A44 3024     add     r0,24h                                  
08049A46 7800     ldrb    r0,[r0]                                 
08049A48 2809     cmp     r0,9h         ;读取pose                           
08049A4A D00D     beq     @@Pose9                                
08049A4C 2809     cmp     r0,9h                                   
08049A4E DC05     bgt     @@PoseThan9                                
08049A50 2800     cmp     r0,0h                                   
08049A52 D006     beq     @@Pose0                                
08049A54 E00D     b       @@Other                                

@@PoseThan9:                              
08049A5C 280B     cmp     r0,0Bh                                  
08049A5E D006     beq     @@PoseB                                
08049A60 E007     b       @@Other

@@Pose0:                                
08049A62 F7FFFC6B bl      804933Ch                                
08049A66 E004     b       @@Other 

@@Pose9:                               
08049A68 F7FFFCCC bl      8049404h                                
08049A6C E001     b       @@Other 

@@PoseB:                               
08049A6E F7FFFD01 bl      8049474h 

@@Other:                               
08049A72 4809     ldr     r0,=3000C72h                            
08049A74 2100     mov     r1,0h                                   
08049A76 5E40     ldsh    r0,[r0,r1]                              
08049A78 2802     cmp     r0,2h                                   
08049A7A D116     bne     @@StopMode                               
08049A7C 20A0     mov     r0,0A0h      ;正常情况下的时候                           
08049A7E 0080     lsl     r0,r0,2h     ;Y范围280,10格                          
08049A80 21D0     mov     r1,0D0h                                 
08049A82 0089     lsl     r1,r1,2h     ;X范围13格                           
08049A84 F7C6F9AC bl      800FDE0h     ;检查精灵和samus的位置                           
08049A88 2800     cmp     r0,0h                                   
08049A8A D009     beq     @@NoIn       ;不在范围                                
08049A8C 4A03     ldr     r2,=3000738h                            
08049A8E 8811     ldrh    r1,[r2]                                 
08049A90 2010     mov     r0,10h       ;在范围的话取向ORR10 再写入                          
08049A92 4308     orr     r0,r1                                   
08049A94 E008     b       @@Goto                                

@@NoIn:                               
08049AA0 4A18     ldr     r2,=3000738h                            
08049AA2 8811     ldrh    r1,[r2]                                 
08049AA4 4818     ldr     r0,=0FFEFh   ;不再范围的话取向去掉10,再写入                           
08049AA6 4008     and     r0,r1 

@@Goto:                                  
08049AA8 8010     strh    r0,[r2]  

@@StopMode:                               
08049AAA 4A18     ldr     r2,=3000A2Ch                            
08049AAC 21E0     mov     r1,0E0h                                 
08049AAE 0049     lsl     r1,r1,1h                                
08049AB0 1850     add     r0,r2,r1                                
08049AB2 4282     cmp     r2,r0                                   
08049AB4 D20D     bcs     @@DataOver                                
08049AB6 2501     mov     r5,1h                                   
08049AB8 2480     mov     r4,80h                                  
08049ABA 1C03     mov     r3,r0  

@@Loop:                                 
08049ABC 7811     ldrb    r1,[r2]        ;读取弹丸数据                          
08049ABE 1C28     mov     r0,r5                                   
08049AC0 4008     and     r0,r1          ;and 1                         
08049AC2 2800     cmp     r0,0h                                   
08049AC4 D002     beq     @@NoPorjectile                                
08049AC6 1C08     mov     r0,r1                                   
08049AC8 4320     orr     r0,r4                                   
08049ACA 7010     strb    r0,[r2]

@@NoPorjectile:                          ;没有放弹药                                 
08049ACC 321C     add     r2,1Ch                                  
08049ACE 429A     cmp     r2,r3                                   
08049AD0 D3F4     bcc     @@Loop 

@@DataOver:                              ;弹丸数据溢出   
08049AD2 2003     mov     r0,3h                                   
08049AD4 2135     mov     r1,35h         ;克张嘴事件                         
08049AD6 F016FEF1 bl      80608BCh       ;检查事件是否激活                         
08049ADA 2800     cmp     r0,0h                                   
08049ADC D01A     beq     @@EventNoActivation                                
08049ADE 2003     mov     r0,3h                                   
08049AE0 2136     mov     r1,36h         ;莱张嘴事件                          
08049AE2 F016FEEB bl      80608BCh                                
08049AE6 2800     cmp     r0,0h                                   
08049AE8 D014     beq     @@EventNoActivation                                
08049AEA 20A0     mov     r0,0A0h                                 
08049AEC 0080     lsl     r0,r0,2h       ;Y范围10格                         
08049AEE 21C8     mov     r1,0C8h                                 
08049AF0 0049     lsl     r1,r1,1h       ;X范围六格多一点                         
08049AF2 F7C6F975 bl      800FDE0h       ;检查范围                         
08049AF6 1C01     mov     r1,r0                                   
08049AF8 2900     cmp     r1,0h                                   
08049AFA D113     bne     @@InScope                                
08049AFC 4804     ldr     r0,=3000100h                            
08049AFE 7001     strb    r1,[r0]        ;写入0                              
08049B00 E021     b       @@end                                

@@EventNoActivation:                    ;事件没有激活                              
08049B14 20A0     mov     r0,0A0h                                 
08049B16 0080     lsl     r0,r0,2h                                
08049B18 21F8     mov     r1,0F8h       ;X范围7格半                           
08049B1A 0049     lsl     r1,r1,1h                                
08049B1C F7C6F960 bl      800FDE0h                                
08049B20 2808     cmp     r0,8h                                   
08049B22 D10D     bne     @@SaAtLeft 

@@InScope:                              ;在范围内                               
08049B24 4904     ldr     r1,=3000100h                            
08049B26 2001     mov     r0,1h                                   
08049B28 7008     strb    r0,[r1]       ;写入1                          
08049B2A 4A04     ldr     r2,=3000738h                            
08049B2C 8850     ldrh    r0,[r2,2h]    ;读取Y坐标                          
08049B2E 8088     strh    r0,[r1,4h]    ;写入3000104                          
08049B30 8890     ldrh    r0,[r2,4h]    ;读取X坐标 加上20h                          
08049B32 3020     add     r0,20h                                  
08049B34 8048     strh    r0,[r1,2h]    ;写入3000102                          
08049B36 E006     b       @@end                               

@@SaAtLeft:                            ;Samus在雕像左边  
08049B40 4902     ldr     r1,=3000100h                            
08049B42 2000     mov     r0,0h                                   
08049B44 7008     strb    r0,[r1]      ;写入0

@@end:                               
08049B46 BC70     pop     r4-r6                                   
08049B48 BC01     pop     r0                                      
08049B4A 4700     bx      r0                                      


////////////////////////////////////////////////////////////////////////////////////////////////////
;莱德利头像主程序                              
08049B50 B500     push    r14                                     
08049B52 4807     ldr     r0,=3000738h                            
08049B54 1C02     mov     r2,r0                                   
08049B56 3226     add     r2,26h                                  
08049B58 2101     mov     r1,1h                                   
08049B5A 7011     strb    r1,[r2]                                 
08049B5C 3024     add     r0,24h                                  
08049B5E 7800     ldrb    r0,[r0]                                 
08049B60 2809     cmp     r0,9h                                   
08049B62 D00D     beq     8049B80h                                
08049B64 2809     cmp     r0,9h                                   
08049B66 DC05     bgt     8049B74h                                
08049B68 2800     cmp     r0,0h                                   
08049B6A D006     beq     8049B7Ah                                
08049B6C E00D     b       8049B8Ah                                
08049B6E 0000     lsl     r0,r0,0h                                
08049B70 0738     lsl     r0,r7,1Ch                               
08049B72 0300     lsl     r0,r0,0Ch                               
08049B74 280B     cmp     r0,0Bh                                  
08049B76 D006     beq     8049B86h                                
08049B78 E007     b       8049B8Ah                                
08049B7A F7FFFDDF bl      804973Ch                                
08049B7E E004     b       8049B8Ah                                
08049B80 F7FFFE36 bl      80497F0h                                
08049B84 E001     b       8049B8Ah                                
08049B86 F7FFFE5D bl      8049844h                                
08049B8A 4809     ldr     r0,=3000C72h                            
08049B8C 2100     mov     r1,0h                                   
08049B8E 5E40     ldsh    r0,[r0,r1]                              
08049B90 2802     cmp     r0,2h                                   
08049B92 D116     bne     8049BC2h                                
08049B94 20A0     mov     r0,0A0h                                 
08049B96 0080     lsl     r0,r0,2h                                
08049B98 21D0     mov     r1,0D0h                                 
08049B9A 0089     lsl     r1,r1,2h                                
08049B9C F7C6F920 bl      800FDE0h                                
08049BA0 2800     cmp     r0,0h                                   
08049BA2 D009     beq     8049BB8h                                
08049BA4 4A03     ldr     r2,=3000738h                            
08049BA6 8811     ldrh    r1,[r2]                                 
08049BA8 2010     mov     r0,10h                                  
08049BAA 4308     orr     r0,r1                                   
08049BAC E008     b       8049BC0h                                
08049BAE 0000     lsl     r0,r0,0h                                
08049BB0 0C72     lsr     r2,r6,11h                               
08049BB2 0300     lsl     r0,r0,0Ch                               
08049BB4 0738     lsl     r0,r7,1Ch                               
08049BB6 0300     lsl     r0,r0,0Ch                               
08049BB8 4A03     ldr     r2,=3000738h                            
08049BBA 8811     ldrh    r1,[r2]                                 
08049BBC 4803     ldr     r0,=0FFEFh                              
08049BBE 4008     and     r0,r1                                   
08049BC0 8010     strh    r0,[r2]                                 
08049BC2 BC01     pop     r0                                      
08049BC4 4700     bx      r0                                      
08049BC6 0000     lsl     r0,r0,0h                                
08049BC8 0738     lsl     r0,r7,1Ch                               
08049BCA 0300     lsl     r0,r0,0Ch                               
08049BCC FFEF     bl      lr+0FDEh                                
08049BCE 0000     lsl     r0,r0,0h                                
08049BD0 B570     push    r4-r6,r14                               
08049BD2 4C07     ldr     r4,=3000738h                            
08049BD4 1C25     mov     r5,r4                                   
08049BD6 3524     add     r5,24h                                  
08049BD8 7829     ldrb    r1,[r5]                                 
08049BDA 2923     cmp     r1,23h                                  
08049BDC D100     bne     8049BE0h                                
08049BDE E0D9     b       8049D94h                                
08049BE0 2923     cmp     r1,23h                                  
08049BE2 DC07     bgt     8049BF4h                                
08049BE4 2900     cmp     r1,0h                                   
08049BE6 D009     beq     8049BFCh                                
08049BE8 2909     cmp     r1,9h                                   
08049BEA D050     beq     8049C8Eh                                
08049BEC E0E9     b       8049DC2h                                
08049BEE 0000     lsl     r0,r0,0h                                
08049BF0 0738     lsl     r0,r7,1Ch                               
08049BF2 0300     lsl     r0,r0,0Ch                               
08049BF4 2925     cmp     r1,25h                                  
08049BF6 D100     bne     8049BFAh                                
08049BF8 E0DE     b       8049DB8h                                
08049BFA E0E2     b       8049DC2h                                
08049BFC 4802     ldr     r0,=30001A8h                            
08049BFE 8802     ldrh    r2,[r0]                                 
08049C00 2A00     cmp     r2,0h                                   
08049C02 D003     beq     8049C0Ch                                
08049C04 8021     strh    r1,[r4]                                 
08049C06 E0DC     b       8049DC2h                                
08049C08 01A8     lsl     r0,r5,6h                                
08049C0A 0300     lsl     r0,r0,0Ch                               
08049C0C 1C20     mov     r0,r4                                   
08049C0E 3027     add     r0,27h                                  
08049C10 2120     mov     r1,20h                                  
08049C12 7001     strb    r1,[r0]                                 
08049C14 3001     add     r0,1h                                   
08049C16 7001     strb    r1,[r0]                                 
08049C18 3001     add     r0,1h                                   
08049C1A 7001     strb    r1,[r0]                                 
08049C1C 2300     mov     r3,0h                                   
08049C1E 4911     ldr     r1,=0FFD0h                              
08049C20 8161     strh    r1,[r4,0Ah]                             
08049C22 2030     mov     r0,30h                                  
08049C24 81A0     strh    r0,[r4,0Ch]                             
08049C26 81E1     strh    r1,[r4,0Eh]                             
08049C28 8220     strh    r0,[r4,10h]                             
08049C2A 480F     ldr     r0,=83179D0h                            
08049C2C 61A0     str     r0,[r4,18h]                             
08049C2E 7723     strb    r3,[r4,1Ch]                             
08049C30 82E2     strh    r2,[r4,16h]                             
08049C32 1C21     mov     r1,r4                                   
08049C34 3125     add     r1,25h                                  
08049C36 201E     mov     r0,1Eh                                  
08049C38 7008     strb    r0,[r1]                                 
08049C3A 2009     mov     r0,9h                                   
08049C3C 7028     strb    r0,[r5]                                 
08049C3E 480B     ldr     r0,=3000088h                            
08049C40 7B01     ldrb    r1,[r0,0Ch]                             
08049C42 2003     mov     r0,3h                                   
08049C44 4008     and     r0,r1                                   
08049C46 1C21     mov     r1,r4                                   
08049C48 3121     add     r1,21h                                  
08049C4A 7008     strb    r0,[r1]                                 
08049C4C 3101     add     r1,1h                                   
08049C4E 2001     mov     r0,1h                                   
08049C50 7008     strb    r0,[r1]                                 
08049C52 7F60     ldrb    r0,[r4,1Dh]                             
08049C54 28AF     cmp     r0,0AFh                                 
08049C56 D10B     bne     8049C70h                                
08049C58 8820     ldrh    r0,[r4]                                 
08049C5A 22C0     mov     r2,0C0h                                 
08049C5C 00D2     lsl     r2,r2,3h                                
08049C5E 1C11     mov     r1,r2                                   
08049C60 E08F     b       8049D82h                                
08049C62 0000     lsl     r0,r0,0h                                
08049C64 FFD0     bl      lr+0FA0h                                
08049C66 0000     lsl     r0,r0,0h                                
08049C68 79D0     ldrb    r0,[r2,7h]                              
08049C6A 0831     lsr     r1,r6,20h                               
08049C6C 0088     lsl     r0,r1,2h                                
08049C6E 0300     lsl     r0,r0,0Ch                               
08049C70 28B0     cmp     r0,0B0h                                 
08049C72 D104     bne     8049C7Eh                                
08049C74 8820     ldrh    r0,[r4]                                 
08049C76 2380     mov     r3,80h                                  
08049C78 00DB     lsl     r3,r3,3h                                
08049C7A 1C19     mov     r1,r3                                   
08049C7C E081     b       8049D82h                                
08049C7E 28B1     cmp     r0,0B1h                                 
08049C80 D000     beq     8049C84h                                
08049C82 E09E     b       8049DC2h                                
08049C84 8820     ldrh    r0,[r4]                                 
08049C86 2280     mov     r2,80h                                  
08049C88 0092     lsl     r2,r2,2h                                
08049C8A 1C11     mov     r1,r2                                   
08049C8C E079     b       8049D82h                                
08049C8E 8821     ldrh    r1,[r4]                                 
08049C90 2004     mov     r0,4h                                   
08049C92 4041     eor     r1,r0                                   
08049C94 2600     mov     r6,0h                                   
08049C96 8021     strh    r1,[r4]                                 
08049C98 2080     mov     r0,80h                                  
08049C9A 0100     lsl     r0,r0,4h                                
08049C9C 4008     and     r0,r1                                   
08049C9E 4A0A     ldr     r2,=30001A8h                            
08049CA0 2800     cmp     r0,0h                                   
08049CA2 D003     beq     8049CACh                                
08049CA4 23F0     mov     r3,0F0h                                 
08049CA6 005B     lsl     r3,r3,1h                                
08049CA8 1C18     mov     r0,r3                                   
08049CAA 8010     strh    r0,[r2]                                 
08049CAC 8810     ldrh    r0,[r2]                                 
08049CAE 2800     cmp     r0,0h                                   
08049CB0 D00C     beq     8049CCCh                                
08049CB2 2023     mov     r0,23h                                  
08049CB4 7028     strb    r0,[r5]                                 
08049CB6 1C21     mov     r1,r4                                   
08049CB8 312C     add     r1,2Ch                                  
08049CBA 200A     mov     r0,0Ah                                  
08049CBC 7008     strb    r0,[r1]                                 
08049CBE 1C20     mov     r0,r4                                   
08049CC0 3025     add     r0,25h                                  
08049CC2 7006     strb    r6,[r0]                                 
08049CC4 E07D     b       8049DC2h                                
08049CC6 0000     lsl     r0,r0,0h                                
08049CC8 01A8     lsl     r0,r5,6h                                
08049CCA 0300     lsl     r0,r0,0Ch                               
08049CCC 2580     mov     r5,80h                                  
08049CCE 00AD     lsl     r5,r5,2h                                
08049CD0 4029     and     r1,r5                                   
08049CD2 2900     cmp     r1,0h                                   
08049CD4 D015     beq     8049D02h                                
08049CD6 8860     ldrh    r0,[r4,2h]                              
08049CD8 88A1     ldrh    r1,[r4,4h]                              
08049CDA 3140     add     r1,40h                                  
08049CDC F7C5FD20 bl      800F720h                                
08049CE0 4804     ldr     r0,=30000DCh                            
08049CE2 8800     ldrh    r0,[r0]                                 
08049CE4 2807     cmp     r0,7h                                   
08049CE6 D109     bne     8049CFCh                                
08049CE8 8821     ldrh    r1,[r4]                                 
08049CEA 4803     ldr     r0,=0FDFFh                              
08049CEC 4008     and     r0,r1                                   
08049CEE 8020     strh    r0,[r4]                                 
08049CF0 E01B     b       8049D2Ah                                
08049CF2 0000     lsl     r0,r0,0h                                
08049CF4 00DC     lsl     r4,r3,3h                                
08049CF6 0300     lsl     r0,r0,0Ch                               
08049CF8 FDFF     bl      lr+0BFEh                                
08049CFA 0000     lsl     r0,r0,0h                                
08049CFC 88A0     ldrh    r0,[r4,4h]                              
08049CFE 3002     add     r0,2h                                   
08049D00 E012     b       8049D28h                                
08049D02 8860     ldrh    r0,[r4,2h]                              
08049D04 88A1     ldrh    r1,[r4,4h]                              
08049D06 3940     sub     r1,40h                                  
08049D08 F7C5FD0A bl      800F720h                                
08049D0C 4804     ldr     r0,=30000DCh                            
08049D0E 8800     ldrh    r0,[r0]                                 
08049D10 2807     cmp     r0,7h                                   
08049D12 D107     bne     8049D24h                                
08049D14 8821     ldrh    r1,[r4]                                 
08049D16 1C28     mov     r0,r5                                   
08049D18 4308     orr     r0,r1                                   
08049D1A 8020     strh    r0,[r4]                                 
08049D1C E005     b       8049D2Ah                                
08049D1E 0000     lsl     r0,r0,0h                                
08049D20 00DC     lsl     r4,r3,3h                                
08049D22 0300     lsl     r0,r0,0Ch                               
08049D24 88A0     ldrh    r0,[r4,4h]                              
08049D26 3802     sub     r0,2h                                   
08049D28 80A0     strh    r0,[r4,4h]                              
08049D2A 4C0B     ldr     r4,=3000738h                            
08049D2C 8821     ldrh    r1,[r4]                                 
08049D2E 2580     mov     r5,80h                                  
08049D30 00ED     lsl     r5,r5,3h                                
08049D32 1C28     mov     r0,r5                                   
08049D34 4008     and     r0,r1                                   
08049D36 2800     cmp     r0,0h                                   
08049D38 D018     beq     8049D6Ch                                
08049D3A 8860     ldrh    r0,[r4,2h]                              
08049D3C 3040     add     r0,40h                                  
08049D3E 88A1     ldrh    r1,[r4,4h]                              
08049D40 F7C5FCEE bl      800F720h                                
08049D44 4805     ldr     r0,=30000DCh                            
08049D46 8800     ldrh    r0,[r0]                                 
08049D48 2807     cmp     r0,7h                                   
08049D4A D10B     bne     8049D64h                                
08049D4C 8821     ldrh    r1,[r4]                                 
08049D4E 4804     ldr     r0,=0FBFFh                              
08049D50 4008     and     r0,r1                                   
08049D52 8020     strh    r0,[r4]                                 
08049D54 E035     b       8049DC2h                                
08049D56 0000     lsl     r0,r0,0h                                
08049D58 0738     lsl     r0,r7,1Ch                               
08049D5A 0300     lsl     r0,r0,0Ch                               
08049D5C 00DC     lsl     r4,r3,3h                                
08049D5E 0300     lsl     r0,r0,0Ch                               
08049D60 FBFF     bl      lr+7FEh                                 
08049D62 0000     lsl     r0,r0,0h                                
08049D64 8860     ldrh    r0,[r4,2h]                              
08049D66 3002     add     r0,2h                                   
08049D68 8060     strh    r0,[r4,2h]                              
08049D6A E02A     b       8049DC2h                                
08049D6C 8860     ldrh    r0,[r4,2h]                              
08049D6E 3840     sub     r0,40h                                  
08049D70 88A1     ldrh    r1,[r4,4h]                              
08049D72 F7C5FCD5 bl      800F720h                                
08049D76 4804     ldr     r0,=30000DCh                            
08049D78 8800     ldrh    r0,[r0]                                 
08049D7A 2807     cmp     r0,7h                                   
08049D7C D106     bne     8049D8Ch                                
08049D7E 8821     ldrh    r1,[r4]                                 
08049D80 1C28     mov     r0,r5                                   
08049D82 4308     orr     r0,r1                                   
08049D84 8020     strh    r0,[r4]                                 
08049D86 E01C     b       8049DC2h                                
08049D88 00DC     lsl     r4,r3,3h                                
08049D8A 0300     lsl     r0,r0,0Ch                               
08049D8C 8860     ldrh    r0,[r4,2h]                              
08049D8E 3802     sub     r0,2h                                   
08049D90 8060     strh    r0,[r4,2h]                              
08049D92 E016     b       8049DC2h                                
08049D94 8820     ldrh    r0,[r4]                                 
08049D96 2304     mov     r3,4h                                   
08049D98 1C02     mov     r2,r0                                   
08049D9A 405A     eor     r2,r3                                   
08049D9C 8022     strh    r2,[r4]                                 
08049D9E 1C21     mov     r1,r4                                   
08049DA0 312C     add     r1,2Ch                                  
08049DA2 7808     ldrb    r0,[r1]                                 
08049DA4 3801     sub     r0,1h                                   
08049DA6 7008     strb    r0,[r1]                                 
08049DA8 0600     lsl     r0,r0,18h                               
08049DAA 2800     cmp     r0,0h                                   
08049DAC D109     bne     8049DC2h                                
08049DAE 431A     orr     r2,r3                                   
08049DB0 8022     strh    r2,[r4]                                 
08049DB2 2025     mov     r0,25h                                  
08049DB4 7028     strb    r0,[r5]                                 
08049DB6 E004     b       8049DC2h                                
08049DB8 4903     ldr     r1,=30001A8h                            
08049DBA 22F0     mov     r2,0F0h                                 
08049DBC 0052     lsl     r2,r2,1h                                
08049DBE 1C10     mov     r0,r2                                   
08049DC0 8008     strh    r0,[r1]                                 
08049DC2 BC70     pop     r4-r6                                   
08049DC4 BC01     pop     r0                                      
08049DC6 4700     bx      r0                                      
08049DC8 01A8     lsl     r0,r5,6h                                
08049DCA 0300     lsl     r0,r0,0Ch                               
08049DCC B570     push    r4-r6,r14                               
08049DCE 4819     ldr     r0,=3000738h                            
08049DD0 1C01     mov     r1,r0                                   
08049DD2 3126     add     r1,26h                                  
08049DD4 2601     mov     r6,1h                                   
08049DD6 700E     strb    r6,[r1]                                 
08049DD8 1C03     mov     r3,r0                                   
08049DDA 3324     add     r3,24h                                  
08049DDC 781A     ldrb    r2,[r3]                                 
08049DDE 1C04     mov     r4,r0                                   
08049DE0 2A00     cmp     r2,0h                                   
08049DE2 D138     bne     8049E56h                                
08049DE4 8821     ldrh    r1,[r4]                                 
08049DE6 4D14     ldr     r5,=8004h                               
08049DE8 1C28     mov     r0,r5                                   
08049DEA 2500     mov     r5,0h                                   
08049DEC 4308     orr     r0,r1                                   
08049DEE 8020     strh    r0,[r4]                                 
08049DF0 1C20     mov     r0,r4                                   
08049DF2 3025     add     r0,25h                                  
08049DF4 7005     strb    r5,[r0]                                 
08049DF6 3002     add     r0,2h                                   
08049DF8 7006     strb    r6,[r0]                                 
08049DFA 3001     add     r0,1h                                   
08049DFC 7006     strb    r6,[r0]                                 
08049DFE 3001     add     r0,1h                                   
08049E00 7006     strb    r6,[r0]                                 
08049E02 8162     strh    r2,[r4,0Ah]                             
08049E04 81A2     strh    r2,[r4,0Ch]                             
08049E06 81E2     strh    r2,[r4,0Eh]                             
08049E08 8222     strh    r2,[r4,10h]                             
08049E0A 480C     ldr     r0,=82B2750h                            
08049E0C 61A0     str     r0,[r4,18h]                             
08049E0E 7725     strb    r5,[r4,1Ch]                             
08049E10 82E2     strh    r2,[r4,16h]                             
08049E12 2009     mov     r0,9h                                   
08049E14 7018     strb    r0,[r3]                                 
08049E16 490A     ldr     r1,=0C41h                               
08049E18 2001     mov     r0,1h                                   
08049E1A F00BFE11 bl      8055A40h                                
08049E1E 4809     ldr     r0,=30001A8h                            
08049E20 8800     ldrh    r0,[r0]                                 
08049E22 2800     cmp     r0,0h                                   
08049E24 D010     beq     8049E48h                                
08049E26 1C20     mov     r0,r4                                   
08049E28 302E     add     r0,2Eh                                  
08049E2A 7005     strb    r5,[r0]                                 
08049E2C 1C21     mov     r1,r4                                   
08049E2E 312F     add     r1,2Fh                                  
08049E30 2010     mov     r0,10h                                  
08049E32 E00F     b       8049E54h                                
08049E34 0738     lsl     r0,r7,1Ch                               
08049E36 0300     lsl     r0,r0,0Ch                               
08049E38 8004     strh    r4,[r0]                                 
08049E3A 0000     lsl     r0,r0,0h                                
08049E3C 2750     mov     r7,50h                                  
08049E3E 082B     lsr     r3,r5,20h                               
08049E40 0C41     lsr     r1,r0,11h                               
08049E42 0000     lsl     r0,r0,0h                                
08049E44 01A8     lsl     r0,r5,6h                                
08049E46 0300     lsl     r0,r0,0Ch                               
08049E48 1C20     mov     r0,r4                                   
08049E4A 302E     add     r0,2Eh                                  
08049E4C 7006     strb    r6,[r0]                                 
08049E4E 1C21     mov     r1,r4                                   
08049E50 312F     add     r1,2Fh                                  
08049E52 2008     mov     r0,8h                                   
08049E54 7008     strb    r0,[r1]                                 
08049E56 480C     ldr     r0,=30001A8h                            
08049E58 8800     ldrh    r0,[r0]                                 
08049E5A 2800     cmp     r0,0h                                   
08049E5C D016     beq     8049E8Ch                                
08049E5E 1C22     mov     r2,r4                                   
08049E60 322E     add     r2,2Eh                                  
08049E62 7810     ldrb    r0,[r2]                                 
08049E64 2800     cmp     r0,0h                                   
08049E66 D01B     beq     8049EA0h                                
08049E68 3801     sub     r0,1h                                   
08049E6A 7010     strb    r0,[r2]                                 
08049E6C 0600     lsl     r0,r0,18h                               
08049E6E 2800     cmp     r0,0h                                   
08049E70 D116     bne     8049EA0h                                
08049E72 1C21     mov     r1,r4                                   
08049E74 312F     add     r1,2Fh                                  
08049E76 7808     ldrb    r0,[r1]                                 
08049E78 280F     cmp     r0,0Fh                                  
08049E7A D811     bhi     8049EA0h                                
08049E7C 3001     add     r0,1h                                   
08049E7E 7008     strb    r0,[r1]                                 
08049E80 2001     mov     r0,1h                                   
08049E82 7010     strb    r0,[r2]                                 
08049E84 E00C     b       8049EA0h                                
08049E86 0000     lsl     r0,r0,0h                                
08049E88 01A8     lsl     r0,r5,6h                                
08049E8A 0300     lsl     r0,r0,0Ch                               
08049E8C 1C21     mov     r1,r4                                   
08049E8E 312F     add     r1,2Fh                                  
08049E90 7808     ldrb    r0,[r1]                                 
08049E92 2808     cmp     r0,8h                                   
08049E94 D004     beq     8049EA0h                                
08049E96 2008     mov     r0,8h                                   
08049E98 7008     strb    r0,[r1]                                 
08049E9A 3901     sub     r1,1h                                   
08049E9C 2001     mov     r0,1h                                   
08049E9E 7008     strb    r0,[r1]                                 
08049EA0 1C20     mov     r0,r4                                   
08049EA2 302F     add     r0,2Fh                                  
08049EA4 7801     ldrb    r1,[r0]                                 
08049EA6 2000     mov     r0,0h                                   
08049EA8 2200     mov     r2,0h                                   
08049EAA 2310     mov     r3,10h                                  
08049EAC F00BFE3A bl      8055B24h                                
08049EB0 BC70     pop     r4-r6                                   
08049EB2 BC01     pop     r0                                      
08049EB4 4700     bx      r0                                      
08049EB6 0000     lsl     r0,r0,0h                                
08049EB8 B570     push    r4-r6,r14                               
08049EBA B083     add     sp,-0Ch                                 
08049EBC 4C07     ldr     r4,=3000738h                            
08049EBE 7F60     ldrb    r0,[r4,1Dh]                             
08049EC0 28AD     cmp     r0,0ADh                                 
08049EC2 D10D     bne     8049EE0h                                
08049EC4 2003     mov     r0,3h                                   
08049EC6 211D     mov     r1,1Dh                                  
08049EC8 F016FCF8 bl      80608BCh                                
08049ECC 2800     cmp     r0,0h                                   
08049ECE D10F     bne     8049EF0h                                
08049ED0 8821     ldrh    r1,[r4]                                 
08049ED2 2010     mov     r0,10h                                  
08049ED4 4308     orr     r0,r1                                   
08049ED6 8020     strh    r0,[r4]                                 
08049ED8 E00D     b       8049EF6h                                
08049EDA 0000     lsl     r0,r0,0h                                
08049EDC 0738     lsl     r0,r7,1Ch                               
08049EDE 0300     lsl     r0,r0,0Ch                               
08049EE0 28AE     cmp     r0,0AEh                                 
08049EE2 D108     bne     8049EF6h                                
08049EE4 2003     mov     r0,3h                                   
08049EE6 2124     mov     r1,24h                                  
08049EE8 F016FCE8 bl      80608BCh                                
08049EEC 2800     cmp     r0,0h                                   
08049EEE D002     beq     8049EF6h                                
08049EF0 2000     mov     r0,0h                                   
08049EF2 8020     strh    r0,[r4]                                 
08049EF4 E06C     b       8049FD0h                                
08049EF6 4C0B     ldr     r4,=3000738h                            
08049EF8 8821     ldrh    r1,[r4]                                 
08049EFA 2040     mov     r0,40h                                  
08049EFC 4308     orr     r0,r1                                   
08049EFE 8020     strh    r0,[r4]                                 
08049F00 88A0     ldrh    r0,[r4,4h]                              
08049F02 300C     add     r0,0Ch                                  
08049F04 80A0     strh    r0,[r4,4h]                              
08049F06 8866     ldrh    r6,[r4,2h]                              
08049F08 88A5     ldrh    r5,[r4,4h]                              
08049F0A 1C28     mov     r0,r5                                   
08049F0C 1C31     mov     r1,r6                                   
08049F0E 2200     mov     r2,0h                                   
08049F10 F00DFCFC bl      805790Ch                                
08049F14 8821     ldrh    r1,[r4]                                 
08049F16 2040     mov     r0,40h                                  
08049F18 4008     and     r0,r1                                   
08049F1A 2800     cmp     r0,0h                                   
08049F1C D004     beq     8049F28h                                
08049F1E 1C28     mov     r0,r5                                   
08049F20 3010     add     r0,10h                                  
08049F22 E003     b       8049F2Ch                                
08049F24 0738     lsl     r0,r7,1Ch                               
08049F26 0300     lsl     r0,r0,0Ch                               
08049F28 1C28     mov     r0,r5                                   
08049F2A 3810     sub     r0,10h                                  
08049F2C 0400     lsl     r0,r0,10h                               
08049F2E 0C05     lsr     r5,r0,10h                               
08049F30 4C09     ldr     r4,=3000738h                            
08049F32 7FA1     ldrb    r1,[r4,1Eh]                             
08049F34 7FE2     ldrb    r2,[r4,1Fh]                             
08049F36 1C20     mov     r0,r4                                   
08049F38 3023     add     r0,23h                                  
08049F3A 7803     ldrb    r3,[r0]                                 
08049F3C 9600     str     r6,[sp]                                 
08049F3E 9501     str     r5,[sp,4h]                              
08049F40 2500     mov     r5,0h                                   
08049F42 9502     str     r5,[sp,8h]                              
08049F44 2036     mov     r0,36h                                  
08049F46 F7C4F987 bl      800E258h                                
08049F4A 0600     lsl     r0,r0,18h                               
08049F4C 0E00     lsr     r0,r0,18h                               
08049F4E 28FF     cmp     r0,0FFh                                 
08049F50 D104     bne     8049F5Ch                                
08049F52 8025     strh    r5,[r4]                                 
08049F54 E03C     b       8049FD0h                                
08049F56 0000     lsl     r0,r0,0h                                
08049F58 0738     lsl     r0,r7,1Ch                               
08049F5A 0300     lsl     r0,r0,0Ch                               
08049F5C 1C21     mov     r1,r4                                   
08049F5E 3124     add     r1,24h                                  
08049F60 2008     mov     r0,8h                                   
08049F62 7008     strb    r0,[r1]                                 
08049F64 1C20     mov     r0,r4                                   
08049F66 3027     add     r0,27h                                  
08049F68 2128     mov     r1,28h                                  
08049F6A 7001     strb    r1,[r0]                                 
08049F6C 3001     add     r0,1h                                   
08049F6E 7001     strb    r1,[r0]                                 
08049F70 1C21     mov     r1,r4                                   
08049F72 3129     add     r1,29h                                  
08049F74 2010     mov     r0,10h                                  
08049F76 7008     strb    r0,[r1]                                 
08049F78 2100     mov     r1,0h                                   
08049F7A 4817     ldr     r0,=0FF88h                              
08049F7C 8160     strh    r0,[r4,0Ah]                             
08049F7E 2078     mov     r0,78h                                  
08049F80 81A0     strh    r0,[r4,0Ch]                             
08049F82 4816     ldr     r0,=0FFECh                              
08049F84 81E0     strh    r0,[r4,0Eh]                             
08049F86 2014     mov     r0,14h                                  
08049F88 8220     strh    r0,[r4,10h]                             
08049F8A 4815     ldr     r0,=8318724h                            
08049F8C 61A0     str     r0,[r4,18h]                             
08049F8E 7721     strb    r1,[r4,1Ch]                             
08049F90 82E5     strh    r5,[r4,16h]                             
08049F92 1C21     mov     r1,r4                                   
08049F94 3125     add     r1,25h                                  
08049F96 2004     mov     r0,4h                                   
08049F98 7008     strb    r0,[r1]                                 
08049F9A 3903     sub     r1,3h                                   
08049F9C 2005     mov     r0,5h                                   
08049F9E 7008     strb    r0,[r1]                                 
08049FA0 4810     ldr     r0,=3000088h                            
08049FA2 7B01     ldrb    r1,[r0,0Ch]                             
08049FA4 2003     mov     r0,3h                                   
08049FA6 4008     and     r0,r1                                   
08049FA8 1C21     mov     r1,r4                                   
08049FAA 3121     add     r1,21h                                  
08049FAC 7008     strb    r0,[r1]                                 
08049FAE 4A0E     ldr     r2,=82B0D68h                            
08049FB0 7F61     ldrb    r1,[r4,1Dh]                             
08049FB2 00C8     lsl     r0,r1,3h                                
08049FB4 1840     add     r0,r0,r1                                
08049FB6 0040     lsl     r0,r0,1h                                
08049FB8 1880     add     r0,r0,r2                                
08049FBA 8800     ldrh    r0,[r0]                                 
08049FBC 82A0     strh    r0,[r4,14h]                             
08049FBE 1C08     mov     r0,r1                                   
08049FC0 28AE     cmp     r0,0AEh                                 
08049FC2 D105     bne     8049FD0h                                
08049FC4 1C20     mov     r0,r4                                   
08049FC6 3034     add     r0,34h                                  
08049FC8 2101     mov     r1,1h                                   
08049FCA 7001     strb    r1,[r0]                                 
08049FCC 3814     sub     r0,14h                                  
08049FCE 7001     strb    r1,[r0]                                 
08049FD0 B003     add     sp,0Ch                                  
08049FD2 BC70     pop     r4-r6                                   
08049FD4 BC01     pop     r0                                      
08049FD6 4700     bx      r0                                      
08049FD8 FF88     bl      lr+0F10h                                
08049FDA 0000     lsl     r0,r0,0h                                
08049FDC FFEC     bl      lr+0FD8h                                
08049FDE 0000     lsl     r0,r0,0h                                
08049FE0 8724     strh    r4,[r4,38h]                             
08049FE2 0831     lsr     r1,r6,20h                               
08049FE4 0088     lsl     r0,r1,2h                                
08049FE6 0300     lsl     r0,r0,0Ch                               
08049FE8 0D68     lsr     r0,r5,15h                               
08049FEA 082B     lsr     r3,r5,20h                               
08049FEC 4908     ldr     r1,=3000738h                            
08049FEE 1C0A     mov     r2,r1                                   
08049FF0 3224     add     r2,24h                                  
08049FF2 2300     mov     r3,0h                                   
08049FF4 2009     mov     r0,9h                                   
08049FF6 7010     strb    r0,[r2]                                 
08049FF8 4806     ldr     r0,=8318724h                            
08049FFA 6188     str     r0,[r1,18h]                             
08049FFC 770B     strb    r3,[r1,1Ch]                             
08049FFE 82CB     strh    r3,[r1,16h]                             
0804A000 4805     ldr     r0,=300083Ch                            
0804A002 7800     ldrb    r0,[r0]                                 
0804A004 0080     lsl     r0,r0,2h                                
0804A006 303D     add     r0,3Dh                                  
0804A008 312C     add     r1,2Ch                                  
0804A00A 7008     strb    r0,[r1]                                 
0804A00C 4770     bx      r14                                     
0804A00E 0000     lsl     r0,r0,0h                                
0804A010 0738     lsl     r0,r7,1Ch                               
0804A012 0300     lsl     r0,r0,0Ch                               
0804A014 8724     strh    r4,[r4,38h]                             
0804A016 0831     lsr     r1,r6,20h                               
0804A018 083C     lsr     r4,r7,20h                               
0804A01A 0300     lsl     r0,r0,0Ch                               
0804A01C B570     push    r4-r6,r14                               
0804A01E 4C0D     ldr     r4,=3000738h                            
0804A020 1C26     mov     r6,r4                                   
0804A022 362C     add     r6,2Ch                                  
0804A024 7830     ldrb    r0,[r6]                                 
0804A026 3801     sub     r0,1h                                   
0804A028 7030     strb    r0,[r6]                                 
0804A02A 0600     lsl     r0,r0,18h                               
0804A02C 0E05     lsr     r5,r0,18h                               
0804A02E 2D00     cmp     r5,0h                                   
0804A030 D119     bne     804A066h                                
0804A032 21E0     mov     r1,0E0h                                 
0804A034 0049     lsl     r1,r1,1h                                
0804A036 2080     mov     r0,80h                                  
0804A038 2200     mov     r2,0h                                   
0804A03A F7C5FF39 bl      800FEB0h                                
0804A03E 2803     cmp     r0,3h                                   
0804A040 D10C     bne     804A05Ch                                
0804A042 1C20     mov     r0,r4                                   
0804A044 3024     add     r0,24h                                  
0804A046 2123     mov     r1,23h                                  
0804A048 7001     strb    r1,[r0]                                 
0804A04A 4803     ldr     r0,=831874Ch                            
0804A04C 61A0     str     r0,[r4,18h]                             
0804A04E 7725     strb    r5,[r4,1Ch]                             
0804A050 82E5     strh    r5,[r4,16h]                             
0804A052 E008     b       804A066h                                
0804A054 0738     lsl     r0,r7,1Ch                               
0804A056 0300     lsl     r0,r0,0Ch                               
0804A058 874C     strh    r4,[r1,3Ah]                             
0804A05A 0831     lsr     r1,r6,20h                               
0804A05C 4803     ldr     r0,=300083Ch                            
0804A05E 7800     ldrb    r0,[r0]                                 
0804A060 0080     lsl     r0,r0,2h                                
0804A062 303D     add     r0,3Dh                                  
0804A064 7030     strb    r0,[r6]                                 
0804A066 BC70     pop     r4-r6                                   
0804A068 BC01     pop     r0                                      
0804A06A 4700     bx      r0                                      
0804A06C 083C     lsr     r4,r7,20h                               
0804A06E 0300     lsl     r0,r0,0Ch                               
0804A070 B500     push    r14                                     
0804A072 F7C5FDA9 bl      800FBC8h                                
0804A076 2800     cmp     r0,0h                                   
0804A078 D00C     beq     804A094h                                
0804A07A 4907     ldr     r1,=3000738h                            
0804A07C 1C0A     mov     r2,r1                                   
0804A07E 3224     add     r2,24h                                  
0804A080 2300     mov     r3,0h                                   
0804A082 2025     mov     r0,25h                                  
0804A084 7010     strb    r0,[r2]                                 
0804A086 4805     ldr     r0,=8318784h                            
0804A088 6188     str     r0,[r1,18h]                             
0804A08A 770B     strb    r3,[r1,1Ch]                             
0804A08C 82CB     strh    r3,[r1,16h]                             
0804A08E 4804     ldr     r0,=25Ah                                
0804A090 F7B8FCC2 bl      8002A18h                                
0804A094 BC01     pop     r0                                      
0804A096 4700     bx      r0                                      
0804A098 0738     lsl     r0,r7,1Ch                               
0804A09A 0300     lsl     r0,r0,0Ch                               
0804A09C 8784     strh    r4,[r0,3Ch]                             
0804A09E 0831     lsr     r1,r6,20h                               
0804A0A0 025A     lsl     r2,r3,9h                                
0804A0A2 0000     lsl     r0,r0,0h                                
0804A0A4 B530     push    r4,r5,r14                               
0804A0A6 B083     add     sp,-0Ch                                 
0804A0A8 F7C5FD8E bl      800FBC8h                                
0804A0AC 2800     cmp     r0,0h                                   
0804A0AE D025     beq     804A0FCh                                
0804A0B0 4814     ldr     r0,=3000738h                            
0804A0B2 4684     mov     r12,r0                                  
0804A0B4 4661     mov     r1,r12                                  
0804A0B6 3124     add     r1,24h                                  
0804A0B8 2200     mov     r2,0h                                   
0804A0BA 2027     mov     r0,27h                                  
0804A0BC 7008     strb    r0,[r1]                                 
0804A0BE 4812     ldr     r0,=831886Ch                            
0804A0C0 4661     mov     r1,r12                                  
0804A0C2 6188     str     r0,[r1,18h]                             
0804A0C4 770A     strb    r2,[r1,1Ch]                             
0804A0C6 82CA     strh    r2,[r1,16h]                             
0804A0C8 312C     add     r1,2Ch                                  
0804A0CA 203C     mov     r0,3Ch                                  
0804A0CC 7008     strb    r0,[r1]                                 
0804A0CE 4662     mov     r2,r12                                  
0804A0D0 7F50     ldrb    r0,[r2,1Dh]                             
0804A0D2 28AE     cmp     r0,0AEh                                 
0804A0D4 D112     bne     804A0FCh                                
0804A0D6 2058     mov     r0,58h                                  
0804A0D8 7008     strb    r0,[r1]                                 
0804A0DA 8890     ldrh    r0,[r2,4h]                              
0804A0DC 3010     add     r0,10h                                  
0804A0DE 0400     lsl     r0,r0,10h                               
0804A0E0 0C00     lsr     r0,r0,10h                               
0804A0E2 2440     mov     r4,40h                                  
0804A0E4 7FD2     ldrb    r2,[r2,1Fh]                             
0804A0E6 3909     sub     r1,9h                                   
0804A0E8 780B     ldrb    r3,[r1]                                 
0804A0EA 4665     mov     r5,r12                                  
0804A0EC 8869     ldrh    r1,[r5,2h]                              
0804A0EE 9100     str     r1,[sp]                                 
0804A0F0 9001     str     r0,[sp,4h]                              
0804A0F2 9402     str     r4,[sp,8h]                              
0804A0F4 2037     mov     r0,37h                                  
0804A0F6 2100     mov     r1,0h                                   
0804A0F8 F7C4F8AE bl      800E258h                                
0804A0FC B003     add     sp,0Ch                                  
0804A0FE BC30     pop     r4,r5                                   
0804A100 BC01     pop     r0                                      
0804A102 4700     bx      r0                                      
0804A104 0738     lsl     r0,r7,1Ch                               
0804A106 0300     lsl     r0,r0,0Ch                               
0804A108 886C     ldrh    r4,[r5,2h]                              
0804A10A 0831     lsr     r1,r6,20h                               
0804A10C B530     push    r4,r5,r14                               
0804A10E 4C09     ldr     r4,=3000738h                            
0804A110 1C21     mov     r1,r4                                   
0804A112 312C     add     r1,2Ch                                  
0804A114 7808     ldrb    r0,[r1]                                 
0804A116 1C02     mov     r2,r0                                   
0804A118 2A00     cmp     r2,0h                                   
0804A11A D111     bne     804A140h                                
0804A11C 3908     sub     r1,8h                                   
0804A11E 2029     mov     r0,29h                                  
0804A120 7008     strb    r0,[r1]                                 
0804A122 4805     ldr     r0,=831881Ch                            
0804A124 61A0     str     r0,[r4,18h]                             
0804A126 7722     strb    r2,[r4,1Ch]                             
0804A128 82E2     strh    r2,[r4,16h]                             
0804A12A 4804     ldr     r0,=25Bh                                
0804A12C F7B8FC74 bl      8002A18h                                
0804A130 E020     b       804A174h                                
0804A132 0000     lsl     r0,r0,0h                                
0804A134 0738     lsl     r0,r7,1Ch                               
0804A136 0300     lsl     r0,r0,0Ch                               
0804A138 881C     ldrh    r4,[r3]                                 
0804A13A 0831     lsr     r1,r6,20h                               
0804A13C 025B     lsl     r3,r3,9h                                
0804A13E 0000     lsl     r0,r0,0h                                
0804A140 1E42     sub     r2,r0,1                                 
0804A142 2500     mov     r5,0h                                   
0804A144 700A     strb    r2,[r1]                                 
0804A146 69A1     ldr     r1,[r4,18h]                             
0804A148 4804     ldr     r0,=831886Ch                            
0804A14A 4281     cmp     r1,r0                                   
0804A14C D10A     bne     804A164h                                
0804A14E F7C5FD3B bl      800FBC8h                                
0804A152 2800     cmp     r0,0h                                   
0804A154 D00E     beq     804A174h                                
0804A156 4802     ldr     r0,=83187E4h                            
0804A158 E009     b       804A16Eh                                
0804A15A 0000     lsl     r0,r0,0h                                
0804A15C 886C     ldrh    r4,[r5,2h]                              
0804A15E 0831     lsr     r1,r6,20h                               
0804A160 87E4     strh    r4,[r4,3Eh]                             
0804A162 0831     lsr     r1,r6,20h                               
0804A164 0610     lsl     r0,r2,18h                               
0804A166 0E00     lsr     r0,r0,18h                               
0804A168 2807     cmp     r0,7h                                   
0804A16A D103     bne     804A174h                                
0804A16C 4803     ldr     r0,=83188A4h                            
0804A16E 61A0     str     r0,[r4,18h]                             
0804A170 7725     strb    r5,[r4,1Ch]                             
0804A172 82E5     strh    r5,[r4,16h]                             
0804A174 BC30     pop     r4,r5                                   
0804A176 BC01     pop     r0                                      
0804A178 4700     bx      r0                                      
0804A17A 0000     lsl     r0,r0,0h                                
0804A17C 88A4     ldrh    r4,[r4,4h]                              
0804A17E 0831     lsr     r1,r6,20h                               
0804A180 B500     push    r14                                     
0804A182 F7C5FD3D bl      800FC00h                                
0804A186 2800     cmp     r0,0h                                   
0804A188 D003     beq     804A192h                                
0804A18A 4803     ldr     r0,=3000738h                            
0804A18C 3024     add     r0,24h                                  
0804A18E 2108     mov     r1,8h                                   
0804A190 7001     strb    r1,[r0]                                 
0804A192 BC01     pop     r0                                      
0804A194 4700     bx      r0                                      
0804A196 0000     lsl     r0,r0,0h                                
0804A198 0738     lsl     r0,r7,1Ch                               
0804A19A 0300     lsl     r0,r0,0Ch                               
0804A19C 4809     ldr     r0,=3000738h                            
0804A19E 4684     mov     r12,r0                                  
0804A1A0 4661     mov     r1,r12                                  
0804A1A2 3124     add     r1,24h                                  
0804A1A4 2200     mov     r2,0h                                   
0804A1A6 2067     mov     r0,67h                                  
0804A1A8 7008     strb    r0,[r1]                                 
0804A1AA 4807     ldr     r0,=8318844h                            
0804A1AC 4661     mov     r1,r12                                  
0804A1AE 6188     str     r0,[r1,18h]                             
0804A1B0 770A     strb    r2,[r1,1Ch]                             
0804A1B2 2300     mov     r3,0h                                   
0804A1B4 82CA     strh    r2,[r1,16h]                             
0804A1B6 312C     add     r1,2Ch                                  
0804A1B8 2028     mov     r0,28h                                  
0804A1BA 7008     strb    r0,[r1]                                 
0804A1BC 4660     mov     r0,r12                                  
0804A1BE 3025     add     r0,25h                                  
0804A1C0 7003     strb    r3,[r0]                                 
0804A1C2 4770     bx      r14                                     
0804A1C4 0738     lsl     r0,r7,1Ch                               
0804A1C6 0300     lsl     r0,r0,0Ch                               
0804A1C8 8844     ldrh    r4,[r0,2h]                              
0804A1CA 0831     lsr     r1,r6,20h                               
0804A1CC B5F0     push    r4-r7,r14                               
0804A1CE B083     add     sp,-0Ch                                 
0804A1D0 4C0D     ldr     r4,=3000738h                            
0804A1D2 1C21     mov     r1,r4                                   
0804A1D4 312C     add     r1,2Ch                                  
0804A1D6 7808     ldrb    r0,[r1]                                 
0804A1D8 3801     sub     r0,1h                                   
0804A1DA 7008     strb    r0,[r1]                                 
0804A1DC 0600     lsl     r0,r0,18h                               
0804A1DE 0E01     lsr     r1,r0,18h                               
0804A1E0 1C0A     mov     r2,r1                                   
0804A1E2 2003     mov     r0,3h                                   
0804A1E4 4008     and     r0,r1                                   
0804A1E6 2800     cmp     r0,0h                                   
0804A1E8 D152     bne     804A290h                                
0804A1EA 2004     mov     r0,4h                                   
0804A1EC 4008     and     r0,r1                                   
0804A1EE 2800     cmp     r0,0h                                   
0804A1F0 D00C     beq     804A20Ch                                
0804A1F2 1C20     mov     r0,r4                                   
0804A1F4 3033     add     r0,33h                                  
0804A1F6 7800     ldrb    r0,[r0]                                 
0804A1F8 7FE1     ldrb    r1,[r4,1Fh]                             
0804A1FA 1840     add     r0,r0,r1                                
0804A1FC 210E     mov     r1,0Eh                                  
0804A1FE 1A09     sub     r1,r1,r0                                
0804A200 1C20     mov     r0,r4                                   
0804A202 3020     add     r0,20h                                  
0804A204 7001     strb    r1,[r0]                                 
0804A206 E043     b       804A290h                                
0804A208 0738     lsl     r0,r7,1Ch                               
0804A20A 0300     lsl     r0,r0,0Ch                               
0804A20C 1C20     mov     r0,r4                                   
0804A20E 3034     add     r0,34h                                  
0804A210 7801     ldrb    r1,[r0]                                 
0804A212 3814     sub     r0,14h                                  
0804A214 7001     strb    r1,[r0]                                 
0804A216 2A00     cmp     r2,0h                                   
0804A218 D13A     bne     804A290h                                
0804A21A 8866     ldrh    r6,[r4,2h]                              
0804A21C 88A5     ldrh    r5,[r4,4h]                              
0804A21E 1C28     mov     r0,r5                                   
0804A220 1C31     mov     r1,r6                                   
0804A222 2201     mov     r2,1h                                   
0804A224 F00DFB72 bl      805790Ch                                
0804A228 7F60     ldrb    r0,[r4,1Dh]                             
0804A22A 28AD     cmp     r0,0ADh                                 
0804A22C D104     bne     804A238h                                
0804A22E 2001     mov     r0,1h                                   
0804A230 211D     mov     r1,1Dh                                  
0804A232 F016FB43 bl      80608BCh                                
0804A236 E005     b       804A244h                                
0804A238 28AE     cmp     r0,0AEh                                 
0804A23A D103     bne     804A244h                                
0804A23C 2001     mov     r0,1h                                   
0804A23E 2124     mov     r1,24h                                  
0804A240 F016FB3C bl      80608BCh                                
0804A244 4814     ldr     r0,=300083Ch                            
0804A246 7804     ldrb    r4,[r0]                                 
0804A248 1C28     mov     r0,r5                                   
0804A24A 3010     add     r0,10h                                  
0804A24C 0400     lsl     r0,r0,10h                               
0804A24E 0C05     lsr     r5,r0,10h                               
0804A250 1C21     mov     r1,r4                                   
0804A252 3948     sub     r1,48h                                  
0804A254 1A71     sub     r1,r6,r1                                
0804A256 1B2A     sub     r2,r5,r4                                
0804A258 2022     mov     r0,22h                                  
0804A25A 9000     str     r0,[sp]                                 
0804A25C 2000     mov     r0,0h                                   
0804A25E 2301     mov     r3,1h                                   
0804A260 F7C6FF10 bl      8011084h                                
0804A264 4A0D     ldr     r2,=3000738h                            
0804A266 8810     ldrh    r0,[r2]                                 
0804A268 2800     cmp     r0,0h                                   
0804A26A D011     beq     804A290h                                
0804A26C 2001     mov     r0,1h                                   
0804A26E 4004     and     r4,r0                                   
0804A270 271C     mov     r7,1Ch                                  
0804A272 2C00     cmp     r4,0h                                   
0804A274 D000     beq     804A278h                                
0804A276 271A     mov     r7,1Ah                                  
0804A278 7F91     ldrb    r1,[r2,1Eh]                             
0804A27A 1C10     mov     r0,r2                                   
0804A27C 3023     add     r0,23h                                  
0804A27E 7803     ldrb    r3,[r0]                                 
0804A280 9600     str     r6,[sp]                                 
0804A282 9501     str     r5,[sp,4h]                              
0804A284 2000     mov     r0,0h                                   
0804A286 9002     str     r0,[sp,8h]                              
0804A288 1C38     mov     r0,r7                                   
0804A28A 2200     mov     r2,0h                                   
0804A28C F7C4F8A2 bl      800E3D4h                                
0804A290 B003     add     sp,0Ch                                  
0804A292 BCF0     pop     r4-r7                                   
0804A294 BC01     pop     r0                                      
0804A296 4700     bx      r0                                      
0804A298 083C     lsr     r4,r7,20h                               
0804A29A 0300     lsl     r0,r0,0Ch                               
0804A29C 0738     lsl     r0,r7,1Ch                               
0804A29E 0300     lsl     r0,r0,0Ch                               
0804A2A0 B500     push    r14                                     
0804A2A2 4809     ldr     r0,=3000738h                            
0804A2A4 3024     add     r0,24h                                  
0804A2A6 7800     ldrb    r0,[r0]                                 
0804A2A8 2827     cmp     r0,27h                                  
0804A2AA D028     beq     804A2FEh                                
0804A2AC 2827     cmp     r0,27h                                  
0804A2AE DC13     bgt     804A2D8h                                
0804A2B0 2823     cmp     r0,23h                                  
0804A2B2 D01E     beq     804A2F2h                                
0804A2B4 2823     cmp     r0,23h                                  
0804A2B6 DC0C     bgt     804A2D2h                                
0804A2B8 2808     cmp     r0,8h                                   
0804A2BA D015     beq     804A2E8h                                
0804A2BC 2808     cmp     r0,8h                                   
0804A2BE DC05     bgt     804A2CCh                                
0804A2C0 2800     cmp     r0,0h                                   
0804A2C2 D00E     beq     804A2E2h                                
0804A2C4 E024     b       804A310h                                
0804A2C6 0000     lsl     r0,r0,0h                                
0804A2C8 0738     lsl     r0,r7,1Ch                               
0804A2CA 0300     lsl     r0,r0,0Ch                               
0804A2CC 2809     cmp     r0,9h                                   
0804A2CE D00D     beq     804A2ECh                                
0804A2D0 E01E     b       804A310h                                
0804A2D2 2825     cmp     r0,25h                                  
0804A2D4 D010     beq     804A2F8h                                
0804A2D6 E01B     b       804A310h                                
0804A2D8 2829     cmp     r0,29h                                  
0804A2DA D013     beq     804A304h                                
0804A2DC 2867     cmp     r0,67h                                  
0804A2DE D014     beq     804A30Ah                                
0804A2E0 E016     b       804A310h                                
0804A2E2 F7FFFDE9 bl      8049EB8h                                
0804A2E6 E015     b       804A314h                                
0804A2E8 F7FFFE80 bl      8049FECh                                
0804A2EC F7FFFE96 bl      804A01Ch                                
0804A2F0 E010     b       804A314h                                
0804A2F2 F7FFFEBD bl      804A070h                                
0804A2F6 E00D     b       804A314h                                
0804A2F8 F7FFFED4 bl      804A0A4h                                
0804A2FC E00A     b       804A314h                                
0804A2FE F7FFFF05 bl      804A10Ch                                
0804A302 E007     b       804A314h                                
0804A304 F7FFFF3C bl      804A180h                                
0804A308 E004     b       804A314h                                
0804A30A F7FFFF5F bl      804A1CCh                                
0804A30E E001     b       804A314h                                
0804A310 F7FFFF44 bl      804A19Ch                                
0804A314 BC01     pop     r0                                      
0804A316 4700     bx      r0                                      
0804A318 B530     push    r4,r5,r14                               
0804A31A B081     add     sp,-4h                                  
0804A31C 4919     ldr     r1,=3000738h                            
0804A31E 1C0A     mov     r2,r1                                   
0804A320 3226     add     r2,26h                                  
0804A322 2001     mov     r0,1h                                   
0804A324 7010     strb    r0,[r2]                                 
0804A326 1C0B     mov     r3,r1                                   
0804A328 3332     add     r3,32h                                  
0804A32A 781A     ldrb    r2,[r3]                                 
0804A32C 2402     mov     r4,2h                                   
0804A32E 1C20     mov     r0,r4                                   
0804A330 4010     and     r0,r2                                   
0804A332 2800     cmp     r0,0h                                   
0804A334 D00A     beq     804A34Ch                                
0804A336 20FD     mov     r0,0FDh                                 
0804A338 4010     and     r0,r2                                   
0804A33A 7018     strb    r0,[r3]                                 
0804A33C 8809     ldrh    r1,[r1]                                 
0804A33E 1C20     mov     r0,r4                                   
0804A340 4008     and     r0,r1                                   
0804A342 2800     cmp     r0,0h                                   
0804A344 D002     beq     804A34Ch                                
0804A346 4810     ldr     r0,=25Eh                                
0804A348 F7B8FB66 bl      8002A18h                                
0804A34C 490D     ldr     r1,=3000738h                            
0804A34E 1C08     mov     r0,r1                                   
0804A350 3023     add     r0,23h                                  
0804A352 7802     ldrb    r2,[r0]                                 
0804A354 8A88     ldrh    r0,[r1,14h]                             
0804A356 1C0B     mov     r3,r1                                   
0804A358 2800     cmp     r0,0h                                   
0804A35A D009     beq     804A370h                                
0804A35C 490B     ldr     r1,=30001ACh                            
0804A35E 00D0     lsl     r0,r2,3h                                
0804A360 1A80     sub     r0,r0,r2                                
0804A362 00C0     lsl     r0,r0,3h                                
0804A364 1840     add     r0,r0,r1                                
0804A366 1C19     mov     r1,r3                                   
0804A368 3120     add     r1,20h                                  
0804A36A 7809     ldrb    r1,[r1]                                 
0804A36C 3020     add     r0,20h                                  
0804A36E 7001     strb    r1,[r0]                                 
0804A370 1C1D     mov     r5,r3                                   
0804A372 3524     add     r5,24h                                  
0804A374 782C     ldrb    r4,[r5]                                 
0804A376 2C62     cmp     r4,62h                                  
0804A378 D056     beq     804A428h                                
0804A37A 2C62     cmp     r4,62h                                  
0804A37C DC08     bgt     804A390h                                
0804A37E 2C00     cmp     r4,0h                                   
0804A380 D009     beq     804A396h                                
0804A382 E089     b       804A498h                                
0804A384 0738     lsl     r0,r7,1Ch                               
0804A386 0300     lsl     r0,r0,0Ch                               
0804A388 025E     lsl     r6,r3,9h                                
0804A38A 0000     lsl     r0,r0,0h                                
0804A38C 01AC     lsl     r4,r5,6h                                
0804A38E 0300     lsl     r0,r0,0Ch                               
0804A390 2C67     cmp     r4,67h                                  
0804A392 D067     beq     804A464h                                
0804A394 E080     b       804A498h                                
0804A396 4808     ldr     r0,=3000088h                            
0804A398 7B01     ldrb    r1,[r0,0Ch]                             
0804A39A 2003     mov     r0,3h                                   
0804A39C 4008     and     r0,r1                                   
0804A39E 1C19     mov     r1,r3                                   
0804A3A0 3121     add     r1,21h                                  
0804A3A2 7008     strb    r0,[r1]                                 
0804A3A4 4905     ldr     r1,=30001ACh                            
0804A3A6 00D0     lsl     r0,r2,3h                                
0804A3A8 1A80     sub     r0,r0,r2                                
0804A3AA 00C0     lsl     r0,r0,3h                                
0804A3AC 1840     add     r0,r0,r1                                
0804A3AE 7F40     ldrb    r0,[r0,1Dh]                             
0804A3B0 28AD     cmp     r0,0ADh                                 
0804A3B2 D105     bne     804A3C0h                                
0804A3B4 2001     mov     r0,1h                                   
0804A3B6 E010     b       804A3DAh                                
0804A3B8 0088     lsl     r0,r1,2h                                
0804A3BA 0300     lsl     r0,r0,0Ch                               
0804A3BC 01AC     lsl     r4,r5,6h                                
0804A3BE 0300     lsl     r0,r0,0Ch                               
0804A3C0 1C18     mov     r0,r3                                   
0804A3C2 3034     add     r0,34h                                  
0804A3C4 2101     mov     r1,1h                                   
0804A3C6 7001     strb    r1,[r0]                                 
0804A3C8 3814     sub     r0,14h                                  
0804A3CA 7001     strb    r1,[r0]                                 
0804A3CC 4A12     ldr     r2,=82B1BE4h                            
0804A3CE 7F59     ldrb    r1,[r3,1Dh]                             
0804A3D0 00C8     lsl     r0,r1,3h                                
0804A3D2 1840     add     r0,r0,r1                                
0804A3D4 0040     lsl     r0,r0,1h                                
0804A3D6 1880     add     r0,r0,r2                                
0804A3D8 8800     ldrh    r0,[r0]                                 
0804A3DA 8298     strh    r0,[r3,14h]                             
0804A3DC 1C18     mov     r0,r3                                   
0804A3DE 3027     add     r0,27h                                  
0804A3E0 2200     mov     r2,0h                                   
0804A3E2 2108     mov     r1,8h                                   
0804A3E4 7001     strb    r1,[r0]                                 
0804A3E6 3001     add     r0,1h                                   
0804A3E8 7001     strb    r1,[r0]                                 
0804A3EA 3001     add     r0,1h                                   
0804A3EC 7001     strb    r1,[r0]                                 
0804A3EE 2100     mov     r1,0h                                   
0804A3F0 480A     ldr     r0,=0FFD8h                              
0804A3F2 8158     strh    r0,[r3,0Ah]                             
0804A3F4 2028     mov     r0,28h                                  
0804A3F6 8198     strh    r0,[r3,0Ch]                             
0804A3F8 4809     ldr     r0,=0FFF0h                              
0804A3FA 81D8     strh    r0,[r3,0Eh]                             
0804A3FC 2010     mov     r0,10h                                  
0804A3FE 8218     strh    r0,[r3,10h]                             
0804A400 4808     ldr     r0,=82B2750h                            
0804A402 6198     str     r0,[r3,18h]                             
0804A404 7719     strb    r1,[r3,1Ch]                             
0804A406 82DA     strh    r2,[r3,16h]                             
0804A408 1C18     mov     r0,r3                                   
0804A40A 3025     add     r0,25h                                  
0804A40C 7001     strb    r1,[r0]                                 
0804A40E 1C19     mov     r1,r3                                   
0804A410 3124     add     r1,24h                                  
0804A412 2009     mov     r0,9h                                   
0804A414 7008     strb    r0,[r1]                                 
0804A416 E063     b       804A4E0h                                
0804A418 1BE4     sub     r4,r4,r7                                
0804A41A 082B     lsr     r3,r5,20h                               
0804A41C FFD8     bl      lr+0FB0h                                
0804A41E 0000     lsl     r0,r0,0h                                
0804A420 FFF0     bl      lr+0FE0h                                
0804A422 0000     lsl     r0,r0,0h                                
0804A424 2750     mov     r7,50h                                  
0804A426 082B     lsr     r3,r5,20h                               
0804A428 490D     ldr     r1,=30001ACh                            
0804A42A 00D0     lsl     r0,r2,3h                                
0804A42C 1A80     sub     r0,r0,r2                                
0804A42E 00C0     lsl     r0,r0,3h                                
0804A430 1842     add     r2,r0,r1                                
0804A432 1C10     mov     r0,r2                                   
0804A434 3024     add     r0,24h                                  
0804A436 2100     mov     r1,0h                                   
0804A438 7004     strb    r4,[r0]                                 
0804A43A 1C14     mov     r4,r2                                   
0804A43C 3426     add     r4,26h                                  
0804A43E 2001     mov     r0,1h                                   
0804A440 7020     strb    r0,[r4]                                 
0804A442 8291     strh    r1,[r2,14h]                             
0804A444 2067     mov     r0,67h                                  
0804A446 7028     strb    r0,[r5]                                 
0804A448 8819     ldrh    r1,[r3]                                 
0804A44A 2280     mov     r2,80h                                  
0804A44C 0212     lsl     r2,r2,8h                                
0804A44E 1C10     mov     r0,r2                                   
0804A450 4308     orr     r0,r1                                   
0804A452 8018     strh    r0,[r3]                                 
0804A454 1C19     mov     r1,r3                                   
0804A456 312C     add     r1,2Ch                                  
0804A458 2028     mov     r0,28h                                  
0804A45A 7008     strb    r0,[r1]                                 
0804A45C E040     b       804A4E0h                                
0804A45E 0000     lsl     r0,r0,0h                                
0804A460 01AC     lsl     r4,r5,6h                                
0804A462 0300     lsl     r0,r0,0Ch                               
0804A464 1C19     mov     r1,r3                                   
0804A466 312C     add     r1,2Ch                                  
0804A468 7808     ldrb    r0,[r1]                                 
0804A46A 3801     sub     r0,1h                                   
0804A46C 7008     strb    r0,[r1]                                 
0804A46E 0600     lsl     r0,r0,18h                               
0804A470 2800     cmp     r0,0h                                   
0804A472 D135     bne     804A4E0h                                
0804A474 4807     ldr     r0,=300083Ch                            
0804A476 7802     ldrb    r2,[r0]                                 
0804A478 1C11     mov     r1,r2                                   
0804A47A 3944     sub     r1,44h                                  
0804A47C 8858     ldrh    r0,[r3,2h]                              
0804A47E 1809     add     r1,r1,r0                                
0804A480 3210     add     r2,10h                                  
0804A482 889B     ldrh    r3,[r3,4h]                              
0804A484 18D2     add     r2,r2,r3                                
0804A486 2022     mov     r0,22h                                  
0804A488 9000     str     r0,[sp]                                 
0804A48A 2000     mov     r0,0h                                   
0804A48C 2301     mov     r3,1h                                   
0804A48E F7C6FDF9 bl      8011084h                                
0804A492 E025     b       804A4E0h                                
0804A494 083C     lsr     r4,r7,20h                               
0804A496 0300     lsl     r0,r0,0Ch                               
0804A498 490C     ldr     r1,=30001ACh                            
0804A49A 00D0     lsl     r0,r2,3h                                
0804A49C 1A80     sub     r0,r0,r2                                
0804A49E 00C0     lsl     r0,r0,3h                                
0804A4A0 1842     add     r2,r0,r1                                
0804A4A2 1C10     mov     r0,r2                                   
0804A4A4 3024     add     r0,24h                                  
0804A4A6 7800     ldrb    r0,[r0]                                 
0804A4A8 2827     cmp     r0,27h                                  
0804A4AA D113     bne     804A4D4h                                
0804A4AC 8819     ldrh    r1,[r3]                                 
0804A4AE 4808     ldr     r0,=7FFFh                               
0804A4B0 4008     and     r0,r1                                   
0804A4B2 8018     strh    r0,[r3]                                 
0804A4B4 1C18     mov     r0,r3                                   
0804A4B6 302B     add     r0,2Bh                                  
0804A4B8 7801     ldrb    r1,[r0]                                 
0804A4BA 207F     mov     r0,7Fh                                  
0804A4BC 4008     and     r0,r1                                   
0804A4BE 2810     cmp     r0,10h                                  
0804A4C0 D10E     bne     804A4E0h                                
0804A4C2 1C11     mov     r1,r2                                   
0804A4C4 312C     add     r1,2Ch                                  
0804A4C6 2000     mov     r0,0h                                   
0804A4C8 7008     strb    r0,[r1]                                 
0804A4CA E009     b       804A4E0h                                
0804A4CC 01AC     lsl     r4,r5,6h                                
0804A4CE 0300     lsl     r0,r0,0Ch                               
0804A4D0 7FFF     ldrb    r7,[r7,1Fh]                             
0804A4D2 0000     lsl     r0,r0,0h                                
0804A4D4 8819     ldrh    r1,[r3]                                 
0804A4D6 2280     mov     r2,80h                                  
0804A4D8 0212     lsl     r2,r2,8h                                
0804A4DA 1C10     mov     r0,r2                                   
0804A4DC 4308     orr     r0,r1                                   
0804A4DE 8018     strh    r0,[r3]                                 
0804A4E0 B001     add     sp,4h                                   
0804A4E2 BC30     pop     r4,r5                                   
0804A4E4 BC01     pop     r0                                      
0804A4E6 4700     bx      r0                                      
0804A4E8 B570     push    r4-r6,r14                               
0804A4EA 4805     ldr     r0,=3000738h                            
0804A4EC 1C06     mov     r6,r0                                   
0804A4EE 3624     add     r6,24h                                  
0804A4F0 7834     ldrb    r4,[r6]                                 
0804A4F2 1C05     mov     r5,r0                                   
0804A4F4 2C00     cmp     r4,0h                                   
0804A4F6 D005     beq     804A504h                                
0804A4F8 2C09     cmp     r4,9h                                   
0804A4FA D036     beq     804A56Ah                                
0804A4FC E06A     b       804A5D4h                                
0804A4FE 0000     lsl     r0,r0,0h                                
0804A500 0738     lsl     r0,r7,1Ch                               
0804A502 0300     lsl     r0,r0,0Ch                               
0804A504 8829     ldrh    r1,[r5]                                 
0804A506 4821     ldr     r0,=0FFFBh                              
0804A508 4008     and     r0,r1                                   
0804A50A 2300     mov     r3,0h                                   
0804A50C 8028     strh    r0,[r5]                                 
0804A50E 1C2A     mov     r2,r5                                   
0804A510 3232     add     r2,32h                                  
0804A512 7811     ldrb    r1,[r2]                                 
0804A514 2004     mov     r0,4h                                   
0804A516 4308     orr     r0,r1                                   
0804A518 7010     strb    r0,[r2]                                 
0804A51A 1C28     mov     r0,r5                                   
0804A51C 3027     add     r0,27h                                  
0804A51E 2210     mov     r2,10h                                  
0804A520 7002     strb    r2,[r0]                                 
0804A522 3001     add     r0,1h                                   
0804A524 7002     strb    r2,[r0]                                 
0804A526 3001     add     r0,1h                                   
0804A528 7002     strb    r2,[r0]                                 
0804A52A 4819     ldr     r0,=0FFD0h                              
0804A52C 8168     strh    r0,[r5,0Ah]                             
0804A52E 2030     mov     r0,30h                                  
0804A530 81A8     strh    r0,[r5,0Ch]                             
0804A532 4818     ldr     r0,=83187BCh                            
0804A534 61A8     str     r0,[r5,18h]                             
0804A536 772B     strb    r3,[r5,1Ch]                             
0804A538 82EC     strh    r4,[r5,16h]                             
0804A53A 2009     mov     r0,9h                                   
0804A53C 7030     strb    r0,[r6]                                 
0804A53E 1C29     mov     r1,r5                                   
0804A540 3125     add     r1,25h                                  
0804A542 2004     mov     r0,4h                                   
0804A544 7008     strb    r0,[r1]                                 
0804A546 3903     sub     r1,3h                                   
0804A548 2003     mov     r0,3h                                   
0804A54A 7008     strb    r0,[r1]                                 
0804A54C 4912     ldr     r1,=3000088h                            
0804A54E 7B09     ldrb    r1,[r1,0Ch]                             
0804A550 4008     and     r0,r1                                   
0804A552 1C29     mov     r1,r5                                   
0804A554 3121     add     r1,21h                                  
0804A556 7008     strb    r0,[r1]                                 
0804A558 2001     mov     r0,1h                                   
0804A55A 82A8     strh    r0,[r5,14h]                             
0804A55C 1C28     mov     r0,r5                                   
0804A55E 302C     add     r0,2Ch                                  
0804A560 7002     strb    r2,[r0]                                 
0804A562 480E     ldr     r0,=0FFFCh                              
0804A564 81E8     strh    r0,[r5,0Eh]                             
0804A566 2018     mov     r0,18h                                  
0804A568 8228     strh    r0,[r5,10h]                             
0804A56A 1C2C     mov     r4,r5                                   
0804A56C 1C21     mov     r1,r4                                   
0804A56E 312C     add     r1,2Ch                                  
0804A570 7808     ldrb    r0,[r1]                                 
0804A572 1C06     mov     r6,r0                                   
0804A574 2E00     cmp     r6,0h                                   
0804A576 D013     beq     804A5A0h                                
0804A578 3801     sub     r0,1h                                   
0804A57A 7008     strb    r0,[r1]                                 
0804A57C 0600     lsl     r0,r0,18h                               
0804A57E 2800     cmp     r0,0h                                   
0804A580 D128     bne     804A5D4h                                
0804A582 2097     mov     r0,97h                                  
0804A584 0080     lsl     r0,r0,2h                                
0804A586 F7B8FA47 bl      8002A18h                                
0804A58A E023     b       804A5D4h                                
0804A58C FFFB     bl      lr+0FF6h                                
0804A58E 0000     lsl     r0,r0,0h                                
0804A590 FFD0     bl      lr+0FA0h                                
0804A592 0000     lsl     r0,r0,0h                                
0804A594 87BC     strh    r4,[r7,3Ch]                             
0804A596 0831     lsr     r1,r6,20h                               
0804A598 0088     lsl     r0,r1,2h                                
0804A59A 0300     lsl     r0,r0,0Ch                               
0804A59C FFFC     bl      lr+0FF8h                                
0804A59E 0000     lsl     r0,r0,0h                                
0804A5A0 88A0     ldrh    r0,[r4,4h]                              
0804A5A2 300C     add     r0,0Ch                                  
0804A5A4 80A0     strh    r0,[r4,4h]                              
0804A5A6 8860     ldrh    r0,[r4,2h]                              
0804A5A8 88A1     ldrh    r1,[r4,4h]                              
0804A5AA F7C5F86D bl      800F688h                                
0804A5AE 480B     ldr     r0,=30007F1h                            
0804A5B0 7800     ldrb    r0,[r0]                                 
0804A5B2 2800     cmp     r0,0h                                   
0804A5B4 D00E     beq     804A5D4h                                
0804A5B6 8860     ldrh    r0,[r4,2h]                              
0804A5B8 301C     add     r0,1Ch                                  
0804A5BA 88A1     ldrh    r1,[r4,4h]                              
0804A5BC 2221     mov     r2,21h                                  
0804A5BE F009FD95 bl      80540ECh                                
0804A5C2 8821     ldrh    r1,[r4]                                 
0804A5C4 2002     mov     r0,2h                                   
0804A5C6 4008     and     r0,r1                                   
0804A5C8 2800     cmp     r0,0h                                   
0804A5CA D002     beq     804A5D2h                                
0804A5CC 4804     ldr     r0,=25Dh                                
0804A5CE F7B8FA23 bl      8002A18h                                
0804A5D2 802E     strh    r6,[r5]                                 
0804A5D4 BC70     pop     r4-r6                                   
0804A5D6 BC01     pop     r0                                      
0804A5D8 4700     bx      r0                                      
0804A5DA 0000     lsl     r0,r0,0h                                
0804A5DC 07F1     lsl     r1,r6,1Fh                               
0804A5DE 0300     lsl     r0,r0,0Ch                               
0804A5E0 025D     lsl     r5,r3,9h                                
0804A5E2 0000     lsl     r0,r0,0h                                
0804A5E4 B570     push    r4-r6,r14                               
0804A5E6 4917     ldr     r1,=3000738h                            
0804A5E8 1C0A     mov     r2,r1                                   
0804A5EA 3226     add     r2,26h                                  
0804A5EC 2001     mov     r0,1h                                   
0804A5EE 7010     strb    r0,[r2]                                 
0804A5F0 2600     mov     r6,0h                                   
0804A5F2 3A02     sub     r2,2h                                   
0804A5F4 7810     ldrb    r0,[r2]                                 
0804A5F6 1C0C     mov     r4,r1                                   
0804A5F8 2800     cmp     r0,0h                                   
0804A5FA D000     beq     804A5FEh                                
0804A5FC E0D5     b       804A7AAh                                
0804A5FE 2009     mov     r0,9h                                   
0804A600 7010     strb    r0,[r2]                                 
0804A602 7F60     ldrb    r0,[r4,1Dh]                             
0804A604 28A8     cmp     r0,0A8h                                 
0804A606 D100     bne     804A60Ah                                
0804A608 2601     mov     r6,1h                                   
0804A60A 1C20     mov     r0,r4                                   
0804A60C 302D     add     r0,2Dh                                  
0804A60E 7006     strb    r6,[r0]                                 
0804A610 8860     ldrh    r0,[r4,2h]                              
0804A612 88A1     ldrh    r1,[r4,4h]                              
0804A614 F7C5F884 bl      800F720h                                
0804A618 25F0     mov     r5,0F0h                                 
0804A61A 4028     and     r0,r5                                   
0804A61C 2800     cmp     r0,0h                                   
0804A61E D01C     beq     804A65Ah                                
0804A620 8821     ldrh    r1,[r4]                                 
0804A622 4809     ldr     r0,=0FBFFh                              
0804A624 4008     and     r0,r1                                   
0804A626 8020     strh    r0,[r4]                                 
0804A628 2E00     cmp     r6,0h                                   
0804A62A D00F     beq     804A64Ch                                
0804A62C 1C21     mov     r1,r4                                   
0804A62E 3127     add     r1,27h                                  
0804A630 2048     mov     r0,48h                                  
0804A632 7008     strb    r0,[r1]                                 
0804A634 1C20     mov     r0,r4                                   
0804A636 3028     add     r0,28h                                  
0804A638 2108     mov     r1,8h                                   
0804A63A 7001     strb    r1,[r0]                                 
0804A63C 3001     add     r0,1h                                   
0804A63E 7001     strb    r1,[r0]                                 
0804A640 E081     b       804A746h                                
0804A642 0000     lsl     r0,r0,0h                                
0804A644 0738     lsl     r0,r7,1Ch                               
0804A646 0300     lsl     r0,r0,0Ch                               
0804A648 FBFF     bl      lr+7FEh                                 
0804A64A 0000     lsl     r0,r0,0h                                
0804A64C 1C21     mov     r1,r4                                   
0804A64E 3127     add     r1,27h                                  
0804A650 2028     mov     r0,28h                                  
0804A652 7008     strb    r0,[r1]                                 
0804A654 3101     add     r1,1h                                   
0804A656 2004     mov     r0,4h                                   
0804A658 E028     b       804A6ACh                                
0804A65A 8860     ldrh    r0,[r4,2h]                              
0804A65C 3844     sub     r0,44h                                  
0804A65E 88A1     ldrh    r1,[r4,4h]                              
0804A660 F7C5F85E bl      800F720h                                
0804A664 4028     and     r0,r5                                   
0804A666 2800     cmp     r0,0h                                   
0804A668 D025     beq     804A6B6h                                
0804A66A 8821     ldrh    r1,[r4]                                 
0804A66C 480B     ldr     r0,=0FBFFh                              
0804A66E 4008     and     r0,r1                                   
0804A670 2280     mov     r2,80h                                  
0804A672 0052     lsl     r2,r2,1h                                
0804A674 1C11     mov     r1,r2                                   
0804A676 4308     orr     r0,r1                                   
0804A678 8020     strh    r0,[r4]                                 
0804A67A 8860     ldrh    r0,[r4,2h]                              
0804A67C 3840     sub     r0,40h                                  
0804A67E 8060     strh    r0,[r4,2h]                              
0804A680 2E00     cmp     r6,0h                                   
0804A682 D00D     beq     804A6A0h                                
0804A684 1C20     mov     r0,r4                                   
0804A686 3027     add     r0,27h                                  
0804A688 2208     mov     r2,8h                                   
0804A68A 7002     strb    r2,[r0]                                 
0804A68C 1C21     mov     r1,r4                                   
0804A68E 3128     add     r1,28h                                  
0804A690 2048     mov     r0,48h                                  
0804A692 7008     strb    r0,[r1]                                 
0804A694 1C20     mov     r0,r4                                   
0804A696 3029     add     r0,29h                                  
0804A698 7002     strb    r2,[r0]                                 
0804A69A E054     b       804A746h                                
0804A69C FBFF     bl      lr+7FEh                                 
0804A69E 0000     lsl     r0,r0,0h                                
0804A6A0 1C21     mov     r1,r4                                   
0804A6A2 3127     add     r1,27h                                  
0804A6A4 2004     mov     r0,4h                                   
0804A6A6 7008     strb    r0,[r1]                                 
0804A6A8 3101     add     r1,1h                                   
0804A6AA 2028     mov     r0,28h                                  
0804A6AC 7008     strb    r0,[r1]                                 
0804A6AE 3101     add     r1,1h                                   
0804A6B0 2008     mov     r0,8h                                   
0804A6B2 7008     strb    r0,[r1]                                 
0804A6B4 E047     b       804A746h                                
0804A6B6 2E00     cmp     r6,0h                                   
0804A6B8 D009     beq     804A6CEh                                
0804A6BA 1C20     mov     r0,r4                                   
0804A6BC 3027     add     r0,27h                                  
0804A6BE 2108     mov     r1,8h                                   
0804A6C0 7001     strb    r1,[r0]                                 
0804A6C2 3001     add     r0,1h                                   
0804A6C4 7001     strb    r1,[r0]                                 
0804A6C6 1C21     mov     r1,r4                                   
0804A6C8 3129     add     r1,29h                                  
0804A6CA 2048     mov     r0,48h                                  
0804A6CC E008     b       804A6E0h                                
0804A6CE 1C20     mov     r0,r4                                   
0804A6D0 3027     add     r0,27h                                  
0804A6D2 2108     mov     r1,8h                                   
0804A6D4 7001     strb    r1,[r0]                                 
0804A6D6 3001     add     r0,1h                                   
0804A6D8 7001     strb    r1,[r0]                                 
0804A6DA 1C21     mov     r1,r4                                   
0804A6DC 3129     add     r1,29h                                  
0804A6DE 2030     mov     r0,30h                                  
0804A6E0 7008     strb    r0,[r1]                                 
0804A6E2 4C0B     ldr     r4,=3000738h                            
0804A6E4 8860     ldrh    r0,[r4,2h]                              
0804A6E6 3820     sub     r0,20h                                  
0804A6E8 88A1     ldrh    r1,[r4,4h]                              
0804A6EA 3924     sub     r1,24h                                  
0804A6EC F7C5F818 bl      800F720h                                
0804A6F0 25F0     mov     r5,0F0h                                 
0804A6F2 4028     and     r0,r5                                   
0804A6F4 2800     cmp     r0,0h                                   
0804A6F6 D00D     beq     804A714h                                
0804A6F8 8821     ldrh    r1,[r4]                                 
0804A6FA 2280     mov     r2,80h                                  
0804A6FC 00D2     lsl     r2,r2,3h                                
0804A6FE 1C10     mov     r0,r2                                   
0804A700 4308     orr     r0,r1                                   
0804A702 8020     strh    r0,[r4]                                 
0804A704 8860     ldrh    r0,[r4,2h]                              
0804A706 3820     sub     r0,20h                                  
0804A708 8060     strh    r0,[r4,2h]                              
0804A70A 88A0     ldrh    r0,[r4,4h]                              
0804A70C 3820     sub     r0,20h                                  
0804A70E E019     b       804A744h                                
0804A710 0738     lsl     r0,r7,1Ch                               
0804A712 0300     lsl     r0,r0,0Ch                               
0804A714 8860     ldrh    r0,[r4,2h]                              
0804A716 3820     sub     r0,20h                                  
0804A718 88A1     ldrh    r1,[r4,4h]                              
0804A71A 3120     add     r1,20h                                  
0804A71C F7C5F800 bl      800F720h                                
0804A720 4028     and     r0,r5                                   
0804A722 2800     cmp     r0,0h                                   
0804A724 D101     bne     804A72Ah                                
0804A726 8020     strh    r0,[r4]                                 
0804A728 E05B     b       804A7E2h                                
0804A72A 8821     ldrh    r1,[r4]                                 
0804A72C 2280     mov     r2,80h                                  
0804A72E 00D2     lsl     r2,r2,3h                                
0804A730 1C10     mov     r0,r2                                   
0804A732 4308     orr     r0,r1                                   
0804A734 2140     mov     r1,40h                                  
0804A736 4308     orr     r0,r1                                   
0804A738 8020     strh    r0,[r4]                                 
0804A73A 8860     ldrh    r0,[r4,2h]                              
0804A73C 3820     sub     r0,20h                                  
0804A73E 8060     strh    r0,[r4,2h]                              
0804A740 88A0     ldrh    r0,[r4,4h]                              
0804A742 3020     add     r0,20h                                  
0804A744 80A0     strh    r0,[r4,4h]                              
0804A746 4A06     ldr     r2,=3000738h                            
0804A748 8811     ldrh    r1,[r2]                                 
0804A74A 2080     mov     r0,80h                                  
0804A74C 00C0     lsl     r0,r0,3h                                
0804A74E 4008     and     r0,r1                                   
0804A750 1C14     mov     r4,r2                                   
0804A752 2800     cmp     r0,0h                                   
0804A754 D00C     beq     804A770h                                
0804A756 2E00     cmp     r6,0h                                   
0804A758 D006     beq     804A768h                                
0804A75A 4802     ldr     r0,=831915Ch                            
0804A75C E00F     b       804A77Eh                                
0804A75E 0000     lsl     r0,r0,0h                                
0804A760 0738     lsl     r0,r7,1Ch                               
0804A762 0300     lsl     r0,r0,0Ch                               
0804A764 915C     str     r1,[sp,170h]                            
0804A766 0831     lsr     r1,r6,20h                               
0804A768 4800     ldr     r0,=831921Ch                            
0804A76A E008     b       804A77Eh                                
0804A76C 921C     str     r2,[sp,70h]                             
0804A76E 0831     lsr     r1,r6,20h                               
0804A770 2E00     cmp     r6,0h                                   
0804A772 D003     beq     804A77Ch                                
0804A774 4800     ldr     r0,=83191BCh                            
0804A776 E002     b       804A77Eh                                
0804A778 91BC     str     r1,[sp,2F0h]                            
0804A77A 0831     lsr     r1,r6,20h                               
0804A77C 4815     ldr     r0,=831926Ch                            
0804A77E 61A0     str     r0,[r4,18h]                             
0804A780 2100     mov     r1,0h                                   
0804A782 7721     strb    r1,[r4,1Ch]                             
0804A784 4814     ldr     r0,=300083Ch                            
0804A786 7802     ldrb    r2,[r0]                                 
0804A788 2007     mov     r0,7h                                   
0804A78A 4010     and     r0,r2                                   
0804A78C 2200     mov     r2,0h                                   
0804A78E 82E0     strh    r0,[r4,16h]                             
0804A790 8161     strh    r1,[r4,0Ah]                             
0804A792 81A1     strh    r1,[r4,0Ch]                             
0804A794 81E1     strh    r1,[r4,0Eh]                             
0804A796 8221     strh    r1,[r4,10h]                             
0804A798 1C20     mov     r0,r4                                   
0804A79A 3025     add     r0,25h                                  
0804A79C 7002     strb    r2,[r0]                                 
0804A79E 1C22     mov     r2,r4                                   
0804A7A0 3232     add     r2,32h                                  
0804A7A2 7811     ldrb    r1,[r2]                                 
0804A7A4 2001     mov     r0,1h                                   
0804A7A6 4308     orr     r0,r1                                   
0804A7A8 7010     strb    r0,[r2]                                 
0804A7AA 8AE0     ldrh    r0,[r4,16h]                             
0804A7AC 2800     cmp     r0,0h                                   
0804A7AE D118     bne     804A7E2h                                
0804A7B0 7F21     ldrb    r1,[r4,1Ch]                             
0804A7B2 2902     cmp     r1,2h                                   
0804A7B4 D115     bne     804A7E2h                                
0804A7B6 8820     ldrh    r0,[r4]                                 
0804A7B8 4001     and     r1,r0                                   
0804A7BA 2900     cmp     r1,0h                                   
0804A7BC D011     beq     804A7E2h                                
0804A7BE 1C20     mov     r0,r4                                   
0804A7C0 302D     add     r0,2Dh                                  
0804A7C2 7800     ldrb    r0,[r0]                                 
0804A7C4 2800     cmp     r0,0h                                   
0804A7C6 D009     beq     804A7DCh                                
0804A7C8 209E     mov     r0,9Eh                                  
0804A7CA 0080     lsl     r0,r0,2h                                
0804A7CC F7B8F9A8 bl      8002B20h                                
0804A7D0 E007     b       804A7E2h                                
0804A7D2 0000     lsl     r0,r0,0h                                
0804A7D4 926C     str     r2,[sp,1B0h]                            
0804A7D6 0831     lsr     r1,r6,20h                               
0804A7D8 083C     lsr     r4,r7,20h                               
0804A7DA 0300     lsl     r0,r0,0Ch                               
0804A7DC 4802     ldr     r0,=279h                                
0804A7DE F7B8F99F bl      8002B20h                                
0804A7E2 BC70     pop     r4-r6                                   
0804A7E4 BC01     pop     r0                                      
0804A7E6 4700     bx      r0                                      
0804A7E8 0279     lsl     r1,r7,9h                                
0804A7EA 0000     lsl     r0,r0,0h                                
0804A7EC B5F0     push    r4-r7,r14                               
0804A7EE 4815     ldr     r0,=3000738h                            
0804A7F0 1C01     mov     r1,r0                                   
0804A7F2 3126     add     r1,26h                                  
0804A7F4 2701     mov     r7,1h                                   
0804A7F6 700F     strb    r7,[r1]                                 
0804A7F8 3902     sub     r1,2h                                   
0804A7FA 780D     ldrb    r5,[r1]                                 
0804A7FC 1C04     mov     r4,r0                                   
0804A7FE 2D00     cmp     r5,0h                                   
0804A800 D175     bne     804A8EEh                                
0804A802 2009     mov     r0,9h                                   
0804A804 7008     strb    r0,[r1]                                 
0804A806 1C26     mov     r6,r4                                   
0804A808 362D     add     r6,2Dh                                  
0804A80A 7035     strb    r5,[r6]                                 
0804A80C 8860     ldrh    r0,[r4,2h]                              
0804A80E 3820     sub     r0,20h                                  
0804A810 88A1     ldrh    r1,[r4,4h]                              
0804A812 3924     sub     r1,24h                                  
0804A814 F7C4FF84 bl      800F720h                                
0804A818 0600     lsl     r0,r0,18h                               
0804A81A 21F0     mov     r1,0F0h                                 
0804A81C 0609     lsl     r1,r1,18h                               
0804A81E 4001     and     r1,r0                                   
0804A820 2900     cmp     r1,0h                                   
0804A822 D103     bne     804A82Ch                                
0804A824 8821     ldrh    r1,[r4]                                 
0804A826 2040     mov     r0,40h                                  
0804A828 4308     orr     r0,r1                                   
0804A82A 8020     strh    r0,[r4]                                 
0804A82C 7F60     ldrb    r0,[r4,1Dh]                             
0804A82E 28BF     cmp     r0,0BFh                                 
0804A830 D10A     bne     804A848h                                
0804A832 7037     strb    r7,[r6]                                 
0804A834 1C21     mov     r1,r4                                   
0804A836 3127     add     r1,27h                                  
0804A838 2040     mov     r0,40h                                  
0804A83A 7008     strb    r0,[r1]                                 
0804A83C 3101     add     r1,1h                                   
0804A83E 2008     mov     r0,8h                                   
0804A840 E01A     b       804A878h                                
0804A842 0000     lsl     r0,r0,0h                                
0804A844 0738     lsl     r0,r7,1Ch                               
0804A846 0300     lsl     r0,r0,0Ch                               
0804A848 28C0     cmp     r0,0C0h                                 
0804A84A D106     bne     804A85Ah                                
0804A84C 1C21     mov     r1,r4                                   
0804A84E 3127     add     r1,27h                                  
0804A850 2028     mov     r0,28h                                  
0804A852 7008     strb    r0,[r1]                                 
0804A854 3101     add     r1,1h                                   
0804A856 2004     mov     r0,4h                                   
0804A858 E026     b       804A8A8h                                
0804A85A 28C1     cmp     r0,0C1h                                 
0804A85C D116     bne     804A88Ch                                
0804A85E 7037     strb    r7,[r6]                                 
0804A860 8821     ldrh    r1,[r4]                                 
0804A862 2280     mov     r2,80h                                  
0804A864 0052     lsl     r2,r2,1h                                
0804A866 1C10     mov     r0,r2                                   
0804A868 4308     orr     r0,r1                                   
0804A86A 8020     strh    r0,[r4]                                 
0804A86C 1C21     mov     r1,r4                                   
0804A86E 3127     add     r1,27h                                  
0804A870 2008     mov     r0,8h                                   
0804A872 7008     strb    r0,[r1]                                 
0804A874 3101     add     r1,1h                                   
0804A876 2040     mov     r0,40h                                  
0804A878 7008     strb    r0,[r1]                                 
0804A87A 3101     add     r1,1h                                   
0804A87C 2050     mov     r0,50h                                  
0804A87E 7008     strb    r0,[r1]                                 
0804A880 4801     ldr     r0,=83192BCh                            
0804A882 61A0     str     r0,[r4,18h]                             
0804A884 E01C     b       804A8C0h                                
0804A886 0000     lsl     r0,r0,0h                                
0804A888 92BC     str     r2,[sp,2F0h]                            
0804A88A 0831     lsr     r1,r6,20h                               
0804A88C 28C2     cmp     r0,0C2h                                 
0804A88E D115     bne     804A8BCh                                
0804A890 8821     ldrh    r1,[r4]                                 
0804A892 2280     mov     r2,80h                                  
0804A894 0052     lsl     r2,r2,1h                                
0804A896 1C10     mov     r0,r2                                   
0804A898 4308     orr     r0,r1                                   
0804A89A 8020     strh    r0,[r4]                                 
0804A89C 1C21     mov     r1,r4                                   
0804A89E 3127     add     r1,27h                                  
0804A8A0 2004     mov     r0,4h                                   
0804A8A2 7008     strb    r0,[r1]                                 
0804A8A4 3101     add     r1,1h                                   
0804A8A6 2028     mov     r0,28h                                  
0804A8A8 7008     strb    r0,[r1]                                 
0804A8AA 3101     add     r1,1h                                   
0804A8AC 2030     mov     r0,30h                                  
0804A8AE 7008     strb    r0,[r1]                                 
0804A8B0 4801     ldr     r0,=831931Ch                            
0804A8B2 61A0     str     r0,[r4,18h]                             
0804A8B4 E004     b       804A8C0h                                
0804A8B6 0000     lsl     r0,r0,0h                                
0804A8B8 931C     str     r3,[sp,70h]                             
0804A8BA 0831     lsr     r1,r6,20h                               
0804A8BC 8025     strh    r5,[r4]                                 
0804A8BE E032     b       804A926h                                
0804A8C0 4B15     ldr     r3,=3000738h                            
0804A8C2 2100     mov     r1,0h                                   
0804A8C4 7719     strb    r1,[r3,1Ch]                             
0804A8C6 4815     ldr     r0,=300083Ch                            
0804A8C8 7802     ldrb    r2,[r0]                                 
0804A8CA 2007     mov     r0,7h                                   
0804A8CC 4010     and     r0,r2                                   
0804A8CE 2200     mov     r2,0h                                   
0804A8D0 82D8     strh    r0,[r3,16h]                             
0804A8D2 8159     strh    r1,[r3,0Ah]                             
0804A8D4 8199     strh    r1,[r3,0Ch]                             
0804A8D6 81D9     strh    r1,[r3,0Eh]                             
0804A8D8 8219     strh    r1,[r3,10h]                             
0804A8DA 1C18     mov     r0,r3                                   
0804A8DC 3025     add     r0,25h                                  
0804A8DE 7002     strb    r2,[r0]                                 
0804A8E0 1C1A     mov     r2,r3                                   
0804A8E2 3232     add     r2,32h                                  
0804A8E4 7811     ldrb    r1,[r2]                                 
0804A8E6 2001     mov     r0,1h                                   
0804A8E8 4308     orr     r0,r1                                   
0804A8EA 7010     strb    r0,[r2]                                 
0804A8EC 1C1C     mov     r4,r3                                   
0804A8EE 8AE0     ldrh    r0,[r4,16h]                             
0804A8F0 2800     cmp     r0,0h                                   
0804A8F2 D118     bne     804A926h                                
0804A8F4 7F21     ldrb    r1,[r4,1Ch]                             
0804A8F6 2902     cmp     r1,2h                                   
0804A8F8 D115     bne     804A926h                                
0804A8FA 8820     ldrh    r0,[r4]                                 
0804A8FC 4001     and     r1,r0                                   
0804A8FE 2900     cmp     r1,0h                                   
0804A900 D011     beq     804A926h                                
0804A902 1C20     mov     r0,r4                                   
0804A904 302D     add     r0,2Dh                                  
0804A906 7800     ldrb    r0,[r0]                                 
0804A908 2800     cmp     r0,0h                                   
0804A90A D009     beq     804A920h                                
0804A90C 209E     mov     r0,9Eh                                  
0804A90E 0080     lsl     r0,r0,2h                                
0804A910 F7B8F906 bl      8002B20h                                
0804A914 E007     b       804A926h                                
0804A916 0000     lsl     r0,r0,0h                                
0804A918 0738     lsl     r0,r7,1Ch                               
0804A91A 0300     lsl     r0,r0,0Ch                               
0804A91C 083C     lsr     r4,r7,20h                               
0804A91E 0300     lsl     r0,r0,0Ch                               
0804A920 4802     ldr     r0,=279h                                
0804A922 F7B8F8FD bl      8002B20h                                
0804A926 BCF0     pop     r4-r7                                   
0804A928 BC01     pop     r0                                      
0804A92A 4700     bx      r0                                      
0804A92C 0279     lsl     r1,r7,9h                                
0804A92E 0000     lsl     r0,r0,0h                                
0804A930 B570     push    r4-r6,r14                               
0804A932 464E     mov     r6,r9                                   
0804A934 4645     mov     r5,r8                                   
0804A936 B460     push    r5,r6                                   
0804A938 1C06     mov     r6,r0                                   
0804A93A 0636     lsl     r6,r6,18h                               
0804A93C 0E36     lsr     r6,r6,18h                               
0804A93E 4816     ldr     r0,=3000738h                            
0804A940 8845     ldrh    r5,[r0,2h]                              
0804A942 3D20     sub     r5,20h                                  
0804A944 042D     lsl     r5,r5,10h                               
0804A946 0C2D     lsr     r5,r5,10h                               
0804A948 8884     ldrh    r4,[r0,4h]                              
0804A94A 3C20     sub     r4,20h                                  
0804A94C 0424     lsl     r4,r4,10h                               
0804A94E 0C24     lsr     r4,r4,10h                               
0804A950 4812     ldr     r0,=3000079h                            
0804A952 4680     mov     r8,r0                                   
0804A954 7006     strb    r6,[r0]                                 
0804A956 1C28     mov     r0,r5                                   
0804A958 1C21     mov     r1,r4                                   
0804A95A F00DFA8F bl      8057E7Ch                                
0804A95E 4640     mov     r0,r8                                   
0804A960 7006     strb    r6,[r0]                                 
0804A962 2040     mov     r0,40h                                  
0804A964 1900     add     r0,r0,r4                                
0804A966 4681     mov     r9,r0                                   
0804A968 1C28     mov     r0,r5                                   
0804A96A 4649     mov     r1,r9                                   
0804A96C F00DFA86 bl      8057E7Ch                                
0804A970 4640     mov     r0,r8                                   
0804A972 7006     strb    r6,[r0]                                 
0804A974 3540     add     r5,40h                                  
0804A976 1C28     mov     r0,r5                                   
0804A978 1C21     mov     r1,r4                                   
0804A97A F00DFA7F bl      8057E7Ch                                
0804A97E 4640     mov     r0,r8                                   
0804A980 7006     strb    r6,[r0]                                 
0804A982 1C28     mov     r0,r5                                   
0804A984 4649     mov     r1,r9                                   
0804A986 F00DFA79 bl      8057E7Ch                                
0804A98A BC18     pop     r3,r4                                   
0804A98C 4698     mov     r8,r3                                   
0804A98E 46A1     mov     r9,r4                                   
0804A990 BC70     pop     r4-r6                                   
0804A992 BC01     pop     r0                                      
0804A994 4700     bx      r0                                      
0804A996 0000     lsl     r0,r0,0h                                
0804A998 0738     lsl     r0,r7,1Ch                               
0804A99A 0300     lsl     r0,r0,0Ch                               
0804A99C 0079     lsl     r1,r7,1h                                
0804A99E 0300     lsl     r0,r0,0Ch                               
0804A9A0 B5F0     push    r4-r7,r14                               
0804A9A2 B083     add     sp,-0Ch                                 
0804A9A4 490B     ldr     r1,=3000738h                            
0804A9A6 1C08     mov     r0,r1                                   
0804A9A8 3026     add     r0,26h                                  
0804A9AA 2701     mov     r7,1h                                   
0804A9AC 7007     strb    r7,[r0]                                 
0804A9AE 2600     mov     r6,0h                                   
0804A9B0 7F4D     ldrb    r5,[r1,1Dh]                             
0804A9B2 1C0B     mov     r3,r1                                   
0804A9B4 3324     add     r3,24h                                  
0804A9B6 7818     ldrb    r0,[r3]                                 
0804A9B8 1C0C     mov     r4,r1                                   
0804A9BA 2867     cmp     r0,67h                                  
0804A9BC D06C     beq     804AA98h                                
0804A9BE 2867     cmp     r0,67h                                  
0804A9C0 DD00     ble     804A9C4h                                
0804A9C2 E0D3     b       804AB6Ch                                
0804A9C4 2809     cmp     r0,9h                                   
0804A9C6 D036     beq     804AA36h                                
0804A9C8 2809     cmp     r0,9h                                   
0804A9CA DC05     bgt     804A9D8h                                
0804A9CC 2800     cmp     r0,0h                                   
0804A9CE D007     beq     804A9E0h                                
0804A9D0 E0CC     b       804AB6Ch                                
0804A9D2 0000     lsl     r0,r0,0h                                
0804A9D4 0738     lsl     r0,r7,1Ch                               
0804A9D6 0300     lsl     r0,r0,0Ch                               
0804A9D8 280B     cmp     r0,0Bh                                  
0804A9DA D100     bne     804A9DEh                                
0804A9DC E0EF     b       804ABBEh                                
0804A9DE E0C5     b       804AB6Ch                                
0804A9E0 8821     ldrh    r1,[r4]                                 
0804A9E2 2280     mov     r2,80h                                  
0804A9E4 0212     lsl     r2,r2,8h                                
0804A9E6 1C10     mov     r0,r2                                   
0804A9E8 2200     mov     r2,0h                                   
0804A9EA 4308     orr     r0,r1                                   
0804A9EC 8020     strh    r0,[r4]                                 
0804A9EE 1C20     mov     r0,r4                                   
0804A9F0 3022     add     r0,22h                                  
0804A9F2 7007     strb    r7,[r0]                                 
0804A9F4 4912     ldr     r1,=0FFBCh                              
0804A9F6 8161     strh    r1,[r4,0Ah]                             
0804A9F8 2044     mov     r0,44h                                  
0804A9FA 81A0     strh    r0,[r4,0Ch]                             
0804A9FC 81E1     strh    r1,[r4,0Eh]                             
0804A9FE 8220     strh    r0,[r4,10h]                             
0804AA00 1C20     mov     r0,r4                                   
0804AA02 3027     add     r0,27h                                  
0804AA04 2110     mov     r1,10h                                  
0804AA06 7001     strb    r1,[r0]                                 
0804AA08 3001     add     r0,1h                                   
0804AA0A 7001     strb    r1,[r0]                                 
0804AA0C 3001     add     r0,1h                                   
0804AA0E 7001     strb    r1,[r0]                                 
0804AA10 480C     ldr     r0,=831A490h                            
0804AA12 61A0     str     r0,[r4,18h]                             
0804AA14 7722     strb    r2,[r4,1Ch]                             
0804AA16 82E6     strh    r6,[r4,16h]                             
0804AA18 1C20     mov     r0,r4                                   
0804AA1A 3025     add     r0,25h                                  
0804AA1C 7002     strb    r2,[r0]                                 
0804AA1E 82A7     strh    r7,[r4,14h]                             
0804AA20 2009     mov     r0,9h                                   
0804AA22 7018     strb    r0,[r3]                                 
0804AA24 8860     ldrh    r0,[r4,2h]                              
0804AA26 3840     sub     r0,40h                                  
0804AA28 8060     strh    r0,[r4,2h]                              
0804AA2A 88A0     ldrh    r0,[r4,4h]                              
0804AA2C 3020     add     r0,20h                                  
0804AA2E 80A0     strh    r0,[r4,4h]                              
0804AA30 2002     mov     r0,2h                                   
0804AA32 F7FFFF7D bl      804A930h                                
0804AA36 2DAA     cmp     r5,0AAh                                 
0804AA38 D106     bne     804AA48h                                
0804AA3A 2003     mov     r0,3h                                   
0804AA3C 2118     mov     r1,18h                                  
0804AA3E E00C     b       804AA5Ah                                
0804AA40 FFBC     bl      lr+0F78h                                
0804AA42 0000     lsl     r0,r0,0h                                
0804AA44 A490     add     r4,=804AC88h                            
0804AA46 0831     lsr     r1,r6,20h                               
0804AA48 2DAB     cmp     r5,0ABh                                 
0804AA4A D102     bne     804AA52h                                
0804AA4C 2003     mov     r0,3h                                   
0804AA4E 2117     mov     r1,17h                                  
0804AA50 E003     b       804AA5Ah                                
0804AA52 2DAC     cmp     r5,0ACh                                 
0804AA54 D108     bne     804AA68h                                
0804AA56 2003     mov     r0,3h                                   
0804AA58 2116     mov     r1,16h                                  
0804AA5A F015FF2F bl      80608BCh                                
0804AA5E 2800     cmp     r0,0h                                   
0804AA60 D002     beq     804AA68h                                
0804AA62 1C70     add     r0,r6,1                                 
0804AA64 0600     lsl     r0,r0,18h                               
0804AA66 0E06     lsr     r6,r0,18h                               
0804AA68 2E00     cmp     r6,0h                                   
0804AA6A D100     bne     804AA6Eh                                
0804AA6C E0A7     b       804ABBEh                                
0804AA6E 4907     ldr     r1,=3000738h                            
0804AA70 4807     ldr     r0,=831A4A0h                            
0804AA72 6188     str     r0,[r1,18h]                             
0804AA74 2000     mov     r0,0h                                   
0804AA76 7708     strb    r0,[r1,1Ch]                             
0804AA78 82C8     strh    r0,[r1,16h]                             
0804AA7A 880A     ldrh    r2,[r1]                                 
0804AA7C 4805     ldr     r0,=7FFFh                               
0804AA7E 4010     and     r0,r2                                   
0804AA80 8008     strh    r0,[r1]                                 
0804AA82 3124     add     r1,24h                                  
0804AA84 200B     mov     r0,0Bh                                  
0804AA86 7008     strb    r0,[r1]                                 
0804AA88 E099     b       804ABBEh                                
0804AA8A 0000     lsl     r0,r0,0h                                
0804AA8C 0738     lsl     r0,r7,1Ch                               
0804AA8E 0300     lsl     r0,r0,0Ch                               
0804AA90 A4A0     add     r4,=804AD14h                            
0804AA92 0831     lsr     r1,r6,20h                               
0804AA94 7FFF     ldrb    r7,[r7,1Fh]                             
0804AA96 0000     lsl     r0,r0,0h                                
0804AA98 F7C5F896 bl      800FBC8h                                
0804AA9C 1C05     mov     r5,r0                                   
0804AA9E 2D00     cmp     r5,0h                                   
0804AAA0 D001     beq     804AAA6h                                
0804AAA2 8026     strh    r6,[r4]                                 
0804AAA4 E08B     b       804ABBEh                                
0804AAA6 8AE0     ldrh    r0,[r4,16h]                             
0804AAA8 2801     cmp     r0,1h                                   
0804AAAA D106     bne     804AABAh                                
0804AAAC 1C20     mov     r0,r4                                   
0804AAAE 3027     add     r0,27h                                  
0804AAB0 2130     mov     r1,30h                                  
0804AAB2 7001     strb    r1,[r0]                                 
0804AAB4 3001     add     r0,1h                                   
0804AAB6 7001     strb    r1,[r0]                                 
0804AAB8 E081     b       804ABBEh                                
0804AABA 2808     cmp     r0,8h                                   
0804AABC D107     bne     804AACEh                                
0804AABE 1C21     mov     r1,r4                                   
0804AAC0 3127     add     r1,27h                                  
0804AAC2 2060     mov     r0,60h                                  
0804AAC4 7008     strb    r0,[r1]                                 
0804AAC6 1C20     mov     r0,r4                                   
0804AAC8 3028     add     r0,28h                                  
0804AACA 7005     strb    r5,[r0]                                 
0804AACC E077     b       804ABBEh                                
0804AACE 2807     cmp     r0,7h                                   
0804AAD0 D175     bne     804ABBEh                                
0804AAD2 7F20     ldrb    r0,[r4,1Ch]                             
0804AAD4 2802     cmp     r0,2h                                   
0804AAD6 D172     bne     804ABBEh                                
0804AAD8 7FE2     ldrb    r2,[r4,1Fh]                             
0804AADA 1C20     mov     r0,r4                                   
0804AADC 3023     add     r0,23h                                  
0804AADE 7803     ldrb    r3,[r0]                                 
0804AAE0 8860     ldrh    r0,[r4,2h]                              
0804AAE2 9000     str     r0,[sp]                                 
0804AAE4 88A0     ldrh    r0,[r4,4h]                              
0804AAE6 9001     str     r0,[sp,4h]                              
0804AAE8 9502     str     r5,[sp,8h]                              
0804AAEA 2038     mov     r0,38h                                  
0804AAEC 2100     mov     r1,0h                                   
0804AAEE F7C3FBB3 bl      800E258h                                
0804AAF2 0600     lsl     r0,r0,18h                               
0804AAF4 0E06     lsr     r6,r0,18h                               
0804AAF6 2E17     cmp     r6,17h                                  
0804AAF8 D861     bhi     804ABBEh                                
0804AAFA 4B18     ldr     r3,=30001ACh                            
0804AAFC 00F2     lsl     r2,r6,3h                                
0804AAFE 1B92     sub     r2,r2,r6                                
0804AB00 00D2     lsl     r2,r2,3h                                
0804AB02 18D0     add     r0,r2,r3                                
0804AB04 4684     mov     r12,r0                                  
0804AB06 8801     ldrh    r1,[r0]                                 
0804AB08 4815     ldr     r0,=0FFFBh                              
0804AB0A 4008     and     r0,r1                                   
0804AB0C 2400     mov     r4,0h                                   
0804AB0E 4661     mov     r1,r12                                  
0804AB10 8008     strh    r0,[r1]                                 
0804AB12 4814     ldr     r0,=3000088h                            
0804AB14 7B01     ldrb    r1,[r0,0Ch]                             
0804AB16 2003     mov     r0,3h                                   
0804AB18 4008     and     r0,r1                                   
0804AB1A 4661     mov     r1,r12                                  
0804AB1C 3121     add     r1,21h                                  
0804AB1E 7008     strb    r0,[r1]                                 
0804AB20 4660     mov     r0,r12                                  
0804AB22 3022     add     r0,22h                                  
0804AB24 7007     strb    r7,[r0]                                 
0804AB26 4660     mov     r0,r12                                  
0804AB28 8145     strh    r5,[r0,0Ah]                             
0804AB2A 8185     strh    r5,[r0,0Ch]                             
0804AB2C 81C5     strh    r5,[r0,0Eh]                             
0804AB2E 8205     strh    r5,[r0,10h]                             
0804AB30 3027     add     r0,27h                                  
0804AB32 7004     strb    r4,[r0]                                 
0804AB34 3107     add     r1,7h                                   
0804AB36 2050     mov     r0,50h                                  
0804AB38 7008     strb    r0,[r1]                                 
0804AB3A 3101     add     r1,1h                                   
0804AB3C 2060     mov     r0,60h                                  
0804AB3E 7008     strb    r0,[r1]                                 
0804AB40 3318     add     r3,18h                                  
0804AB42 18D2     add     r2,r2,r3                                
0804AB44 4808     ldr     r0,=831A530h                            
0804AB46 6010     str     r0,[r2]                                 
0804AB48 4661     mov     r1,r12                                  
0804AB4A 770C     strb    r4,[r1,1Ch]                             
0804AB4C 82CD     strh    r5,[r1,16h]                             
0804AB4E 4660     mov     r0,r12                                  
0804AB50 3025     add     r0,25h                                  
0804AB52 7004     strb    r4,[r0]                                 
0804AB54 3124     add     r1,24h                                  
0804AB56 2009     mov     r0,9h                                   
0804AB58 7008     strb    r0,[r1]                                 
0804AB5A E030     b       804ABBEh                                
0804AB5C 01AC     lsl     r4,r5,6h                                
0804AB5E 0300     lsl     r0,r0,0Ch                               
0804AB60 FFFB     bl      lr+0FF6h                                
0804AB62 0000     lsl     r0,r0,0h                                
0804AB64 0088     lsl     r0,r1,2h                                
0804AB66 0300     lsl     r0,r0,0Ch                               
0804AB68 A530     add     r5,=804AC2Ch                            
0804AB6A 0831     lsr     r1,r6,20h                               
0804AB6C 1C21     mov     r1,r4                                   
0804AB6E 3124     add     r1,24h                                  
0804AB70 2200     mov     r2,0h                                   
0804AB72 2067     mov     r0,67h                                  
0804AB74 7008     strb    r0,[r1]                                 
0804AB76 480C     ldr     r0,=3000088h                            
0804AB78 7B01     ldrb    r1,[r0,0Ch]                             
0804AB7A 2003     mov     r0,3h                                   
0804AB7C 4008     and     r0,r1                                   
0804AB7E 1C21     mov     r1,r4                                   
0804AB80 3121     add     r1,21h                                  
0804AB82 7008     strb    r0,[r1]                                 
0804AB84 4809     ldr     r0,=831A4D8h                            
0804AB86 61A0     str     r0,[r4,18h]                             
0804AB88 7722     strb    r2,[r4,1Ch]                             
0804AB8A 82E2     strh    r2,[r4,16h]                             
0804AB8C 3108     add     r1,8h                                   
0804AB8E 2060     mov     r0,60h                                  
0804AB90 7008     strb    r0,[r1]                                 
0804AB92 2001     mov     r0,1h                                   
0804AB94 F7FFFECC bl      804A930h                                
0804AB98 2DAA     cmp     r5,0AAh                                 
0804AB9A D001     beq     804ABA0h                                
0804AB9C 2DAB     cmp     r5,0ABh                                 
0804AB9E D109     bne     804ABB4h                                
0804ABA0 4803     ldr     r0,=13Bh                                
0804ABA2 F7B7FFBD bl      8002B20h                                
0804ABA6 E00A     b       804ABBEh                                
0804ABA8 0088     lsl     r0,r1,2h                                
0804ABAA 0300     lsl     r0,r0,0Ch                               
0804ABAC A4D8     add     r4,=804AF10h                            
0804ABAE 0831     lsr     r1,r6,20h                               
0804ABB0 013B     lsl     r3,r7,4h                                
0804ABB2 0000     lsl     r0,r0,0h                                
0804ABB4 2DAC     cmp     r5,0ACh                                 
0804ABB6 D102     bne     804ABBEh                                
0804ABB8 4803     ldr     r0,=13Bh                                
0804ABBA F7B7FFB1 bl      8002B20h                                
0804ABBE B003     add     sp,0Ch                                  
0804ABC0 BCF0     pop     r4-r7                                   
0804ABC2 BC01     pop     r0                                      
0804ABC4 4700     bx      r0                                      
0804ABC6 0000     lsl     r0,r0,0h                                
0804ABC8 013B     lsl     r3,r7,4h                                
0804ABCA 0000     lsl     r0,r0,0h                                
0804ABCC B530     push    r4,r5,r14                               
0804ABCE 4C0B     ldr     r4,=3000738h                            
0804ABD0 1C21     mov     r1,r4                                   
0804ABD2 3126     add     r1,26h                                  
0804ABD4 2500     mov     r5,0h                                   
0804ABD6 2001     mov     r0,1h                                   
0804ABD8 7008     strb    r0,[r1]                                 
0804ABDA 8AE0     ldrh    r0,[r4,16h]                             
0804ABDC 2800     cmp     r0,0h                                   
0804ABDE D005     beq     804ABECh                                
0804ABE0 1C20     mov     r0,r4                                   
0804ABE2 3027     add     r0,27h                                  
0804ABE4 7005     strb    r5,[r0]                                 
0804ABE6 3102     add     r1,2h                                   
0804ABE8 2060     mov     r0,60h                                  
0804ABEA 7008     strb    r0,[r1]                                 
0804ABEC F7C4FFEC bl      800FBC8h                                
0804ABF0 2800     cmp     r0,0h                                   
0804ABF2 D000     beq     804ABF6h                                
0804ABF4 8025     strh    r5,[r4]                                 
0804ABF6 BC30     pop     r4,r5                                   
0804ABF8 BC01     pop     r0                                      
0804ABFA 4700     bx      r0                                      
0804ABFC 0738     lsl     r0,r7,1Ch                               
0804ABFE 0300     lsl     r0,r0,0Ch                               
0804AC00 B530     push    r4,r5,r14                               
0804AC02 0600     lsl     r0,r0,18h                               
0804AC04 0E04     lsr     r4,r0,18h                               
0804AC06 4A0E     ldr     r2,=3000738h                            
0804AC08 1C11     mov     r1,r2                                   
0804AC0A 312E     add     r1,2Eh                                  
0804AC0C 7808     ldrb    r0,[r1]                                 
0804AC0E 3801     sub     r0,1h                                   
0804AC10 7008     strb    r0,[r1]                                 
0804AC12 0600     lsl     r0,r0,18h                               
0804AC14 0E05     lsr     r5,r0,18h                               
0804AC16 1C13     mov     r3,r2                                   
0804AC18 2D00     cmp     r5,0h                                   
0804AC1A D12F     bne     804AC7Ch                                
0804AC1C 700C     strb    r4,[r1]                                 
0804AC1E 322D     add     r2,2Dh                                  
0804AC20 7811     ldrb    r1,[r2]                                 
0804AC22 2480     mov     r4,80h                                  
0804AC24 1C08     mov     r0,r1                                   
0804AC26 4020     and     r0,r4                                   
0804AC28 2800     cmp     r0,0h                                   
0804AC2A D00B     beq     804AC44h                                
0804AC2C 2980     cmp     r1,80h                                  
0804AC2E D901     bls     804AC34h                                
0804AC30 1E48     sub     r0,r1,1                                 
0804AC32 7010     strb    r0,[r2]                                 
0804AC34 7810     ldrb    r0,[r2]                                 
0804AC36 2880     cmp     r0,80h                                  
0804AC38 D10E     bne     804AC58h                                
0804AC3A 7015     strb    r5,[r2]                                 
0804AC3C E00C     b       804AC58h                                
0804AC3E 0000     lsl     r0,r0,0h                                
0804AC40 0738     lsl     r0,r7,1Ch                               
0804AC42 0300     lsl     r0,r0,0Ch                               
0804AC44 2901     cmp     r1,1h                                   
0804AC46 D801     bhi     804AC4Ch                                
0804AC48 1C48     add     r0,r1,1                                 
0804AC4A 7010     strb    r0,[r2]                                 
0804AC4C 7811     ldrb    r1,[r2]                                 
0804AC4E 2902     cmp     r1,2h                                   
0804AC50 D102     bne     804AC58h                                
0804AC52 1C20     mov     r0,r4                                   
0804AC54 4308     orr     r0,r1                                   
0804AC56 7010     strb    r0,[r2]                                 
0804AC58 1C18     mov     r0,r3                                   
0804AC5A 302D     add     r0,2Dh                                  
0804AC5C 7801     ldrb    r1,[r0]                                 
0804AC5E 207F     mov     r0,7Fh                                  
0804AC60 4008     and     r0,r1                                   
0804AC62 4A08     ldr     r2,=40000D4h                            
0804AC64 0140     lsl     r0,r0,5h                                
0804AC66 4908     ldr     r1,=831B518h                            
0804AC68 1840     add     r0,r0,r1                                
0804AC6A 6010     str     r0,[r2]                                 
0804AC6C 7FD8     ldrb    r0,[r3,1Fh]                             
0804AC6E 0140     lsl     r0,r0,5h                                
0804AC70 4906     ldr     r1,=5000320h                            
0804AC72 1840     add     r0,r0,r1                                
0804AC74 6050     str     r0,[r2,4h]                              
0804AC76 4806     ldr     r0,=80000010h                           
0804AC78 6090     str     r0,[r2,8h]                              
0804AC7A 6890     ldr     r0,[r2,8h]                              
0804AC7C BC30     pop     r4,r5                                   
0804AC7E BC01     pop     r0                                      
0804AC80 4700     bx      r0                                      
0804AC82 0000     lsl     r0,r0,0h                                
0804AC84 00D4     lsl     r4,r2,3h                                
0804AC86 0400     lsl     r0,r0,10h                               
0804AC88 B518     push    r3,r4,r14                               
0804AC8A 0831     lsr     r1,r6,20h                               
0804AC8C 0320     lsl     r0,r4,0Ch                               
0804AC8E 0500     lsl     r0,r0,14h                               
0804AC90 0010     lsl     r0,r2,0h                                
0804AC92 8000     strh    r0,[r0]                                 
0804AC94 B530     push    r4,r5,r14                               
0804AC96 4A0B     ldr     r2,=30001ACh                            
0804AC98 21A8     mov     r1,0A8h                                 
0804AC9A 00C9     lsl     r1,r1,3h                                
0804AC9C 1850     add     r0,r2,r1                                
0804AC9E 4282     cmp     r2,r0                                   
0804ACA0 D20D     bcs     804ACBEh                                
0804ACA2 2501     mov     r5,1h                                   
0804ACA4 240F     mov     r4,0Fh                                  
0804ACA6 1C03     mov     r3,r0                                   
0804ACA8 8811     ldrh    r1,[r2]                                 
0804ACAA 1C28     mov     r0,r5                                   
0804ACAC 4008     and     r0,r1                                   
0804ACAE 2800     cmp     r0,0h                                   
0804ACB0 D002     beq     804ACB8h                                
0804ACB2 1C10     mov     r0,r2                                   
0804ACB4 3026     add     r0,26h                                  
0804ACB6 7004     strb    r4,[r0]                                 
0804ACB8 3238     add     r2,38h                                  
0804ACBA 429A     cmp     r2,r3                                   
0804ACBC D3F4     bcc     804ACA8h                                
0804ACBE BC30     pop     r4,r5                                   
0804ACC0 BC01     pop     r0                                      
0804ACC2 4700     bx      r0                                      
0804ACC4 01AC     lsl     r4,r5,6h                                
0804ACC6 0300     lsl     r0,r0,0Ch                               
0804ACC8 B5F0     push    r4-r7,r14                               
0804ACCA 2714     mov     r7,14h                                  
0804ACCC 4B0D     ldr     r3,=30001ACh                            
0804ACCE 21A8     mov     r1,0A8h                                 
0804ACD0 00C9     lsl     r1,r1,3h                                
0804ACD2 1858     add     r0,r3,r1                                
0804ACD4 4283     cmp     r3,r0                                   
0804ACD6 D211     bcs     804ACFCh                                
0804ACD8 2601     mov     r6,1h                                   
0804ACDA 2502     mov     r5,2h                                   
0804ACDC 1C04     mov     r4,r0                                   
0804ACDE 1C1A     mov     r2,r3                                   
0804ACE0 3222     add     r2,22h                                  
0804ACE2 8819     ldrh    r1,[r3]                                 
0804ACE4 1C30     mov     r0,r6                                   
0804ACE6 4008     and     r0,r1                                   
0804ACE8 2800     cmp     r0,0h                                   
0804ACEA D003     beq     804ACF4h                                
0804ACEC 78D0     ldrb    r0,[r2,3h]                              
0804ACEE 42B8     cmp     r0,r7                                   
0804ACF0 D100     bne     804ACF4h                                
0804ACF2 7015     strb    r5,[r2]                                 
0804ACF4 3238     add     r2,38h                                  
0804ACF6 3338     add     r3,38h                                  
0804ACF8 42A3     cmp     r3,r4                                   
0804ACFA D3F2     bcc     804ACE2h                                
0804ACFC BCF0     pop     r4-r7                                   
0804ACFE BC01     pop     r0                                      
0804AD00 4700     bx      r0                                      
0804AD02 0000     lsl     r0,r0,0h                                
0804AD04 01AC     lsl     r4,r5,6h                                
0804AD06 0300     lsl     r0,r0,0Ch                               
0804AD08 B5F0     push    r4-r7,r14                               
0804AD0A 4657     mov     r7,r10                                  
0804AD0C 464E     mov     r6,r9                                   
0804AD0E 4645     mov     r5,r8                                   
0804AD10 B4E0     push    r5-r7                                   
0804AD12 B084     add     sp,-10h                                 
0804AD14 4A23     ldr     r2,=3000738h                            
0804AD16 8851     ldrh    r1,[r2,2h]                              
0804AD18 8893     ldrh    r3,[r2,4h]                              
0804AD1A 8950     ldrh    r0,[r2,0Ah]                             
0804AD1C 1808     add     r0,r1,r0                                
0804AD1E 0400     lsl     r0,r0,10h                               
0804AD20 0C00     lsr     r0,r0,10h                               
0804AD22 4682     mov     r10,r0                                  
0804AD24 8990     ldrh    r0,[r2,0Ch]                             
0804AD26 1809     add     r1,r1,r0                                
0804AD28 0409     lsl     r1,r1,10h                               
0804AD2A 0C09     lsr     r1,r1,10h                               
0804AD2C 4689     mov     r9,r1                                   
0804AD2E 89D0     ldrh    r0,[r2,0Eh]                             
0804AD30 1818     add     r0,r3,r0                                
0804AD32 0400     lsl     r0,r0,10h                               
0804AD34 0C00     lsr     r0,r0,10h                               
0804AD36 4680     mov     r8,r0                                   
0804AD38 8A10     ldrh    r0,[r2,10h]                             
0804AD3A 181B     add     r3,r3,r0                                
0804AD3C 041B     lsl     r3,r3,10h                               
0804AD3E 0C1F     lsr     r7,r3,10h                               
0804AD40 4E19     ldr     r6,=30001ACh                            
0804AD42 21A8     mov     r1,0A8h                                 
0804AD44 00C9     lsl     r1,r1,3h                                
0804AD46 1870     add     r0,r6,r1                                
0804AD48 4286     cmp     r6,r0                                   
0804AD4A D234     bcs     804ADB6h                                
0804AD4C 1C35     mov     r5,r6                                   
0804AD4E 350A     add     r5,0Ah                                  
0804AD50 8831     ldrh    r1,[r6]                                 
0804AD52 2001     mov     r0,1h                                   
0804AD54 4008     and     r0,r1                                   
0804AD56 2800     cmp     r0,0h                                   
0804AD58 D028     beq     804ADACh                                
0804AD5A 7EE8     ldrb    r0,[r5,1Bh]                             
0804AD5C 2814     cmp     r0,14h                                  
0804AD5E D125     bne     804ADACh                                
0804AD60 8873     ldrh    r3,[r6,2h]                              
0804AD62 88B4     ldrh    r4,[r6,4h]                              
0804AD64 882A     ldrh    r2,[r5]                                 
0804AD66 189A     add     r2,r3,r2                                
0804AD68 0412     lsl     r2,r2,10h                               
0804AD6A 0C12     lsr     r2,r2,10h                               
0804AD6C 8868     ldrh    r0,[r5,2h]                              
0804AD6E 181B     add     r3,r3,r0                                
0804AD70 041B     lsl     r3,r3,10h                               
0804AD72 0C1B     lsr     r3,r3,10h                               
0804AD74 88A9     ldrh    r1,[r5,4h]                              
0804AD76 1861     add     r1,r4,r1                                
0804AD78 0409     lsl     r1,r1,10h                               
0804AD7A 0C09     lsr     r1,r1,10h                               
0804AD7C 88E8     ldrh    r0,[r5,6h]                              
0804AD7E 1824     add     r4,r4,r0                                
0804AD80 0424     lsl     r4,r4,10h                               
0804AD82 0C24     lsr     r4,r4,10h                               
0804AD84 9200     str     r2,[sp]                                 
0804AD86 9301     str     r3,[sp,4h]                              
0804AD88 9102     str     r1,[sp,8h]                              
0804AD8A 9403     str     r4,[sp,0Ch]                             
0804AD8C 4650     mov     r0,r10                                  
0804AD8E 4649     mov     r1,r9                                   
0804AD90 4642     mov     r2,r8                                   
0804AD92 1C3B     mov     r3,r7                                   
0804AD94 F7C3FCB0 bl      800E6F8h                                
0804AD98 2800     cmp     r0,0h                                   
0804AD9A D007     beq     804ADACh                                
0804AD9C 2062     mov     r0,62h                                  
0804AD9E 76A8     strb    r0,[r5,1Ah]                             
0804ADA0 E009     b       804ADB6h                                
0804ADA2 0000     lsl     r0,r0,0h                                
0804ADA4 0738     lsl     r0,r7,1Ch                               
0804ADA6 0300     lsl     r0,r0,0Ch                               
0804ADA8 01AC     lsl     r4,r5,6h                                
0804ADAA 0300     lsl     r0,r0,0Ch                               
0804ADAC 3538     add     r5,38h                                  
0804ADAE 3638     add     r6,38h                                  
0804ADB0 4805     ldr     r0,=30006ECh                            
0804ADB2 4286     cmp     r6,r0                                   
0804ADB4 D3CC     bcc     804AD50h                                
0804ADB6 B004     add     sp,10h                                  
0804ADB8 BC38     pop     r3-r5                                   
0804ADBA 4698     mov     r8,r3                                   
0804ADBC 46A1     mov     r9,r4                                   
0804ADBE 46AA     mov     r10,r5                                  
0804ADC0 BCF0     pop     r4-r7                                   
0804ADC2 BC01     pop     r0                                      
0804ADC4 4700     bx      r0                                      
0804ADC6 0000     lsl     r0,r0,0h                                
0804ADC8 06EC     lsl     r4,r5,1Bh                               
0804ADCA 0300     lsl     r0,r0,0Ch                               
0804ADCC B5F0     push    r4-r7,r14                               
0804ADCE 4657     mov     r7,r10                                  
0804ADD0 464E     mov     r6,r9                                   
0804ADD2 4645     mov     r5,r8                                   
0804ADD4 B4E0     push    r5-r7                                   
0804ADD6 B085     add     sp,-14h                                 
0804ADD8 4A24     ldr     r2,=3000738h                            
0804ADDA 8851     ldrh    r1,[r2,2h]                              
0804ADDC 8893     ldrh    r3,[r2,4h]                              
0804ADDE 8950     ldrh    r0,[r2,0Ah]                             
0804ADE0 1808     add     r0,r1,r0                                
0804ADE2 0400     lsl     r0,r0,10h                               
0804ADE4 0C00     lsr     r0,r0,10h                               
0804ADE6 9004     str     r0,[sp,10h]                             
0804ADE8 8990     ldrh    r0,[r2,0Ch]                             
0804ADEA 1809     add     r1,r1,r0                                
0804ADEC 0409     lsl     r1,r1,10h                               
0804ADEE 0C09     lsr     r1,r1,10h                               
0804ADF0 468A     mov     r10,r1                                  
0804ADF2 89D0     ldrh    r0,[r2,0Eh]                             
0804ADF4 1818     add     r0,r3,r0                                
0804ADF6 0400     lsl     r0,r0,10h                               
0804ADF8 0C00     lsr     r0,r0,10h                               
0804ADFA 4681     mov     r9,r0                                   
0804ADFC 8A10     ldrh    r0,[r2,10h]                             
0804ADFE 181B     add     r3,r3,r0                                
0804AE00 041B     lsl     r3,r3,10h                               
0804AE02 0C1B     lsr     r3,r3,10h                               
0804AE04 4698     mov     r8,r3                                   
0804AE06 2704     mov     r7,4h                                   
0804AE08 4E19     ldr     r6,=30001ACh                            
0804AE0A 21A8     mov     r1,0A8h                                 
0804AE0C 00C9     lsl     r1,r1,3h                                
0804AE0E 1870     add     r0,r6,r1                                
0804AE10 4286     cmp     r6,r0                                   
0804AE12 D233     bcs     804AE7Ch                                
0804AE14 8831     ldrh    r1,[r6]                                 
0804AE16 2001     mov     r0,1h                                   
0804AE18 4008     and     r0,r1                                   
0804AE1A 2800     cmp     r0,0h                                   
0804AE1C D02A     beq     804AE74h                                
0804AE1E 1C30     mov     r0,r6                                   
0804AE20 3025     add     r0,25h                                  
0804AE22 7800     ldrb    r0,[r0]                                 
0804AE24 2813     cmp     r0,13h                                  
0804AE26 D125     bne     804AE74h                                
0804AE28 8874     ldrh    r4,[r6,2h]                              
0804AE2A 88B5     ldrh    r5,[r6,4h]                              
0804AE2C 1BE3     sub     r3,r4,r7                                
0804AE2E 041B     lsl     r3,r3,10h                               
0804AE30 0C1B     lsr     r3,r3,10h                               
0804AE32 19E2     add     r2,r4,r7                                
0804AE34 0412     lsl     r2,r2,10h                               
0804AE36 0C12     lsr     r2,r2,10h                               
0804AE38 1BE9     sub     r1,r5,r7                                
0804AE3A 0409     lsl     r1,r1,10h                               
0804AE3C 0C09     lsr     r1,r1,10h                               
0804AE3E 19E8     add     r0,r5,r7                                
0804AE40 0400     lsl     r0,r0,10h                               
0804AE42 0C00     lsr     r0,r0,10h                               
0804AE44 9300     str     r3,[sp]                                 
0804AE46 9201     str     r2,[sp,4h]                              
0804AE48 9102     str     r1,[sp,8h]                              
0804AE4A 9003     str     r0,[sp,0Ch]                             
0804AE4C 9804     ldr     r0,[sp,10h]                             
0804AE4E 4651     mov     r1,r10                                  
0804AE50 464A     mov     r2,r9                                   
0804AE52 4643     mov     r3,r8                                   
0804AE54 F7C3FC50 bl      800E6F8h                                
0804AE58 2800     cmp     r0,0h                                   
0804AE5A D00B     beq     804AE74h                                
0804AE5C 2000     mov     r0,0h                                   
0804AE5E 8030     strh    r0,[r6]                                 
0804AE60 1C20     mov     r0,r4                                   
0804AE62 1C29     mov     r1,r5                                   
0804AE64 222F     mov     r2,2Fh                                  
0804AE66 F009F941 bl      80540ECh                                
0804AE6A E007     b       804AE7Ch                                
0804AE6C 0738     lsl     r0,r7,1Ch                               
0804AE6E 0300     lsl     r0,r0,0Ch                               
0804AE70 01AC     lsl     r4,r5,6h                                
0804AE72 0300     lsl     r0,r0,0Ch                               
0804AE74 3638     add     r6,38h                                  
0804AE76 4805     ldr     r0,=30006ECh                            
0804AE78 4286     cmp     r6,r0                                   
0804AE7A D3CB     bcc     804AE14h                                
0804AE7C B005     add     sp,14h                                  
0804AE7E BC38     pop     r3-r5                                   
0804AE80 4698     mov     r8,r3                                   
0804AE82 46A1     mov     r9,r4                                   
0804AE84 46AA     mov     r10,r5                                  
0804AE86 BCF0     pop     r4-r7                                   
0804AE88 BC01     pop     r0                                      
0804AE8A 4700     bx      r0                                      
0804AE8C 06EC     lsl     r4,r5,1Bh                               
0804AE8E 0300     lsl     r0,r0,0Ch                               
0804AE90 B5F0     push    r4-r7,r14                               
0804AE92 4647     mov     r7,r8                                   
0804AE94 B480     push    r7                                      
0804AE96 B083     add     sp,-0Ch                                 
0804AE98 4807     ldr     r0,=3000738h                            
0804AE9A 8841     ldrh    r1,[r0,2h]                              
0804AE9C 4688     mov     r8,r1                                   
0804AE9E 8887     ldrh    r7,[r0,4h]                              
0804AEA0 1C01     mov     r1,r0                                   
0804AEA2 3124     add     r1,24h                                  
0804AEA4 7809     ldrb    r1,[r1]                                 
0804AEA6 1C05     mov     r5,r0                                   
0804AEA8 2927     cmp     r1,27h                                  
0804AEAA D900     bls     804AEAEh                                
0804AEAC E247     b       804B33Eh                                
0804AEAE 0088     lsl     r0,r1,2h                                
0804AEB0 4902     ldr     r1,=804AEC0h                            
0804AEB2 1840     add     r0,r0,r1                                
0804AEB4 6800     ldr     r0,[r0]                                 
0804AEB6 4687     mov     r15,r0                                  
0804AEB8 0738     lsl     r0,r7,1Ch                               
0804AEBA 0300     lsl     r0,r0,0Ch                               
0804AEBC AEC0     add     r6,sp,300h                              
0804AEBE 0804     lsr     r4,r0,20h                               
0804AEC0 AF60     add     r7,sp,180h                              
0804AEC2 0804     lsr     r4,r0,20h                               
0804AEC4 B33E     ????                                            
0804AEC6 0804     lsr     r4,r0,20h                               
0804AEC8 B33E     ????                                            
0804AECA 0804     lsr     r4,r0,20h                               
0804AECC B33E     ????                                            
0804AECE 0804     lsr     r4,r0,20h                               
0804AED0 B33E     ????                                            
0804AED2 0804     lsr     r4,r0,20h                               
0804AED4 B33E     ????                                            
0804AED6 0804     lsr     r4,r0,20h                               
0804AED8 B33E     ????                                            
0804AEDA 0804     lsr     r4,r0,20h                               
0804AEDC B33E     ????                                            
0804AEDE 0804     lsr     r4,r0,20h                               
0804AEE0 AFE4     add     r7,sp,390h                              
0804AEE2 0804     lsr     r4,r0,20h                               
0804AEE4 B060     add     sp,180h                                 
0804AEE6 0804     lsr     r4,r0,20h                               
0804AEE8 B33E     ????                                            
0804AEEA 0804     lsr     r4,r0,20h                               
0804AEEC B33E     ????                                            
0804AEEE 0804     lsr     r4,r0,20h                               
0804AEF0 B33E     ????                                            
0804AEF2 0804     lsr     r4,r0,20h                               
0804AEF4 B33E     ????                                            
0804AEF6 0804     lsr     r4,r0,20h                               
0804AEF8 B33E     ????                                            
0804AEFA 0804     lsr     r4,r0,20h                               
0804AEFC B33E     ????                                            
0804AEFE 0804     lsr     r4,r0,20h                               
0804AF00 B33E     ????                                            
0804AF02 0804     lsr     r4,r0,20h                               
0804AF04 B33E     ????                                            
0804AF06 0804     lsr     r4,r0,20h                               
0804AF08 B33E     ????                                            
0804AF0A 0804     lsr     r4,r0,20h                               
0804AF0C B33E     ????                                            
0804AF0E 0804     lsr     r4,r0,20h                               
0804AF10 B33E     ????                                            
0804AF12 0804     lsr     r4,r0,20h                               
0804AF14 B33E     ????                                            
0804AF16 0804     lsr     r4,r0,20h                               
0804AF18 B33E     ????                                            
0804AF1A 0804     lsr     r4,r0,20h                               
0804AF1C B33E     ????                                            
0804AF1E 0804     lsr     r4,r0,20h                               
0804AF20 B33E     ????                                            
0804AF22 0804     lsr     r4,r0,20h                               
0804AF24 B33E     ????                                            
0804AF26 0804     lsr     r4,r0,20h                               
0804AF28 B33E     ????                                            
0804AF2A 0804     lsr     r4,r0,20h                               
0804AF2C B33E     ????                                            
0804AF2E 0804     lsr     r4,r0,20h                               
0804AF30 B33E     ????                                            
0804AF32 0804     lsr     r4,r0,20h                               
0804AF34 B33E     ????                                            
0804AF36 0804     lsr     r4,r0,20h                               
0804AF38 B33E     ????                                            
0804AF3A 0804     lsr     r4,r0,20h                               
0804AF3C B33E     ????                                            
0804AF3E 0804     lsr     r4,r0,20h                               
0804AF40 B33E     ????                                            
0804AF42 0804     lsr     r4,r0,20h                               
0804AF44 B33E     ????                                            
0804AF46 0804     lsr     r4,r0,20h                               
0804AF48 B080     add     sp,-0h                                  
0804AF4A 0804     lsr     r4,r0,20h                               
0804AF4C B10C     ????                                            
0804AF4E 0804     lsr     r4,r0,20h                               
0804AF50 B148     ????                                            
0804AF52 0804     lsr     r4,r0,20h                               
0804AF54 B194     ????                                            
0804AF56 0804     lsr     r4,r0,20h                               
0804AF58 B224     ????                                            
0804AF5A 0804     lsr     r4,r0,20h                               
0804AF5C B30C     ????                                            
0804AF5E 0804     lsr     r4,r0,20h                               
0804AF60 4D1C     ldr     r5,=3000738h                            
0804AF62 1C29     mov     r1,r5                                   
0804AF64 3127     add     r1,27h                                  
0804AF66 2400     mov     r4,0h                                   
0804AF68 2030     mov     r0,30h                                  
0804AF6A 7008     strb    r0,[r1]                                 
0804AF6C 1C28     mov     r0,r5                                   
0804AF6E 3028     add     r0,28h                                  
0804AF70 7004     strb    r4,[r0]                                 
0804AF72 3102     add     r1,2h                                   
0804AF74 2058     mov     r0,58h                                  
0804AF76 7008     strb    r0,[r1]                                 
0804AF78 2200     mov     r2,0h                                   
0804AF7A 4817     ldr     r0,=0FFD4h                              
0804AF7C 8168     strh    r0,[r5,0Ah]                             
0804AF7E 81AC     strh    r4,[r5,0Ch]                             
0804AF80 2038     mov     r0,38h                                  
0804AF82 81E8     strh    r0,[r5,0Eh]                             
0804AF84 2068     mov     r0,68h                                  
0804AF86 8228     strh    r0,[r5,10h]                             
0804AF88 1C28     mov     r0,r5                                   
0804AF8A 3025     add     r0,25h                                  
0804AF8C 7002     strb    r2,[r0]                                 
0804AF8E 3907     sub     r1,7h                                   
0804AF90 200B     mov     r0,0Bh                                  
0804AF92 7008     strb    r0,[r1]                                 
0804AF94 4811     ldr     r0,=831C370h                            
0804AF96 61A8     str     r0,[r5,18h]                             
0804AF98 82EC     strh    r4,[r5,16h]                             
0804AF9A 772A     strb    r2,[r5,1Ch]                             
0804AF9C 3102     add     r1,2h                                   
0804AF9E 2008     mov     r0,8h                                   
0804AFA0 7008     strb    r0,[r1]                                 
0804AFA2 480F     ldr     r0,=300070Ch                            
0804AFA4 73C2     strb    r2,[r0,0Fh]                             
0804AFA6 7FEA     ldrb    r2,[r5,1Fh]                             
0804AFA8 1C2E     mov     r6,r5                                   
0804AFAA 3623     add     r6,23h                                  
0804AFAC 7833     ldrb    r3,[r6]                                 
0804AFAE 4640     mov     r0,r8                                   
0804AFB0 9000     str     r0,[sp]                                 
0804AFB2 9701     str     r7,[sp,4h]                              
0804AFB4 9402     str     r4,[sp,8h]                              
0804AFB6 2045     mov     r0,45h                                  
0804AFB8 2100     mov     r1,0h                                   
0804AFBA F7C3F94D bl      800E258h                                
0804AFBE 7FEA     ldrb    r2,[r5,1Fh]                             
0804AFC0 7833     ldrb    r3,[r6]                                 
0804AFC2 4641     mov     r1,r8                                   
0804AFC4 9100     str     r1,[sp]                                 
0804AFC6 9701     str     r7,[sp,4h]                              
0804AFC8 9402     str     r4,[sp,8h]                              
0804AFCA 2045     mov     r0,45h                                  
0804AFCC 2102     mov     r1,2h                                   
0804AFCE F7C3F943 bl      800E258h                                
0804AFD2 E1B4     b       804B33Eh                                
0804AFD4 0738     lsl     r0,r7,1Ch                               
0804AFD6 0300     lsl     r0,r0,0Ch                               
0804AFD8 FFD4     bl      lr+0FA8h                                
0804AFDA 0000     lsl     r0,r0,0h                                
0804AFDC C370     stmia   [r3]!,r4-r6                             
0804AFDE 0831     lsr     r1,r6,20h                               
0804AFE0 070C     lsl     r4,r1,1Ch                               
0804AFE2 0300     lsl     r0,r0,0Ch                               
0804AFE4 2003     mov     r0,3h                                   
0804AFE6 214A     mov     r1,4Ah                                  
0804AFE8 F015FC68 bl      80608BCh                                
0804AFEC 2800     cmp     r0,0h                                   
0804AFEE D100     bne     804AFF2h                                
0804AFF0 E1A5     b       804B33Eh                                
0804AFF2 4A17     ldr     r2,=30013D4h                            
0804AFF4 8A90     ldrh    r0,[r2,14h]                             
0804AFF6 4540     cmp     r0,r8                                   
0804AFF8 D900     bls     804AFFCh                                
0804AFFA E1A0     b       804B33Eh                                
0804AFFC 4646     mov     r6,r8                                   
0804AFFE 1A30     sub     r0,r6,r0                                
0804B000 21C0     mov     r1,0C0h                                 
0804B002 0089     lsl     r1,r1,2h                                
0804B004 4288     cmp     r0,r1                                   
0804B006 DD00     ble     804B00Ah                                
0804B008 E199     b       804B33Eh                                
0804B00A 8A50     ldrh    r0,[r2,12h]                             
0804B00C 42B8     cmp     r0,r7                                   
0804B00E D300     bcc     804B012h                                
0804B010 E195     b       804B33Eh                                
0804B012 1A38     sub     r0,r7,r0                                
0804B014 28FF     cmp     r0,0FFh                                 
0804B016 DD00     ble     804B01Ah                                
0804B018 E191     b       804B33Eh                                
0804B01A 4A0E     ldr     r2,=3000738h                            
0804B01C 1C11     mov     r1,r2                                   
0804B01E 3124     add     r1,24h                                  
0804B020 2400     mov     r4,0h                                   
0804B022 2009     mov     r0,9h                                   
0804B024 7008     strb    r0,[r1]                                 
0804B026 480C     ldr     r0,=831C380h                            
0804B028 6190     str     r0,[r2,18h]                             
0804B02A 2000     mov     r0,0h                                   
0804B02C 82D4     strh    r4,[r2,16h]                             
0804B02E 7710     strb    r0,[r2,1Ch]                             
0804B030 7F91     ldrb    r1,[r2,1Eh]                             
0804B032 8853     ldrh    r3,[r2,2h]                              
0804B034 3B04     sub     r3,4h                                   
0804B036 8890     ldrh    r0,[r2,4h]                              
0804B038 3070     add     r0,70h                                  
0804B03A 9000     str     r0,[sp]                                 
0804B03C 9401     str     r4,[sp,4h]                              
0804B03E 20C7     mov     r0,0C7h                                 
0804B040 2200     mov     r2,0h                                   
0804B042 F7C3F96B bl      800E31Ch                                
0804B046 4805     ldr     r0,=24Eh                                
0804B048 F7B7FCE6 bl      8002A18h                                
0804B04C E177     b       804B33Eh                                
0804B04E 0000     lsl     r0,r0,0h                                
0804B050 13D4     asr     r4,r2,0Fh                               
0804B052 0300     lsl     r0,r0,0Ch                               
0804B054 0738     lsl     r0,r7,1Ch                               
0804B056 0300     lsl     r0,r0,0Ch                               
0804B058 C380     stmia   [r3]!,r7                                
0804B05A 0831     lsr     r1,r6,20h                               
0804B05C 024E     lsl     r6,r1,9h                                
0804B05E 0000     lsl     r0,r0,0h                                
0804B060 4A06     ldr     r2,=3000738h                            
0804B062 8AD0     ldrh    r0,[r2,16h]                             
0804B064 2806     cmp     r0,6h                                   
0804B066 D800     bhi     804B06Ah                                
0804B068 E169     b       804B33Eh                                
0804B06A 1C11     mov     r1,r2                                   
0804B06C 3124     add     r1,24h                                  
0804B06E 2022     mov     r0,22h                                  
0804B070 7008     strb    r0,[r1]                                 
0804B072 3101     add     r1,1h                                   
0804B074 2002     mov     r0,2h                                   
0804B076 7008     strb    r0,[r1]                                 
0804B078 E161     b       804B33Eh                                
0804B07A 0000     lsl     r0,r0,0h                                
0804B07C 0738     lsl     r0,r7,1Ch                               
0804B07E 0300     lsl     r0,r0,0Ch                               
0804B080 4A14     ldr     r2,=3000738h                            
0804B082 8813     ldrh    r3,[r2]                                 
0804B084 2080     mov     r0,80h                                  
0804B086 0140     lsl     r0,r0,5h                                
0804B088 4018     and     r0,r3                                   
0804B08A 2800     cmp     r0,0h                                   
0804B08C D100     bne     804B090h                                
0804B08E E156     b       804B33Eh                                
0804B090 1C11     mov     r1,r2                                   
0804B092 3131     add     r1,31h                                  
0804B094 2000     mov     r0,0h                                   
0804B096 7008     strb    r0,[r1]                                 
0804B098 480F     ldr     r0,=0EFFFh                              
0804B09A 4018     and     r0,r3                                   
0804B09C 2300     mov     r3,0h                                   
0804B09E 8010     strh    r0,[r2]                                 
0804B0A0 390F     sub     r1,0Fh                                  
0804B0A2 2004     mov     r0,4h                                   
0804B0A4 7008     strb    r0,[r1]                                 
0804B0A6 3102     add     r1,2h                                   
0804B0A8 2023     mov     r0,23h                                  
0804B0AA 7008     strb    r0,[r1]                                 
0804B0AC 3108     add     r1,8h                                   
0804B0AE 2014     mov     r0,14h                                  
0804B0B0 7008     strb    r0,[r1]                                 
0804B0B2 1C10     mov     r0,r2                                   
0804B0B4 3025     add     r0,25h                                  
0804B0B6 7003     strb    r3,[r0]                                 
0804B0B8 4908     ldr     r1,=30013D4h                            
0804B0BA 7988     ldrb    r0,[r1,6h]                              
0804B0BC 2800     cmp     r0,0h                                   
0804B0BE D000     beq     804B0C2h                                
0804B0C0 718B     strb    r3,[r1,6h]                              
0804B0C2 89C9     ldrh    r1,[r1,0Eh]                             
0804B0C4 2010     mov     r0,10h                                  
0804B0C6 4008     and     r0,r1                                   
0804B0C8 2800     cmp     r0,0h                                   
0804B0CA D009     beq     804B0E0h                                
0804B0CC 2041     mov     r0,41h                                  
0804B0CE F7BCFA0B bl      80074E8h                                
0804B0D2 E008     b       804B0E6h                                
0804B0D4 0738     lsl     r0,r7,1Ch                               
0804B0D6 0300     lsl     r0,r0,0Ch                               
0804B0D8 EFFF     ????                                            
0804B0DA 0000     lsl     r0,r0,0h                                
0804B0DC 13D4     asr     r4,r2,0Fh                               
0804B0DE 0300     lsl     r0,r0,0Ch                               
0804B0E0 2042     mov     r0,42h                                  
0804B0E2 F7BCFA01 bl      80074E8h                                
0804B0E6 2001     mov     r0,1h                                   
0804B0E8 214B     mov     r1,4Bh                                  
0804B0EA F015FBE7 bl      80608BCh                                
0804B0EE 4905     ldr     r1,=3000738h                            
0804B0F0 2200     mov     r2,0h                                   
0804B0F2 4805     ldr     r0,=0FF60h                              
0804B0F4 8148     strh    r0,[r1,0Ah]                             
0804B0F6 818A     strh    r2,[r1,0Ch]                             
0804B0F8 81CA     strh    r2,[r1,0Eh]                             
0804B0FA 20A0     mov     r0,0A0h                                 
0804B0FC 0040     lsl     r0,r0,1h                                
0804B0FE 8208     strh    r0,[r1,10h]                             
0804B100 E11D     b       804B33Eh                                
0804B102 0000     lsl     r0,r0,0h                                
0804B104 0738     lsl     r0,r7,1Ch                               
0804B106 0300     lsl     r0,r0,0Ch                               
0804B108 FF60     bl      lr+0EC0h                                
0804B10A 0000     lsl     r0,r0,0h                                
0804B10C 4A0B     ldr     r2,=3000738h                            
0804B10E 1C11     mov     r1,r2                                   
0804B110 312C     add     r1,2Ch                                  
0804B112 7808     ldrb    r0,[r1]                                 
0804B114 3801     sub     r0,1h                                   
0804B116 7008     strb    r0,[r1]                                 
0804B118 0600     lsl     r0,r0,18h                               
0804B11A 0E03     lsr     r3,r0,18h                               
0804B11C 2B00     cmp     r3,0h                                   
0804B11E D000     beq     804B122h                                
0804B120 E10D     b       804B33Eh                                
0804B122 3908     sub     r1,8h                                   
0804B124 2024     mov     r0,24h                                  
0804B126 7008     strb    r0,[r1]                                 
0804B128 4805     ldr     r0,=831C3C8h                            
0804B12A 6190     str     r0,[r2,18h]                             
0804B12C 2000     mov     r0,0h                                   
0804B12E 82D3     strh    r3,[r2,16h]                             
0804B130 7710     strb    r0,[r2,1Ch]                             
0804B132 4804     ldr     r0,=24Fh                                
0804B134 F7B7FC70 bl      8002A18h                                
0804B138 E101     b       804B33Eh                                
0804B13A 0000     lsl     r0,r0,0h                                
0804B13C 0738     lsl     r0,r7,1Ch                               
0804B13E 0300     lsl     r0,r0,0Ch                               
0804B140 C3C8     stmia   [r3]!,r3,r6,r7                          
0804B142 0831     lsr     r1,r6,20h                               
0804B144 024F     lsl     r7,r1,9h                                
0804B146 0000     lsl     r0,r0,0h                                
0804B148 F7C4FD3E bl      800FBC8h                                
0804B14C 2800     cmp     r0,0h                                   
0804B14E D100     bne     804B152h                                
0804B150 E0F5     b       804B33Eh                                
0804B152 4B0D     ldr     r3,=3000738h                            
0804B154 480D     ldr     r0,=831C370h                            
0804B156 6198     str     r0,[r3,18h]                             
0804B158 2200     mov     r2,0h                                   
0804B15A 2000     mov     r0,0h                                   
0804B15C 82D8     strh    r0,[r3,16h]                             
0804B15E 771A     strb    r2,[r3,1Ch]                             
0804B160 1C19     mov     r1,r3                                   
0804B162 3124     add     r1,24h                                  
0804B164 2025     mov     r0,25h                                  
0804B166 7008     strb    r0,[r1]                                 
0804B168 3108     add     r1,8h                                   
0804B16A 201E     mov     r0,1Eh                                  
0804B16C 7008     strb    r0,[r1]                                 
0804B16E 3101     add     r1,1h                                   
0804B170 205A     mov     r0,5Ah                                  
0804B172 7008     strb    r0,[r1]                                 
0804B174 1C18     mov     r0,r3                                   
0804B176 302E     add     r0,2Eh                                  
0804B178 7002     strb    r2,[r0]                                 
0804B17A 3001     add     r0,1h                                   
0804B17C 7002     strb    r2,[r0]                                 
0804B17E 4904     ldr     r1,=300070Ch                            
0804B180 2001     mov     r0,1h                                   
0804B182 73C8     strb    r0,[r1,0Fh]                             
0804B184 E0DB     b       804B33Eh                                
0804B186 0000     lsl     r0,r0,0h                                
0804B188 0738     lsl     r0,r7,1Ch                               
0804B18A 0300     lsl     r0,r0,0Ch                               
0804B18C C370     stmia   [r3]!,r4-r6                             
0804B18E 0831     lsr     r1,r6,20h                               
0804B190 070C     lsl     r4,r1,1Ch                               
0804B192 0300     lsl     r0,r0,0Ch                               
0804B194 1C2B     mov     r3,r5                                   
0804B196 1C1C     mov     r4,r3                                   
0804B198 342C     add     r4,2Ch                                  
0804B19A 7820     ldrb    r0,[r4]                                 
0804B19C 2800     cmp     r0,0h                                   
0804B19E D024     beq     804B1EAh                                
0804B1A0 3801     sub     r0,1h                                   
0804B1A2 7020     strb    r0,[r4]                                 
0804B1A4 0600     lsl     r0,r0,18h                               
0804B1A6 0E01     lsr     r1,r0,18h                               
0804B1A8 290A     cmp     r1,0Ah                                  
0804B1AA D803     bhi     804B1B4h                                
0804B1AC 8898     ldrh    r0,[r3,4h]                              
0804B1AE 3002     add     r0,2h                                   
0804B1B0 8098     strh    r0,[r3,4h]                              
0804B1B2 E0C4     b       804B33Eh                                
0804B1B4 290B     cmp     r1,0Bh                                  
0804B1B6 D111     bne     804B1DCh                                
0804B1B8 7FDA     ldrb    r2,[r3,1Fh]                             
0804B1BA 1C18     mov     r0,r3                                   
0804B1BC 3023     add     r0,23h                                  
0804B1BE 7803     ldrb    r3,[r0]                                 
0804B1C0 4640     mov     r0,r8                                   
0804B1C2 9000     str     r0,[sp]                                 
0804B1C4 9701     str     r7,[sp,4h]                              
0804B1C6 2000     mov     r0,0h                                   
0804B1C8 9002     str     r0,[sp,8h]                              
0804B1CA 2045     mov     r0,45h                                  
0804B1CC 2103     mov     r1,3h                                   
0804B1CE F7C3F843 bl      800E258h                                
0804B1D2 2094     mov     r0,94h                                  
0804B1D4 0080     lsl     r0,r0,2h                                
0804B1D6 F7B7FC1F bl      8002A18h                                
0804B1DA E0B0     b       804B33Eh                                
0804B1DC 290C     cmp     r1,0Ch                                  
0804B1DE D000     beq     804B1E2h                                
0804B1E0 E0AD     b       804B33Eh                                
0804B1E2 2008     mov     r0,8h                                   
0804B1E4 F010FEF6 bl      805BFD4h                                
0804B1E8 E0A9     b       804B33Eh                                
0804B1EA 1C1A     mov     r2,r3                                   
0804B1EC 322D     add     r2,2Dh                                  
0804B1EE 7810     ldrb    r0,[r2]                                 
0804B1F0 3801     sub     r0,1h                                   
0804B1F2 7010     strb    r0,[r2]                                 
0804B1F4 0600     lsl     r0,r0,18h                               
0804B1F6 0E01     lsr     r1,r0,18h                               
0804B1F8 293B     cmp     r1,3Bh                                  
0804B1FA D80D     bhi     804B218h                                
0804B1FC 8858     ldrh    r0,[r3,2h]                              
0804B1FE 3801     sub     r0,1h                                   
0804B200 8058     strh    r0,[r3,2h]                              
0804B202 2900     cmp     r1,0h                                   
0804B204 D14D     bne     804B2A2h                                
0804B206 1C19     mov     r1,r3                                   
0804B208 3124     add     r1,24h                                  
0804B20A 2026     mov     r0,26h                                  
0804B20C 7008     strb    r0,[r1]                                 
0804B20E 20C8     mov     r0,0C8h                                 
0804B210 7020     strb    r0,[r4]                                 
0804B212 2064     mov     r0,64h                                  
0804B214 7010     strb    r0,[r2]                                 
0804B216 E044     b       804B2A2h                                
0804B218 2942     cmp     r1,42h                                  
0804B21A D842     bhi     804B2A2h                                
0804B21C 88A8     ldrh    r0,[r5,4h]                              
0804B21E 3001     add     r0,1h                                   
0804B220 80A8     strh    r0,[r5,4h]                              
0804B222 E03E     b       804B2A2h                                
0804B224 4A0A     ldr     r2,=3000738h                            
0804B226 1C13     mov     r3,r2                                   
0804B228 332C     add     r3,2Ch                                  
0804B22A 7818     ldrb    r0,[r3]                                 
0804B22C 2800     cmp     r0,0h                                   
0804B22E D025     beq     804B27Ch                                
0804B230 1E41     sub     r1,r0,1                                 
0804B232 7019     strb    r1,[r3]                                 
0804B234 0608     lsl     r0,r1,18h                               
0804B236 0E03     lsr     r3,r0,18h                               
0804B238 2B00     cmp     r3,0h                                   
0804B23A D10F     bne     804B25Ch                                
0804B23C 4805     ldr     r0,=831C410h                            
0804B23E 6190     str     r0,[r2,18h]                             
0804B240 2000     mov     r0,0h                                   
0804B242 82D3     strh    r3,[r2,16h]                             
0804B244 7710     strb    r0,[r2,1Ch]                             
0804B246 4804     ldr     r0,=251h                                
0804B248 F7B7FBE6 bl      8002A18h                                
0804B24C E00D     b       804B26Ah                                
0804B24E 0000     lsl     r0,r0,0h                                
0804B250 0738     lsl     r0,r7,1Ch                               
0804B252 0300     lsl     r0,r0,0Ch                               
0804B254 C410     stmia   [r4]!,r4                                
0804B256 0831     lsr     r1,r6,20h                               
0804B258 0251     lsl     r1,r2,9h                                
0804B25A 0000     lsl     r0,r0,0h                                
0804B25C 0608     lsl     r0,r1,18h                               
0804B25E 0E00     lsr     r0,r0,18h                               
0804B260 2864     cmp     r0,64h                                  
0804B262 D102     bne     804B26Ah                                
0804B264 4903     ldr     r1,=300070Ch                            
0804B266 2002     mov     r0,2h                                   
0804B268 73C8     strb    r0,[r1,0Fh]                             
0804B26A 4903     ldr     r1,=3000738h                            
0804B26C 8848     ldrh    r0,[r1,2h]                              
0804B26E 3802     sub     r0,2h                                   
0804B270 8048     strh    r0,[r1,2h]                              
0804B272 E016     b       804B2A2h                                
0804B274 070C     lsl     r4,r1,1Ch                               
0804B276 0300     lsl     r0,r0,0Ch                               
0804B278 0738     lsl     r0,r7,1Ch                               
0804B27A 0300     lsl     r0,r0,0Ch                               
0804B27C 1C13     mov     r3,r2                                   
0804B27E 332D     add     r3,2Dh                                  
0804B280 7818     ldrb    r0,[r3]                                 
0804B282 3801     sub     r0,1h                                   
0804B284 7018     strb    r0,[r3]                                 
0804B286 0600     lsl     r0,r0,18h                               
0804B288 2800     cmp     r0,0h                                   
0804B28A D10A     bne     804B2A2h                                
0804B28C 1C11     mov     r1,r2                                   
0804B28E 3124     add     r1,24h                                  
0804B290 2027     mov     r0,27h                                  
0804B292 7008     strb    r0,[r1]                                 
0804B294 20C8     mov     r0,0C8h                                 
0804B296 80D0     strh    r0,[r2,6h]                              
0804B298 2004     mov     r0,4h                                   
0804B29A 7018     strb    r0,[r3]                                 
0804B29C 4816     ldr     r0,=252h                                
0804B29E F7B7FBBB bl      8002A18h                                
0804B2A2 4B16     ldr     r3,=3000738h                            
0804B2A4 1C1D     mov     r5,r3                                   
0804B2A6 352F     add     r5,2Fh                                  
0804B2A8 782A     ldrb    r2,[r5]                                 
0804B2AA 4C15     ldr     r4,=831A548h                            
0804B2AC 0050     lsl     r0,r2,1h                                
0804B2AE 1900     add     r0,r0,r4                                
0804B2B0 2600     mov     r6,0h                                   
0804B2B2 5F81     ldsh    r1,[r0,r6]                              
0804B2B4 4E13     ldr     r6,=7FFFh                               
0804B2B6 42B1     cmp     r1,r6                                   
0804B2B8 D102     bne     804B2C0h                                
0804B2BA 2700     mov     r7,0h                                   
0804B2BC 5FE1     ldsh    r1,[r4,r7]                              
0804B2BE 2200     mov     r2,0h                                   
0804B2C0 1C50     add     r0,r2,1                                 
0804B2C2 7028     strb    r0,[r5]                                 
0804B2C4 8858     ldrh    r0,[r3,2h]                              
0804B2C6 1840     add     r0,r0,r1                                
0804B2C8 8058     strh    r0,[r3,2h]                              
0804B2CA 1C1D     mov     r5,r3                                   
0804B2CC 352E     add     r5,2Eh                                  
0804B2CE 782A     ldrb    r2,[r5]                                 
0804B2D0 4C0D     ldr     r4,=831A5CAh                            
0804B2D2 0050     lsl     r0,r2,1h                                
0804B2D4 1900     add     r0,r0,r4                                
0804B2D6 2700     mov     r7,0h                                   
0804B2D8 5FC1     ldsh    r1,[r0,r7]                              
0804B2DA 42B1     cmp     r1,r6                                   
0804B2DC D102     bne     804B2E4h                                
0804B2DE 2000     mov     r0,0h                                   
0804B2E0 5E21     ldsh    r1,[r4,r0]                              
0804B2E2 2200     mov     r2,0h                                   
0804B2E4 1C50     add     r0,r2,1                                 
0804B2E6 7028     strb    r0,[r5]                                 
0804B2E8 8898     ldrh    r0,[r3,4h]                              
0804B2EA 1840     add     r0,r0,r1                                
0804B2EC 8098     strh    r0,[r3,4h]                              
0804B2EE 8859     ldrh    r1,[r3,2h]                              
0804B2F0 4688     mov     r8,r1                                   
0804B2F2 889F     ldrh    r7,[r3,4h]                              
0804B2F4 E023     b       804B33Eh                                
0804B2F6 0000     lsl     r0,r0,0h                                
0804B2F8 0252     lsl     r2,r2,9h                                
0804B2FA 0000     lsl     r0,r0,0h                                
0804B2FC 0738     lsl     r0,r7,1Ch                               
0804B2FE 0300     lsl     r0,r0,0Ch                               
0804B300 A548     add     r5,=804B424h                            
0804B302 0831     lsr     r1,r6,20h                               
0804B304 7FFF     ldrb    r7,[r7,1Fh]                             
0804B306 0000     lsl     r0,r0,0h                                
0804B308 A5CA     add     r5,=804B634h                            
0804B30A 0831     lsr     r1,r6,20h                               
0804B30C 491D     ldr     r1,=3000738h                            
0804B30E 1C0A     mov     r2,r1                                   
0804B310 322D     add     r2,2Dh                                  
0804B312 7810     ldrb    r0,[r2]                                 
0804B314 283F     cmp     r0,3Fh                                  
0804B316 D801     bhi     804B31Ch                                
0804B318 3001     add     r0,1h                                   
0804B31A 7010     strb    r0,[r2]                                 
0804B31C 7810     ldrb    r0,[r2]                                 
0804B31E 0840     lsr     r0,r0,1h                                
0804B320 888A     ldrh    r2,[r1,4h]                              
0804B322 1880     add     r0,r0,r2                                
0804B324 8088     strh    r0,[r1,4h]                              
0804B326 88C8     ldrh    r0,[r1,6h]                              
0804B328 3801     sub     r0,1h                                   
0804B32A 80C8     strh    r0,[r1,6h]                              
0804B32C 0400     lsl     r0,r0,10h                               
0804B32E 2800     cmp     r0,0h                                   
0804B330 D105     bne     804B33Eh                                
0804B332 3124     add     r1,24h                                  
0804B334 2028     mov     r0,28h                                  
0804B336 7008     strb    r0,[r1]                                 
0804B338 2001     mov     r0,1h                                   
0804B33A F010FE4B bl      805BFD4h                                

