07E2BA 07E2D7 30       
07E2EA 07E2F5 12          
07E31A 07E31D 4                
07E326 07E329 4                
07E334 07E341 14               
07E8FE 07E915 24               
07E9AE 07E9C3 22              
07EA2E 07EA39 12        
////////////////////////////////////////////////////////////////
0807E2BA 21AA     mov     r1,0AAh       mov     r1,80h                                  
0807E2BC 7019     strb    r1,[r3]       lsl     r1,r1,8h                                
0807E2BE 4A05     ldr     r2,=0E002AAAh mov     r2,9h                                   
0807E2C0 2155     mov     r1,55h        lsl     r2,r2,18h                               
0807E2C2 7011     strb    r1,[r2]       add     r15,r3                                  
0807E2C4 21B0     mov     r1,0B0h       strh    r1,[r2]                                 
0807E2C6 7019     strb    r1,[r3]       ldr     r1,=0h                                  
0807E2C8 21E0     mov     r1,0E0h       lsl     r3,r0,0Bh                               
0807E2CA 0509     lsl     r1,r1,14h     add     r1,r1,r3                                
0807E2CC 7008     strb    r0,[r1]       strh    r1,[r2]                                 
0807E2CE 4770     bx      r14           bx      r14                                     
0807E2D0 5555     strb    r5,[r2,r5]    bl      lr+0FFCh                                
0807E2D2 0E00     lsr     r0,r0,18h     lsl     r7,r7,7h                                
0807E2D4 2AAA     cmp     r2,0AAh       lsl     r0,r0,0h                                
0807E2D6 0E00     lsr     r0,r0,18h     lsl     r0,r0,0h 
/////////////////////////////////////////////////////////////////
                               
0807E2D8 B530     push    r4,r5,r14     push    r4,r5,r14                               
0807E2DA B091     add     sp,-44h       add     sp,-44h                                 
0807E2DC 4668     mov     r0,r13        mov     r0,r13                                  
0807E2DE F000F8F3 bl      807E4C8h       807E4C8h                                
0807E2E2 466D     mov     r5,r13        mov     r5,r13                                  
0807E2E4 3501     add     r5,1h         add     r5,1h                                   
0807E2E6 4A06     ldr     r2,=0E005555h ldr     r2,=0E005555h                           
0807E2E8 20AA     mov     r0,0AAh       mov     r0,0AAh

///////////////////////////////////////////////////////////////////                                 
0807E2EA 7010     strb    r0,[r2]       lsl     r0,r0,0h                                
0807E2EC 4905     ldr     r1,=0E002AAAh ldr     r1,=0E002AAAh                           
0807E2EE 2055     mov     r0,55h        mov     r0,55h                                  
0807E2F0 7008     strb    r0,[r1]       lsl     r0,r0,0h                                
0807E2F2 2090     mov     r0,90h        mov     r0,90h                                  
0807E2F4 7010     strb    r0,[r2]       lsl     r0,r0,0h  
///////////////////////////////////////////////////////////////////
                              
0807E2F6 A910     add     r1,sp,40h     add     r1,sp,40h                               
0807E2F8 4A03     ldr     r2,=4E20h     ldr     r2,=4E20h                               
0807E2FA 1C10     mov     r0,r2         mov     r0,r2                                   
0807E2FC E008     b       807E310h      b       807E310h                                
0807E2FE 0000     lsl     r0,r0,0h      lsl     r0,r0,0h                                
0807E300 5555     strb    r5,[r2,r5]    strb    r5,[r2,r5]                              
0807E302 0E00     lsr     r0,r0,18h     lsr     r0,r0,18h                               
0807E304 2AAA     cmp     r2,0AAh       cmp     r2,0AAh                                 
0807E306 0E00     lsr     r0,r0,18h     lsr     r0,r0,18h                               
0807E308 4E20     ldr     r6,=70082001h ldr     r6,=70082001h                           
0807E30A 0000     lsl     r0,r0,0h      lsl     r0,r0,0h                                
0807E30C 8808     ldrh    r0,[r1]       ldrh    r0,[r1]                                 
0807E30E 3801     sub     r0,1h         sub     r0,1h                                   
0807E310 8008     strh    r0,[r1]       strh    r0,[r1]                                 
0807E312 8808     ldrh    r0,[r1]       ldrh    r0,[r1]                                 
0807E314 2800     cmp     r0,0h         cmp     r0,0h                                   
0807E316 D1F9     bne     807E30Ch      bne     807E30Ch                                
0807E318 480C     ldr     r0,=0E000001h ldr     r0,=0E000001h 

///////////////////////////////////////////////////////////////////                          
0807E31A F000FBFD bl      807EB18h      mov     r0,13h                                  
	                                    mov     r0,13h             
///////////////////////////////////////////////////////////////////
										
0807E31E 0600     lsl     r0,r0,18h     lsl     r0,r0,18h                               
0807E320 0C04     lsr     r4,r0,10h     lsr     r4,r0,10h                               
0807E322 20E0     mov     r0,0E0h       mov     r0,0E0h                                 
0807E324 0500     lsl     r0,r0,14h     lsl     r0,r0,14h 

///////////////////////////////////////////////////////////////////                              
0807E326 F000FBF7 bl      807EB18h      mov     r0,62h                                  
	                                    mov     r0,62h             
///////////////////////////////////////////////////////////////////
										
0807E32A 0600     lsl     r0,r0,18h     lsl     r0,r0,18h                               
0807E32C 0E00     lsr     r0,r0,18h     lsr     r0,r0,18h                               
0807E32E 4304     orr     r4,r0         orr     r4,r0                                   
0807E330 4907     ldr     r1,=0E005555h ldr     r1,=0E005555h                           
0807E332 20AA     mov     r0,0AAh       mov     r0,0AAh 

///////////////////////////////////////////////////////////////////                                
0807E334 7008     strb    r0,[r1]       lsl     r0,r0,0h                                
0807E336 4A07     ldr     r2,=0E002AAAh ldr     r2,=0E002AAAh                           
0807E338 2055     mov     r0,55h        mov     r0,55h                                  
0807E33A 7010     strb    r0,[r2]       lsl     r0,r0,0h                                
0807E33C 20F0     mov     r0,0F0h       mov     r0,0F0h                                 
0807E33E 7008     strb    r0,[r1]       lsl     r0,r0,0h                                
0807E340 7008     strb    r0,[r1]       lsl     r0,r0,0h  
///////////////////////////////////////////////////////////////////
                              
0807E342 A910     add     r1,sp,40h     add     r1,sp,40h                               
0807E344 4A04     ldr     r2,=4E20h     ldr     r2,=4E20h                               
0807E346 1C10     mov     r0,r2         mov     r0,r2                                   
0807E348 E00A     b       807E360h      b       807E360h                                
0807E34A 0000     lsl     r0,r0,0h      lsl     r0,r0,0h                                
0807E34C 0001     lsl     r1,r0,0h      lsl     r1,r0,0h                                
0807E34E 0E00     lsr     r0,r0,18h     lsr     r0,r0,18h                               
0807E350 5555     strb    r5,[r2,r5]    strb    r5,[r2,r5]                              
0807E352 0E00     lsr     r0,r0,18h     lsr     r0,r0,18h                               
0807E354 2AAA     cmp     r2,0AAh       cmp     r2,0AAh                                 
0807E356 0E00     lsr     r0,r0,18h     lsr     r0,r0,18h                               
0807E358 4E20     ldr     r6,=4644464Dh ldr     r6,=4644464Dh                           
0807E35A 0000     lsl     r0,r0,0h      lsl     r0,r0,0h                                
0807E35C 8808     ldrh    r0,[r1]       ldrh    r0,[r1]                                 
0807E35E 3801     sub     r0,1h         sub     r0,1h                                   
0807E360 8008     strh    r0,[r1]       strh    r0,[r1]                                 
0807E362 8808     ldrh    r0,[r1]       ldrh    r0,[r1]                                 
0807E364 2800     cmp     r0,0h         cmp     r0,0h                                   
0807E366 D1F9     bne     807E35Ch      bne     807E35Ch                                
0807E368 1C20     mov     r0,r4         mov     r0,r4                                   
0807E36A B011     add     sp,44h        add     sp,44h                                  
0807E36C BC30     pop     r4,r5         pop     r4,r5                                   
0807E36E BC02     pop     r1            pop     r1                                      
0807E370 4708     bx      r1            bx      r1                                      
0807E372 0000     lsl     r0,r0,0h      lsl     r0,r0,0h                                
0807E374 B500     push    r14           push    r14                                     
0807E376 4907     ldr     r1,=30011F2h  ldr     r1,=30011F2h                            
0807E378 8808     ldrh    r0,[r1]       ldrh    r0,[r1]                                 
0807E37A 2800     cmp     r0,0h         cmp     r0,0h                                   
0807E37C D008     beq     807E390h      beq     807E390h                                
0807E37E 8808     ldrh    r0,[r1]       ldrh    r0,[r1]                                 
0807E380 3801     sub     r0,1h         sub     r0,1h                                   
0807E382 8008     strh    r0,[r1]       strh    r0,[r1]                                 
0807E384 0400     lsl     r0,r0,10h     lsl     r0,r0,10h                               
0807E386 2800     cmp     r0,0h         cmp     r0,0h                                   
0807E388 D102     bne     807E390h      bne     807E390h                                
0807E38A 4903     ldr     r1,=3003188h  ldr     r1,=3003188h                            
0807E38C 2001     mov     r0,1h         mov     r0,1h                                   
0807E38E 7008     strb    r0,[r1]       strb    r0,[r1]                                 
0807E390 BC01     pop     r0            pop     r0                                      
0807E392 4700     bx      r0            bx      r0                                      
0807E394 11F2     asr     r2,r6,7h      asr     r2,r6,7h                                
0807E396 0300     lsl     r0,r0,0Ch     lsl     r0,r0,0Ch                               
0807E398 3188     add     r1,88h        add     r1,88h                                  
0807E39A 0300     lsl     r0,r0,0Ch     lsl     r0,r0,0Ch                               
0807E39C B500     push    r14           push    r14                                     
0807E39E 1C0A     mov     r2,r1         mov     r2,r1                                   
0807E3A0 0600     lsl     r0,r0,18h     lsl     r0,r0,18h                               
0807E3A2 0E01     lsr     r1,r0,18h     lsr     r1,r0,18h                               
0807E3A4 2903     cmp     r1,3h         cmp     r1,3h                                   
0807E3A6 D813     bhi     807E3D0h      bhi     807E3D0h                                
0807E3A8 4805     ldr     r0,=30011F0h  ldr     r0,=30011F0h                            
0807E3AA 7001     strb    r1,[r0]       strb    r1,[r0]                                 
0807E3AC 4905     ldr     r1,=30011F4h  ldr     r1,=30011F4h                            
0807E3AE 7800     ldrb    r0,[r0]       ldrb    r0,[r0]                                 
0807E3B0 0080     lsl     r0,r0,2h      lsl     r0,r0,2h                                
0807E3B2 4B05     ldr     r3,=4000100h  ldr     r3,=4000100h                            
0807E3B4 18C0     add     r0,r0,r3      add     r0,r0,r3                                
0807E3B6 6008     str     r0,[r1]       str     r0,[r1]                                 
0807E3B8 4804     ldr     r0,=807E375h  ldr     r0,=807E375h                            
0807E3BA 6010     str     r0,[r2]       str     r0,[r2]                                 
0807E3BC 2000     mov     r0,0h         mov     r0,0h                                   
0807E3BE E008     b       807E3D2h      b       807E3D2h                                
0807E3C0 11F0     asr     r0,r6,7h      asr     r0,r6,7h                                
0807E3C2 0300     lsl     r0,r0,0Ch     lsl     r0,r0,0Ch                               
0807E3C4 11F4     asr     r4,r6,7h      asr     r4,r6,7h                                
0807E3C6 0300     lsl     r0,r0,0Ch     lsl     r0,r0,0Ch                               
0807E3C8 0100     lsl     r0,r0,4h      lsl     r0,r0,4h                                
0807E3CA 0400     lsl     r0,r0,10h     lsl     r0,r0,10h                               
0807E3CC E375     b       807EABAh      b       807EABAh                                
0807E3CE 0807     lsr     r7,r0,20h     lsr     r7,r0,20h                               
0807E3D0 2001     mov     r0,1h         mov     r0,1h                                   
0807E3D2 BC02     pop     r1            pop     r1                                      
0807E3D4 4708     bx      r1            bx      r1                                      
0807E3D6 0000     lsl     r0,r0,0h      lsl     r0,r0,0h                                
0807E3D8 B570     push    r4-r6,r14     push    r4-r6,r14                               
0807E3DA 4656     mov     r6,r10        mov     r6,r10                                  
0807E3DC 464D     mov     r5,r9         mov     r5,r9                                   
0807E3DE 4644     mov     r4,r8         mov     r4,r8                                   
0807E3E0 B470     push    r4-r6         push    r4-r6                                   
0807E3E2 0600     lsl     r0,r0,18h     lsl     r0,r0,18h                               
0807E3E4 0E00     lsr     r0,r0,18h     lsr     r0,r0,18h                               
0807E3E6 491D     ldr     r1,=30031A8h  ldr     r1,=30031A8h                            
0807E3E8 0042     lsl     r2,r0,1h      lsl     r2,r0,1h                                
0807E3EA 1812     add     r2,r2,r0      add     r2,r2,r0                                
0807E3EC 0052     lsl     r2,r2,1h      lsl     r2,r2,1h                                
0807E3EE 6808     ldr     r0,[r1]       ldr     r0,[r1]                                 
0807E3F0 1812     add     r2,r2,r0      add     r2,r2,r0                                
0807E3F2 491B     ldr     r1,=30011F8h  ldr     r1,=30011F8h                            
0807E3F4 481B     ldr     r0,=4000208h  ldr     r0,=4000208h                            
0807E3F6 4681     mov     r9,r0         mov     r9,r0                                   
0807E3F8 8800     ldrh    r0,[r0]       ldrh    r0,[r0]                                 
0807E3FA 8008     strh    r0,[r1]       strh    r0,[r1]                                 
0807E3FC 2300     mov     r3,0h         mov     r3,0h                                   
0807E3FE 4649     mov     r1,r9         mov     r1,r9                                   
0807E400 800B     strh    r3,[r1]       strh    r3,[r1]                                 
0807E402 4819     ldr     r0,=30011F4h  ldr     r0,=30011F4h                            
0807E404 4680     mov     r8,r0         mov     r8,r0                                   
0807E406 6804     ldr     r4,[r0]       ldr     r4,[r0]                                 
0807E408 8063     strh    r3,[r4,2h]    strh    r3,[r4,2h]                              
0807E40A 4E18     ldr     r6,=4000200h  ldr     r6,=4000200h                            
0807E40C 4918     ldr     r1,=30011F0h  ldr     r1,=30011F0h                            
0807E40E 468A     mov     r10,r1        mov     r10,r1                                  
0807E410 7809     ldrb    r1,[r1]       ldrb    r1,[r1]                                 
0807E412 2508     mov     r5,8h         mov     r5,8h                                   
0807E414 1C28     mov     r0,r5         mov     r0,r5                                   
0807E416 4088     lsl     r0,r1         lsl     r0,r1                                   
0807E418 1C01     mov     r1,r0         mov     r1,r0                                   
0807E41A 8830     ldrh    r0,[r6]       ldrh    r0,[r6]                                 
0807E41C 4308     orr     r0,r1         orr     r0,r1                                   
0807E41E 8030     strh    r0,[r6]       strh    r0,[r6]                                 
0807E420 4814     ldr     r0,=3003188h  ldr     r0,=3003188h                            
0807E422 7003     strb    r3,[r0]       strb    r3,[r0]                                 
0807E424 4914     ldr     r1,=30011F2h  ldr     r1,=30011F2h                            
0807E426 8810     ldrh    r0,[r2]       ldrh    r0,[r2]                                 
0807E428 8008     strh    r0,[r1]       strh    r0,[r1]                                 
0807E42A 3202     add     r2,2h         add     r2,2h                                   
0807E42C 8810     ldrh    r0,[r2]       ldrh    r0,[r2]                                 
0807E42E 8020     strh    r0,[r4]       strh    r0,[r4]                                 
0807E430 1CA0     add     r0,r4,2       add     r0,r4,2                                 
0807E432 4641     mov     r1,r8         mov     r1,r8                                   
0807E434 6008     str     r0,[r1]       str     r0,[r1]                                 
0807E436 8850     ldrh    r0,[r2,2h]    ldrh    r0,[r2,2h]                              
0807E438 8060     strh    r0,[r4,2h]    strh    r0,[r4,2h]                              
0807E43A 600C     str     r4,[r1]       str     r4,[r1]                                 
0807E43C 490F     ldr     r1,=4000202h  ldr     r1,=4000202h                            
0807E43E 4652     mov     r2,r10        mov     r2,r10                                  
0807E440 7810     ldrb    r0,[r2]       ldrb    r0,[r2]                                 
0807E442 4085     lsl     r5,r0         lsl     r5,r0                                   
0807E444 800D     strh    r5,[r1]       strh    r5,[r1]                                 
0807E446 2001     mov     r0,1h         mov     r0,1h                                   
0807E448 464B     mov     r3,r9         mov     r3,r9                                   
0807E44A 8018     strh    r0,[r3]       strh    r0,[r3]                                 
0807E44C BC38     pop     r3-r5         pop     r3-r5                                   
0807E44E 4698     mov     r8,r3         mov     r8,r3                                   
0807E450 46A1     mov     r9,r4         mov     r9,r4                                   
0807E452 46AA     mov     r10,r5        mov     r10,r5                                  
0807E454 BC70     pop     r4-r6         pop     r4-r6                                   
0807E456 BC01     pop     r0            pop     r0                                      
0807E458 4700     bx      r0            bx      r0                                      
0807E45A 0000     lsl     r0,r0,0h      lsl     r0,r0,0h                                
0807E45C 31A8     add     r1,0A8h       add     r1,0A8h                                 
0807E45E 0300     lsl     r0,r0,0Ch     lsl     r0,r0,0Ch                               
0807E460 11F8     asr     r0,r7,7h      asr     r0,r7,7h                                
0807E462 0300     lsl     r0,r0,0Ch     lsl     r0,r0,0Ch                               
0807E464 0208     lsl     r0,r1,8h      lsl     r0,r1,8h                                
0807E466 0400     lsl     r0,r0,10h     lsl     r0,r0,10h                               
0807E468 11F4     asr     r4,r6,7h      asr     r4,r6,7h                                
0807E46A 0300     lsl     r0,r0,0Ch     lsl     r0,r0,0Ch                               
0807E46C 0200     lsl     r0,r0,8h      lsl     r0,r0,8h                                
0807E46E 0400     lsl     r0,r0,10h     lsl     r0,r0,10h                               
0807E470 11F0     asr     r0,r6,7h      asr     r0,r6,7h                                
0807E472 0300     lsl     r0,r0,0Ch     lsl     r0,r0,0Ch                               
0807E474 3188     add     r1,88h        add     r1,88h                                  
0807E476 0300     lsl     r0,r0,0Ch     lsl     r0,r0,0Ch                               
0807E478 11F2     asr     r2,r6,7h      asr     r2,r6,7h                                
0807E47A 0300     lsl     r0,r0,0Ch     lsl     r0,r0,0Ch                               
0807E47C 0202     lsl     r2,r0,8h      lsl     r2,r0,8h                                
0807E47E 0400     lsl     r0,r0,10h     lsl     r0,r0,10h                               
0807E480 4B0B     ldr     r3,=4000208h  ldr     r3,=4000208h                            
0807E482 2100     mov     r1,0h         mov     r1,0h                                   
0807E484 8019     strh    r1,[r3]       strh    r1,[r3]                                 
0807E486 4A0B     ldr     r2,=30011F4h  ldr     r2,=30011F4h                            
0807E488 6810     ldr     r0,[r2]       ldr     r0,[r2]                                 
0807E48A 8001     strh    r1,[r0]       strh    r1,[r0]                                 
0807E48C 3002     add     r0,2h         add     r0,2h                                   
0807E48E 6010     str     r0,[r2]       str     r0,[r2]                                 
0807E490 8001     strh    r1,[r0]       strh    r1,[r0]                                 
0807E492 3802     sub     r0,2h         sub     r0,2h                                   
0807E494 6010     str     r0,[r2]       str     r0,[r2]                                 
0807E496 4A08     ldr     r2,=4000200h  ldr     r2,=4000200h                            
0807E498 4808     ldr     r0,=30011F0h  ldr     r0,=30011F0h                            
0807E49A 7800     ldrb    r0,[r0]       ldrb    r0,[r0]                                 
0807E49C 2108     mov     r1,8h         mov     r1,8h                                   
0807E49E 4081     lsl     r1,r0         lsl     r1,r0                                   
0807E4A0 8810     ldrh    r0,[r2]       ldrh    r0,[r2]                                 
0807E4A2 4388     bic     r0,r1         bic     r0,r1                                   
0807E4A4 8010     strh    r0,[r2]       strh    r0,[r2]                                 
0807E4A6 4806     ldr     r0,=30011F8h  ldr     r0,=30011F8h                            
0807E4A8 8800     ldrh    r0,[r0]       ldrh    r0,[r0]                                 
0807E4AA 8018     strh    r0,[r3]       strh    r0,[r3]                                 
0807E4AC 4770     bx      r14           bx      r14                                     
0807E4AE 0000     lsl     r0,r0,0h      lsl     r0,r0,0h                                
0807E4B0 0208     lsl     r0,r1,8h      lsl     r0,r1,8h                                
0807E4B2 0400     lsl     r0,r0,10h     lsl     r0,r0,10h                               
0807E4B4 11F4     asr     r4,r6,7h      asr     r4,r6,7h                                
0807E4B6 0300     lsl     r0,r0,0Ch     lsl     r0,r0,0Ch                               
0807E4B8 0200     lsl     r0,r0,8h      lsl     r0,r0,8h                                
0807E4BA 0400     lsl     r0,r0,10h     lsl     r0,r0,10h                               
0807E4BC 11F0     asr     r0,r6,7h      asr     r0,r6,7h                                
0807E4BE 0300     lsl     r0,r0,0Ch     lsl     r0,r0,0Ch                               
0807E4C0 11F8     asr     r0,r7,7h      asr     r0,r7,7h                                
0807E4C2 0300     lsl     r0,r0,0Ch     lsl     r0,r0,0Ch                               
0807E4C4 7800     ldrb    r0,[r0]       ldrb    r0,[r0]                                 
0807E4C6 4770     bx      r14           bx      r14                                     
0807E4C8 B500     push    r14           push    r14                                     
0807E4CA 1C02     mov     r2,r0         mov     r2,r0                                   
0807E4CC 4905     ldr     r1,=300318Ch  ldr     r1,=300318Ch                            
0807E4CE 1C50     add     r0,r2,1       add     r0,r2,1                                 
0807E4D0 6008     str     r0,[r1]       str     r0,[r1]                                 
0807E4D2 4B05     ldr     r3,=807E4C5h  ldr     r3,=807E4C5h                            
0807E4D4 2001     mov     r0,1h         mov     r0,1h                                   
0807E4D6 4383     bic     r3,r0         bic     r3,r0                                   
0807E4D8 4804     ldr     r0,=807E4C9h  ldr     r0,=807E4C9h                            
0807E4DA 4903     ldr     r1,=807E4C5h  ldr     r1,=807E4C5h                            
0807E4DC 1A40     sub     r0,r0,r1      sub     r0,r0,r1                                
0807E4DE 03C0     lsl     r0,r0,0Fh     lsl     r0,r0,0Fh                               
0807E4E0 E00C     b       807E4FCh      b       807E4FCh                                
0807E4E2 0000     lsl     r0,r0,0h      lsl     r0,r0,0h                                
0807E4E4 318C     add     r1,8Ch        add     r1,8Ch                                  
0807E4E6 0300     lsl     r0,r0,0Ch     lsl     r0,r0,0Ch                               
0807E4E8 E4C5     b       807DE76h      b       807DE76h                                
0807E4EA 0807     lsr     r7,r0,20h     lsr     r7,r0,20h                               
0807E4EC E4C9     b       807DE82h      b       807DE82h                                
0807E4EE 0807     lsr     r7,r0,20h     lsr     r7,r0,20h                               
0807E4F0 8818     ldrh    r0,[r3]       ldrh    r0,[r3]                                 
0807E4F2 8010     strh    r0,[r2]       strh    r0,[r2]                                 
0807E4F4 3302     add     r3,2h         add     r3,2h                                   
0807E4F6 3202     add     r2,2h         add     r2,2h                                   
0807E4F8 1E48     sub     r0,r1,1       sub     r0,r1,1                                 
0807E4FA 0400     lsl     r0,r0,10h     lsl     r0,r0,10h                               
0807E4FC 0C01     lsr     r1,r0,10h     lsr     r1,r0,10h                               
0807E4FE 2900     cmp     r1,0h         cmp     r1,0h                                   
0807E500 D1F6     bne     807E4F0h      bne     807E4F0h                                
0807E502 BC01     pop     r0            pop     r0                                      
0807E504 4700     bx      r0            bx      r0                                      
0807E506 0000     lsl     r0,r0,0h      lsl     r0,r0,0h                                
0807E508 B510     push    r4,r14        push    r4,r14                                  
0807E50A 1C04     mov     r4,r0         mov     r4,r0                                   
0807E50C 1E53     sub     r3,r2,1       sub     r3,r2,1                                 
0807E50E 2A00     cmp     r2,0h         cmp     r2,0h                                   
0807E510 D008     beq     807E524h      beq     807E524h                                
0807E512 2201     mov     r2,1h         mov     r2,1h                                   
0807E514 4252     neg     r2,r2         neg     r2,r2                                   
0807E516 7820     ldrb    r0,[r4]       ldrb    r0,[r4]                                 
0807E518 7008     strb    r0,[r1]       strb    r0,[r1]                                 
0807E51A 3401     add     r4,1h         add     r4,1h                                   
0807E51C 3101     add     r1,1h         add     r1,1h                                   
0807E51E 3B01     sub     r3,1h         sub     r3,1h                                   
0807E520 4293     cmp     r3,r2         cmp     r3,r2                                   
0807E522 D1F8     bne     807E516h      bne     807E516h                                
0807E524 BC10     pop     r4            pop     r4                                      
0807E526 BC01     pop     r0            pop     r0                                      
0807E528 4700     bx      r0            bx      r0                                      
0807E52A 0000     lsl     r0,r0,0h      lsl     r0,r0,0h                                
0807E52C B5F0     push    r4-r7,r14     push    r4-r7,r14                               
0807E52E B0A0     add     sp,-80h       add     sp,-80h                                 
0807E530 1C0D     mov     r5,r1         mov     r5,r1                                   
0807E532 1C16     mov     r6,r2         mov     r6,r2                                   
0807E534 1C1F     mov     r7,r3         mov     r7,r3                                   
0807E536 0403     lsl     r3,r0,10h     lsl     r3,r0,10h                               
0807E538 0C1C     lsr     r4,r3,10h     lsr     r4,r3,10h                               
0807E53A 4A0F     ldr     r2,=4000204h  ldr     r2,=4000204h                            
0807E53C 8810     ldrh    r0,[r2]       ldrh    r0,[r2]                                 
0807E53E 490F     ldr     r1,=0FFFCh    ldr     r1,=0FFFCh                              
0807E540 4008     and     r0,r1         and     r0,r1                                   
0807E542 2103     mov     r1,3h         mov     r1,3h                                   
0807E544 4308     orr     r0,r1         orr     r0,r1                                   
0807E546 8010     strh    r0,[r2]       strh    r0,[r2]                                 
0807E548 480D     ldr     r0,=3003198h  ldr     r0,=3003198h                            
0807E54A 6800     ldr     r0,[r0]       ldr     r0,[r0]                                 
0807E54C 6801     ldr     r1,[r0]       ldr     r1,[r0]                                 
0807E54E 2080     mov     r0,80h        mov     r0,80h                                  
0807E550 0280     lsl     r0,r0,0Ah     lsl     r0,r0,0Ah                               
0807E552 4281     cmp     r1,r0         cmp     r1,r0                                   
0807E554 D106     bne     807E564h      bne     807E564h                                
0807E556 0D18     lsr     r0,r3,14h     lsr     r0,r3,14h                               
0807E558 0600     lsl     r0,r0,18h     lsl     r0,r0,18h                               
0807E55A 0E00     lsr     r0,r0,18h     lsr     r0,r0,18h                               
0807E55C F7FFFEAA bl      807E2B4h       807E2B4h                                
0807E560 200F     mov     r0,0Fh        mov     r0,0Fh                                  
0807E562 4004     and     r4,r0         and     r4,r0                                   
0807E564 4B07     ldr     r3,=807E509h  ldr     r3,=807E509h                            
0807E566 2001     mov     r0,1h         mov     r0,1h                                   
0807E568 4383     bic     r3,r0         bic     r3,r0                                   
0807E56A 466A     mov     r2,r13        mov     r2,r13                                  
0807E56C 4806     ldr     r0,=807E52Dh  ldr     r0,=807E52Dh                            
0807E56E 4905     ldr     r1,=807E509h  ldr     r1,=807E509h                            
0807E570 1A40     sub     r0,r0,r1      sub     r0,r0,r1                                
0807E572 03C0     lsl     r0,r0,0Fh     lsl     r0,r0,0Fh                               
0807E574 E010     b       807E598h      b       807E598h                                
0807E576 0000     lsl     r0,r0,0h      lsl     r0,r0,0h                                
0807E578 0204     lsl     r4,r0,8h      lsl     r4,r0,8h                                
0807E57A 0400     lsl     r0,r0,10h     lsl     r0,r0,10h                               
0807E57C FFFC     bl      lr+0FF8h      bl      lr+0FF8h                                
0807E57E 0000     lsl     r0,r0,0h      lsl     r0,r0,0h                                
0807E580 3198     add     r1,98h        add     r1,98h                                  
0807E582 0300     lsl     r0,r0,0Ch     lsl     r0,r0,0Ch                               
0807E584 E509     b       807DF9Ah      b       807DF9Ah                                
0807E586 0807     lsr     r7,r0,20h     lsr     r7,r0,20h                               
0807E588 E52D     b       807DFE6h      b       807DFE6h                                
0807E58A 0807     lsr     r7,r0,20h     lsr     r7,r0,20h                               
0807E58C 8818     ldrh    r0,[r3]       ldrh    r0,[r3]                                 
0807E58E 8010     strh    r0,[r2]       strh    r0,[r2]                                 
0807E590 3302     add     r3,2h         add     r3,2h                                   
0807E592 3202     add     r2,2h         add     r2,2h                                   
0807E594 1E48     sub     r0,r1,1       sub     r0,r1,1                                 
0807E596 0400     lsl     r0,r0,10h     lsl     r0,r0,10h                               
0807E598 0C01     lsr     r1,r0,10h     lsr     r1,r0,10h                               
0807E59A 2900     cmp     r1,0h         cmp     r1,0h                                   
0807E59C D1F6     bne     807E58Ch      bne     807E58Ch                                
0807E59E 466B     mov     r3,r13        mov     r3,r13                                  
0807E5A0 3301     add     r3,1h         add     r3,1h                                   
0807E5A2 4808     ldr     r0,=3003198h  ldr     r0,=3003198h                            
0807E5A4 6800     ldr     r0,[r0]       ldr     r0,[r0]                                 
0807E5A6 7A00     ldrb    r0,[r0,8h]    ldrb    r0,[r0,8h]                              
0807E5A8 4084     lsl     r4,r0         lsl     r4,r0                                   
0807E5AA 1C20     mov     r0,r4         mov     r0,r4                                   
0807E5AC 22E0     mov     r2,0E0h       mov     r2,0E0h                                 
0807E5AE 0512     lsl     r2,r2,14h     lsl     r2,r2,14h                               
0807E5B0 18A9     add     r1,r5,r2      add     r1,r5,r2                                
0807E5B2 1840     add     r0,r0,r1      add     r0,r0,r1                                
0807E5B4 1C31     mov     r1,r6         mov     r1,r6                                   
0807E5B6 1C3A     mov     r2,r7         mov     r2,r7                                   
0807E5B8 F000FAAA bl      807EB10h       807EB10h                                
0807E5BC B020     add     sp,80h        add     sp,80h                                  
0807E5BE BCF0     pop     r4-r7         pop     r4-r7                                   
0807E5C0 BC01     pop     r0            pop     r0                                      
0807E5C2 4700     bx      r0            bx      r0                                      
0807E5C4 3198     add     r1,98h        add     r1,98h                                  
0807E5C6 0300     lsl     r0,r0,0Ch     lsl     r0,r0,0Ch                               
0807E5C8 B530     push    r4,r5,r14     push    r4,r5,r14                               
0807E5CA 1C05     mov     r5,r0         mov     r5,r0                                   
0807E5CC 1C0B     mov     r3,r1         mov     r3,r1                                   
0807E5CE 1E54     sub     r4,r2,1       sub     r4,r2,1                                 
0807E5D0 2A00     cmp     r2,0h         cmp     r2,0h                                   
0807E5D2 D00C     beq     807E5EEh      beq     807E5EEh                                
0807E5D4 2201     mov     r2,1h         mov     r2,1h                                   
0807E5D6 4252     neg     r2,r2         neg     r2,r2                                   
0807E5D8 7819     ldrb    r1,[r3]       ldrb    r1,[r3]                                 
0807E5DA 7828     ldrb    r0,[r5]       ldrb    r0,[r5]                                 
0807E5DC 3501     add     r5,1h         add     r5,1h                                   
0807E5DE 3301     add     r3,1h         add     r3,1h                                   
0807E5E0 4281     cmp     r1,r0         cmp     r1,r0                                   
0807E5E2 D001     beq     807E5E8h      beq     807E5E8h                                
0807E5E4 1E58     sub     r0,r3,1       sub     r0,r3,1                                 
0807E5E6 E003     b       807E5F0h      b       807E5F0h                                
0807E5E8 3C01     sub     r4,1h         sub     r4,1h                                   
0807E5EA 4294     cmp     r4,r2         cmp     r4,r2                                   
0807E5EC D1F4     bne     807E5D8h      bne     807E5D8h                                
0807E5EE 2000     mov     r0,0h         mov     r0,0h                                   
0807E5F0 BC30     pop     r4,r5         pop     r4,r5                                   
0807E5F2 BC02     pop     r1            pop     r1                                      
0807E5F4 4708     bx      r1            bx      r1                                      
0807E5F6 0000     lsl     r0,r0,0h      lsl     r0,r0,0h                                
0807E5F8 B530     push    r4,r5,r14     push    r4,r5,r14                               
0807E5FA B0C0     add     sp,-100h      add     sp,-100h                                
0807E5FC 1C0D     mov     r5,r1         mov     r5,r1                                   
0807E5FE 0403     lsl     r3,r0,10h     lsl     r3,r0,10h                               
0807E600 0C1C     lsr     r4,r3,10h     lsr     r4,r3,10h                               
0807E602 4A0F     ldr     r2,=4000204h  ldr     r2,=4000204h                            
0807E604 8810     ldrh    r0,[r2]       ldrh    r0,[r2]                                 
0807E606 490F     ldr     r1,=0FFFCh    ldr     r1,=0FFFCh                              
0807E608 4008     and     r0,r1         and     r0,r1                                   
0807E60A 2103     mov     r1,3h         mov     r1,3h                                   
0807E60C 4308     orr     r0,r1         orr     r0,r1                                   
0807E60E 8010     strh    r0,[r2]       strh    r0,[r2]                                 
0807E610 480D     ldr     r0,=3003198h  ldr     r0,=3003198h                            
0807E612 6800     ldr     r0,[r0]       ldr     r0,[r0]                                 
0807E614 6801     ldr     r1,[r0]       ldr     r1,[r0]                                 
0807E616 2080     mov     r0,80h        mov     r0,80h                                  
0807E618 0280     lsl     r0,r0,0Ah     lsl     r0,r0,0Ah                               
0807E61A 4281     cmp     r1,r0         cmp     r1,r0                                   
0807E61C D106     bne     807E62Ch      bne     807E62Ch                                
0807E61E 0D18     lsr     r0,r3,14h     lsr     r0,r3,14h                               
0807E620 0600     lsl     r0,r0,18h     lsl     r0,r0,18h                               
0807E622 0E00     lsr     r0,r0,18h     lsr     r0,r0,18h                               
0807E624 F7FFFE46 bl      807E2B4h       807E2B4h                                
0807E628 200F     mov     r0,0Fh        mov     r0,0Fh                                  
0807E62A 4004     and     r4,r0         and     r4,r0                                   
0807E62C 4B07     ldr     r3,=807E5C9h  ldr     r3,=807E5C9h                            
0807E62E 2001     mov     r0,1h         mov     r0,1h                                   
0807E630 4383     bic     r3,r0         bic     r3,r0                                   
0807E632 466A     mov     r2,r13        mov     r2,r13                                  
0807E634 4806     ldr     r0,=807E5F9h  ldr     r0,=807E5F9h                            
0807E636 4905     ldr     r1,=807E5C9h  ldr     r1,=807E5C9h                            
0807E638 1A40     sub     r0,r0,r1      sub     r0,r0,r1                                
0807E63A 03C0     lsl     r0,r0,0Fh     lsl     r0,r0,0Fh                               
0807E63C E010     b       807E660h      b       807E660h                                
0807E63E 0000     lsl     r0,r0,0h      lsl     r0,r0,0h                                
0807E640 0204     lsl     r4,r0,8h      lsl     r4,r0,8h                                
0807E642 0400     lsl     r0,r0,10h     lsl     r0,r0,10h                               
0807E644 FFFC     bl      lr+0FF8h      bl      lr+0FF8h                                
0807E646 0000     lsl     r0,r0,0h      lsl     r0,r0,0h                                
0807E648 3198     add     r1,98h        add     r1,98h                                  
0807E64A 0300     lsl     r0,r0,0Ch     lsl     r0,r0,0Ch                               
0807E64C E5C9     b       807E1E2h      b       807E1E2h                                
0807E64E 0807     lsr     r7,r0,20h     lsr     r7,r0,20h                               
0807E650 E5F9     b       807E246h      b       807E246h                                
0807E652 0807     lsr     r7,r0,20h     lsr     r7,r0,20h                               
0807E654 8818     ldrh    r0,[r3]       ldrh    r0,[r3]                                 
0807E656 8010     strh    r0,[r2]       strh    r0,[r2]                                 
0807E658 3302     add     r3,2h         add     r3,2h                                   
0807E65A 3202     add     r2,2h         add     r2,2h                                   
0807E65C 1E48     sub     r0,r1,1       sub     r0,r1,1                                 
0807E65E 0400     lsl     r0,r0,10h     lsl     r0,r0,10h                               
0807E660 0C01     lsr     r1,r0,10h     lsr     r1,r0,10h                               
0807E662 2900     cmp     r1,0h         cmp     r1,0h                                   
0807E664 D1F6     bne     807E654h      bne     807E654h                                
0807E666 466B     mov     r3,r13        mov     r3,r13                                  
0807E668 3301     add     r3,1h         add     r3,1h                                   
0807E66A 4808     ldr     r0,=3003198h  ldr     r0,=3003198h                            
0807E66C 6800     ldr     r0,[r0]       ldr     r0,[r0]                                 
0807E66E 7A01     ldrb    r1,[r0,8h]    ldrb    r1,[r0,8h]                              
0807E670 408C     lsl     r4,r1         lsl     r4,r1                                   
0807E672 1C21     mov     r1,r4         mov     r1,r4                                   
0807E674 22E0     mov     r2,0E0h       mov     r2,0E0h                                 
0807E676 0512     lsl     r2,r2,14h     lsl     r2,r2,14h                               
0807E678 1889     add     r1,r1,r2      add     r1,r1,r2                                
0807E67A 8882     ldrh    r2,[r0,4h]    ldrh    r2,[r0,4h]                              
0807E67C 1C28     mov     r0,r5         mov     r0,r5                                   
0807E67E F000FA47 bl      807EB10h       807EB10h                                
0807E682 B040     add     sp,100h       add     sp,100h                                 
0807E684 BC30     pop     r4,r5         pop     r4,r5                                   
0807E686 BC02     pop     r1            pop     r1                                      
0807E688 4708     bx      r1            bx      r1                                      
0807E68A 0000     lsl     r0,r0,0h      lsl     r0,r0,0h                                
0807E68C 3198     add     r1,98h        add     r1,98h                                  
0807E68E 0300     lsl     r0,r0,0Ch     lsl     r0,r0,0Ch                               
0807E690 B570     push    r4-r6,r14     push    r4-r6,r14                               
0807E692 B0C0     add     sp,-100h      add     sp,-100h                                
0807E694 1C0D     mov     r5,r1         mov     r5,r1                                   
0807E696 1C16     mov     r6,r2         mov     r6,r2                                   
0807E698 0402     lsl     r2,r0,10h     lsl     r2,r0,10h                               
0807E69A 0C14     lsr     r4,r2,10h     lsr     r4,r2,10h                               
0807E69C 480E     ldr     r0,=3003198h  ldr     r0,=3003198h                            
0807E69E 6800     ldr     r0,[r0]       ldr     r0,[r0]                                 
0807E6A0 6801     ldr     r1,[r0]       ldr     r1,[r0]                                 
0807E6A2 2080     mov     r0,80h        mov     r0,80h                                  
0807E6A4 0280     lsl     r0,r0,0Ah     lsl     r0,r0,0Ah                               
0807E6A6 4281     cmp     r1,r0         cmp     r1,r0                                   
0807E6A8 D106     bne     807E6B8h      bne     807E6B8h                                
0807E6AA 0D10     lsr     r0,r2,14h     lsr     r0,r2,14h                               
0807E6AC 0600     lsl     r0,r0,18h     lsl     r0,r0,18h                               
0807E6AE 0E00     lsr     r0,r0,18h     lsr     r0,r0,18h                               
0807E6B0 F7FFFE00 bl      807E2B4h       807E2B4h                                
0807E6B4 200F     mov     r0,0Fh        mov     r0,0Fh                                  
0807E6B6 4004     and     r4,r0         and     r4,r0                                   
0807E6B8 4A08     ldr     r2,=4000204h  ldr     r2,=4000204h                            
0807E6BA 8810     ldrh    r0,[r2]       ldrh    r0,[r2]                                 
0807E6BC 4908     ldr     r1,=0FFFCh    ldr     r1,=0FFFCh                              
0807E6BE 4008     and     r0,r1         and     r0,r1                                   
0807E6C0 2103     mov     r1,3h         mov     r1,3h                                   
0807E6C2 4308     orr     r0,r1         orr     r0,r1                                   
0807E6C4 8010     strh    r0,[r2]       strh    r0,[r2]                                 
0807E6C6 4B07     ldr     r3,=807E5C9h  ldr     r3,=807E5C9h                            
0807E6C8 2001     mov     r0,1h         mov     r0,1h                                   
0807E6CA 4383     bic     r3,r0         bic     r3,r0                                   
0807E6CC 466A     mov     r2,r13        mov     r2,r13                                  
0807E6CE 4806     ldr     r0,=807E5F9h  ldr     r0,=807E5F9h                            
0807E6D0 4904     ldr     r1,=807E5C9h  ldr     r1,=807E5C9h                            
0807E6D2 1A40     sub     r0,r0,r1      sub     r0,r0,r1                                
0807E6D4 03C0     lsl     r0,r0,0Fh     lsl     r0,r0,0Fh                               
0807E6D6 E00F     b       807E6F8h      b       807E6F8h                                
0807E6D8 3198     add     r1,98h        add     r1,98h                                  
0807E6DA 0300     lsl     r0,r0,0Ch     lsl     r0,r0,0Ch                               
0807E6DC 0204     lsl     r4,r0,8h      lsl     r4,r0,8h                                
0807E6DE 0400     lsl     r0,r0,10h     lsl     r0,r0,10h                               
0807E6E0 FFFC     bl      lr+0FF8h      bl      lr+0FF8h                                
0807E6E2 0000     lsl     r0,r0,0h      lsl     r0,r0,0h                                
0807E6E4 E5C9     b       807E27Ah      b       807E27Ah                                
0807E6E6 0807     lsr     r7,r0,20h     lsr     r7,r0,20h                               
0807E6E8 E5F9     b       807E2DEh      b       807E2DEh                                
0807E6EA 0807     lsr     r7,r0,20h     lsr     r7,r0,20h                               
0807E6EC 8818     ldrh    r0,[r3]       ldrh    r0,[r3]                                 
0807E6EE 8010     strh    r0,[r2]       strh    r0,[r2]                                 
0807E6F0 3302     add     r3,2h         add     r3,2h                                   
0807E6F2 3202     add     r2,2h         add     r2,2h                                   
0807E6F4 1E48     sub     r0,r1,1       sub     r0,r1,1                                 
0807E6F6 0400     lsl     r0,r0,10h     lsl     r0,r0,10h                               
0807E6F8 0C01     lsr     r1,r0,10h     lsr     r1,r0,10h                               
0807E6FA 2900     cmp     r1,0h         cmp     r1,0h                                   
0807E6FC D1F6     bne     807E6ECh      bne     807E6ECh                                
0807E6FE 466B     mov     r3,r13        mov     r3,r13                                  
0807E700 3301     add     r3,1h         add     r3,1h                                   
0807E702 4808     ldr     r0,=3003198h  ldr     r0,=3003198h                            
0807E704 6800     ldr     r0,[r0]       ldr     r0,[r0]                                 
0807E706 7A01     ldrb    r1,[r0,8h]    ldrb    r1,[r0,8h]                              
0807E708 408C     lsl     r4,r1         lsl     r4,r1                                   
0807E70A 1C21     mov     r1,r4         mov     r1,r4                                   
0807E70C 20E0     mov     r0,0E0h       mov     r0,0E0h                                 
0807E70E 0500     lsl     r0,r0,14h     lsl     r0,r0,14h                               
0807E710 1809     add     r1,r1,r0      add     r1,r1,r0                                
0807E712 1C28     mov     r0,r5         mov     r0,r5                                   
0807E714 1C32     mov     r2,r6         mov     r2,r6                                   
0807E716 F000F9FB bl      807EB10h       807EB10h                                
0807E71A B040     add     sp,100h       add     sp,100h                                 
0807E71C BC70     pop     r4-r6         pop     r4-r6                                   
0807E71E BC02     pop     r1            pop     r1                                      
0807E720 4708     bx      r1            bx      r1                                      
0807E722 0000     lsl     r0,r0,0h      lsl     r0,r0,0h                                
0807E724 3198     add     r1,98h        add     r1,98h                                  
0807E726 0300     lsl     r0,r0,0Ch     lsl     r0,r0,0Ch                               
0807E728 B570     push    r4-r6,r14     push    r4-r6,r14                               
0807E72A 1C0D     mov     r5,r1         mov     r5,r1                                   
0807E72C 0400     lsl     r0,r0,10h     lsl     r0,r0,10h                               
0807E72E 0C04     lsr     r4,r0,10h     lsr     r4,r0,10h                               
0807E730 2600     mov     r6,0h         mov     r6,0h                                   
0807E732 E002     b       807E73Ah      b       807E73Ah                                
0807E734 1C70     add     r0,r6,1       add     r0,r6,1                                 
0807E736 0600     lsl     r0,r0,18h     lsl     r0,r0,18h                               
0807E738 0E06     lsr     r6,r0,18h     lsr     r6,r0,18h                               
0807E73A 2E02     cmp     r6,2h         cmp     r6,2h                                   
0807E73C D810     bhi     807E760h      bhi     807E760h                                
0807E73E 480A     ldr     r0,=3003194h  ldr     r0,=3003194h                            
0807E740 6802     ldr     r2,[r0]       ldr     r2,[r0]                                 
0807E742 1C20     mov     r0,r4         mov     r0,r4                                   
0807E744 1C29     mov     r1,r5         mov     r1,r5                                   
0807E746 F000F9E1 bl      807EB0Ch       807EB0Ch                                
0807E74A 0400     lsl     r0,r0,10h     lsl     r0,r0,10h                               
0807E74C 0C02     lsr     r2,r0,10h     lsr     r2,r0,10h                               
0807E74E 2A00     cmp     r2,0h         cmp     r2,0h                                   
0807E750 D1F0     bne     807E734h      bne     807E734h                                
0807E752 1C20     mov     r0,r4         mov     r0,r4                                   
0807E754 1C29     mov     r1,r5         mov     r1,r5                                   
0807E756 F7FFFF4F bl      807E5F8h       807E5F8h                                
0807E75A 1C02     mov     r2,r0         mov     r2,r0                                   
0807E75C 2A00     cmp     r2,0h         cmp     r2,0h                                   
0807E75E D1E9     bne     807E734h      bne     807E734h                                
0807E760 1C10     mov     r0,r2         mov     r0,r2                                   
0807E762 BC70     pop     r4-r6         pop     r4-r6                                   
0807E764 BC02     pop     r1            pop     r1                                      
0807E766 4708     bx      r1            bx      r1                                      
0807E768 3194     add     r1,94h        add     r1,94h                                  
0807E76A 0300     lsl     r0,r0,0Ch     lsl     r0,r0,0Ch                               
0807E76C B5F0     push    r4-r7,r14     push    r4-r7,r14                               
0807E76E 1C0D     mov     r5,r1         mov     r5,r1                                   
0807E770 1C17     mov     r7,r2         mov     r7,r2                                   
0807E772 0400     lsl     r0,r0,10h     lsl     r0,r0,10h                               
0807E774 0C04     lsr     r4,r0,10h     lsr     r4,r0,10h                               
0807E776 2600     mov     r6,0h         mov     r6,0h                                   
0807E778 E002     b       807E780h      b       807E780h                                
0807E77A 1C70     add     r0,r6,1       add     r0,r6,1                                 
0807E77C 0600     lsl     r0,r0,18h     lsl     r0,r0,18h                               
0807E77E 0E06     lsr     r6,r0,18h     lsr     r6,r0,18h                               
0807E780 2E02     cmp     r6,2h         cmp     r6,2h                                   
0807E782 D811     bhi     807E7A8h      bhi     807E7A8h                                
0807E784 480A     ldr     r0,=3003194h  ldr     r0,=3003194h                            
0807E786 6802     ldr     r2,[r0]       ldr     r2,[r0]                                 
0807E788 1C20     mov     r0,r4         mov     r0,r4                                   
0807E78A 1C29     mov     r1,r5         mov     r1,r5                                   
0807E78C F000F9BE bl      807EB0Ch       807EB0Ch                                
0807E790 0400     lsl     r0,r0,10h     lsl     r0,r0,10h                               
0807E792 0C03     lsr     r3,r0,10h     lsr     r3,r0,10h                               
0807E794 2B00     cmp     r3,0h         cmp     r3,0h                                   
0807E796 D1F0     bne     807E77Ah      bne     807E77Ah                                
0807E798 1C20     mov     r0,r4         mov     r0,r4                                   
0807E79A 1C29     mov     r1,r5         mov     r1,r5                                   
0807E79C 1C3A     mov     r2,r7         mov     r2,r7                                   
0807E79E F7FFFF77 bl      807E690h       807E690h                                
0807E7A2 1C03     mov     r3,r0         mov     r3,r0                                   
0807E7A4 2B00     cmp     r3,0h         cmp     r3,0h                                   
0807E7A6 D1E8     bne     807E77Ah      bne     807E77Ah                                
0807E7A8 1C18     mov     r0,r3         mov     r0,r3                                   
0807E7AA BCF0     pop     r4-r7         pop     r4-r7                                   
0807E7AC BC02     pop     r1            pop     r1                                      
0807E7AE 4708     bx      r1            bx      r1                                      
0807E7B0 3194     add     r1,94h        add     r1,94h                                  
0807E7B2 0300     lsl     r0,r0,0Ch     lsl     r0,r0,0Ch                               
0807E7B4 B510     push    r4,r14        push    r4,r14                                  
0807E7B6 4A07     ldr     r2,=4000204h  ldr     r2,=4000204h                            
0807E7B8 8810     ldrh    r0,[r2]       ldrh    r0,[r2]                                 
0807E7BA 4907     ldr     r1,=0FFFCh    ldr     r1,=0FFFCh                              
0807E7BC 4008     and     r0,r1         and     r0,r1                                   
0807E7BE 2103     mov     r1,3h         mov     r1,3h                                   
0807E7C0 4308     orr     r0,r1         orr     r0,r1                                   
0807E7C2 8010     strh    r0,[r2]       strh    r0,[r2]                                 
0807E7C4 F7FFFD88 bl      807E2D8h       807E2D8h                                
0807E7C8 0400     lsl     r0,r0,10h     lsl     r0,r0,10h                               
0807E7CA 0C03     lsr     r3,r0,10h     lsr     r3,r0,10h                               
0807E7CC 4A03     ldr     r2,=86512C8h  ldr     r2,=86512C8h                            
0807E7CE 2401     mov     r4,1h         mov     r4,1h                                   
0807E7D0 E007     b       807E7E2h      b       807E7E2h                                
0807E7D2 0000     lsl     r0,r0,0h      lsl     r0,r0,0h                                
0807E7D4 0204     lsl     r4,r0,8h      lsl     r4,r0,8h                                
0807E7D6 0400     lsl     r0,r0,10h     lsl     r0,r0,10h                               
0807E7D8 FFFC     bl      lr+0FF8h      bl      lr+0FF8h                                
0807E7DA 0000     lsl     r0,r0,0h      lsl     r0,r0,0h                                
0807E7DC 12C8     asr     r0,r1,0Bh     asr     r0,r1,0Bh                               
0807E7DE 0865     lsr     r5,r4,1h      lsr     r5,r4,1h                                
0807E7E0 3204     add     r2,4h         add     r2,4h                                   
0807E7E2 6811     ldr     r1,[r2]       ldr     r1,[r2]                                 
0807E7E4 1C08     mov     r0,r1         mov     r0,r1                                   
0807E7E6 3028     add     r0,28h        add     r0,28h                                  
0807E7E8 7800     ldrb    r0,[r0]       ldrb    r0,[r0]                                 
0807E7EA 2800     cmp     r0,0h         cmp     r0,0h                                   
0807E7EC D003     beq     807E7F6h      beq     807E7F6h                                
0807E7EE 8D08     ldrh    r0,[r1,28h]   ldrh    r0,[r1,28h]                             
0807E7F0 4283     cmp     r3,r0         cmp     r3,r0                                   
0807E7F2 D1F5     bne     807E7E0h      bne     807E7E0h                                
0807E7F4 2400     mov     r4,0h         mov     r4,0h                                   
0807E7F6 490E     ldr     r1,=3003194h  ldr     r1,=3003194h                            
0807E7F8 6810     ldr     r0,[r2]       ldr     r0,[r2]                                 
0807E7FA 6800     ldr     r0,[r0]       ldr     r0,[r0]                                 
0807E7FC 6008     str     r0,[r1]       str     r0,[r1]                                 
0807E7FE 490D     ldr     r1,=30031A0h  ldr     r1,=30031A0h                            
0807E800 6810     ldr     r0,[r2]       ldr     r0,[r2]                                 
0807E802 6840     ldr     r0,[r0,4h]    ldr     r0,[r0,4h]                              
0807E804 6008     str     r0,[r1]       str     r0,[r1]                                 
0807E806 490C     ldr     r1,=30031A4h  ldr     r1,=30031A4h                            
0807E808 6810     ldr     r0,[r2]       ldr     r0,[r2]                                 
0807E80A 6880     ldr     r0,[r0,8h]    ldr     r0,[r0,8h]                              
0807E80C 6008     str     r0,[r1]       str     r0,[r1]                                 
0807E80E 490B     ldr     r1,=3003190h  ldr     r1,=3003190h                            
0807E810 6810     ldr     r0,[r2]       ldr     r0,[r2]                                 
0807E812 68C0     ldr     r0,[r0,0Ch]   ldr     r0,[r0,0Ch]                             
0807E814 6008     str     r0,[r1]       str     r0,[r1]                                 
0807E816 490A     ldr     r1,=30031A8h  ldr     r1,=30031A8h                            
0807E818 6810     ldr     r0,[r2]       ldr     r0,[r2]                                 
0807E81A 6900     ldr     r0,[r0,10h]   ldr     r0,[r0,10h]                             
0807E81C 6008     str     r0,[r1]       str     r0,[r1]                                 
0807E81E 4909     ldr     r1,=3003198h  ldr     r1,=3003198h                            
0807E820 6810     ldr     r0,[r2]       ldr     r0,[r2]                                 
0807E822 3014     add     r0,14h        add     r0,14h                                  
0807E824 6008     str     r0,[r1]       str     r0,[r1]                                 
0807E826 1C20     mov     r0,r4         mov     r0,r4                                   
0807E828 BC10     pop     r4            pop     r4                                      
0807E82A BC02     pop     r1            pop     r1                                      
0807E82C 4708     bx      r1            bx      r1                                      
0807E82E 0000     lsl     r0,r0,0h      lsl     r0,r0,0h                                
0807E830 3194     add     r1,94h        add     r1,94h                                  
0807E832 0300     lsl     r0,r0,0Ch     lsl     r0,r0,0Ch                               
0807E834 31A0     add     r1,0A0h       add     r1,0A0h                                 
0807E836 0300     lsl     r0,r0,0Ch     lsl     r0,r0,0Ch                               
0807E838 31A4     add     r1,0A4h       add     r1,0A4h                                 
0807E83A 0300     lsl     r0,r0,0Ch     lsl     r0,r0,0Ch                               
0807E83C 3190     add     r1,90h        add     r1,90h                                  
0807E83E 0300     lsl     r0,r0,0Ch     lsl     r0,r0,0Ch                               
0807E840 31A8     add     r1,0A8h       add     r1,0A8h                                 
0807E842 0300     lsl     r0,r0,0Ch     lsl     r0,r0,0Ch                               
0807E844 3198     add     r1,98h        add     r1,98h                                  
0807E846 0300     lsl     r0,r0,0Ch     lsl     r0,r0,0Ch                               
0807E848 B5F0     push    r4-r7,r14     push    r4-r7,r14                               
0807E84A 464F     mov     r7,r9         mov     r7,r9                                   
0807E84C 4646     mov     r6,r8         mov     r6,r8                                   
0807E84E B4C0     push    r6,r7         push    r6,r7                                   
0807E850 1C0C     mov     r4,r1         mov     r4,r1                                   
0807E852 0600     lsl     r0,r0,18h     lsl     r0,r0,18h                               
0807E854 0E07     lsr     r7,r0,18h     lsr     r7,r0,18h                               
0807E856 0612     lsl     r2,r2,18h     lsl     r2,r2,18h                               
0807E858 0E15     lsr     r5,r2,18h     lsr     r5,r2,18h                               
0807E85A 2000     mov     r0,0h         mov     r0,0h                                   
0807E85C 4680     mov     r8,r0         mov     r8,r0                                   
0807E85E 1C38     mov     r0,r7         mov     r0,r7                                   
0807E860 F7FFFDBA bl      807E3D8h       807E3D8h                                
0807E864 4E01     ldr     r6,=300318Ch  ldr     r6,=300318Ch                            
0807E866 4902     ldr     r1,=0E005555h ldr     r1,=0E005555h                           
0807E868 4689     mov     r9,r1         mov     r9,r1                                   
0807E86A E01F     b       807E8ACh      b       807E8ACh                                
0807E86C 318C     add     r1,8Ch        add     r1,8Ch                                  
0807E86E 0300     lsl     r0,r0,0Ch     lsl     r0,r0,0Ch                               
0807E870 5555     strb    r5,[r2,r5]    strb    r5,[r2,r5]                              
0807E872 0E00     lsr     r0,r0,18h     lsr     r0,r0,18h                               
0807E874 20F0     mov     r0,0F0h       mov     r0,0F0h                                 
0807E876 4649     mov     r1,r9         mov     r1,r9                                   
0807E878 7008     strb    r0,[r1]       strb    r0,[r1]                                 
0807E87A 20A0     mov     r0,0A0h       mov     r0,0A0h                                 
0807E87C 0200     lsl     r0,r0,8h      lsl     r0,r0,8h                                
0807E87E E010     b       807E8A2h      b       807E8A2h                                
0807E880 4809     ldr     r0,=3003188h  ldr     r0,=3003188h                            
0807E882 7800     ldrb    r0,[r0]       ldrb    r0,[r0]                                 
0807E884 2800     cmp     r0,0h         cmp     r0,0h                                   
0807E886 D011     beq     807E8ACh      beq     807E8ACh                                
0807E888 6831     ldr     r1,[r6]       ldr     r1,[r6]                                 
0807E88A 1C20     mov     r0,r4         mov     r0,r4                                   
0807E88C F000F93C bl      807EB08h       807EB08h                                
0807E890 0600     lsl     r0,r0,18h     lsl     r0,r0,18h                               
0807E892 0E00     lsr     r0,r0,18h     lsr     r0,r0,18h                               
0807E894 42A8     cmp     r0,r5         cmp     r0,r5                                   
0807E896 D01D     beq     807E8D4h      beq     807E8D4h                                
0807E898 20F0     mov     r0,0F0h       mov     r0,0F0h                                 
0807E89A 4649     mov     r1,r9         mov     r1,r9                                   
0807E89C 7008     strb    r0,[r1]       strb    r0,[r1]                                 
0807E89E 20C0     mov     r0,0C0h       mov     r0,0C0h                                 
0807E8A0 0200     lsl     r0,r0,8h      lsl     r0,r0,8h                                
0807E8A2 4307     orr     r7,r0         orr     r7,r0                                   
0807E8A4 46B8     mov     r8,r7         mov     r8,r7                                   
0807E8A6 E015     b       807E8D4h      b       807E8D4h                                
0807E8A8 3188     add     r1,88h        add     r1,88h                                  
0807E8AA 0300     lsl     r0,r0,0Ch     lsl     r0,r0,0Ch                               
0807E8AC 6831     ldr     r1,[r6]       ldr     r1,[r6]                                 
0807E8AE 1C20     mov     r0,r4         mov     r0,r4                                   
0807E8B0 F000F92A bl      807EB08h       807EB08h                                
0807E8B4 0600     lsl     r0,r0,18h     lsl     r0,r0,18h                               
0807E8B6 0E01     lsr     r1,r0,18h     lsr     r1,r0,18h                               
0807E8B8 42A9     cmp     r1,r5         cmp     r1,r5                                   
0807E8BA D00B     beq     807E8D4h      beq     807E8D4h                                
0807E8BC 2020     mov     r0,20h        mov     r0,20h                                  
0807E8BE 4008     and     r0,r1         and     r0,r1                                   
0807E8C0 2800     cmp     r0,0h         cmp     r0,0h                                   
0807E8C2 D0DD     beq     807E880h      beq     807E880h                                
0807E8C4 6831     ldr     r1,[r6]       ldr     r1,[r6]                                 
0807E8C6 1C20     mov     r0,r4         mov     r0,r4                                   
0807E8C8 F000F91E bl      807EB08h       807EB08h                                
0807E8CC 0600     lsl     r0,r0,18h     lsl     r0,r0,18h                               
0807E8CE 0E00     lsr     r0,r0,18h     lsr     r0,r0,18h                               
0807E8D0 42A8     cmp     r0,r5         cmp     r0,r5                                   
0807E8D2 D1CF     bne     807E874h      bne     807E874h                                
0807E8D4 F7FFFDD4 bl      807E480h       807E480h                                
0807E8D8 4640     mov     r0,r8         mov     r0,r8                                   
0807E8DA BC18     pop     r3,r4         pop     r3,r4                                   
0807E8DC 4698     mov     r8,r3         mov     r8,r3                                   
0807E8DE 46A1     mov     r9,r4         mov     r9,r4                                   
0807E8E0 BCF0     pop     r4-r7         pop     r4-r7                                   
0807E8E2 BC02     pop     r1            pop     r1                                      
0807E8E4 4708     bx      r1            bx      r1                                      
0807E8E6 0000     lsl     r0,r0,0h      lsl     r0,r0,0h                                
0807E8E8 B570     push    r4-r6,r14     push    r4-r6,r14                               
0807E8EA B090     add     sp,-40h       add     sp,-40h                                 
0807E8EC 4D15     ldr     r5,=4000204h  ldr     r5,=4000204h                            
0807E8EE 8829     ldrh    r1,[r5]       ldrh    r1,[r5]                                 
0807E8F0 4E15     ldr     r6,=0FFFCh    ldr     r6,=0FFFCh                              
0807E8F2 4031     and     r1,r6         and     r1,r6                                   
0807E8F4 4815     ldr     r0,=3003198h  ldr     r0,=3003198h                            
0807E8F6 6800     ldr     r0,[r0]       ldr     r0,[r0]                                 
0807E8F8 8A00     ldrh    r0,[r0,10h]   ldrh    r0,[r0,10h]                             
0807E8FA 4301     orr     r1,r0         orr     r1,r0                                   
0807E8FC 8029     strh    r1,[r5]       strh    r1,[r5]  

////////////////////////////////////////////////////////////////////////                               
0807E8FE 4914     ldr     r1,=0E005555h mov     r1,0Eh                                  
0807E900 24AA     mov     r4,0AAh       lsl     r1,r1,18h                               
0807E902 700C     strb    r4,[r1]       mov     r4,0FFh                                 
0807E904 4B13     ldr     r3,=0E002AAAh mov     r2,80h                                  
0807E906 2255     mov     r2,55h        ldr     r3,=0E002AAAh                           
0807E908 701A     strb    r2,[r3]       lsl     r2,r2,9h                                
0807E90A 2080     mov     r0,80h        sub     r2,1h                                   
0807E90C 7008     strb    r0,[r1]       strb    r4,[r1,r2]                              
0807E90E 700C     strb    r4,[r1]       bne     807E90Ah                                
0807E910 701A     strb    r2,[r3]       lsl     r0,r0,0h                                
0807E912 2010     mov     r0,10h        lsl     r0,r0,0h                                
0807E914 7008     strb    r0,[r1]       lsl     r0,r0,0h 
////////////////////////////////////////////////////////////////////////
                               
0807E916 4668     mov     r0,r13        mov     r0,r13                                  
0807E918 F7FFFDD6 bl      807E4C8h       807E4C8h                                
0807E91C 480E     ldr     r0,=3003190h  ldr     r0,=3003190h                            
0807E91E 21E0     mov     r1,0E0h       mov     r1,0E0h                                 
0807E920 0509     lsl     r1,r1,14h     lsl     r1,r1,14h                               
0807E922 6803     ldr     r3,[r0]       ldr     r3,[r0]                                 
0807E924 2003     mov     r0,3h         mov     r0,3h                                   
0807E926 22FF     mov     r2,0FFh       mov     r2,0FFh                                 
0807E928 F000F8F2 bl      807EB10h       807EB10h                                
0807E92C 0400     lsl     r0,r0,10h     lsl     r0,r0,10h                               
0807E92E 0C00     lsr     r0,r0,10h     lsr     r0,r0,10h                               
0807E930 8829     ldrh    r1,[r5]       ldrh    r1,[r5]                                 
0807E932 4031     and     r1,r6         and     r1,r6                                   
0807E934 2203     mov     r2,3h         mov     r2,3h                                   
0807E936 4311     orr     r1,r2         orr     r1,r2                                   
0807E938 8029     strh    r1,[r5]       strh    r1,[r5]                                 
0807E93A B010     add     sp,40h        add     sp,40h                                  
0807E93C BC70     pop     r4-r6         pop     r4-r6                                   
0807E93E BC02     pop     r1            pop     r1                                      
0807E940 4708     bx      r1            bx      r1                                      
0807E942 0000     lsl     r0,r0,0h      lsl     r0,r0,0h                                
0807E944 0204     lsl     r4,r0,8h      lsl     r4,r0,8h                                
0807E946 0400     lsl     r0,r0,10h     lsl     r0,r0,10h                               
0807E948 FFFC     bl      lr+0FF8h      bl      lr+0FF8h                                
0807E94A 0000     lsl     r0,r0,0h      lsl     r0,r0,0h                                
0807E94C 3198     add     r1,98h        add     r1,98h                                  
0807E94E 0300     lsl     r0,r0,0Ch     lsl     r0,r0,0Ch                               
0807E950 5555     strb    r5,[r2,r5]    strb    r5,[r2,r5]                              
0807E952 0E00     lsr     r0,r0,18h     lsr     r0,r0,18h                               
0807E954 2AAA     cmp     r2,0AAh       cmp     r2,0AAh                                 
0807E956 0E00     lsr     r0,r0,18h     lsr     r0,r0,18h                               
0807E958 3190     add     r1,90h        add     r1,90h                                  
0807E95A 0300     lsl     r0,r0,0Ch     lsl     r0,r0,0Ch                               
0807E95C B5F0     push    r4-r7,r14     push    r4-r7,r14                               
0807E95E B090     add     sp,-40h       add     sp,-40h                                 
0807E960 0400     lsl     r0,r0,10h     lsl     r0,r0,10h                               
0807E962 0C06     lsr     r6,r0,10h     lsr     r6,r0,10h                               
0807E964 4803     ldr     r0,=3003198h  ldr     r0,=3003198h                            
0807E966 6800     ldr     r0,[r0]       ldr     r0,[r0]                                 
0807E968 8940     ldrh    r0,[r0,0Ah]   ldrh    r0,[r0,0Ah]                             
0807E96A 4286     cmp     r6,r0         cmp     r6,r0                                   
0807E96C D306     bcc     807E97Ch      bcc     807E97Ch                                
0807E96E 4802     ldr     r0,=80FFh     ldr     r0,=80FFh                               
0807E970 E052     b       807EA18h      b       807EA18h                                
0807E972 0000     lsl     r0,r0,0h      lsl     r0,r0,0h                                
0807E974 3198     add     r1,98h        add     r1,98h                                  
0807E976 0300     lsl     r0,r0,0Ch     lsl     r0,r0,0Ch                               
0807E978 80FF     strh    r7,[r7,6h]    strh    r7,[r7,6h]                              
0807E97A 0000     lsl     r0,r0,0h      lsl     r0,r0,0h                                
0807E97C 0930     lsr     r0,r6,4h      lsr     r0,r6,4h                                
0807E97E 0600     lsl     r0,r0,18h     lsl     r0,r0,18h                               
0807E980 0E00     lsr     r0,r0,18h     lsr     r0,r0,18h                               
0807E982 F7FFFC97 bl      807E2B4h       807E2B4h                                
0807E986 200F     mov     r0,0Fh        mov     r0,0Fh                                  
0807E988 4006     and     r6,r0         and     r6,r0                                   
0807E98A 2700     mov     r7,0h         mov     r7,0h                                   
0807E98C 4B18     ldr     r3,=4000204h  ldr     r3,=4000204h                            
0807E98E 8819     ldrh    r1,[r3]       ldrh    r1,[r3]                                 
0807E990 4818     ldr     r0,=0FFFCh    ldr     r0,=0FFFCh                              
0807E992 4001     and     r1,r0         and     r1,r0                                   
0807E994 4818     ldr     r0,=3003198h  ldr     r0,=3003198h                            
0807E996 6802     ldr     r2,[r0]       ldr     r2,[r0]                                 
0807E998 8A10     ldrh    r0,[r2,10h]   ldrh    r0,[r2,10h]                             
0807E99A 4301     orr     r1,r0         orr     r1,r0                                   
0807E99C 8019     strh    r1,[r3]       strh    r1,[r3]                                 
0807E99E 7A14     ldrb    r4,[r2,8h]    ldrb    r4,[r2,8h]                              
0807E9A0 1C30     mov     r0,r6         mov     r0,r6                                   
0807E9A2 40A0     lsl     r0,r4         lsl     r0,r4                                   
0807E9A4 1C04     mov     r4,r0         mov     r4,r0                                   
0807E9A6 20E0     mov     r0,0E0h       mov     r0,0E0h                                 
0807E9A8 0500     lsl     r0,r0,14h     lsl     r0,r0,14h                               
0807E9AA 1824     add     r4,r4,r0      add     r4,r4,r0                                
0807E9AC 4913     ldr     r1,=0E005555h ldr     r1,=0E005555h 

////////////////////////////////////////////////////////////////////                          
0807E9AE 25AA     mov     r5,0AAh       mov     r5,0FFh                                 
0807E9B0 700D     strb    r5,[r1]       mov     r2,8h                                   
0807E9B2 4B13     ldr     r3,=0E002AAAh lsl     r0,r0,0h                                
0807E9B4 2255     mov     r2,55h        lsl     r2,r2,9h                                
0807E9B6 701A     strb    r2,[r3]       sub     r2,1h                                   
0807E9B8 2080     mov     r0,80h        strb    r5,[r4,r2]                              
0807E9BA 7008     strb    r0,[r1]       bne     807E9B6h                                
0807E9BC 700D     strb    r5,[r1]       lsl     r0,r0,0h                                
0807E9BE 701A     strb    r2,[r3]       lsl     r0,r0,0h                                
0807E9C0 2030     mov     r0,30h        lsl     r0,r0,0h                                
0807E9C2 7020     strb    r0,[r4]       lsl     r0,r0,0h   
/////////////////////////////////////////////////////////////////////
                             
0807E9C4 4668     mov     r0,r13        mov     r0,r13                                  
0807E9C6 F7FFFD7F bl      807E4C8h       807E4C8h                                
0807E9CA 480E     ldr     r0,=3003190h  ldr     r0,=3003190h                            
0807E9CC 6803     ldr     r3,[r0]       ldr     r3,[r0]                                 
0807E9CE 2002     mov     r0,2h         mov     r0,2h                                   
0807E9D0 1C21     mov     r1,r4         mov     r1,r4                                   
0807E9D2 22FF     mov     r2,0FFh       mov     r2,0FFh                                 
0807E9D4 F000F89C bl      807EB10h       807EB10h                                
0807E9D8 0400     lsl     r0,r0,10h     lsl     r0,r0,10h                               
0807E9DA 0C03     lsr     r3,r0,10h     lsr     r3,r0,10h                               
0807E9DC 20A0     mov     r0,0A0h       mov     r0,0A0h                                 
0807E9DE 0200     lsl     r0,r0,8h      lsl     r0,r0,8h                                
0807E9E0 4018     and     r0,r3         and     r0,r3                                   
0807E9E2 2800     cmp     r0,0h         cmp     r0,0h                                   
0807E9E4 D010     beq     807EA08h      beq     807EA08h                                
0807E9E6 2F00     cmp     r7,0h         cmp     r7,0h                                   
0807E9E8 D10E     bne     807EA08h      bne     807EA08h                                
0807E9EA 2701     mov     r7,1h         mov     r7,1h                                   
0807E9EC E7CE     b       807E98Ch      b       807E98Ch                                
0807E9EE 0000     lsl     r0,r0,0h      lsl     r0,r0,0h                                
0807E9F0 0204     lsl     r4,r0,8h      lsl     r4,r0,8h                                
0807E9F2 0400     lsl     r0,r0,10h     lsl     r0,r0,10h                               
0807E9F4 FFFC     bl      lr+0FF8h      bl      lr+0FF8h                                
0807E9F6 0000     lsl     r0,r0,0h      lsl     r0,r0,0h                                
0807E9F8 3198     add     r1,98h        add     r1,98h                                  
0807E9FA 0300     lsl     r0,r0,0Ch     lsl     r0,r0,0Ch                               
0807E9FC 5555     strb    r5,[r2,r5]    strb    r5,[r2,r5]                              
0807E9FE 0E00     lsr     r0,r0,18h     lsr     r0,r0,18h                               
0807EA00 2AAA     cmp     r2,0AAh       cmp     r2,0AAh                                 
0807EA02 0E00     lsr     r0,r0,18h     lsr     r0,r0,18h                               
0807EA04 3190     add     r1,90h        add     r1,90h                                  
0807EA06 0300     lsl     r0,r0,0Ch     lsl     r0,r0,0Ch                               
0807EA08 4A05     ldr     r2,=4000204h  ldr     r2,=4000204h                            
0807EA0A 8810     ldrh    r0,[r2]       ldrh    r0,[r2]                                 
0807EA0C 4905     ldr     r1,=0FFFCh    ldr     r1,=0FFFCh                              
0807EA0E 4008     and     r0,r1         and     r0,r1                                   
0807EA10 2103     mov     r1,3h         mov     r1,3h                                   
0807EA12 4308     orr     r0,r1         orr     r0,r1                                   
0807EA14 8010     strh    r0,[r2]       strh    r0,[r2]                                 
0807EA16 1C18     mov     r0,r3         mov     r0,r3                                   
0807EA18 B010     add     sp,40h        add     sp,40h                                  
0807EA1A BCF0     pop     r4-r7         pop     r4-r7                                   
0807EA1C BC02     pop     r1            pop     r1                                      
0807EA1E 4708     bx      r1            bx      r1                                      
0807EA20 0204     lsl     r4,r0,8h      lsl     r4,r0,8h                                
0807EA22 0400     lsl     r0,r0,10h     lsl     r0,r0,10h                               
0807EA24 FFFC     bl      lr+0FF8h      bl      lr+0FF8h                                
0807EA26 0000     lsl     r0,r0,0h      lsl     r0,r0,0h                                
0807EA28 B510     push    r4,r14        push    r4,r14                                  
0807EA2A 4C0A     ldr     r4,=0E005555h ldr     r4,=0E005555h                           
0807EA2C 22AA     mov     r2,0AAh       mov     r2,0AAh 

/////////////////////////////////////////////////////////////////////                                
0807EA2E 7022     strb    r2,[r4]       lsl     r0,r0,0h                                
0807EA30 4B09     ldr     r3,=0E002AAAh ldr     r3,=0E002AAAh                           
0807EA32 2255     mov     r2,55h        mov     r2,55h                                  
0807EA34 701A     strb    r2,[r3]       lsl     r0,r0,0h                                
0807EA36 22A0     mov     r2,0A0h       mov     r2,0A0h                                 
0807EA38 7022     strb    r2,[r4]       lsl     r0,r0,0h     
/////////////////////////////////////////////////////////////////////
                           
0807EA3A 7802     ldrb    r2,[r0]       ldrb    r2,[r0]                                 
0807EA3C 700A     strb    r2,[r1]       strb    r2,[r1]                                 
0807EA3E 4B07     ldr     r3,=3003190h  ldr     r3,=3003190h                            
0807EA40 7802     ldrb    r2,[r0]       ldrb    r2,[r0]                                 
0807EA42 681B     ldr     r3,[r3]       ldr     r3,[r3]                                 
0807EA44 2001     mov     r0,1h         mov     r0,1h                                   
0807EA46 F000F863 bl      807EB10h       807EB10h                                
0807EA4A 0400     lsl     r0,r0,10h     lsl     r0,r0,10h                               
0807EA4C 0C00     lsr     r0,r0,10h     lsr     r0,r0,10h                               
0807EA4E BC10     pop     r4            pop     r4                                      
0807EA50 BC02     pop     r1            pop     r1                                      
0807EA52 4708     bx      r1            bx      r1                                      
0807EA54 5555     strb    r5,[r2,r5]    strb    r5,[r2,r5]                              
0807EA56 0E00     lsr     r0,r0,18h     lsr     r0,r0,18h                               
0807EA58 2AAA     cmp     r2,0AAh       cmp     r2,0AAh                                 
0807EA5A 0E00     lsr     r0,r0,18h     lsr     r0,r0,18h                               
0807EA5C 3190     add     r1,90h        add     r1,90h                                  
0807EA5E 0300     lsl     r0,r0,0Ch     lsl     r0,r0,0Ch                               
0807EA60 B5F0     push    r4-r7,r14     push    r4-r7,r14                               
0807EA62 B090     add     sp,-40h       add     sp,-40h                                 
0807EA64 1C0F     mov     r7,r1         mov     r7,r1                                   
0807EA66 0400     lsl     r0,r0,10h     lsl     r0,r0,10h                               
0807EA68 0C04     lsr     r4,r0,10h     lsr     r4,r0,10h                               
0807EA6A 4803     ldr     r0,=3003198h  ldr     r0,=3003198h                            
0807EA6C 6800     ldr     r0,[r0]       ldr     r0,[r0]                                 
0807EA6E 8940     ldrh    r0,[r0,0Ah]   ldrh    r0,[r0,0Ah]                             
0807EA70 4284     cmp     r4,r0         cmp     r4,r0                                   
0807EA72 D305     bcc     807EA80h      bcc     807EA80h                                
0807EA74 4801     ldr     r0,=80FFh     ldr     r0,=80FFh                               
0807EA76 E040     b       807EAFAh      b       807EAFAh                                
0807EA78 3198     add     r1,98h        add     r1,98h                                  
0807EA7A 0300     lsl     r0,r0,0Ch     lsl     r0,r0,0Ch                               
0807EA7C 80FF     strh    r7,[r7,6h]    strh    r7,[r7,6h]                              
0807EA7E 0000     lsl     r0,r0,0h      lsl     r0,r0,0h                                
0807EA80 1C20     mov     r0,r4         mov     r0,r4                                   
0807EA82 F7FFFF6B bl      807E95Ch       807E95Ch                                
0807EA86 0400     lsl     r0,r0,10h     lsl     r0,r0,10h                               
0807EA88 0C05     lsr     r5,r0,10h     lsr     r5,r0,10h                               
0807EA8A 2D00     cmp     r5,0h         cmp     r5,0h                                   
0807EA8C D134     bne     807EAF8h      bne     807EAF8h                                
0807EA8E 0920     lsr     r0,r4,4h      lsr     r0,r4,4h                                
0807EA90 0600     lsl     r0,r0,18h     lsl     r0,r0,18h                               
0807EA92 0E00     lsr     r0,r0,18h     lsr     r0,r0,18h                               
0807EA94 F7FFFC0E bl      807E2B4h       807E2B4h                                
0807EA98 200F     mov     r0,0Fh        mov     r0,0Fh                                  
0807EA9A 4004     and     r4,r0         and     r4,r0                                   
0807EA9C 4668     mov     r0,r13        mov     r0,r13                                  
0807EA9E F7FFFD13 bl      807E4C8h       807E4C8h                                
0807EAA2 4B09     ldr     r3,=4000204h  ldr     r3,=4000204h                            
0807EAA4 8819     ldrh    r1,[r3]       ldrh    r1,[r3]                                 
0807EAA6 4809     ldr     r0,=0FFFCh    ldr     r0,=0FFFCh                              
0807EAA8 4001     and     r1,r0         and     r1,r0                                   
0807EAAA 4809     ldr     r0,=3003198h  ldr     r0,=3003198h                            
0807EAAC 6802     ldr     r2,[r0]       ldr     r2,[r0]                                 
0807EAAE 8A10     ldrh    r0,[r2,10h]   ldrh    r0,[r2,10h]                             
0807EAB0 4301     orr     r1,r0         orr     r1,r0                                   
0807EAB2 8019     strh    r1,[r3]       strh    r1,[r3]                                 
0807EAB4 4907     ldr     r1,=300319Ch  ldr     r1,=300319Ch                            
0807EAB6 6850     ldr     r0,[r2,4h]    ldr     r0,[r2,4h]                              
0807EAB8 8008     strh    r0,[r1]       strh    r0,[r1]                                 
0807EABA 7A10     ldrb    r0,[r2,8h]    ldrb    r0,[r2,8h]                              
0807EABC 4084     lsl     r4,r0         lsl     r4,r0                                   
0807EABE 20E0     mov     r0,0E0h       mov     r0,0E0h                                 
0807EAC0 0500     lsl     r0,r0,14h     lsl     r0,r0,14h                               
0807EAC2 1824     add     r4,r4,r0      add     r4,r4,r0                                
0807EAC4 1C0E     mov     r6,r1         mov     r6,r1                                   
0807EAC6 E00C     b       807EAE2h      b       807EAE2h                                
0807EAC8 0204     lsl     r4,r0,8h      lsl     r4,r0,8h                                
0807EACA 0400     lsl     r0,r0,10h     lsl     r0,r0,10h                               
0807EACC FFFC     bl      lr+0FF8h      bl      lr+0FF8h                                
0807EACE 0000     lsl     r0,r0,0h      lsl     r0,r0,0h                                
0807EAD0 3198     add     r1,98h        add     r1,98h                                  
0807EAD2 0300     lsl     r0,r0,0Ch     lsl     r0,r0,0Ch                               
0807EAD4 319C     add     r1,9Ch        add     r1,9Ch                                  
0807EAD6 0300     lsl     r0,r0,0Ch     lsl     r0,r0,0Ch                               
0807EAD8 8830     ldrh    r0,[r6]       ldrh    r0,[r6]                                 
0807EADA 3801     sub     r0,1h         sub     r0,1h                                   
0807EADC 8030     strh    r0,[r6]       strh    r0,[r6]                                 
0807EADE 3701     add     r7,1h         add     r7,1h                                   
0807EAE0 3401     add     r4,1h         add     r4,1h                                   
0807EAE2 8830     ldrh    r0,[r6]       ldrh    r0,[r6]                                 
0807EAE4 2800     cmp     r0,0h         cmp     r0,0h                                   
0807EAE6 D007     beq     807EAF8h      beq     807EAF8h                                
0807EAE8 1C38     mov     r0,r7         mov     r0,r7                                   
0807EAEA 1C21     mov     r1,r4         mov     r1,r4                                   
0807EAEC F7FFFF9C bl      807EA28h       807EA28h                                
0807EAF0 0400     lsl     r0,r0,10h     lsl     r0,r0,10h                               
0807EAF2 0C05     lsr     r5,r0,10h     lsr     r5,r0,10h                               
0807EAF4 2D00     cmp     r5,0h         cmp     r5,0h                                   
0807EAF6 D0EF     beq     807EAD8h      beq     807EAD8h                                
0807EAF8 1C28     mov     r0,r5         mov     r0,r5                                   
0807EAFA B010     add     sp,40h        add     sp,40h                                  
0807EAFC BCF0     pop     r4-r7         pop     r4-r7                                   
0807EAFE BC02     pop     r1            pop     r1                                      
0807EB00 4708     bx      r1            bx      r1                                      
0807EB02 0000     lsl     r0,r0,0h      lsl     r0,r0,0h                                
0807EB04 4700     bx      r0            bx      r0                                      
0807EB06 46C0     nop                   nop                                             
0807EB08 4708     bx      r1            bx      r1                                      
0807EB0A 46C0     nop                   nop                                             
0807EB0C 4710     bx      r2            bx      r2                                      
0807EB0E 46C0     nop                   nop                                             
0807EB10 4718     bx      r3            bx      r3                                      
0807EB12 46C0     nop                   nop                                             
0807EB14 4720     bx      r4            bx      r4                                      
0807EB16 46C0     nop                   nop                                             
0807EB18 4728     bx      r5            bx      r5                                      
0807EB1A 46C0     nop                   nop                                             
0807EB1C 4730     bx      r6            bx      r6                                      
0807EB1E 46C0     nop                   nop                                             
0807EB20 4738     bx      r7            bx      r7                                      
0807EB22 46C0     nop                   nop                                             
0807EB24 4740     bx      r8            bx      r8                                      
0807EB26 46C0     nop                   nop                                             
0807EB28 4748     bx      r9            bx      r9                                      
0807EB2A 46C0     nop                   nop                                             
0807EB2C 4750     bx      r10           bx      r10                                     
0807EB2E 46C0     nop                   nop                                             
0807EB30 4758     bx      r11           bx      r11                                     
0807EB32 46C0     nop                   nop                                             
0807EB34 4760     bx      r12           bx      r12                                     
0807EB36 46C0     nop                   nop                                             
0807EB38 4768     bx      r13           bx      r13                                     
0807EB3A 46C0     nop                   nop                                             
0807EB3C 4770     bx      r14           bx      r14                                     
0807EB3E 46C0     nop                   nop                                             
0807EB40 2900     cmp     r1,0h         cmp     r1,0h                                   
0807EB42 D041     beq     807EBC8h      beq     807EBC8h                                
0807EB44 B410     push    r4            push    r4                                      
0807EB46 1C04     mov     r4,r0         mov     r4,r0                                   
0807EB48 404C     eor     r4,r1         eor     r4,r1                                   
0807EB4A 46A4     mov     r12,r4        mov     r12,r4                                  
0807EB4C 2301     mov     r3,1h         mov     r3,1h                                   
0807EB4E 2200     mov     r2,0h         mov     r2,0h                                   
0807EB50 2900     cmp     r1,0h         cmp     r1,0h                                   
0807EB52 D500     bpl     807EB56h      bpl     807EB56h                                
0807EB54 4249     neg     r1,r1         neg     r1,r1                                   
0807EB56 2800     cmp     r0,0h         cmp     r0,0h                                   
0807EB58 D500     bpl     807EB5Ch      bpl     807EB5Ch                                
0807EB5A 4240     neg     r0,r0         neg     r0,r0                                   
0807EB5C 4288     cmp     r0,r1         cmp     r0,r1                                   
0807EB5E D32C     bcc     807EBBAh      bcc     807EBBAh                                
0807EB60 2401     mov     r4,1h         mov     r4,1h                                   
0807EB62 0724     lsl     r4,r4,1Ch     lsl     r4,r4,1Ch                               
0807EB64 42A1     cmp     r1,r4         cmp     r1,r4                                   
0807EB66 D204     bcs     807EB72h      bcs     807EB72h                                
0807EB68 4281     cmp     r1,r0         cmp     r1,r0                                   
0807EB6A D202     bcs     807EB72h      bcs     807EB72h                                
0807EB6C 0109     lsl     r1,r1,4h      lsl     r1,r1,4h                                
0807EB6E 011B     lsl     r3,r3,4h      lsl     r3,r3,4h                                
0807EB70 E7F8     b       807EB64h      b       807EB64h                                
0807EB72 00E4     lsl     r4,r4,3h      lsl     r4,r4,3h                                
0807EB74 42A1     cmp     r1,r4         cmp     r1,r4                                   
0807EB76 D204     bcs     807EB82h      bcs     807EB82h                                
0807EB78 4281     cmp     r1,r0         cmp     r1,r0                                   
0807EB7A D202     bcs     807EB82h      bcs     807EB82h                                
0807EB7C 0049     lsl     r1,r1,1h      lsl     r1,r1,1h                                
0807EB7E 005B     lsl     r3,r3,1h      lsl     r3,r3,1h                                
0807EB80 E7F8     b       807EB74h      b       807EB74h                                
0807EB82 4288     cmp     r0,r1         cmp     r0,r1                                   
0807EB84 D301     bcc     807EB8Ah      bcc     807EB8Ah                                
0807EB86 1A40     sub     r0,r0,r1      sub     r0,r0,r1                                
0807EB88 431A     orr     r2,r3         orr     r2,r3                                   
0807EB8A 084C     lsr     r4,r1,1h      lsr     r4,r1,1h                                
0807EB8C 42A0     cmp     r0,r4         cmp     r0,r4                                   
0807EB8E D302     bcc     807EB96h      bcc     807EB96h                                
0807EB90 1B00     sub     r0,r0,r4      sub     r0,r0,r4                                
0807EB92 085C     lsr     r4,r3,1h      lsr     r4,r3,1h                                
0807EB94 4322     orr     r2,r4         orr     r2,r4                                   
0807EB96 088C     lsr     r4,r1,2h      lsr     r4,r1,2h                                
0807EB98 42A0     cmp     r0,r4         cmp     r0,r4                                   
0807EB9A D302     bcc     807EBA2h      bcc     807EBA2h                                
0807EB9C 1B00     sub     r0,r0,r4      sub     r0,r0,r4                                
0807EB9E 089C     lsr     r4,r3,2h      lsr     r4,r3,2h                                
0807EBA0 4322     orr     r2,r4         orr     r2,r4                                   
0807EBA2 08CC     lsr     r4,r1,3h      lsr     r4,r1,3h                                
0807EBA4 42A0     cmp     r0,r4         cmp     r0,r4                                   
0807EBA6 D302     bcc     807EBAEh      bcc     807EBAEh                                
0807EBA8 1B00     sub     r0,r0,r4      sub     r0,r0,r4                                
0807EBAA 08DC     lsr     r4,r3,3h      lsr     r4,r3,3h                                
0807EBAC 4322     orr     r2,r4         orr     r2,r4                                   
0807EBAE 2800     cmp     r0,0h         cmp     r0,0h                                   
0807EBB0 D003     beq     807EBBAh      beq     807EBBAh                                
0807EBB2 091B     lsr     r3,r3,4h      lsr     r3,r3,4h                                
0807EBB4 D001     beq     807EBBAh      beq     807EBBAh                                
0807EBB6 0909     lsr     r1,r1,4h      lsr     r1,r1,4h                                
0807EBB8 E7E3     b       807EB82h      b       807EB82h                                
0807EBBA 1C10     mov     r0,r2         mov     r0,r2                                   
0807EBBC 4664     mov     r4,r12        mov     r4,r12                                  
0807EBBE 2C00     cmp     r4,0h         cmp     r4,0h                                   
0807EBC0 D500     bpl     807EBC4h      bpl     807EBC4h                                
0807EBC2 4240     neg     r0,r0         neg     r0,r0                                   
0807EBC4 BC10     pop     r4            pop     r4                                      
0807EBC6 46F7     mov     r15,r14       mov     r15,r14                                 
0807EBC8 B500     push    r14           push    r14                                     
0807EBCA F000F803 bl      807EBD4h       807EBD4h                                
0807EBCE 2000     mov     r0,0h         mov     r0,0h                                   
0807EBD0 BD00     pop     r15           pop     r15                                     
0807EBD2 0000     lsl     r0,r0,0h      lsl     r0,r0,0h                                
0807EBD4 46F7     mov     r15,r14       mov     r15,r14                                 
0807EBD6 0000     lsl     r0,r0,0h      lsl     r0,r0,0h                                
0807EBD8 B570     push    r4-r6,r14     push    r4-r6,r14                               
0807EBDA 1C0E     mov     r6,r1         mov     r6,r1                                   
0807EBDC 1C05     mov     r5,r0         mov     r5,r0                                   
0807EBDE 2A00     cmp     r2,0h         cmp     r2,0h                                   
0807EBE0 D012     beq     807EC08h      beq     807EC08h                                
0807EBE2 2020     mov     r0,20h        mov     r0,20h                                  
0807EBE4 1A80     sub     r0,r0,r2      sub     r0,r0,r2                                
0807EBE6 2800     cmp     r0,0h         cmp     r0,0h                                   
0807EBE8 DC04     bgt     807EBF4h      bgt     807EBF4h                                
0807EBEA 2400     mov     r4,0h         mov     r4,0h                                   
0807EBEC 4240     neg     r0,r0         neg     r0,r0                                   
0807EBEE 1C33     mov     r3,r6         mov     r3,r6                                   
0807EBF0 40C3     lsr     r3,r0         lsr     r3,r0                                   
0807EBF2 E007     b       807EC04h      b       807EC04h                                
0807EBF4 1C31     mov     r1,r6         mov     r1,r6                                   
0807EBF6 4081     lsl     r1,r0         lsl     r1,r0                                   
0807EBF8 1C34     mov     r4,r6         mov     r4,r6                                   
0807EBFA 40D4     lsr     r4,r2         lsr     r4,r2                                   
0807EBFC 1C28     mov     r0,r5         mov     r0,r5                                   
0807EBFE 40D0     lsr     r0,r2         lsr     r0,r2                                   
0807EC00 1C03     mov     r3,r0         mov     r3,r0                                   
0807EC02 430B     orr     r3,r1         orr     r3,r1                                   
0807EC04 1C21     mov     r1,r4         mov     r1,r4                                   
0807EC06 1C18     mov     r0,r3         mov     r0,r3                                   
0807EC08 BD70     pop     r4-r6,r15     pop     r4-r6,r15                               
0807EC0A 0000     lsl     r0,r0,0h      lsl     r0,r0,0h                                
0807EC0C 2301     mov     r3,1h         mov     r3,1h                                   
0807EC0E 2900     cmp     r1,0h         cmp     r1,0h                                   
0807EC10 D05E     beq     807ECD0h      beq     807ECD0h                                
0807EC12 D500     bpl     807EC16h      bpl     807EC16h                                
0807EC14 4249     neg     r1,r1         neg     r1,r1                                   
0807EC16 B410     push    r4            push    r4                                      
0807EC18 B401     push    r0            push    r0                                      
0807EC1A 2800     cmp     r0,0h         cmp     r0,0h                                   
0807EC1C D500     bpl     807EC20h      bpl     807EC20h                                
0807EC1E 4240     neg     r0,r0         neg     r0,r0                                   
0807EC20 4288     cmp     r0,r1         cmp     r0,r1                                   
0807EC22 D34F     bcc     807ECC4h      bcc     807ECC4h                                
0807EC24 2401     mov     r4,1h         mov     r4,1h                                   
0807EC26 0724     lsl     r4,r4,1Ch     lsl     r4,r4,1Ch                               
0807EC28 42A1     cmp     r1,r4         cmp     r1,r4                                   
0807EC2A D204     bcs     807EC36h      bcs     807EC36h                                
0807EC2C 4281     cmp     r1,r0         cmp     r1,r0                                   
0807EC2E D202     bcs     807EC36h      bcs     807EC36h                                
0807EC30 0109     lsl     r1,r1,4h      lsl     r1,r1,4h                                
0807EC32 011B     lsl     r3,r3,4h      lsl     r3,r3,4h                                
0807EC34 E7F8     b       807EC28h      b       807EC28h                                
0807EC36 00E4     lsl     r4,r4,3h      lsl     r4,r4,3h                                
0807EC38 42A1     cmp     r1,r4         cmp     r1,r4                                   
0807EC3A D204     bcs     807EC46h      bcs     807EC46h                                
0807EC3C 4281     cmp     r1,r0         cmp     r1,r0                                   
0807EC3E D202     bcs     807EC46h      bcs     807EC46h                                
0807EC40 0049     lsl     r1,r1,1h      lsl     r1,r1,1h                                
0807EC42 005B     lsl     r3,r3,1h      lsl     r3,r3,1h                                
0807EC44 E7F8     b       807EC38h      b       807EC38h                                
0807EC46 2200     mov     r2,0h         mov     r2,0h                                   
0807EC48 4288     cmp     r0,r1         cmp     r0,r1                                   
0807EC4A D300     bcc     807EC4Eh      bcc     807EC4Eh                                
0807EC4C 1A40     sub     r0,r0,r1      sub     r0,r0,r1                                
0807EC4E 084C     lsr     r4,r1,1h      lsr     r4,r1,1h                                
0807EC50 42A0     cmp     r0,r4         cmp     r0,r4                                   
0807EC52 D305     bcc     807EC60h      bcc     807EC60h                                
0807EC54 1B00     sub     r0,r0,r4      sub     r0,r0,r4                                
0807EC56 469C     mov     r12,r3        mov     r12,r3                                  
0807EC58 2401     mov     r4,1h         mov     r4,1h                                   
0807EC5A 41E3     ror     r3,r4         ror     r3,r4                                   
0807EC5C 431A     orr     r2,r3         orr     r2,r3                                   
0807EC5E 4663     mov     r3,r12        mov     r3,r12                                  
0807EC60 088C     lsr     r4,r1,2h      lsr     r4,r1,2h                                
0807EC62 42A0     cmp     r0,r4         cmp     r0,r4                                   
0807EC64 D305     bcc     807EC72h      bcc     807EC72h                                
0807EC66 1B00     sub     r0,r0,r4      sub     r0,r0,r4                                
0807EC68 469C     mov     r12,r3        mov     r12,r3                                  
0807EC6A 2402     mov     r4,2h         mov     r4,2h                                   
0807EC6C 41E3     ror     r3,r4         ror     r3,r4                                   
0807EC6E 431A     orr     r2,r3         orr     r2,r3                                   
0807EC70 4663     mov     r3,r12        mov     r3,r12                                  
0807EC72 08CC     lsr     r4,r1,3h      lsr     r4,r1,3h                                
0807EC74 42A0     cmp     r0,r4         cmp     r0,r4                                   
0807EC76 D305     bcc     807EC84h      bcc     807EC84h                                
0807EC78 1B00     sub     r0,r0,r4      sub     r0,r0,r4                                
0807EC7A 469C     mov     r12,r3        mov     r12,r3                                  
0807EC7C 2403     mov     r4,3h         mov     r4,3h                                   
0807EC7E 41E3     ror     r3,r4         ror     r3,r4                                   
0807EC80 431A     orr     r2,r3         orr     r2,r3                                   
0807EC82 4663     mov     r3,r12        mov     r3,r12                                  
0807EC84 469C     mov     r12,r3        mov     r12,r3                                  
0807EC86 2800     cmp     r0,0h         cmp     r0,0h                                   
0807EC88 D003     beq     807EC92h      beq     807EC92h                                
0807EC8A 091B     lsr     r3,r3,4h      lsr     r3,r3,4h                                
0807EC8C D001     beq     807EC92h      beq     807EC92h                                
0807EC8E 0909     lsr     r1,r1,4h      lsr     r1,r1,4h                                
0807EC90 E7D9     b       807EC46h      b       807EC46h                                
0807EC92 240E     mov     r4,0Eh        mov     r4,0Eh                                  
0807EC94 0724     lsl     r4,r4,1Ch     lsl     r4,r4,1Ch                               
0807EC96 4022     and     r2,r4         and     r2,r4                                   
0807EC98 D014     beq     807ECC4h      beq     807ECC4h                                
0807EC9A 4663     mov     r3,r12        mov     r3,r12                                  
0807EC9C 2403     mov     r4,3h         mov     r4,3h                                   
0807EC9E 41E3     ror     r3,r4         ror     r3,r4                                   
0807ECA0 421A     tst     r2,r3         tst     r2,r3                                   
0807ECA2 D001     beq     807ECA8h      beq     807ECA8h                                
0807ECA4 08CC     lsr     r4,r1,3h      lsr     r4,r1,3h                                
0807ECA6 1900     add     r0,r0,r4      add     r0,r0,r4                                
0807ECA8 4663     mov     r3,r12        mov     r3,r12                                  
0807ECAA 2402     mov     r4,2h         mov     r4,2h                                   
0807ECAC 41E3     ror     r3,r4         ror     r3,r4                                   
0807ECAE 421A     tst     r2,r3         tst     r2,r3                                   
0807ECB0 D001     beq     807ECB6h      beq     807ECB6h                                
0807ECB2 088C     lsr     r4,r1,2h      lsr     r4,r1,2h                                
0807ECB4 1900     add     r0,r0,r4      add     r0,r0,r4                                
0807ECB6 4663     mov     r3,r12        mov     r3,r12                                  
0807ECB8 2401     mov     r4,1h         mov     r4,1h                                   
0807ECBA 41E3     ror     r3,r4         ror     r3,r4                                   
0807ECBC 421A     tst     r2,r3         tst     r2,r3                                   
0807ECBE D001     beq     807ECC4h      beq     807ECC4h                                
0807ECC0 084C     lsr     r4,r1,1h      lsr     r4,r1,1h                                
0807ECC2 1900     add     r0,r0,r4      add     r0,r0,r4                                
0807ECC4 BC10     pop     r4            pop     r4                                      
0807ECC6 2C00     cmp     r4,0h         cmp     r4,0h                                   
0807ECC8 D500     bpl     807ECCCh      bpl     807ECCCh                                
0807ECCA 4240     neg     r0,r0         neg     r0,r0                                   
0807ECCC BC10     pop     r4            pop     r4                                      
0807ECCE 46F7     mov     r15,r14       mov     r15,r14                                 
0807ECD0 B500     push    r14           push    r14                                     
0807ECD2 F7FFFF7F bl      807EBD4h       807EBD4h                                
0807ECD6 2000     mov     r0,0h         mov     r0,0h                                   
0807ECD8 BD00     pop     r15           pop     r15                                     
0807ECDA 0000     lsl     r0,r0,0h      lsl     r0,r0,0h                                
0807ECDC B5F0     push    r4-r7,r14     push    r4-r7,r14                               
0807ECDE B084     add     sp,-10h       add     sp,-10h                                 
0807ECE0 9000     str     r0,[sp]       str     r0,[sp]                                 
0807ECE2 9101     str     r1,[sp,4h]    str     r1,[sp,4h]                              
0807ECE4 9202     str     r2,[sp,8h]    str     r2,[sp,8h]                              
0807ECE6 9303     str     r3,[sp,0Ch]   str     r3,[sp,0Ch]                             
0807ECE8 9B00     ldr     r3,[sp]       ldr     r3,[sp]                                 
0807ECEA 4817     ldr     r0,=0FFFFh    ldr     r0,=0FFFFh                              
0807ECEC 4684     mov     r12,r0        mov     r12,r0                                  
0807ECEE 1C1A     mov     r2,r3         mov     r2,r3                                   
0807ECF0 4002     and     r2,r0         and     r2,r0                                   
0807ECF2 0C1B     lsr     r3,r3,10h     lsr     r3,r3,10h                               
0807ECF4 9902     ldr     r1,[sp,8h]    ldr     r1,[sp,8h]                              
0807ECF6 1C08     mov     r0,r1         mov     r0,r1                                   
0807ECF8 4664     mov     r4,r12        mov     r4,r12                                  
0807ECFA 4020     and     r0,r4         and     r0,r4                                   
0807ECFC 0C09     lsr     r1,r1,10h     lsr     r1,r1,10h                               
0807ECFE 1C15     mov     r5,r2         mov     r5,r2                                   
0807ED00 4345     mul     r5,r0         mul     r5,r0                                   
0807ED02 1C14     mov     r4,r2         mov     r4,r2                                   
0807ED04 434C     mul     r4,r1         mul     r4,r1                                   
0807ED06 1C1A     mov     r2,r3         mov     r2,r3                                   
0807ED08 4342     mul     r2,r0         mul     r2,r0                                   
0807ED0A 434B     mul     r3,r1         mul     r3,r1                                   
0807ED0C 0C28     lsr     r0,r5,10h     lsr     r0,r5,10h                               
0807ED0E 1824     add     r4,r4,r0      add     r4,r4,r0                                
0807ED10 18A4     add     r4,r4,r2      add     r4,r4,r2                                
0807ED12 4294     cmp     r4,r2         cmp     r4,r2                                   
0807ED14 D202     bcs     807ED1Ch      bcs     807ED1Ch                                
0807ED16 2080     mov     r0,80h        mov     r0,80h                                  
0807ED18 0240     lsl     r0,r0,9h      lsl     r0,r0,9h                                
0807ED1A 181B     add     r3,r3,r0      add     r3,r3,r0                                
0807ED1C 0C20     lsr     r0,r4,10h     lsr     r0,r4,10h                               
0807ED1E 181F     add     r7,r3,r0      add     r7,r3,r0                                
0807ED20 4661     mov     r1,r12        mov     r1,r12                                  
0807ED22 400C     and     r4,r1         and     r4,r1                                   
0807ED24 0420     lsl     r0,r4,10h     lsl     r0,r4,10h                               
0807ED26 400D     and     r5,r1         and     r5,r1                                   
0807ED28 1C06     mov     r6,r0         mov     r6,r0                                   
0807ED2A 432E     orr     r6,r5         orr     r6,r5                                   
0807ED2C 1C39     mov     r1,r7         mov     r1,r7                                   
0807ED2E 1C30     mov     r0,r6         mov     r0,r6                                   
0807ED30 9B00     ldr     r3,[sp]       ldr     r3,[sp]                                 
0807ED32 9C03     ldr     r4,[sp,0Ch]   ldr     r4,[sp,0Ch]                             
0807ED34 1C1A     mov     r2,r3         mov     r2,r3                                   
0807ED36 4362     mul     r2,r4         mul     r2,r4                                   
0807ED38 9D01     ldr     r5,[sp,4h]    ldr     r5,[sp,4h]                              
0807ED3A 9C02     ldr     r4,[sp,8h]    ldr     r4,[sp,8h]                              
0807ED3C 1C2B     mov     r3,r5         mov     r3,r5                                   
0807ED3E 4363     mul     r3,r4         mul     r3,r4                                   
0807ED40 18D2     add     r2,r2,r3      add     r2,r2,r3                                
0807ED42 18B9     add     r1,r7,r2      add     r1,r7,r2                                
0807ED44 B004     add     sp,10h        add     sp,10h                                  
0807ED46 BDF0     pop     r4-r7,r15     pop     r4-r7,r15                               
0807ED48 FFFF     bl      lr+0FFEh      bl      lr+0FFEh                                
0807ED4A 0000     lsl     r0,r0,0h      lsl     r0,r0,0h                                
0807ED4C 2900     cmp     r1,0h         cmp     r1,0h                                   
0807ED4E D034     beq     807EDBAh      beq     807EDBAh                                
0807ED50 2301     mov     r3,1h         mov     r3,1h                                   
0807ED52 2200     mov     r2,0h         mov     r2,0h                                   
0807ED54 B410     push    r4            push    r4                                      
0807ED56 4288     cmp     r0,r1         cmp     r0,r1                                   
0807ED58 D32C     bcc     807EDB4h      bcc     807EDB4h                                
0807ED5A 2401     mov     r4,1h         mov     r4,1h                                   
0807ED5C 0724     lsl     r4,r4,1Ch     lsl     r4,r4,1Ch                               
0807ED5E 42A1     cmp     r1,r4         cmp     r1,r4                                   
0807ED60 D204     bcs     807ED6Ch      bcs     807ED6Ch                                
0807ED62 4281     cmp     r1,r0         cmp     r1,r0                                   
0807ED64 D202     bcs     807ED6Ch      bcs     807ED6Ch                                
0807ED66 0109     lsl     r1,r1,4h      lsl     r1,r1,4h                                
0807ED68 011B     lsl     r3,r3,4h      lsl     r3,r3,4h                                
0807ED6A E7F8     b       807ED5Eh      b       807ED5Eh                                
0807ED6C 00E4     lsl     r4,r4,3h      lsl     r4,r4,3h                                
0807ED6E 42A1     cmp     r1,r4         cmp     r1,r4                                   
0807ED70 D204     bcs     807ED7Ch      bcs     807ED7Ch                                
0807ED72 4281     cmp     r1,r0         cmp     r1,r0                                   
0807ED74 D202     bcs     807ED7Ch      bcs     807ED7Ch                                
0807ED76 0049     lsl     r1,r1,1h      lsl     r1,r1,1h                                
0807ED78 005B     lsl     r3,r3,1h      lsl     r3,r3,1h                                
0807ED7A E7F8     b       807ED6Eh      b       807ED6Eh                                
0807ED7C 4288     cmp     r0,r1         cmp     r0,r1                                   
0807ED7E D301     bcc     807ED84h      bcc     807ED84h                                
0807ED80 1A40     sub     r0,r0,r1      sub     r0,r0,r1                                
0807ED82 431A     orr     r2,r3         orr     r2,r3                                   
0807ED84 084C     lsr     r4,r1,1h      lsr     r4,r1,1h                                
0807ED86 42A0     cmp     r0,r4         cmp     r0,r4                                   
0807ED88 D302     bcc     807ED90h      bcc     807ED90h                                
0807ED8A 1B00     sub     r0,r0,r4      sub     r0,r0,r4                                
0807ED8C 085C     lsr     r4,r3,1h      lsr     r4,r3,1h                                
0807ED8E 4322     orr     r2,r4         orr     r2,r4                                   
0807ED90 088C     lsr     r4,r1,2h      lsr     r4,r1,2h                                
0807ED92 42A0     cmp     r0,r4         cmp     r0,r4                                   
0807ED94 D302     bcc     807ED9Ch      bcc     807ED9Ch                                
0807ED96 1B00     sub     r0,r0,r4      sub     r0,r0,r4                                
0807ED98 089C     lsr     r4,r3,2h      lsr     r4,r3,2h                                
0807ED9A 4322     orr     r2,r4         orr     r2,r4                                   
0807ED9C 08CC     lsr     r4,r1,3h      lsr     r4,r1,3h                                
0807ED9E 42A0     cmp     r0,r4         cmp     r0,r4                                   
0807EDA0 D302     bcc     807EDA8h      bcc     807EDA8h                                
0807EDA2 1B00     sub     r0,r0,r4      sub     r0,r0,r4                                
0807EDA4 08DC     lsr     r4,r3,3h      lsr     r4,r3,3h                                
0807EDA6 4322     orr     r2,r4         orr     r2,r4                                   
0807EDA8 2800     cmp     r0,0h         cmp     r0,0h                                   
0807EDAA D003     beq     807EDB4h      beq     807EDB4h                                
0807EDAC 091B     lsr     r3,r3,4h      lsr     r3,r3,4h                                
0807EDAE D001     beq     807EDB4h      beq     807EDB4h                                
0807EDB0 0909     lsr     r1,r1,4h      lsr     r1,r1,4h                                
0807EDB2 E7E3     b       807ED7Ch      b       807ED7Ch                                
0807EDB4 1C10     mov     r0,r2         mov     r0,r2                                   
0807EDB6 BC10     pop     r4            pop     r4                                      
0807EDB8 46F7     mov     r15,r14       mov     r15,r14                                 
0807EDBA B500     push    r14           push    r14                                     
0807EDBC F7FFFF0A bl      807EBD4h       807EBD4h                                
0807EDC0 2000     mov     r0,0h         mov     r0,0h                                   
0807EDC2 BD00     pop     r15           pop     r15                                     
0807EDC4 B5F0     push    r4-r7,r14     push    r4-r7,r14                               
0807EDC6 4657     mov     r7,r10        mov     r7,r10                                  
0807EDC8 464E     mov     r6,r9         mov     r6,r9                                   
0807EDCA 4645     mov     r5,r8         mov     r5,r8                                   
0807EDCC B4E0     push    r5-r7         push    r5-r7                                   
0807EDCE B089     add     sp,-24h       add     sp,-24h                                 
0807EDD0 466C     mov     r4,r13        mov     r4,r13                                  
0807EDD2 9402     str     r4,[sp,8h]    str     r4,[sp,8h]                              
0807EDD4 1C17     mov     r7,r2         mov     r7,r2                                   
0807EDD6 4698     mov     r8,r3         mov     r8,r3                                   
0807EDD8 9003     str     r0,[sp,0Ch]   str     r0,[sp,0Ch]                             
0807EDDA 1C0E     mov     r6,r1         mov     r6,r1                                   
0807EDDC 2B00     cmp     r3,0h         cmp     r3,0h                                   
0807EDDE D000     beq     807EDE2h      beq     807EDE2h                                
0807EDE0 E0E4     b       807EFACh      b       807EFACh                                
0807EDE2 42B7     cmp     r7,r6         cmp     r7,r6                                   
0807EDE4 D932     bls     807EE4Ch      bls     807EE4Ch                                
0807EDE6 4804     ldr     r0,=0FFFFh    ldr     r0,=0FFFFh                              
0807EDE8 4287     cmp     r7,r0         cmp     r7,r0                                   
0807EDEA D807     bhi     807EDFCh      bhi     807EDFCh                                
0807EDEC 2100     mov     r1,0h         mov     r1,0h                                   
0807EDEE 2FFF     cmp     r7,0FFh       cmp     r7,0FFh                                 
0807EDF0 D909     bls     807EE06h      bls     807EE06h                                
0807EDF2 2108     mov     r1,8h         mov     r1,8h                                   
0807EDF4 E007     b       807EE06h      b       807EE06h                                
0807EDF6 0000     lsl     r0,r0,0h      lsl     r0,r0,0h                                
0807EDF8 FFFF     bl      lr+0FFEh      bl      lr+0FFEh                                
0807EDFA 0000     lsl     r0,r0,0h      lsl     r0,r0,0h                                
0807EDFC 4810     ldr     r0,=0FFFFFFh  ldr     r0,=0FFFFFFh                            
0807EDFE 2118     mov     r1,18h        mov     r1,18h                                  
0807EE00 4287     cmp     r7,r0         cmp     r7,r0                                   
0807EE02 D800     bhi     807EE06h      bhi     807EE06h                                
0807EE04 2110     mov     r1,10h        mov     r1,10h                                  
0807EE06 480F     ldr     r0,=8BB1CACh  ldr     r0,=8BB1CACh                            
0807EE08 40CA     lsr     r2,r1         lsr     r2,r1                                   
0807EE0A 1810     add     r0,r2,r0      add     r0,r2,r0                                
0807EE0C 7800     ldrb    r0,[r0]       ldrb    r0,[r0]                                 
0807EE0E 1840     add     r0,r0,r1      add     r0,r0,r1                                
0807EE10 2120     mov     r1,20h        mov     r1,20h                                  
0807EE12 1A08     sub     r0,r1,r0      sub     r0,r1,r0                                
0807EE14 9004     str     r0,[sp,10h]   str     r0,[sp,10h]                             
0807EE16 2800     cmp     r0,0h         cmp     r0,0h                                   
0807EE18 D009     beq     807EE2Eh      beq     807EE2Eh                                
0807EE1A 4087     lsl     r7,r0         lsl     r7,r0                                   
0807EE1C 4086     lsl     r6,r0         lsl     r6,r0                                   
0807EE1E 1A09     sub     r1,r1,r0      sub     r1,r1,r0                                
0807EE20 9803     ldr     r0,[sp,0Ch]   ldr     r0,[sp,0Ch]                             
0807EE22 40C8     lsr     r0,r1         lsr     r0,r1                                   
0807EE24 4306     orr     r6,r0         orr     r6,r0                                   
0807EE26 9803     ldr     r0,[sp,0Ch]   ldr     r0,[sp,0Ch]                             
0807EE28 9904     ldr     r1,[sp,10h]   ldr     r1,[sp,10h]                             
0807EE2A 4088     lsl     r0,r1         lsl     r0,r1                                   
0807EE2C 9003     str     r0,[sp,0Ch]   str     r0,[sp,0Ch]                             
0807EE2E 0C3A     lsr     r2,r7,10h     lsr     r2,r7,10h                               
0807EE30 4690     mov     r8,r2         mov     r8,r2                                   
0807EE32 4B05     ldr     r3,=0FFFFh    ldr     r3,=0FFFFh                              
0807EE34 4699     mov     r9,r3         mov     r9,r3                                   
0807EE36 464C     mov     r4,r9         mov     r4,r9                                   
0807EE38 403C     and     r4,r7         and     r4,r7                                   
0807EE3A 46A1     mov     r9,r4         mov     r9,r4                                   
0807EE3C E076     b       807EF2Ch      b       807EF2Ch                                
0807EE3E 0000     lsl     r0,r0,0h      lsl     r0,r0,0h                                
0807EE40 FFFF     bl      lr+0FFEh      bl      lr+0FFEh                                
0807EE42 00FF     lsl     r7,r7,3h      lsl     r7,r7,3h                                
0807EE44 1CAC     add     r4,r5,2       add     r4,r5,2                                 
0807EE46 08BB     lsr     r3,r7,2h      lsr     r3,r7,2h                                
0807EE48 FFFF     bl      lr+0FFEh      bl      lr+0FFEh                                
0807EE4A 0000     lsl     r0,r0,0h      lsl     r0,r0,0h                                
0807EE4C 2A00     cmp     r2,0h         cmp     r2,0h                                   
0807EE4E D104     bne     807EE5Ah      bne     807EE5Ah                                
0807EE50 2001     mov     r0,1h         mov     r0,1h                                   
0807EE52 2100     mov     r1,0h         mov     r1,0h                                   
0807EE54 F7FFFF7A bl      807ED4Ch       807ED4Ch                                
0807EE58 1C07     mov     r7,r0         mov     r7,r0                                   
0807EE5A 1C39     mov     r1,r7         mov     r1,r7                                   
0807EE5C 4803     ldr     r0,=0FFFFh    ldr     r0,=0FFFFh                              
0807EE5E 4287     cmp     r7,r0         cmp     r7,r0                                   
0807EE60 D806     bhi     807EE70h      bhi     807EE70h                                
0807EE62 2200     mov     r2,0h         mov     r2,0h                                   
0807EE64 2FFF     cmp     r7,0FFh       cmp     r7,0FFh                                 
0807EE66 D908     bls     807EE7Ah      bls     807EE7Ah                                
0807EE68 2208     mov     r2,8h         mov     r2,8h                                   
0807EE6A E006     b       807EE7Ah      b       807EE7Ah                                
0807EE6C FFFF     bl      lr+0FFEh      bl      lr+0FFEh                                
0807EE6E 0000     lsl     r0,r0,0h      lsl     r0,r0,0h                                
0807EE70 4808     ldr     r0,=0FFFFFFh  ldr     r0,=0FFFFFFh                            
0807EE72 2218     mov     r2,18h        mov     r2,18h                                  
0807EE74 4287     cmp     r7,r0         cmp     r7,r0                                   
0807EE76 D800     bhi     807EE7Ah      bhi     807EE7Ah                                
0807EE78 2210     mov     r2,10h        mov     r2,10h                                  
0807EE7A 4807     ldr     r0,=8BB1CACh  ldr     r0,=8BB1CACh                            
0807EE7C 40D1     lsr     r1,r2         lsr     r1,r2                                   
0807EE7E 1808     add     r0,r1,r0      add     r0,r1,r0                                
0807EE80 7800     ldrb    r0,[r0]       ldrb    r0,[r0]                                 
0807EE82 1880     add     r0,r0,r2      add     r0,r0,r2                                
0807EE84 2120     mov     r1,20h        mov     r1,20h                                  
0807EE86 1A08     sub     r0,r1,r0      sub     r0,r1,r0                                
0807EE88 9004     str     r0,[sp,10h]   str     r0,[sp,10h]                             
0807EE8A 2800     cmp     r0,0h         cmp     r0,0h                                   
0807EE8C D106     bne     807EE9Ch      bne     807EE9Ch                                
0807EE8E 1BF6     sub     r6,r6,r7      sub     r6,r6,r7                                
0807EE90 E045     b       807EF1Eh      b       807EF1Eh                                
0807EE92 0000     lsl     r0,r0,0h      lsl     r0,r0,0h                                
0807EE94 FFFF     bl      lr+0FFEh      bl      lr+0FFEh                                
0807EE96 00FF     lsl     r7,r7,3h      lsl     r7,r7,3h                                
0807EE98 1CAC     add     r4,r5,2       add     r4,r5,2                                 
0807EE9A 08BB     lsr     r3,r7,2h      lsr     r3,r7,2h                                
0807EE9C 9C04     ldr     r4,[sp,10h]   ldr     r4,[sp,10h]                             
0807EE9E 1B09     sub     r1,r1,r4      sub     r1,r1,r4                                
0807EEA0 40A7     lsl     r7,r4         lsl     r7,r4                                   
0807EEA2 1C35     mov     r5,r6         mov     r5,r6                                   
0807EEA4 40CD     lsr     r5,r1         lsr     r5,r1                                   
0807EEA6 40A6     lsl     r6,r4         lsl     r6,r4                                   
0807EEA8 9803     ldr     r0,[sp,0Ch]   ldr     r0,[sp,0Ch]                             
0807EEAA 40C8     lsr     r0,r1         lsr     r0,r1                                   
0807EEAC 4306     orr     r6,r0         orr     r6,r0                                   
0807EEAE 9803     ldr     r0,[sp,0Ch]   ldr     r0,[sp,0Ch]                             
0807EEB0 40A0     lsl     r0,r4         lsl     r0,r4                                   
0807EEB2 9003     str     r0,[sp,0Ch]   str     r0,[sp,0Ch]                             
0807EEB4 0C39     lsr     r1,r7,10h     lsr     r1,r7,10h                               
0807EEB6 4688     mov     r8,r1         mov     r8,r1                                   
0807EEB8 4A3B     ldr     r2,=0FFFFh    ldr     r2,=0FFFFh                              
0807EEBA 4691     mov     r9,r2         mov     r9,r2                                   
0807EEBC 464B     mov     r3,r9         mov     r3,r9                                   
0807EEBE 403B     and     r3,r7         and     r3,r7                                   
0807EEC0 4699     mov     r9,r3         mov     r9,r3                                   
0807EEC2 1C28     mov     r0,r5         mov     r0,r5                                   
0807EEC4 F000F954 bl      807F170h       807F170h                                
0807EEC8 1C04     mov     r4,r0         mov     r4,r0                                   
0807EECA 1C28     mov     r0,r5         mov     r0,r5                                   
0807EECC 4641     mov     r1,r8         mov     r1,r8                                   
0807EECE F7FFFF3D bl      807ED4Ch       807ED4Ch                                
0807EED2 4649     mov     r1,r9         mov     r1,r9                                   
0807EED4 4341     mul     r1,r0         mul     r1,r0                                   
0807EED6 0424     lsl     r4,r4,10h     lsl     r4,r4,10h                               
0807EED8 0C30     lsr     r0,r6,10h     lsr     r0,r6,10h                               
0807EEDA 4304     orr     r4,r0         orr     r4,r0                                   
0807EEDC 428C     cmp     r4,r1         cmp     r4,r1                                   
0807EEDE D205     bcs     807EEECh      bcs     807EEECh                                
0807EEE0 19E4     add     r4,r4,r7      add     r4,r4,r7                                
0807EEE2 42BC     cmp     r4,r7         cmp     r4,r7                                   
0807EEE4 D302     bcc     807EEECh      bcc     807EEECh                                
0807EEE6 428C     cmp     r4,r1         cmp     r4,r1                                   
0807EEE8 D200     bcs     807EEECh      bcs     807EEECh                                
0807EEEA 19E4     add     r4,r4,r7      add     r4,r4,r7                                
0807EEEC 1A64     sub     r4,r4,r1      sub     r4,r4,r1                                
0807EEEE 1C20     mov     r0,r4         mov     r0,r4                                   
0807EEF0 4641     mov     r1,r8         mov     r1,r8                                   
0807EEF2 F000F93D bl      807F170h       807F170h                                
0807EEF6 1C05     mov     r5,r0         mov     r5,r0                                   
0807EEF8 1C20     mov     r0,r4         mov     r0,r4                                   
0807EEFA 4641     mov     r1,r8         mov     r1,r8                                   
0807EEFC F7FFFF26 bl      807ED4Ch       807ED4Ch                                
0807EF00 4649     mov     r1,r9         mov     r1,r9                                   
0807EF02 4341     mul     r1,r0         mul     r1,r0                                   
0807EF04 042D     lsl     r5,r5,10h     lsl     r5,r5,10h                               
0807EF06 4828     ldr     r0,=0FFFFh    ldr     r0,=0FFFFh                              
0807EF08 4006     and     r6,r0         and     r6,r0                                   
0807EF0A 4335     orr     r5,r6         orr     r5,r6                                   
0807EF0C 428D     cmp     r5,r1         cmp     r5,r1                                   
0807EF0E D205     bcs     807EF1Ch      bcs     807EF1Ch                                
0807EF10 19ED     add     r5,r5,r7      add     r5,r5,r7                                
0807EF12 42BD     cmp     r5,r7         cmp     r5,r7                                   
0807EF14 D302     bcc     807EF1Ch      bcc     807EF1Ch                                
0807EF16 428D     cmp     r5,r1         cmp     r5,r1                                   
0807EF18 D200     bcs     807EF1Ch      bcs     807EF1Ch                                
0807EF1A 19ED     add     r5,r5,r7      add     r5,r5,r7                                
0807EF1C 1A6E     sub     r6,r5,r1      sub     r6,r5,r1                                
0807EF1E 0C3C     lsr     r4,r7,10h     lsr     r4,r7,10h                               
0807EF20 46A0     mov     r8,r4         mov     r8,r4                                   
0807EF22 4821     ldr     r0,=0FFFFh    ldr     r0,=0FFFFh                              
0807EF24 4681     mov     r9,r0         mov     r9,r0                                   
0807EF26 4649     mov     r1,r9         mov     r1,r9                                   
0807EF28 4039     and     r1,r7         and     r1,r7                                   
0807EF2A 4689     mov     r9,r1         mov     r9,r1                                   
0807EF2C 1C30     mov     r0,r6         mov     r0,r6                                   
0807EF2E 4641     mov     r1,r8         mov     r1,r8                                   
0807EF30 F000F91E bl      807F170h       807F170h                                
0807EF34 1C04     mov     r4,r0         mov     r4,r0                                   
0807EF36 1C30     mov     r0,r6         mov     r0,r6                                   
0807EF38 4641     mov     r1,r8         mov     r1,r8                                   
0807EF3A F7FFFF07 bl      807ED4Ch       807ED4Ch                                
0807EF3E 4649     mov     r1,r9         mov     r1,r9                                   
0807EF40 4341     mul     r1,r0         mul     r1,r0                                   
0807EF42 0424     lsl     r4,r4,10h     lsl     r4,r4,10h                               
0807EF44 9A03     ldr     r2,[sp,0Ch]   ldr     r2,[sp,0Ch]                             
0807EF46 0C10     lsr     r0,r2,10h     lsr     r0,r2,10h                               
0807EF48 4304     orr     r4,r0         orr     r4,r0                                   
0807EF4A 428C     cmp     r4,r1         cmp     r4,r1                                   
0807EF4C D205     bcs     807EF5Ah      bcs     807EF5Ah                                
0807EF4E 19E4     add     r4,r4,r7      add     r4,r4,r7                                
0807EF50 42BC     cmp     r4,r7         cmp     r4,r7                                   
0807EF52 D302     bcc     807EF5Ah      bcc     807EF5Ah                                
0807EF54 428C     cmp     r4,r1         cmp     r4,r1                                   
0807EF56 D200     bcs     807EF5Ah      bcs     807EF5Ah                                
0807EF58 19E4     add     r4,r4,r7      add     r4,r4,r7                                
0807EF5A 1A64     sub     r4,r4,r1      sub     r4,r4,r1                                
0807EF5C 1C20     mov     r0,r4         mov     r0,r4                                   
0807EF5E 4641     mov     r1,r8         mov     r1,r8                                   
0807EF60 F000F906 bl      807F170h       807F170h                                
0807EF64 1C05     mov     r5,r0         mov     r5,r0                                   
0807EF66 1C20     mov     r0,r4         mov     r0,r4                                   
0807EF68 4641     mov     r1,r8         mov     r1,r8                                   
0807EF6A F7FFFEEF bl      807ED4Ch       807ED4Ch                                
0807EF6E 4649     mov     r1,r9         mov     r1,r9                                   
0807EF70 4341     mul     r1,r0         mul     r1,r0                                   
0807EF72 042D     lsl     r5,r5,10h     lsl     r5,r5,10h                               
0807EF74 480C     ldr     r0,=0FFFFh    ldr     r0,=0FFFFh                              
0807EF76 9B03     ldr     r3,[sp,0Ch]   ldr     r3,[sp,0Ch]                             
0807EF78 4018     and     r0,r3         and     r0,r3                                   
0807EF7A 4305     orr     r5,r0         orr     r5,r0                                   
0807EF7C 428D     cmp     r5,r1         cmp     r5,r1                                   
0807EF7E D205     bcs     807EF8Ch      bcs     807EF8Ch                                
0807EF80 19ED     add     r5,r5,r7      add     r5,r5,r7                                
0807EF82 42BD     cmp     r5,r7         cmp     r5,r7                                   
0807EF84 D302     bcc     807EF8Ch      bcc     807EF8Ch                                
0807EF86 428D     cmp     r5,r1         cmp     r5,r1                                   
0807EF88 D200     bcs     807EF8Ch      bcs     807EF8Ch                                
0807EF8A 19ED     add     r5,r5,r7      add     r5,r5,r7                                
0807EF8C 1A69     sub     r1,r5,r1      sub     r1,r5,r1                                
0807EF8E 9103     str     r1,[sp,0Ch]   str     r1,[sp,0Ch]                             
0807EF90 9C02     ldr     r4,[sp,8h]    ldr     r4,[sp,8h]                              
0807EF92 2C00     cmp     r4,0h         cmp     r4,0h                                   
0807EF94 D100     bne     807EF98h      bne     807EF98h                                
0807EF96 E0E0     b       807F15Ah      b       807F15Ah                                
0807EF98 9803     ldr     r0,[sp,0Ch]   ldr     r0,[sp,0Ch]                             
0807EF9A 9904     ldr     r1,[sp,10h]   ldr     r1,[sp,10h]                             
0807EF9C 40C8     lsr     r0,r1         lsr     r0,r1                                   
0807EF9E 9006     str     r0,[sp,18h]   str     r0,[sp,18h]                             
0807EFA0 2200     mov     r2,0h         mov     r2,0h                                   
0807EFA2 9207     str     r2,[sp,1Ch]   str     r2,[sp,1Ch]                             
0807EFA4 E0D4     b       807F150h      b       807F150h                                
0807EFA6 0000     lsl     r0,r0,0h      lsl     r0,r0,0h                                
0807EFA8 FFFF     bl      lr+0FFEh      bl      lr+0FFEh                                
0807EFAA 0000     lsl     r0,r0,0h      lsl     r0,r0,0h                                
0807EFAC 45B0     cmp     r8,r6         cmp     r8,r6                                   
0807EFAE D906     bls     807EFBEh      bls     807EFBEh                                
0807EFB0 9006     str     r0,[sp,18h]   str     r0,[sp,18h]                             
0807EFB2 9607     str     r6,[sp,1Ch]   str     r6,[sp,1Ch]                             
0807EFB4 9906     ldr     r1,[sp,18h]   ldr     r1,[sp,18h]                             
0807EFB6 9A07     ldr     r2,[sp,1Ch]   ldr     r2,[sp,1Ch]                             
0807EFB8 9100     str     r1,[sp]       str     r1,[sp]                                 
0807EFBA 9201     str     r2,[sp,4h]    str     r2,[sp,4h]                              
0807EFBC E0CD     b       807F15Ah      b       807F15Ah                                
0807EFBE 4641     mov     r1,r8         mov     r1,r8                                   
0807EFC0 4803     ldr     r0,=0FFFFh    ldr     r0,=0FFFFh                              
0807EFC2 4580     cmp     r8,r0         cmp     r8,r0                                   
0807EFC4 D806     bhi     807EFD4h      bhi     807EFD4h                                
0807EFC6 2200     mov     r2,0h         mov     r2,0h                                   
0807EFC8 29FF     cmp     r1,0FFh       cmp     r1,0FFh                                 
0807EFCA D908     bls     807EFDEh      bls     807EFDEh                                
0807EFCC 2208     mov     r2,8h         mov     r2,8h                                   
0807EFCE E006     b       807EFDEh      b       807EFDEh                                
0807EFD0 FFFF     bl      lr+0FFEh      bl      lr+0FFEh                                
0807EFD2 0000     lsl     r0,r0,0h      lsl     r0,r0,0h                                
0807EFD4 4812     ldr     r0,=0FFFFFFh  ldr     r0,=0FFFFFFh                            
0807EFD6 2218     mov     r2,18h        mov     r2,18h                                  
0807EFD8 4580     cmp     r8,r0         cmp     r8,r0                                   
0807EFDA D800     bhi     807EFDEh      bhi     807EFDEh                                
0807EFDC 2210     mov     r2,10h        mov     r2,10h                                  
0807EFDE 4811     ldr     r0,=8BB1CACh  ldr     r0,=8BB1CACh                            
0807EFE0 40D1     lsr     r1,r2         lsr     r1,r2                                   
0807EFE2 1808     add     r0,r1,r0      add     r0,r1,r0                                
0807EFE4 7800     ldrb    r0,[r0]       ldrb    r0,[r0]                                 
0807EFE6 1880     add     r0,r0,r2      add     r0,r0,r2                                
0807EFE8 2120     mov     r1,20h        mov     r1,20h                                  
0807EFEA 1A08     sub     r0,r1,r0      sub     r0,r1,r0                                
0807EFEC 9004     str     r0,[sp,10h]   str     r0,[sp,10h]                             
0807EFEE 2800     cmp     r0,0h         cmp     r0,0h                                   
0807EFF0 D11A     bne     807F028h      bne     807F028h                                
0807EFF2 4546     cmp     r6,r8         cmp     r6,r8                                   
0807EFF4 D802     bhi     807EFFCh      bhi     807EFFCh                                
0807EFF6 9A03     ldr     r2,[sp,0Ch]   ldr     r2,[sp,0Ch]                             
0807EFF8 42BA     cmp     r2,r7         cmp     r2,r7                                   
0807EFFA D307     bcc     807F00Ch      bcc     807F00Ch                                
0807EFFC 9B03     ldr     r3,[sp,0Ch]   ldr     r3,[sp,0Ch]                             
0807EFFE 1BD8     sub     r0,r3,r7      sub     r0,r3,r7                                
0807F000 4644     mov     r4,r8         mov     r4,r8                                   
0807F002 1B36     sub     r6,r6,r4      sub     r6,r6,r4                                
0807F004 4298     cmp     r0,r3         cmp     r0,r3                                   
0807F006 D900     bls     807F00Ah      bls     807F00Ah                                
0807F008 3E01     sub     r6,1h         sub     r6,1h                                   
0807F00A 9003     str     r0,[sp,0Ch]   str     r0,[sp,0Ch]                             
0807F00C 9802     ldr     r0,[sp,8h]    ldr     r0,[sp,8h]                              
0807F00E 2800     cmp     r0,0h         cmp     r0,0h                                   
0807F010 D100     bne     807F014h      bne     807F014h                                
0807F012 E0A2     b       807F15Ah      b       807F15Ah                                
0807F014 9903     ldr     r1,[sp,0Ch]   ldr     r1,[sp,0Ch]                             
0807F016 9106     str     r1,[sp,18h]   str     r1,[sp,18h]                             
0807F018 9607     str     r6,[sp,1Ch]   str     r6,[sp,1Ch]                             
0807F01A 9B06     ldr     r3,[sp,18h]   ldr     r3,[sp,18h]                             
0807F01C 9C07     ldr     r4,[sp,1Ch]   ldr     r4,[sp,1Ch]                             
0807F01E E09A     b       807F156h      b       807F156h                                
0807F020 FFFF     bl      lr+0FFEh      bl      lr+0FFEh                                
0807F022 00FF     lsl     r7,r7,3h      lsl     r7,r7,3h                                
0807F024 1CAC     add     r4,r5,2       add     r4,r5,2                                 
0807F026 08BB     lsr     r3,r7,2h      lsr     r3,r7,2h                                
0807F028 9A04     ldr     r2,[sp,10h]   ldr     r2,[sp,10h]                             
0807F02A 1A89     sub     r1,r1,r2      sub     r1,r1,r2                                
0807F02C 9105     str     r1,[sp,14h]   str     r1,[sp,14h]                             
0807F02E 4643     mov     r3,r8         mov     r3,r8                                   
0807F030 4093     lsl     r3,r2         lsl     r3,r2                                   
0807F032 1C38     mov     r0,r7         mov     r0,r7                                   
0807F034 40C8     lsr     r0,r1         lsr     r0,r1                                   
0807F036 4303     orr     r3,r0         orr     r3,r0                                   
0807F038 4698     mov     r8,r3         mov     r8,r3                                   
0807F03A 4097     lsl     r7,r2         lsl     r7,r2                                   
0807F03C 1C35     mov     r5,r6         mov     r5,r6                                   
0807F03E 40CD     lsr     r5,r1         lsr     r5,r1                                   
0807F040 4096     lsl     r6,r2         lsl     r6,r2                                   
0807F042 9803     ldr     r0,[sp,0Ch]   ldr     r0,[sp,0Ch]                             
0807F044 40C8     lsr     r0,r1         lsr     r0,r1                                   
0807F046 4306     orr     r6,r0         orr     r6,r0                                   
0807F048 9C03     ldr     r4,[sp,0Ch]   ldr     r4,[sp,0Ch]                             
0807F04A 4094     lsl     r4,r2         lsl     r4,r2                                   
0807F04C 9403     str     r4,[sp,0Ch]   str     r4,[sp,0Ch]                             
0807F04E 0C1B     lsr     r3,r3,10h     lsr     r3,r3,10h                               
0807F050 469A     mov     r10,r3        mov     r10,r3                                  
0807F052 4846     ldr     r0,=0FFFFh    ldr     r0,=0FFFFh                              
0807F054 4641     mov     r1,r8         mov     r1,r8                                   
0807F056 4001     and     r1,r0         and     r1,r0                                   
0807F058 9108     str     r1,[sp,20h]   str     r1,[sp,20h]                             
0807F05A 1C28     mov     r0,r5         mov     r0,r5                                   
0807F05C 4651     mov     r1,r10        mov     r1,r10                                  
0807F05E F000F887 bl      807F170h       807F170h                                
0807F062 1C04     mov     r4,r0         mov     r4,r0                                   
0807F064 1C28     mov     r0,r5         mov     r0,r5                                   
0807F066 4651     mov     r1,r10        mov     r1,r10                                  
0807F068 F7FFFE70 bl      807ED4Ch       807ED4Ch                                
0807F06C 4681     mov     r9,r0         mov     r9,r0                                   
0807F06E 9B08     ldr     r3,[sp,20h]   ldr     r3,[sp,20h]                             
0807F070 464A     mov     r2,r9         mov     r2,r9                                   
0807F072 435A     mul     r2,r3         mul     r2,r3                                   
0807F074 0424     lsl     r4,r4,10h     lsl     r4,r4,10h                               
0807F076 0C30     lsr     r0,r6,10h     lsr     r0,r6,10h                               
0807F078 4304     orr     r4,r0         orr     r4,r0                                   
0807F07A 4294     cmp     r4,r2         cmp     r4,r2                                   
0807F07C D209     bcs     807F092h      bcs     807F092h                                
0807F07E 2001     mov     r0,1h         mov     r0,1h                                   
0807F080 4240     neg     r0,r0         neg     r0,r0                                   
0807F082 4481     add     r9,r0         add     r9,r0                                   
0807F084 4444     add     r4,r8         add     r4,r8                                   
0807F086 4544     cmp     r4,r8         cmp     r4,r8                                   
0807F088 D303     bcc     807F092h      bcc     807F092h                                
0807F08A 4294     cmp     r4,r2         cmp     r4,r2                                   
0807F08C D201     bcs     807F092h      bcs     807F092h                                
0807F08E 4481     add     r9,r0         add     r9,r0                                   
0807F090 4444     add     r4,r8         add     r4,r8                                   
0807F092 1AA4     sub     r4,r4,r2      sub     r4,r4,r2                                
0807F094 1C20     mov     r0,r4         mov     r0,r4                                   
0807F096 4651     mov     r1,r10        mov     r1,r10                                  
0807F098 F000F86A bl      807F170h       807F170h                                
0807F09C 1C05     mov     r5,r0         mov     r5,r0                                   
0807F09E 1C20     mov     r0,r4         mov     r0,r4                                   
0807F0A0 4651     mov     r1,r10        mov     r1,r10                                  
0807F0A2 F7FFFE53 bl      807ED4Ch       807ED4Ch                                
0807F0A6 1C03     mov     r3,r0         mov     r3,r0                                   
0807F0A8 9908     ldr     r1,[sp,20h]   ldr     r1,[sp,20h]                             
0807F0AA 1C1A     mov     r2,r3         mov     r2,r3                                   
0807F0AC 434A     mul     r2,r1         mul     r2,r1                                   
0807F0AE 042D     lsl     r5,r5,10h     lsl     r5,r5,10h                               
0807F0B0 482E     ldr     r0,=0FFFFh    ldr     r0,=0FFFFh                              
0807F0B2 4006     and     r6,r0         and     r6,r0                                   
0807F0B4 4335     orr     r5,r6         orr     r5,r6                                   
0807F0B6 4295     cmp     r5,r2         cmp     r5,r2                                   
0807F0B8 D207     bcs     807F0CAh      bcs     807F0CAh                                
0807F0BA 3B01     sub     r3,1h         sub     r3,1h                                   
0807F0BC 4445     add     r5,r8         add     r5,r8                                   
0807F0BE 4545     cmp     r5,r8         cmp     r5,r8                                   
0807F0C0 D303     bcc     807F0CAh      bcc     807F0CAh                                
0807F0C2 4295     cmp     r5,r2         cmp     r5,r2                                   
0807F0C4 D201     bcs     807F0CAh      bcs     807F0CAh                                
0807F0C6 3B01     sub     r3,1h         sub     r3,1h                                   
0807F0C8 4445     add     r5,r8         add     r5,r8                                   
0807F0CA 464C     mov     r4,r9         mov     r4,r9                                   
0807F0CC 0421     lsl     r1,r4,10h     lsl     r1,r4,10h                               
0807F0CE 4319     orr     r1,r3         orr     r1,r3                                   
0807F0D0 1AAE     sub     r6,r5,r2      sub     r6,r5,r2                                
0807F0D2 4826     ldr     r0,=0FFFFh    ldr     r0,=0FFFFh                              
0807F0D4 4681     mov     r9,r0         mov     r9,r0                                   
0807F0D6 1C0A     mov     r2,r1         mov     r2,r1                                   
0807F0D8 4002     and     r2,r0         and     r2,r0                                   
0807F0DA 0C09     lsr     r1,r1,10h     lsr     r1,r1,10h                               
0807F0DC 1C38     mov     r0,r7         mov     r0,r7                                   
0807F0DE 464B     mov     r3,r9         mov     r3,r9                                   
0807F0E0 4018     and     r0,r3         and     r0,r3                                   
0807F0E2 0C3B     lsr     r3,r7,10h     lsr     r3,r7,10h                               
0807F0E4 1C15     mov     r5,r2         mov     r5,r2                                   
0807F0E6 4345     mul     r5,r0         mul     r5,r0                                   
0807F0E8 1C14     mov     r4,r2         mov     r4,r2                                   
0807F0EA 435C     mul     r4,r3         mul     r4,r3                                   
0807F0EC 1C0A     mov     r2,r1         mov     r2,r1                                   
0807F0EE 4342     mul     r2,r0         mul     r2,r0                                   
0807F0F0 4359     mul     r1,r3         mul     r1,r3                                   
0807F0F2 0C28     lsr     r0,r5,10h     lsr     r0,r5,10h                               
0807F0F4 1824     add     r4,r4,r0      add     r4,r4,r0                                
0807F0F6 18A4     add     r4,r4,r2      add     r4,r4,r2                                
0807F0F8 4294     cmp     r4,r2         cmp     r4,r2                                   
0807F0FA D202     bcs     807F102h      bcs     807F102h                                
0807F0FC 2080     mov     r0,80h        mov     r0,80h                                  
0807F0FE 0240     lsl     r0,r0,9h      lsl     r0,r0,9h                                
0807F100 1809     add     r1,r1,r0      add     r1,r1,r0                                
0807F102 0C20     lsr     r0,r4,10h     lsr     r0,r4,10h                               
0807F104 1809     add     r1,r1,r0      add     r1,r1,r0                                
0807F106 464A     mov     r2,r9         mov     r2,r9                                   
0807F108 4014     and     r4,r2         and     r4,r2                                   
0807F10A 0420     lsl     r0,r4,10h     lsl     r0,r4,10h                               
0807F10C 4015     and     r5,r2         and     r5,r2                                   
0807F10E 1940     add     r0,r0,r5      add     r0,r0,r5                                
0807F110 42B1     cmp     r1,r6         cmp     r1,r6                                   
0807F112 D804     bhi     807F11Eh      bhi     807F11Eh                                
0807F114 42B1     cmp     r1,r6         cmp     r1,r6                                   
0807F116 D109     bne     807F12Ch      bne     807F12Ch                                
0807F118 9B03     ldr     r3,[sp,0Ch]   ldr     r3,[sp,0Ch]                             
0807F11A 4298     cmp     r0,r3         cmp     r0,r3                                   
0807F11C D906     bls     807F12Ch      bls     807F12Ch                                
0807F11E 1BC3     sub     r3,r0,r7      sub     r3,r0,r7                                
0807F120 4644     mov     r4,r8         mov     r4,r8                                   
0807F122 1B09     sub     r1,r1,r4      sub     r1,r1,r4                                
0807F124 4283     cmp     r3,r0         cmp     r3,r0                                   
0807F126 D900     bls     807F12Ah      bls     807F12Ah                                
0807F128 3901     sub     r1,1h         sub     r1,1h                                   
0807F12A 1C18     mov     r0,r3         mov     r0,r3                                   
0807F12C 9A02     ldr     r2,[sp,8h]    ldr     r2,[sp,8h]                              
0807F12E 2A00     cmp     r2,0h         cmp     r2,0h                                   
0807F130 D013     beq     807F15Ah      beq     807F15Ah                                
0807F132 9B03     ldr     r3,[sp,0Ch]   ldr     r3,[sp,0Ch]                             
0807F134 1A1A     sub     r2,r3,r0      sub     r2,r3,r0                                
0807F136 1A76     sub     r6,r6,r1      sub     r6,r6,r1                                
0807F138 429A     cmp     r2,r3         cmp     r2,r3                                   
0807F13A D900     bls     807F13Eh      bls     807F13Eh                                
0807F13C 3E01     sub     r6,1h         sub     r6,1h                                   
0807F13E 1C30     mov     r0,r6         mov     r0,r6                                   
0807F140 9C05     ldr     r4,[sp,14h]   ldr     r4,[sp,14h]                             
0807F142 40A0     lsl     r0,r4         lsl     r0,r4                                   
0807F144 9904     ldr     r1,[sp,10h]   ldr     r1,[sp,10h]                             
0807F146 40CA     lsr     r2,r1         lsr     r2,r1                                   
0807F148 4310     orr     r0,r2         orr     r0,r2                                   
0807F14A 9006     str     r0,[sp,18h]   str     r0,[sp,18h]                             
0807F14C 40CE     lsr     r6,r1         lsr     r6,r1                                   
0807F14E 9607     str     r6,[sp,1Ch]   str     r6,[sp,1Ch]                             
0807F150 9B06     ldr     r3,[sp,18h]   ldr     r3,[sp,18h]                             
0807F152 9C07     ldr     r4,[sp,1Ch]   ldr     r4,[sp,1Ch]                             
0807F154 9802     ldr     r0,[sp,8h]    ldr     r0,[sp,8h]                              
0807F156 6003     str     r3,[r0]       str     r3,[r0]                                 
0807F158 6044     str     r4,[r0,4h]    str     r4,[r0,4h]                              
0807F15A 9800     ldr     r0,[sp]       ldr     r0,[sp]                                 
0807F15C 9901     ldr     r1,[sp,4h]    ldr     r1,[sp,4h]                              
0807F15E B009     add     sp,24h        add     sp,24h                                  
0807F160 BC38     pop     r3-r5         pop     r3-r5                                   
0807F162 4698     mov     r8,r3         mov     r8,r3                                   
0807F164 46A1     mov     r9,r4         mov     r9,r4                                   
0807F166 46AA     mov     r10,r5        mov     r10,r5                                  
0807F168 BDF0     pop     r4-r7,r15     pop     r4-r7,r15                               
0807F16A 0000     lsl     r0,r0,0h      lsl     r0,r0,0h                                
0807F16C FFFF     bl      lr+0FFEh      bl      lr+0FFEh                                
0807F16E 0000     lsl     r0,r0,0h      lsl     r0,r0,0h                                
0807F170 2900     cmp     r1,0h         cmp     r1,0h                                   
0807F172 D058     beq     807F226h      beq     807F226h                                
0807F174 2301     mov     r3,1h         mov     r3,1h                                   
0807F176 4288     cmp     r0,r1         cmp     r0,r1                                   
0807F178 D200     bcs     807F17Ch      bcs     807F17Ch                                
0807F17A 46F7     mov     r15,r14       mov     r15,r14                                 
0807F17C B410     push    r4            push    r4                                      
0807F17E 2401     mov     r4,1h         mov     r4,1h                                   
0807F180 0724     lsl     r4,r4,1Ch     lsl     r4,r4,1Ch                               
0807F182 42A1     cmp     r1,r4         cmp     r1,r4                                   
0807F184 D204     bcs     807F190h      bcs     807F190h                                
0807F186 4281     cmp     r1,r0         cmp     r1,r0                                   
0807F188 D202     bcs     807F190h      bcs     807F190h                                
0807F18A 0109     lsl     r1,r1,4h      lsl     r1,r1,4h                                
0807F18C 011B     lsl     r3,r3,4h      lsl     r3,r3,4h                                
0807F18E E7F8     b       807F182h      b       807F182h                                
0807F190 00E4     lsl     r4,r4,3h      lsl     r4,r4,3h                                
0807F192 42A1     cmp     r1,r4         cmp     r1,r4                                   
0807F194 D204     bcs     807F1A0h      bcs     807F1A0h                                
0807F196 4281     cmp     r1,r0         cmp     r1,r0                                   
0807F198 D202     bcs     807F1A0h      bcs     807F1A0h                                
0807F19A 0049     lsl     r1,r1,1h      lsl     r1,r1,1h                                
0807F19C 005B     lsl     r3,r3,1h      lsl     r3,r3,1h                                
0807F19E E7F8     b       807F192h      b       807F192h                                
0807F1A0 2200     mov     r2,0h         mov     r2,0h                                   
0807F1A2 4288     cmp     r0,r1         cmp     r0,r1                                   
0807F1A4 D300     bcc     807F1A8h      bcc     807F1A8h                                
0807F1A6 1A40     sub     r0,r0,r1      sub     r0,r0,r1                                
0807F1A8 084C     lsr     r4,r1,1h      lsr     r4,r1,1h                                
0807F1AA 42A0     cmp     r0,r4         cmp     r0,r4                                   
0807F1AC D305     bcc     807F1BAh      bcc     807F1BAh                                
0807F1AE 1B00     sub     r0,r0,r4      sub     r0,r0,r4                                
0807F1B0 469C     mov     r12,r3        mov     r12,r3                                  
0807F1B2 2401     mov     r4,1h         mov     r4,1h                                   
0807F1B4 41E3     ror     r3,r4         ror     r3,r4                                   
0807F1B6 431A     orr     r2,r3         orr     r2,r3                                   
0807F1B8 4663     mov     r3,r12        mov     r3,r12                                  
0807F1BA 088C     lsr     r4,r1,2h      lsr     r4,r1,2h                                
0807F1BC 42A0     cmp     r0,r4         cmp     r0,r4                                   
0807F1BE D305     bcc     807F1CCh      bcc     807F1CCh                                
0807F1C0 1B00     sub     r0,r0,r4      sub     r0,r0,r4                                
0807F1C2 469C     mov     r12,r3        mov     r12,r3                                  
0807F1C4 2402     mov     r4,2h         mov     r4,2h                                   
0807F1C6 41E3     ror     r3,r4         ror     r3,r4                                   
0807F1C8 431A     orr     r2,r3         orr     r2,r3                                   
0807F1CA 4663     mov     r3,r12        mov     r3,r12                                  
0807F1CC 08CC     lsr     r4,r1,3h      lsr     r4,r1,3h                                
0807F1CE 42A0     cmp     r0,r4         cmp     r0,r4                                   
0807F1D0 D305     bcc     807F1DEh      bcc     807F1DEh                                
0807F1D2 1B00     sub     r0,r0,r4      sub     r0,r0,r4                                
0807F1D4 469C     mov     r12,r3        mov     r12,r3                                  
0807F1D6 2403     mov     r4,3h         mov     r4,3h                                   
0807F1D8 41E3     ror     r3,r4         ror     r3,r4                                   
0807F1DA 431A     orr     r2,r3         orr     r2,r3                                   
0807F1DC 4663     mov     r3,r12        mov     r3,r12                                  
0807F1DE 469C     mov     r12,r3        mov     r12,r3                                  
0807F1E0 2800     cmp     r0,0h         cmp     r0,0h                                   
0807F1E2 D003     beq     807F1ECh      beq     807F1ECh                                
0807F1E4 091B     lsr     r3,r3,4h      lsr     r3,r3,4h                                
0807F1E6 D001     beq     807F1ECh      beq     807F1ECh                                
0807F1E8 0909     lsr     r1,r1,4h      lsr     r1,r1,4h                                
0807F1EA E7D9     b       807F1A0h      b       807F1A0h                                
0807F1EC 240E     mov     r4,0Eh        mov     r4,0Eh                                  
0807F1EE 0724     lsl     r4,r4,1Ch     lsl     r4,r4,1Ch                               
0807F1F0 4022     and     r2,r4         and     r2,r4                                   
0807F1F2 D101     bne     807F1F8h      bne     807F1F8h                                
0807F1F4 BC10     pop     r4            pop     r4                                      
0807F1F6 46F7     mov     r15,r14       mov     r15,r14                                 
0807F1F8 4663     mov     r3,r12        mov     r3,r12                                  
0807F1FA 2403     mov     r4,3h         mov     r4,3h                                   
0807F1FC 41E3     ror     r3,r4         ror     r3,r4                                   
0807F1FE 421A     tst     r2,r3         tst     r2,r3                                   
0807F200 D001     beq     807F206h      beq     807F206h                                
0807F202 08CC     lsr     r4,r1,3h      lsr     r4,r1,3h                                
0807F204 1900     add     r0,r0,r4      add     r0,r0,r4                                
0807F206 4663     mov     r3,r12        mov     r3,r12                                  
0807F208 2402     mov     r4,2h         mov     r4,2h                                   
0807F20A 41E3     ror     r3,r4         ror     r3,r4                                   
0807F20C 421A     tst     r2,r3         tst     r2,r3                                   
0807F20E D001     beq     807F214h      beq     807F214h                                
0807F210 088C     lsr     r4,r1,2h      lsr     r4,r1,2h                                
0807F212 1900     add     r0,r0,r4      add     r0,r0,r4                                
0807F214 4663     mov     r3,r12        mov     r3,r12                                  
0807F216 2401     mov     r4,1h         mov     r4,1h                                   
0807F218 41E3     ror     r3,r4         ror     r3,r4                                   
0807F21A 421A     tst     r2,r3         tst     r2,r3                                   
0807F21C D001     beq     807F222h      beq     807F222h                                
0807F21E 084C     lsr     r4,r1,1h      lsr     r4,r1,1h                                
0807F220 1900     add     r0,r0,r4      add     r0,r0,r4                                
0807F222 BC10     pop     r4            pop     r4                                      
0807F224 46F7     mov     r15,r14       mov     r15,r14                                 
0807F226 B500     push    r14           push    r14                                     
0807F228 F7FFFCD4 bl      807EBD4h       807EBD4h                                
0807F22C 2000     mov     r0,0h         mov     r0,0h                                   
0807F22E BD00     pop     r15           pop     r15                                     
0807F230 B530     push    r4,r5,r14     push    r4,r5,r14                               
0807F232 1C05     mov     r5,r0         mov     r5,r0                                   
0807F234 1C2C     mov     r4,r5         mov     r4,r5                                   
0807F236 1C0B     mov     r3,r1         mov     r3,r1                                   
0807F238 2A0F     cmp     r2,0Fh        cmp     r2,0Fh                                  
0807F23A D919     bls     807F270h      bls     807F270h                                
0807F23C 1C18     mov     r0,r3         mov     r0,r3                                   
0807F23E 4328     orr     r0,r5         orr     r0,r5                                   
0807F240 2103     mov     r1,3h         mov     r1,3h                                   
0807F242 4008     and     r0,r1         and     r0,r1                                   
0807F244 2800     cmp     r0,0h         cmp     r0,0h                                   
0807F246 D113     bne     807F270h      bne     807F270h                                
0807F248 1C29     mov     r1,r5         mov     r1,r5                                   
0807F24A CB01     ldmia   [r3]!,r0      ldmia   [r3]!,r0                                
0807F24C C101     stmia   [r1]!,r0      stmia   [r1]!,r0                                
0807F24E CB01     ldmia   [r3]!,r0      ldmia   [r3]!,r0                                
0807F250 C101     stmia   [r1]!,r0      stmia   [r1]!,r0                                
0807F252 CB01     ldmia   [r3]!,r0      ldmia   [r3]!,r0                                
0807F254 C101     stmia   [r1]!,r0      stmia   [r1]!,r0                                
0807F256 CB01     ldmia   [r3]!,r0      ldmia   [r3]!,r0                                
0807F258 C101     stmia   [r1]!,r0      stmia   [r1]!,r0                                
0807F25A 3A10     sub     r2,10h        sub     r2,10h                                  
0807F25C 2A0F     cmp     r2,0Fh        cmp     r2,0Fh                                  
0807F25E D8F4     bhi     807F24Ah      bhi     807F24Ah                                
0807F260 2A03     cmp     r2,3h         cmp     r2,3h                                   
0807F262 D904     bls     807F26Eh      bls     807F26Eh                                
0807F264 CB01     ldmia   [r3]!,r0      ldmia   [r3]!,r0                                
0807F266 C101     stmia   [r1]!,r0      stmia   [r1]!,r0                                
0807F268 3A04     sub     r2,4h         sub     r2,4h                                   
0807F26A 2A03     cmp     r2,3h         cmp     r2,3h                                   
0807F26C D8FA     bhi     807F264h      bhi     807F264h                                
0807F26E 1C0C     mov     r4,r1         mov     r4,r1                                   
0807F270 3A01     sub     r2,1h         sub     r2,1h                                   
0807F272 2001     mov     r0,1h         mov     r0,1h                                   
0807F274 4240     neg     r0,r0         neg     r0,r0                                   
0807F276 4282     cmp     r2,r0         cmp     r2,r0                                   
0807F278 D007     beq     807F28Ah      beq     807F28Ah                                
0807F27A 1C01     mov     r1,r0         mov     r1,r0                                   
0807F27C 7818     ldrb    r0,[r3]       ldrb    r0,[r3]                                 
0807F27E 7020     strb    r0,[r4]       strb    r0,[r4]                                 
0807F280 3301     add     r3,1h         add     r3,1h                                   
0807F282 3401     add     r4,1h         add     r4,1h                                   
0807F284 3A01     sub     r2,1h         sub     r2,1h                                   
0807F286 428A     cmp     r2,r1         cmp     r2,r1                                   
0807F288 D1F8     bne     807F27Ch      bne     807F27Ch                                
0807F28A 1C28     mov     r0,r5         mov     r0,r5                                   
0807F28C BD30     pop     r4,r5,r15     pop     r4,r5,r15                               
0807F28E 0000     lsl     r0,r0,0h      lsl     r0,r0,0h                                
0807F290 B530     push    r4,r5,r14     push    r4,r5,r14                               
0807F292 1C05     mov     r5,r0         mov     r5,r0                                   
0807F294 1C0C     mov     r4,r1         mov     r4,r1                                   
0807F296 1C2B     mov     r3,r5         mov     r3,r5                                   
0807F298 2A03     cmp     r2,3h         cmp     r2,3h                                   
0807F29A D91C     bls     807F2D6h      bls     807F2D6h                                
0807F29C 2003     mov     r0,3h         mov     r0,3h                                   
0807F29E 4028     and     r0,r5         and     r0,r5                                   
0807F2A0 2800     cmp     r0,0h         cmp     r0,0h                                   
0807F2A2 D118     bne     807F2D6h      bne     807F2D6h                                
0807F2A4 1C29     mov     r1,r5         mov     r1,r5                                   
0807F2A6 20FF     mov     r0,0FFh       mov     r0,0FFh                                 
0807F2A8 4004     and     r4,r0         and     r4,r0                                   
0807F2AA 0223     lsl     r3,r4,8h      lsl     r3,r4,8h                                
0807F2AC 4323     orr     r3,r4         orr     r3,r4                                   
0807F2AE 0418     lsl     r0,r3,10h     lsl     r0,r3,10h                               
0807F2B0 4303     orr     r3,r0         orr     r3,r0                                   
0807F2B2 2A0F     cmp     r2,0Fh        cmp     r2,0Fh                                  
0807F2B4 D909     bls     807F2CAh      bls     807F2CAh                                
0807F2B6 C108     stmia   [r1]!,r3      stmia   [r1]!,r3                                
0807F2B8 C108     stmia   [r1]!,r3      stmia   [r1]!,r3                                
	
