
.definelabel alway,8049B8Ah

.org 8049b50h               ;莱德利头像 主程序
08049B50 B500     push    r14                                     
08049B52 4807     ldr     r0,=3000738h                            
08049B54 1C02     mov     r2,r0                                   
08049B56 3226     add     r2,26h                                  
08049B58 2101     mov     r1,1h          ;300075e写入1                         
08049B5A 7011     strb    r1,[r2]                                 
08049B5C 3024     add     r0,24h         ;300075c                         
08049B5E 7800     ldrb    r0,[r0]                                 
08049B60 2809     cmp     r0,9h          ;比较pose是否是9h                         
08049B62 D00D     beq     @@posenine     ;跳转                         
08049B64 2809     cmp     r0,9h                                   
08049B66 DC05     bgt     @@morethanine  ;大于9h跳转                         
08049B68 2800     cmp     r0,0h                                   
08049B6A D006     beq     @@posezero     ;pose为0                          
08049B6C E00D     b       alway                                
.pool

@@morethanine:                              
08049B74 280B     cmp     r0,0Bh         ;pose为0bh跳转                         
08049B76 D006     beq     @@pose0Bh                                
08049B78 E007     b       alway
@@posezero:                                
08049B7A F7FFFDDF bl      804973Ch                                
08049B7E E004     b       alway
@@posenine:                                
08049B80 F7FFFE36 bl      80497F0h                                
08049B84 E001     b       alway 
@@pose0Bh:                               
08049B86 F7FFFE5D bl      8049844h 
.org alway                               
08049B8A 4809     ldr     r0,=3000C72h                            
08049B8C 2100     mov     r1,0h                                   
08049B8E 5E40     ldsh    r0,[r0,r1]   ;调取当前是否完全进入房间                       
08049B90 2802     cmp     r0,2h        ;2为完全进入                           
08049B92 D116     bne     @@end                               
08049B94 20A0     mov     r0,0A0h                                 
08049B96 0080     lsl     r0,r0,2h     ;280h                           
08049B98 21D0     mov     r1,0D0h                                 
08049B9A 0089     lsl     r1,r1,2h     ;340h                           
08049B9C F7C6F920 bl      800FDE0h                                
08049BA0 2800     cmp     r0,0h                                   
08049BA2 D009     beq     @@pass                                
08049BA4 4A03     ldr     r2,=3000738h                            
08049BA6 8811     ldrh    r1,[r2]                                 
08049BA8 2010     mov     r0,10h                                  
08049BAA 4308     orr     r0,r1        ;取向与10h orr                           
08049BAC E008     b       @@write                                
@@pass:                               
08049BB8 4A03     ldr     r2,=3000738h                            
08049BBA 8811     ldrh    r1,[r2]                                 
08049BBC 4803     ldr     r0,=0FFEFh                              
08049BBE 4008     and     r0,r1        ;取向与FFEFh and 再写入
@@write:                         
08049BC0 8010     strh    r0,[r2]
@@end:                                
08049BC2 BC01     pop     r0                                      
08049BC4 4700     bx      r0                                      
.org 804973ch           ;pose 0h 默认经历
0804973C B530     push    r4,r5,r14                               
0804973E 4C15     ldr     r4,=3000738h                            
08049740 88A0     ldrh    r0,[r4,4h]   ;读取水平坐标                           
08049742 3020     add     r0,20h                                  
08049744 2200     mov     r2,0h                                   
08049746 2100     mov     r1,0h                                   
08049748 80A0     strh    r0,[r4,4h]   ;加20h再写入                           
0804974A 1C23     mov     r3,r4                                   
0804974C 3327     add     r3,27h                                  
0804974E 2058     mov     r0,58h                                  
08049750 7018     strb    r0,[r3]      ;300075f写入58h                           
08049752 1C20     mov     r0,r4                                   
08049754 3028     add     r0,28h       ;3000760写入0                          
08049756 7002     strb    r2,[r0]                                 
08049758 3302     add     r3,2h                                   
0804975A 2070     mov     r0,70h                                  
0804975C 7018     strb    r0,[r3]      ;3000761写入70h                           
0804975E 8161     strh    r1,[r4,0Ah]                             
08049760 81A1     strh    r1,[r4,0Ch]                             
08049762 81E1     strh    r1,[r4,0Eh]                             
08049764 8221     strh    r1,[r4,10h]  ;四面分界全部为0                           
08049766 480C     ldr     r0,=3000088h                            
08049768 7B01     ldrb    r1,[r0,0Ch]  ;3000094的值                           
0804976A 2003     mov     r0,3h                                   
0804976C 4008     and     r0,r1        ;3 and                           
0804976E 1C21     mov     r1,r4                                   
08049770 3121     add     r1,21h                                  
08049772 7008     strb    r0,[r1]      ;3000759写入                           
08049774 1C20     mov     r0,r4                                   
08049776 3022     add     r0,22h                                  
08049778 2501     mov     r5,1h                                   
0804977A 7005     strb    r5,[r0]      ;300075a写入1                           
0804977C 3003     add     r0,3h                                   
0804977E 7002     strb    r2,[r0]      ;300075d写入0                           
08049780 2003     mov     r0,3h                                   
08049782 2136     mov     r1,36h                                  
08049784 F017F89A bl      80608BCh                                
08049788 2800     cmp     r0,0h                                   
0804978A D007     beq     804979Ch                                
0804978C F7FFFFC2 bl      8049714h                                
08049790 E026     b       80497E0h                                
                               
0804979C 2003     mov     r0,3h                                   
0804979E 2125     mov     r1,25h                                  
080497A0 F017F88C bl      80608BCh                                
080497A4 2800     cmp     r0,0h                                   
080497A6 D00D     beq     80497C4h                                
080497A8 4804     ldr     r0,=8317498h                            
080497AA 61A0     str     r0,[r4,18h]                             
080497AC 1C21     mov     r1,r4                                   
080497AE 3124     add     r1,24h                                  
080497B0 2009     mov     r0,9h                                   
080497B2 7008     strb    r0,[r1]                                 
080497B4 4802     ldr     r0,=300007Bh                            
080497B6 7005     strb    r5,[r0]                                 
080497B8 E00A     b       80497D0h                                
080497BA 0000     lsl     r0,r0,0h                                
080497BC 7498     strb    r0,[r3,12h]                             
080497BE 0831     lsr     r1,r6,20h                               
080497C0 007B     lsl     r3,r7,1h                                
080497C2 0300     lsl     r0,r0,0Ch                               
080497C4 4808     ldr     r0,=8317420h                            
080497C6 61A0     str     r0,[r4,18h]                             
080497C8 1C21     mov     r1,r4                                   
080497CA 3124     add     r1,24h                                  
080497CC 200F     mov     r0,0Fh                                  
080497CE 7008     strb    r0,[r1]                                 
080497D0 4806     ldr     r0,=3000738h                            
080497D2 2200     mov     r2,0h                                   
080497D4 2100     mov     r1,0h                                   
080497D6 82C1     strh    r1,[r0,16h]                             
080497D8 7702     strb    r2,[r0,1Ch]                             
080497DA 2004     mov     r0,4h                                   
080497DC F7FFFF5C bl      8049698h                                
080497E0 BC30     pop     r4,r5                                   
080497E2 BC01     pop     r0                                      
080497E4 4700     bx      r0                                      
080497E6 0000     lsl     r0,r0,0h                                
080497E8 7420     strb    r0,[r4,10h]                             
080497EA 0831     lsr     r1,r6,20h                               
080497EC 0738     lsl     r0,r7,1Ch                               
080497EE 0300     lsl     r0,r0,0Ch

                               
080497F0 B500     push    r14                                     
080497F2 4912     ldr     r1,=3000738h                            
080497F4 8AC8     ldrh    r0,[r1,16h]                             
080497F6 2800     cmp     r0,0h                                   
080497F8 D106     bne     8049808h                                
080497FA 7F08     ldrb    r0,[r1,1Ch]                             
080497FC 2801     cmp     r0,1h                                   
080497FE D103     bne     8049808h                                
08049800 2095     mov     r0,95h                                  
08049802 0040     lsl     r0,r0,1h                                
08049804 F7B9F908 bl      8002A18h                                
08049808 4A0C     ldr     r2,=3000738h                            
0804980A 8890     ldrh    r0,[r2,4h]                              
0804980C 3020     add     r0,20h                                  
0804980E 0400     lsl     r0,r0,10h                               
08049810 0C80     lsr     r0,r0,12h                               
08049812 490B     ldr     r1,=30013B8h                            
08049814 8809     ldrh    r1,[r1]                                 
08049816 0889     lsr     r1,r1,2h                                
08049818 1A40     sub     r0,r0,r1                                
0804981A 0400     lsl     r0,r0,10h                               
0804981C 0C00     lsr     r0,r0,10h                               
0804981E 2878     cmp     r0,78h                                  
08049820 D109     bne     8049836h                                
08049822 1C11     mov     r1,r2                                   
08049824 3124     add     r1,24h                                  
08049826 200B     mov     r0,0Bh                                  
08049828 7008     strb    r0,[r1]                                 
0804982A 3108     add     r1,8h                                   
0804982C 203C     mov     r0,3Ch                                  
0804982E 7008     strb    r0,[r1]                                 
08049830 2004     mov     r0,4h                                   
08049832 F7FFFCA7 bl      8049184h                                
08049836 BC01     pop     r0                                      
08049838 4700     bx      r0                                      
0804983A 0000     lsl     r0,r0,0h                                
0804983C 0738     lsl     r0,r7,1Ch                               
0804983E 0300     lsl     r0,r0,0Ch                               
08049840 13B8     asr     r0,r7,0Eh                               
08049842 0300     lsl     r0,r0,0Ch 

                              
08049844 B5F0     push    r4-r7,r14                               
08049846 4647     mov     r7,r8                                   
08049848 B480     push    r7                                      
0804984A 481A     ldr     r0,=30013D4h                            
0804984C 8A41     ldrh    r1,[r0,12h]                             
0804984E 4C1A     ldr     r4,=3000738h                            
08049850 88A0     ldrh    r0,[r4,4h]                              
08049852 2288     mov     r2,88h                                  
08049854 0092     lsl     r2,r2,2h                                
08049856 1880     add     r0,r0,r2                                
08049858 4281     cmp     r1,r0                                   
0804985A DD02     ble     8049862h                                
0804985C 2001     mov     r0,1h                                   
0804985E F7FFFC91 bl      8049184h                                
08049862 1C20     mov     r0,r4                                   
08049864 302C     add     r0,2Ch                                  
08049866 7800     ldrb    r0,[r0]                                 
08049868 2800     cmp     r0,0h                                   
0804986A D029     beq     80498C0h                                
0804986C 8AE0     ldrh    r0,[r4,16h]                             
0804986E 2800     cmp     r0,0h                                   
08049870 D106     bne     8049880h                                
08049872 7F20     ldrb    r0,[r4,1Ch]                             
08049874 2801     cmp     r0,1h                                   
08049876 D103     bne     8049880h                                
08049878 2095     mov     r0,95h                                  
0804987A 0040     lsl     r0,r0,1h                                
0804987C F7B9F8CC bl      8002A18h                                
08049880 4A0D     ldr     r2,=3000738h                            
08049882 1C11     mov     r1,r2                                   
08049884 312C     add     r1,2Ch                                  
08049886 7808     ldrb    r0,[r1]                                 
08049888 3801     sub     r0,1h                                   
0804988A 7008     strb    r0,[r1]                                 
0804988C 0600     lsl     r0,r0,18h                               
0804988E 0E03     lsr     r3,r0,18h                               
08049890 2B00     cmp     r3,0h                                   
08049892 D000     beq     8049896h                                
08049894 E0C6     b       8049A24h                                
08049896 4809     ldr     r0,=83174D0h                            
08049898 6190     str     r0,[r2,18h]                             
0804989A 2100     mov     r1,0h                                   
0804989C 82D3     strh    r3,[r2,16h]                             
0804989E 7711     strb    r1,[r2,1Ch]                             
080498A0 1C10     mov     r0,r2                                   
080498A2 302D     add     r0,2Dh                                  
080498A4 7001     strb    r1,[r0]                                 
080498A6 3001     add     r0,1h                                   
080498A8 7001     strb    r1,[r0]                                 
080498AA 2087     mov     r0,87h                                  
080498AC 0080     lsl     r0,r0,2h                                
080498AE F7B9F8B3 bl      8002A18h                                
080498B2 E0B7     b       8049A24h                                
080498B4 13D4     asr     r4,r2,0Fh                               
080498B6 0300     lsl     r0,r0,0Ch                               
080498B8 0738     lsl     r0,r7,1Ch                               
080498BA 0300     lsl     r0,r0,0Ch                               
080498BC 74D0     strb    r0,[r2,13h]                             
080498BE 0831     lsr     r1,r6,20h                               
080498C0 8AE0     ldrh    r0,[r4,16h]                             
080498C2 281D     cmp     r0,1Dh                                  
080498C4 D105     bne     80498D2h                                
080498C6 7F20     ldrb    r0,[r4,1Ch]                             
080498C8 2801     cmp     r0,1h                                   
080498CA D102     bne     80498D2h                                
080498CC 2001     mov     r0,1h                                   
080498CE F7FFFEE3 bl      8049698h                                
080498D2 F7C6F979 bl      800FBC8h                                
080498D6 2800     cmp     r0,0h                                   
080498D8 D010     beq     80498FCh                                
080498DA F7FFFF1B bl      8049714h                                
080498DE 2001     mov     r0,1h                                   
080498E0 2136     mov     r1,36h                                  
080498E2 F016FFEB bl      80608BCh                                
080498E6 4904     ldr     r1,=300007Bh                            
080498E8 2314     mov     r3,14h                                  
080498EA 425B     neg     r3,r3                                   
080498EC 1C18     mov     r0,r3                                   
080498EE 7008     strb    r0,[r1]                                 
080498F0 2001     mov     r0,1h                                   
080498F2 F7FFFC47 bl      8049184h                                
080498F6 E095     b       8049A24h                                
080498F8 007B     lsl     r3,r7,1h                                
080498FA 0300     lsl     r0,r0,0Ch                               
080498FC 4923     ldr     r1,=3000738h                            
080498FE 8AC8     ldrh    r0,[r1,16h]                             
08049900 3809     sub     r0,9h                                   
08049902 0400     lsl     r0,r0,10h                               
08049904 0C00     lsr     r0,r0,10h                               
08049906 281E     cmp     r0,1Eh                                  
08049908 D900     bls     804990Ch                                
0804990A E08B     b       8049A24h                                
0804990C 1C0D     mov     r5,r1                                   
0804990E 352E     add     r5,2Eh                                  
08049910 7828     ldrb    r0,[r5]                                 
08049912 3001     add     r0,1h                                   
08049914 7028     strb    r0,[r5]                                 
08049916 1C0C     mov     r4,r1                                   
08049918 342D     add     r4,2Dh                                  
0804991A 7821     ldrb    r1,[r4]                                 
0804991C 1C48     add     r0,r1,1                                 
0804991E 7020     strb    r0,[r4]                                 
08049920 201F     mov     r0,1Fh                                  
08049922 4680     mov     r8,r0                                   
08049924 4008     and     r0,r1                                   
08049926 2800     cmp     r0,0h                                   
08049928 D103     bne     8049932h                                
0804992A 200A     mov     r0,0Ah                                  
0804992C 2181     mov     r1,81h                                  
0804992E F00BFD09 bl      8055344h                                
08049932 7827     ldrb    r7,[r4]                                 
08049934 782A     ldrb    r2,[r5]                                 
08049936 4816     ldr     r0,=30013BAh                            
08049938 8800     ldrh    r0,[r0]                                 
0804993A 3840     sub     r0,40h                                  
0804993C 0400     lsl     r0,r0,10h                               
0804993E 0C06     lsr     r6,r0,10h                               
08049940 4914     ldr     r1,=30013B8h                            
08049942 23C8     mov     r3,0C8h                                 
08049944 005B     lsl     r3,r3,1h                                
08049946 1C18     mov     r0,r3                                   
08049948 8809     ldrh    r1,[r1]                                 
0804994A 1840     add     r0,r0,r1                                
0804994C 0400     lsl     r0,r0,10h                               
0804994E 0C05     lsr     r5,r0,10h                               
08049950 4811     ldr     r0,=300083Ch                            
08049952 7804     ldrb    r4,[r0]                                 
08049954 1C10     mov     r0,r2                                   
08049956 4641     mov     r1,r8                                   
08049958 4008     and     r0,r1                                   
0804995A 2800     cmp     r0,0h                                   
0804995C D131     bne     80499C2h                                
0804995E 2020     mov     r0,20h                                  
08049960 4002     and     r2,r0                                   
08049962 2A00     cmp     r2,0h                                   
08049964 D01C     beq     80499A0h                                
08049966 0123     lsl     r3,r4,4h                                
08049968 3B78     sub     r3,78h                                  
0804996A 1AEB     sub     r3,r5,r3                                
0804996C 2000     mov     r0,0h                                   
0804996E 2105     mov     r1,5h                                   
08049970 1C32     mov     r2,r6                                   
08049972 F7C8FA69 bl      8011E48h                                
08049976 00E3     lsl     r3,r4,3h                                
08049978 4A08     ldr     r2,=0FFFFFE70h                          
0804997A 189B     add     r3,r3,r2                                
0804997C 18EB     add     r3,r5,r3                                
0804997E 2000     mov     r0,0h                                   
08049980 2108     mov     r1,8h                                   
08049982 1C32     mov     r2,r6                                   
08049984 F7C8FA60 bl      8011E48h                                
08049988 E01B     b       80499C2h                                
0804998A 0000     lsl     r0,r0,0h                                
0804998C 0738     lsl     r0,r7,1Ch                               
0804998E 0300     lsl     r0,r0,0Ch                               
08049990 13BA     asr     r2,r7,0Eh                               
08049992 0300     lsl     r0,r0,0Ch                               
08049994 13B8     asr     r0,r7,0Eh                               
08049996 0300     lsl     r0,r0,0Ch                               
08049998 083C     lsr     r4,r7,20h                               
0804999A 0300     lsl     r0,r0,0Ch                               
0804999C FE70     bl      lr+0CE0h                                
0804999E FFFF     bl      lr+0FFEh                                
080499A0 0123     lsl     r3,r4,4h                                
080499A2 33A0     add     r3,0A0h                                 
080499A4 1AEB     sub     r3,r5,r3                                
080499A6 2000     mov     r0,0h                                   
080499A8 2107     mov     r1,7h                                   
080499AA 1C32     mov     r2,r6                                   
080499AC F7C8FA4C bl      8011E48h                                
080499B0 00E3     lsl     r3,r4,3h                                
080499B2 4810     ldr     r0,=0FFFFFED4h                          
080499B4 181B     add     r3,r3,r0                                
080499B6 18EB     add     r3,r5,r3                                
080499B8 2000     mov     r0,0h                                   
080499BA 2105     mov     r1,5h                                   
080499BC 1C32     mov     r2,r6                                   
080499BE F7C8FA43 bl      8011E48h                                
080499C2 200F     mov     r0,0Fh                                  
080499C4 4007     and     r7,r0                                   
080499C6 2F00     cmp     r7,0h                                   
080499C8 D12C     bne     8049A24h                                
080499CA 2C07     cmp     r4,7h                                   
080499CC D918     bls     8049A00h                                
080499CE 0164     lsl     r4,r4,5h                                
080499D0 4909     ldr     r1,=0FFFFFE3Eh                          
080499D2 1863     add     r3,r4,r1                                
080499D4 18EB     add     r3,r5,r3                                
080499D6 2000     mov     r0,0h                                   
080499D8 2108     mov     r1,8h                                   
080499DA 1C32     mov     r2,r6                                   
080499DC F7C8FA34 bl      8011E48h                                
080499E0 4A06     ldr     r2,=0FFFFFDB2h                          
080499E2 18A4     add     r4,r4,r2                                
080499E4 1B2C     sub     r4,r5,r4                                
080499E6 2000     mov     r0,0h                                   
080499E8 2106     mov     r1,6h                                   
080499EA 1C32     mov     r2,r6                                   
080499EC 1C23     mov     r3,r4                                   
080499EE F7C8FA2B bl      8011E48h                                
080499F2 E017     b       8049A24h                                
080499F4 FED4     bl      lr+0DA8h                                
080499F6 FFFF     bl      lr+0FFEh                                
080499F8 FE3E     bl      lr+0C7Ch                                
080499FA FFFF     bl      lr+0FFEh                                
080499FC FDB2     bl      lr+0B64h                                
080499FE FFFF     bl      lr+0FFEh                                
08049A00 0163     lsl     r3,r4,5h                                
08049A02 480B     ldr     r0,=0FFFFFE84h                          
08049A04 181B     add     r3,r3,r0                                
08049A06 1AEB     sub     r3,r5,r3                                
08049A08 2000     mov     r0,0h                                   
08049A0A 2106     mov     r1,6h                                   
08049A0C 1C32     mov     r2,r6                                   
08049A0E F7C8FA1B bl      8011E48h                                
08049A12 00E3     lsl     r3,r4,3h                                
08049A14 4907     ldr     r1,=0FFFFFD88h                          
08049A16 185B     add     r3,r3,r1                                
08049A18 18EB     add     r3,r5,r3                                
08049A1A 2000     mov     r0,0h                                   
08049A1C 2108     mov     r1,8h                                   
08049A1E 1C32     mov     r2,r6                                   
08049A20 F7C8FA12 bl      8011E48h                                
08049A24 BC08     pop     r3                                      
08049A26 4698     mov     r8,r3                                   
08049A28 BCF0     pop     r4-r7                                   
08049A2A BC01     pop     r0                                      
08049A2C 4700     bx      r0                                      
08049A2E 0000     lsl     r0,r0,0h                                
08049A30 FE84     bl      lr+0D08h                                
08049A32 FFFF     bl      lr+0FFEh                                
08049A34 FD88     bl      lr+0B10h                                
08049A36 FFFF     bl      lr+0FFEh                                
08049A38 B570     push    r4-r6,r14                               
08049A3A 4807     ldr     r0,=3000738h                            
08049A3C 1C02     mov     r2,r0                                   
08049A3E 3226     add     r2,26h                                  
08049A40 2101     mov     r1,1h                                   
08049A42 7011     strb    r1,[r2]                                 
08049A44 3024     add     r0,24h                                  
08049A46 7800     ldrb    r0,[r0]                                 
08049A48 2809     cmp     r0,9h                                   
08049A4A D00D     beq     8049A68h                                
08049A4C 2809     cmp     r0,9h                                   
08049A4E DC05     bgt     8049A5Ch                                
08049A50 2800     cmp     r0,0h                                   
08049A52 D006     beq     8049A62h                                
08049A54 E00D     b       8049A72h                                
08049A56 0000     lsl     r0,r0,0h                                
08049A58 0738     lsl     r0,r7,1Ch                               
08049A5A 0300     lsl     r0,r0,0Ch                               
08049A5C 280B     cmp     r0,0Bh                                  
08049A5E D006     beq     8049A6Eh                                
08049A60 E007     b       8049A72h                                
08049A62 F7FFFC6B bl      804933Ch                                
08049A66 E004     b       8049A72h                                
08049A68 F7FFFCCC bl      8049404h                                
08049A6C E001     b       8049A72h                                
08049A6E F7FFFD01 bl      8049474h                                
08049A72 4809     ldr     r0,=3000C72h                            
08049A74 2100     mov     r1,0h                                   
08049A76 5E40     ldsh    r0,[r0,r1]                              
08049A78 2802     cmp     r0,2h                                   
08049A7A D116     bne     8049AAAh                                
08049A7C 20A0     mov     r0,0A0h                                 
08049A7E 0080     lsl     r0,r0,2h                                
08049A80 21D0     mov     r1,0D0h                                 
08049A82 0089     lsl     r1,r1,2h                                
08049A84 F7C6F9AC bl      800FDE0h                                
08049A88 2800     cmp     r0,0h                                   
08049A8A D009     beq     8049AA0h                                
08049A8C 4A03     ldr     r2,=3000738h                            
08049A8E 8811     ldrh    r1,[r2]                                 
08049A90 2010     mov     r0,10h                                  
08049A92 4308     orr     r0,r1                                   
08049A94 E008     b       8049AA8h                                
08049A96 0000     lsl     r0,r0,0h                                
08049A98 0C72     lsr     r2,r6,11h                               
08049A9A 0300     lsl     r0,r0,0Ch                               
08049A9C 0738     lsl     r0,r7,1Ch                               
08049A9E 0300     lsl     r0,r0,0Ch                               
08049AA0 4A18     ldr     r2,=3000738h                            
08049AA2 8811     ldrh    r1,[r2]                                 
08049AA4 4818     ldr     r0,=0FFEFh                              
08049AA6 4008     and     r0,r1                                   
08049AA8 8010     strh    r0,[r2]                                 
08049AAA 4A18     ldr     r2,=3000A2Ch                            
08049AAC 21E0     mov     r1,0E0h                                 
08049AAE 0049     lsl     r1,r1,1h                                
08049AB0 1850     add     r0,r2,r1                                
08049AB2 4282     cmp     r2,r0                                   
08049AB4 D20D     bcs     8049AD2h                                
08049AB6 2501     mov     r5,1h                                   
08049AB8 2480     mov     r4,80h                                  
08049ABA 1C03     mov     r3,r0                                   
08049ABC 7811     ldrb    r1,[r2]                                 
08049ABE 1C28     mov     r0,r5                                   
08049AC0 4008     and     r0,r1                                   
08049AC2 2800     cmp     r0,0h                                   
08049AC4 D002     beq     8049ACCh                                
08049AC6 1C08     mov     r0,r1                                   
08049AC8 4320     orr     r0,r4                                   
08049ACA 7010     strb    r0,[r2]                                 
08049ACC 321C     add     r2,1Ch                                  
08049ACE 429A     cmp     r2,r3                                   
08049AD0 D3F4     bcc     8049ABCh                                
08049AD2 2003     mov     r0,3h                                   
08049AD4 2135     mov     r1,35h                                  
08049AD6 F016FEF1 bl      80608BCh                                
08049ADA 2800     cmp     r0,0h                                   
08049ADC D01A     beq     8049B14h                                
08049ADE 2003     mov     r0,3h                                   
08049AE0 2136     mov     r1,36h                                  
08049AE2 F016FEEB bl      80608BCh                                
08049AE6 2800     cmp     r0,0h                                   
08049AE8 D014     beq     8049B14h                                
08049AEA 20A0     mov     r0,0A0h                                 
08049AEC 0080     lsl     r0,r0,2h                                
08049AEE 21C8     mov     r1,0C8h                                 
08049AF0 0049     lsl     r1,r1,1h                                
08049AF2 F7C6F975 bl      800FDE0h                                
08049AF6 1C01     mov     r1,r0                                   
08049AF8 2900     cmp     r1,0h                                   
08049AFA D113     bne     8049B24h                                
08049AFC 4804     ldr     r0,=3000100h                            
08049AFE 7001     strb    r1,[r0]                                 
08049B00 E021     b       8049B46h                                
08049B02 0000     lsl     r0,r0,0h                                
08049B04 0738     lsl     r0,r7,1Ch                               
08049B06 0300     lsl     r0,r0,0Ch                               
08049B08 FFEF     bl      lr+0FDEh                                
08049B0A 0000     lsl     r0,r0,0h                                
08049B0C 0A2C     lsr     r4,r5,8h                                
08049B0E 0300     lsl     r0,r0,0Ch                               
08049B10 0100     lsl     r0,r0,4h                                
08049B12 0300     lsl     r0,r0,0Ch                               
08049B14 20A0     mov     r0,0A0h                                 
08049B16 0080     lsl     r0,r0,2h                                
08049B18 21F8     mov     r1,0F8h                                 
08049B1A 0049     lsl     r1,r1,1h                                
08049B1C F7C6F960 bl      800FDE0h                                
08049B20 2808     cmp     r0,8h                                   
08049B22 D10D     bne     8049B40h                                
08049B24 4904     ldr     r1,=3000100h                            
08049B26 2001     mov     r0,1h                                   
08049B28 7008     strb    r0,[r1]                                 
08049B2A 4A04     ldr     r2,=3000738h                            
08049B2C 8850     ldrh    r0,[r2,2h]                              
08049B2E 8088     strh    r0,[r1,4h]                              
08049B30 8890     ldrh    r0,[r2,4h]                              
08049B32 3020     add     r0,20h                                  
08049B34 8048     strh    r0,[r1,2h]                              
08049B36 E006     b       8049B46h                                
08049B38 0100     lsl     r0,r0,4h                                
08049B3A 0300     lsl     r0,r0,0Ch                               
08049B3C 0738     lsl     r0,r7,1Ch                               
08049B3E 0300     lsl     r0,r0,0Ch                               
08049B40 4902     ldr     r1,=3000100h                            
08049B42 2000     mov     r0,0h                                   
08049B44 7008     strb    r0,[r1]                                 
08049B46 BC70     pop     r4-r6                                   
08049B48 BC01     pop     r0                                      
08049B4A 4700     bx      r0                                      
08049B4C 0100     lsl     r0,r0,4h                                
08049B4E 0300     lsl     r0,r0,0Ch                               
08049B50 B500     push    r14                                     
08049B52 4807     ldr     r0,=3000738h                            
08049B54 1C02     mov     r2,r0                                   
08049B56 3226     add     r2,26h                                  
08049B58 2101     mov     r1,1h                                   
08049B5A 7011     strb    r1,[r2]                                 
08049B5C 3024     add     r0,24h                                  
08049B5E 7800     ldrb    r0,[r0]                                 
08049B60 2809     cmp     r0,9h                                   
08049B62 D00D     beq     8049B80h                                
08049B64 2809     cmp     r0,9h                                   
08049B66 DC05     bgt     8049B74h                                
08049B68 2800     cmp     r0,0h                                   
08049B6A D006     beq     8049B7Ah                                
08049B6C E00D     b       8049B8Ah                                
08049B6E 0000     lsl     r0,r0,0h                                
08049B70 0738     lsl     r0,r7,1Ch                               
08049B72 0300     lsl     r0,r0,0Ch                               
08049B74 280B     cmp     r0,0Bh                                  
08049B76 D006     beq     8049B86h                                
08049B78 E007     b       8049B8Ah                                
08049B7A F7FFFDDF bl      804973Ch                                
08049B7E E004     b       8049B8Ah                                
08049B80 F7FFFE36 bl      80497F0h                                
08049B84 E001     b       8049B8Ah                                
08049B86 F7FFFE5D bl      8049844h                                
08049B8A 4809     ldr     r0,=3000C72h                            
08049B8C 2100     mov     r1,0h                                   
08049B8E 5E40     ldsh    r0,[r0,r1]                              
08049B90 2802     cmp     r0,2h                                   
08049B92 D116     bne     8049BC2h                                
08049B94 20A0     mov     r0,0A0h                                 
08049B96 0080     lsl     r0,r0,2h                                
08049B98 21D0     mov     r1,0D0h                                 
08049B9A 0089     lsl     r1,r1,2h                                
08049B9C F7C6F920 bl      800FDE0h                                
08049BA0 2800     cmp     r0,0h                                   
08049BA2 D009     beq     8049BB8h                                
08049BA4 4A03     ldr     r2,=3000738h                            
08049BA6 8811     ldrh    r1,[r2]                                 
08049BA8 2010     mov     r0,10h                                  
08049BAA 4308     orr     r0,r1                                   
08049BAC E008     b       8049BC0h                                
08049BAE 0000     lsl     r0,r0,0h                                
08049BB0 0C72     lsr     r2,r6,11h                               
08049BB2 0300     lsl     r0,r0,0Ch                               
08049BB4 0738     lsl     r0,r7,1Ch                               
08049BB6 0300     lsl     r0,r0,0Ch                               
08049BB8 4A03     ldr     r2,=3000738h                            
08049BBA 8811     ldrh    r1,[r2]                                 
08049BBC 4803     ldr     r0,=0FFEFh                              
08049BBE 4008     and     r0,r1                                   
08049BC0 8010     strh    r0,[r2]                                 
08049BC2 BC01     pop     r0                                      
08049BC4 4700     bx      r0                                      
08049BC6 0000     lsl     r0,r0,0h                                
08049BC8 0738     lsl     r0,r7,1Ch                               
08049BCA 0300     lsl     r0,r0,0Ch                               
08049BCC FFEF     bl      lr+0FDEh                                
08049BCE 0000     lsl     r0,r0,0h                                
08049BD0 B570     push    r4-r6,r14                               
08049BD2 4C07     ldr     r4,=3000738h                            
08049BD4 1C25     mov     r5,r4                                   
08049BD6 3524     add     r5,24h                                  
08049BD8 7829     ldrb    r1,[r5]                                 
08049BDA 2923     cmp     r1,23h                                  
08049BDC D100     bne     8049BE0h                                
08049BDE E0D9     b       8049D94h                                
08049BE0 2923     cmp     r1,23h                                  
08049BE2 DC07     bgt     8049BF4h                                
08049BE4 2900     cmp     r1,0h                                   
08049BE6 D009     beq     8049BFCh                                
08049BE8 2909     cmp     r1,9h                                   
08049BEA D050     beq     8049C8Eh                                
08049BEC E0E9     b       8049DC2h                                
08049BEE 0000     lsl     r0,r0,0h                                
08049BF0 0738     lsl     r0,r7,1Ch                               
08049BF2 0300     lsl     r0,r0,0Ch                               
08049BF4 2925     cmp     r1,25h                                  
08049BF6 D100     bne     8049BFAh                                
08049BF8 E0DE     b       8049DB8h                                
08049BFA E0E2     b       8049DC2h                                
08049BFC 4802     ldr     r0,=30001A8h                            
08049BFE 8802     ldrh    r2,[r0]                                 
08049C00 2A00     cmp     r2,0h                                   
08049C02 D003     beq     8049C0Ch                                
08049C04 8021     strh    r1,[r4]                                 
08049C06 E0DC     b       8049DC2h                                
08049C08 01A8     lsl     r0,r5,6h                                
08049C0A 0300     lsl     r0,r0,0Ch                               
08049C0C 1C20     mov     r0,r4                                   
08049C0E 3027     add     r0,27h                                  
08049C10 2120     mov     r1,20h                                  
08049C12 7001     strb    r1,[r0]                                 
08049C14 3001     add     r0,1h                                   
08049C16 7001     strb    r1,[r0]                                 
08049C18 3001     add     r0,1h                                   
08049C1A 7001     strb    r1,[r0]                                 
08049C1C 2300     mov     r3,0h                                   
08049C1E 4911     ldr     r1,=0FFD0h                              
08049C20 8161     strh    r1,[r4,0Ah]                             
08049C22 2030     mov     r0,30h                                  
08049C24 81A0     strh    r0,[r4,0Ch]                             
08049C26 81E1     strh    r1,[r4,0Eh]                             
08049C28 8220     strh    r0,[r4,10h]                             
08049C2A 480F     ldr     r0,=83179D0h                            
08049C2C 61A0     str     r0,[r4,18h]                             
08049C2E 7723     strb    r3,[r4,1Ch]                             
08049C30 82E2     strh    r2,[r4,16h]                             
08049C32 1C21     mov     r1,r4                                   
08049C34 3125     add     r1,25h                                  
08049C36 201E     mov     r0,1Eh                                  
08049C38 7008     strb    r0,[r1]                                 
08049C3A 2009     mov     r0,9h                                   

