080359D0 B570     push    r4-r6,r14                                    ;22 158
080359D2 B083     add     sp,-0Ch                                      ;2  160
080359D4 2400     mov     r4,0h                                        ;2  162
080359D6 4805     ldr     r0,=3000055h                                 ;9  171
080359D8 7800     ldrb    r0,[r0]                                      ;4  175
080359DA 3801     sub     r0,1h                                        ;2  177
080359DC 2812     cmp     r0,12h                                       ;2  179
080359DE D848     bhi     8035A72h                                     ;8  187
080359E0 0080     lsl     r0,r0,2h                                     ;2  189
080359E2 4903     ldr     r1,=80359F4h                                 ;9  198
080359E4 1840     add     r0,r0,r1                                     ;2  200
080359E6 6800     ldr     r0,[r0]                                      ;4  204
080359E8 4687     mov     r15,r0                                       ;2  206
080359EA 0000     lsl     r0,r0,0h                                     ;2  208
080359EC 0055     lsl     r5,r2,1h                                     ;2  210
080359EE 0300     lsl     r0,r0,0Ch                                    ;2  212
080359F0 59F4     ldr     r4,[r6,r7]                                   ;4  216
080359F2 0803     lsr     r3,r0,20h                                    ;2  218
080359F4 5A46     ldrh    r6,[r0,r1]                                   ;4  222
080359F6 0803     lsr     r3,r0,20h                                    ;2  224
080359F8 5A4C     ldrh    r4,[r1,r1]                                   ;4  228
080359FA 0803     lsr     r3,r0,20h                                    ;2  230
080359FC 5A72     ldrh    r2,[r6,r1]                                   ;4  234
080359FE 0803     lsr     r3,r0,20h                                    ;2  236
08035A00 5A72     ldrh    r2,[r6,r1]                                   ;4  240
08035A02 0803     lsr     r3,r0,20h                                    ;2  242
08035A04 5A72     ldrh    r2,[r6,r1]                                   ;4  246
08035A06 0803     lsr     r3,r0,20h                                    ;2  248
08035A08 5A72     ldrh    r2,[r6,r1]                                   ;4  252
08035A0A 0803     lsr     r3,r0,20h                                    ;2  254
08035A0C 5A72     ldrh    r2,[r6,r1]                                   ;4  258
08035A0E 0803     lsr     r3,r0,20h                                    ;2  260
08035A10 5A72     ldrh    r2,[r6,r1]                                   ;4  264
08035A12 0803     lsr     r3,r0,20h                                    ;2  266
08035A14 5A72     ldrh    r2,[r6,r1]                                   ;4  270
08035A16 0803     lsr     r3,r0,20h                                    ;2  272
08035A18 5A72     ldrh    r2,[r6,r1]                                   ;4  276
08035A1A 0803     lsr     r3,r0,20h                                    ;2  278
08035A1C 5A72     ldrh    r2,[r6,r1]                                   ;4  282
08035A1E 0803     lsr     r3,r0,20h                                    ;2  284
08035A20 5A72     ldrh    r2,[r6,r1]                                   ;4  288
08035A22 0803     lsr     r3,r0,20h                                    ;2  290
08035A24 5A72     ldrh    r2,[r6,r1]                                   ;4  294
08035A26 0803     lsr     r3,r0,20h                                    ;2  296
08035A28 5A40     ldrh    r0,[r0,r1]                                   ;4  300
08035A2A 0803     lsr     r3,r0,20h                                    ;2  302
08035A2C 5A52     ldrh    r2,[r2,r1]                                   ;4  306
08035A2E 0803     lsr     r3,r0,20h                                    ;2  308
08035A30 5A58     ldrh    r0,[r3,r1]                                   ;4  312
08035A32 0803     lsr     r3,r0,20h                                    ;2  314
08035A34 5A72     ldrh    r2,[r6,r1]                                   ;4  318
08035A36 0803     lsr     r3,r0,20h                                    ;2  320
08035A38 5A72     ldrh    r2,[r6,r1]                                   ;4  324
08035A3A 0803     lsr     r3,r0,20h                                    ;2  326
08035A3C 5A5E     ldrh    r6,[r3,r1]                                   ;4  330
08035A3E 0803     lsr     r3,r0,20h                                    ;2  332
08035A40 2003     mov     r0,3h                                        ;2  334
08035A42 2137     mov     r1,37h                                       ;2  336
08035A44 E00D     b       8035A62h                                     ;8  344
08035A46 2003     mov     r0,3h                                        ;2  346
08035A48 2138     mov     r1,38h                                       ;2  348
08035A4A E00A     b       8035A62h                                     ;8  356
08035A4C 2003     mov     r0,3h                                        ;2  358
08035A4E 2139     mov     r1,39h                                       ;2  360
08035A50 E007     b       8035A62h                                     ;8  368
08035A52 2003     mov     r0,3h                                        ;2  370
08035A54 213A     mov     r1,3Ah                                       ;2  372
08035A56 E004     b       8035A62h                                     ;8  380
08035A58 2003     mov     r0,3h                                        ;2  382
08035A5A 213B     mov     r1,3Bh                                       ;2  384
08035A5C E001     b       8035A62h                                     ;8  392
08035A5E 2003     mov     r0,3h                                        ;2  394
08035A60 213C     mov     r1,3Ch                                       ;2  396
08035A62 F02AFF2B bl      80608BCh                                     ;10 406
08035A66 2800     cmp     r0,0h                                        ;2  408
08035A68 D104     bne     8035A74h                                     ;8  416
08035A6A 1C60     add     r0,r4,1                                      ;2  418
08035A6C 0600     lsl     r0,r0,18h                                    ;2  420
08035A6E 0E04     lsr     r4,r0,18h                                    ;2  422
08035A70 E000     b       8035A74h                                     ;8  430
08035A72 2402     mov     r4,2h                                        ;2  432
08035A74 2C00     cmp     r4,0h                                        ;2  434
08035A76 D105     bne     8035A84h                                     ;8  442
08035A78 4801     ldr     r0,=3000738h                                 ;9  451
08035A7A 8004     strh    r4,[r0]                                      ;5  456
08035A7C E05C     b       8035B38h                                     ;8  464
08035A7E 0000     lsl     r0,r0,0h                                     ;2  466
08035A80 0738     lsl     r0,r7,1Ch                                    ;2  468
08035A82 0300     lsl     r0,r0,0Ch                                    ;2  470
08035A84 2C01     cmp     r4,1h                                        ;2  472
08035A86 D101     bne     8035A8Ch                                     ;8  480
08035A88 482D     ldr     r0,=300007Bh                                 ;9  489
08035A8A 7004     strb    r4,[r0]                                      ;5  494
08035A8C 4D2D     ldr     r5,=3000738h                                 ;9  503
08035A8E 8829     ldrh    r1,[r5]                                      ;4  507
08035A90 2020     mov     r0,20h                                       ;2  509
08035A92 2600     mov     r6,0h                                        ;2  511
08035A94 4308     orr     r0,r1                                        ;2  513
08035A96 2280     mov     r2,80h                                       ;2  515
08035A98 0212     lsl     r2,r2,8h                                     ;2  517
08035A9A 1C11     mov     r1,r2                                        ;2  519
08035A9C 4308     orr     r0,r1                                        ;2  521
08035A9E 2400     mov     r4,0h                                        ;2  523
08035AA0 2180     mov     r1,80h                                       ;2  525
08035AA2 4308     orr     r0,r1                                        ;2  527
08035AA4 8028     strh    r0,[r5]                                      ;5  532
08035AA6 2040     mov     r0,40h                                       ;2  534
08035AA8 8268     strh    r0,[r5,12h]                                  ;5  539
08035AAA 1C28     mov     r0,r5                                        ;2  541
08035AAC 302A     add     r0,2Ah                                       ;2  543
08035AAE 7004     strb    r4,[r0]                                      ;5  548
08035AB0 3803     sub     r0,3h                                        ;2  550
08035AB2 2106     mov     r1,6h                                        ;2  552
08035AB4 7001     strb    r1,[r0]                                      ;5  557
08035AB6 3001     add     r0,1h                                        ;2  559
08035AB8 7001     strb    r1,[r0]                                      ;5  564
08035ABA 1C29     mov     r1,r5                                        ;2  566
08035ABC 3129     add     r1,29h                                       ;2  568
08035ABE 2005     mov     r0,5h                                        ;2  570
08035AC0 7008     strb    r0,[r1]                                      ;5  575
08035AC2 4921     ldr     r1,=0FFD8h                                   ;9  584
08035AC4 8169     strh    r1,[r5,0Ah]                                  ;5  589
08035AC6 2020     mov     r0,20h                                       ;2  591
08035AC8 81A8     strh    r0,[r5,0Ch]                                  ;5  596
08035ACA 81E9     strh    r1,[r5,0Eh]                                  ;5  601
08035ACC 2028     mov     r0,28h                                       ;2  603
08035ACE 8228     strh    r0,[r5,10h]                                  ;5  608
08035AD0 481E     ldr     r0,=82EDD20h                                 ;9  617
08035AD2 61A8     str     r0,[r5,18h]                                  ;5  622
08035AD4 772C     strb    r4,[r5,1Ch]                                  ;5  627
08035AD6 82EE     strh    r6,[r5,16h]                                  ;5  632
08035AD8 4A1D     ldr     r2,=82B0D68h                                 ;9  641
08035ADA 7F69     ldrb    r1,[r5,1Dh]                                  ;4  645
08035ADC 00C8     lsl     r0,r1,3h                                     ;2  647
08035ADE 1840     add     r0,r0,r1                                     ;2  649
08035AE0 0040     lsl     r0,r0,1h                                     ;2  651
08035AE2 1880     add     r0,r0,r2                                     ;2  653
08035AE4 8800     ldrh    r0,[r0]                                      ;4  657
08035AE6 82A8     strh    r0,[r5,14h]                                  ;5  662
08035AE8 80E8     strh    r0,[r5,6h]                                   ;5  667
08035AEA 1C28     mov     r0,r5                                        ;2  669
08035AEC 3025     add     r0,25h                                       ;2  671
08035AEE 7004     strb    r4,[r0]                                      ;5  676
08035AF0 F7D9FEF6 bl      800F8E0h                                     ;10 686
08035AF4 1C29     mov     r1,r5                                        ;2  688
08035AF6 3124     add     r1,24h                                       ;2  690
08035AF8 2001     mov     r0,1h                                        ;2  692
08035AFA 7008     strb    r0,[r1]                                      ;5  697
08035AFC 1C28     mov     r0,r5                                        ;2  699
08035AFE 302E     add     r0,2Eh                                       ;2  701
08035B00 7004     strb    r4,[r0]                                      ;5  706
08035B02 3001     add     r0,1h                                        ;2  708
08035B04 7004     strb    r4,[r0]                                      ;5  713
08035B06 3902     sub     r1,2h                                        ;2  715
08035B08 200C     mov     r0,0Ch                                       ;2  717
08035B0A 7008     strb    r0,[r1]                                      ;5  722
08035B0C 7FA9     ldrb    r1,[r5,1Eh]                                  ;4  726
08035B0E 7FEA     ldrb    r2,[r5,1Fh]                                  ;4  730
08035B10 1C28     mov     r0,r5                                        ;2  732
08035B12 3023     add     r0,23h                                       ;2  734
08035B14 7803     ldrb    r3,[r0]                                      ;4  738
08035B16 8868     ldrh    r0,[r5,2h]                                   ;4  742
08035B18 9000     str     r0,[sp]                                      ;5  747
08035B1A 88A8     ldrh    r0,[r5,4h]                                   ;4  751
08035B1C 9001     str     r0,[sp,4h]                                   ;5  756
08035B1E 9602     str     r6,[sp,8h]                                   ;5  761
08035B20 201A     mov     r0,1Ah                                       ;2  763
08035B22 F7D8FB99 bl      800E258h                                     ;10 773
08035B26 0600     lsl     r0,r0,18h                                    ;2  775
08035B28 0E00     lsr     r0,r0,18h                                    ;2  777
08035B2A 28FF     cmp     r0,0FFh                                      ;2  779
08035B2C D100     bne     8035B30h                                     ;8  787
08035B2E 802E     strh    r6,[r5]                                      ;5  792
08035B30 1C29     mov     r1,r5                                        ;2  794
08035B32 3120     add     r1,20h                                       ;2  796
08035B34 2003     mov     r0,3h                                        ;2  798
08035B36 7008     strb    r0,[r1]                                      ;5  803
08035B38 B003     add     sp,0Ch                                       ;2  805
08035B3A BC70     pop     r4-r6                                        ;6  811
08035B3C BC01     pop     r0                                           ;4  815
08035B3E 4700     bx      r0                                           ;8  823
08035B40 007B     lsl     r3,r7,1h                                     ;2  825
08035B42 0300     lsl     r0,r0,0Ch                                    ;2  827
08035B44 0738     lsl     r0,r7,1Ch                                    ;2  829
08035B46 0300     lsl     r0,r0,0Ch                                    ;2  831
08035B48 FFD8     bl      lr+0FB0h                                     ;10 841
08035B4A 0000     lsl     r0,r0,0h                                     ;2  843
08035B4C DD20     ble     8035B90h                                     ;8  851
08035B4E 082E     lsr     r6,r5,20h                                    ;2  853
08035B50 0D68     lsr     r0,r5,15h                                    ;2  855
08035B52 082B     lsr     r3,r5,20h                                    ;2  857
08035B54 B500     push    r14                                          ;10 867
08035B56 4A0E     ldr     r2,=3000738h                                 ;9  876
08035B58 8811     ldrh    r1,[r2]                                      ;4  880
08035B5A 2002     mov     r0,2h                                        ;2  882
08035B5C 4008     and     r0,r1                                        ;2  884
08035B5E 2800     cmp     r0,0h                                        ;2  886
08035B60 D013     beq     8035B8Ah                                     ;8  894
08035B62 1C11     mov     r1,r2                                        ;2  896
08035B64 3124     add     r1,24h                                       ;2  898
08035B66 2002     mov     r0,2h                                        ;2  900
08035B68 7008     strb    r0,[r1]                                      ;5  905
08035B6A 1C10     mov     r0,r2                                        ;2  907
08035B6C 3027     add     r0,27h                                       ;2  909
08035B6E 2118     mov     r1,18h                                       ;2  911
08035B70 7001     strb    r1,[r0]                                      ;5  916
08035B72 3001     add     r0,1h                                        ;2  918
08035B74 7001     strb    r1,[r0]                                      ;5  923
08035B76 1C11     mov     r1,r2                                        ;2  925
08035B78 3129     add     r1,29h                                       ;2  927
08035B7A 2014     mov     r0,14h                                       ;2  929
08035B7C 7008     strb    r0,[r1]                                      ;5  934
08035B7E 4805     ldr     r0,=300083Ch                                 ;9  943
08035B80 7800     ldrb    r0,[r0]                                      ;4  947
08035B82 0080     lsl     r0,r0,2h                                     ;2  949
08035B84 3001     add     r0,1h                                        ;2  951
08035B86 3103     add     r1,3h                                        ;2  953
08035B88 7008     strb    r0,[r1]                                      ;5  958
08035B8A BC01     pop     r0                                           ;4  962
08035B8C 4700     bx      r0                                           ;8  970
08035B8E 0000     lsl     r0,r0,0h                                     ;2  972
08035B90 0738     lsl     r0,r7,1Ch                                    ;2  974
08035B92 0300     lsl     r0,r0,0Ch                                    ;2  976
08035B94 083C     lsr     r4,r7,20h                                    ;2  978
08035B96 0300     lsl     r0,r0,0Ch                                    ;2  980
08035B98 B5F0     push    r4-r7,r14                                    ;9  989
08035B9A 4B19     ldr     r3,=3000738h                                 ;9  998
08035B9C 202F     mov     r0,2Fh                                       ;2  1000
08035B9E 18C0     add     r0,r0,r3                                     ;2  1002
08035BA0 4684     mov     r12,r0                                       ;2  1004
08035BA2 7802     ldrb    r2,[r0]                                      ;4  1008
08035BA4 4C17     ldr     r4,=82ECB60h                                 ;9  1017
08035BA6 0050     lsl     r0,r2,1h                                     ;2  1019
08035BA8 1900     add     r0,r0,r4                                     ;2  1021
08035BAA 2500     mov     r5,0h                                        ;2  1023
08035BAC 5F41     ldsh    r1,[r0,r5]                                   ;4  1027
08035BAE 4D16     ldr     r5,=7FFFh                                    ;9  1036
08035BB0 42A9     cmp     r1,r5                                        ;2  1038
08035BB2 D102     bne     8035BBAh                                     ;8  1046
08035BB4 2700     mov     r7,0h                                        ;2  1048
08035BB6 5FE1     ldsh    r1,[r4,r7]                                   ;4  1052
08035BB8 2200     mov     r2,0h                                        ;2  1054
08035BBA 1C50     add     r0,r2,1                                      ;2  1056
08035BBC 4662     mov     r2,r12                                       ;2  1058
08035BBE 7010     strb    r0,[r2]                                      ;5  1063
08035BC0 8858     ldrh    r0,[r3,2h]                                   ;4  1067
08035BC2 1840     add     r0,r0,r1                                     ;2  1069
08035BC4 2600     mov     r6,0h                                        ;2  1071
08035BC6 8058     strh    r0,[r3,2h]                                   ;5  1076
08035BC8 272E     mov     r7,2Eh                                       ;2  1078
08035BCA 18FF     add     r7,r7,r3                                     ;2  1080
08035BCC 46BC     mov     r12,r7                                       ;2  1082
08035BCE 783A     ldrb    r2,[r7]                                      ;4  1086
08035BD0 4C0E     ldr     r4,=82ECBE2h                                 ;9  1095
08035BD2 0050     lsl     r0,r2,1h                                     ;2  1097
08035BD4 1900     add     r0,r0,r4                                     ;2  1099
08035BD6 2700     mov     r7,0h                                        ;2  1101
08035BD8 5FC1     ldsh    r1,[r0,r7]                                   ;4  1105
08035BDA 42A9     cmp     r1,r5                                        ;2  1107
08035BDC D102     bne     8035BE4h                                     ;8  1115
08035BDE 2000     mov     r0,0h                                        ;2  1117
08035BE0 5E21     ldsh    r1,[r4,r0]                                   ;4  1121
08035BE2 2200     mov     r2,0h                                        ;2  1123
08035BE4 1C50     add     r0,r2,1                                      ;2  1125
08035BE6 4662     mov     r2,r12                                       ;2  1127
08035BE8 7010     strb    r0,[r2]                                      ;5  1132
08035BEA 8898     ldrh    r0,[r3,4h]                                   ;4  1136
08035BEC 1840     add     r0,r0,r1                                     ;2  1138
08035BEE 8098     strh    r0,[r3,4h]                                   ;5  1143
08035BF0 1C19     mov     r1,r3                                        ;2  1145
08035BF2 312C     add     r1,2Ch                                       ;2  1147
08035BF4 7808     ldrb    r0,[r1]                                      ;4  1151
08035BF6 1C04     mov     r4,r0                                        ;2  1153
08035BF8 2C00     cmp     r4,0h                                        ;2  1155
08035BFA D009     beq     8035C10h                                     ;8  1163
08035BFC 3801     sub     r0,1h                                        ;2  1165
08035BFE E030     b       8035C62h                                     ;8  1173
08035C00 0738     lsl     r0,r7,1Ch                                    ;2  1175
08035C02 0300     lsl     r0,r0,0Ch                                    ;2  1177
08035C04 CB60     ldmia   [r3]!,r5,r6                                  ;5  1182
08035C06 082E     lsr     r6,r5,20h                                    ;2  1184
08035C08 7FFF     ldrb    r7,[r7,1Fh]                                  ;4  1188
08035C0A 0000     lsl     r0,r0,0h                                     ;2  1190
08035C0C CBE2     ldmia   [r3]!,r1,r5-r7                               ;7  1197
08035C0E 082E     lsr     r6,r5,20h                                    ;2  1199
08035C10 8A58     ldrh    r0,[r3,12h]                                  ;4  1203
08035C12 28FF     cmp     r0,0FFh                                      ;2  1205
08035C14 D80F     bhi     8035C36h                                     ;8  1213
08035C16 3004     add     r0,4h                                        ;2  1215
08035C18 8258     strh    r0,[r3,12h]                                  ;5  1220
08035C1A 0400     lsl     r0,r0,10h                                    ;2  1222
08035C1C 0C00     lsr     r0,r0,10h                                    ;2  1224
08035C1E 28D0     cmp     r0,0D0h                                      ;2  1226
08035C20 D903     bls     8035C2Ah                                     ;8  1234
08035C22 1C19     mov     r1,r3                                        ;2  1236
08035C24 3120     add     r1,20h                                       ;2  1238
08035C26 2001     mov     r0,1h                                        ;2  1240
08035C28 E01B     b       8035C62h                                     ;8  1248
08035C2A 28A0     cmp     r0,0A0h                                      ;2  1250
08035C2C D91A     bls     8035C64h                                     ;8  1258
08035C2E 1C19     mov     r1,r3                                        ;2  1260
08035C30 3120     add     r1,20h                                       ;2  1262
08035C32 2002     mov     r0,2h                                        ;2  1264
08035C34 E015     b       8035C62h                                     ;8  1272
08035C36 1C18     mov     r0,r3                                        ;2  1274
08035C38 3020     add     r0,20h                                       ;2  1276
08035C3A 7006     strb    r6,[r0]                                      ;5  1281
08035C3C 8818     ldrh    r0,[r3]                                      ;4  1285
08035C3E 490B     ldr     r1,=0FF7Fh                                   ;9  1294
08035C40 4001     and     r1,r0                                        ;2  1296
08035C42 1C1A     mov     r2,r3                                        ;2  1298
08035C44 3224     add     r2,24h                                       ;2  1300
08035C46 2008     mov     r0,8h                                        ;2  1302
08035C48 7010     strb    r0,[r2]                                      ;5  1307
08035C4A 4809     ldr     r0,=82EDC20h                                 ;9  1316
08035C4C 6198     str     r0,[r3,18h]                                  ;5  1321
08035C4E 771E     strb    r6,[r3,1Ch]                                  ;5  1326
08035C50 82DC     strh    r4,[r3,16h]                                  ;5  1331
08035C52 4029     and     r1,r5                                        ;2  1333
08035C54 8019     strh    r1,[r3]                                      ;5  1338
08035C56 1C19     mov     r1,r3                                        ;2  1340
08035C58 3125     add     r1,25h                                       ;2  1342
08035C5A 2018     mov     r0,18h                                       ;2  1344
08035C5C 7008     strb    r0,[r1]                                      ;5  1349
08035C5E 3903     sub     r1,3h                                        ;2  1351
08035C60 2004     mov     r0,4h                                        ;2  1353
08035C62 7008     strb    r0,[r1]                                      ;5  1358
08035C64 BCF0     pop     r4-r7                                        ;7  1365
08035C66 BC01     pop     r0                                           ;4  1369
08035C68 4700     bx      r0                                           ;8  1377
08035C6A 0000     lsl     r0,r0,0h                                     ;2  1379
08035C6C FF7F     bl      lr+0EFEh                                     ;10 1389
08035C6E 0000     lsl     r0,r0,0h                                     ;2  1391
08035C70 DC20     bgt     8035CB4h                                     ;8  1399
08035C72 082E     lsr     r6,r5,20h                                    ;2  1401
08035C74 4B0A     ldr     r3,=3000738h                                 ;9  1410
08035C76 1C19     mov     r1,r3                                        ;2  1412
08035C78 3124     add     r1,24h                                       ;2  1414
08035C7A 2200     mov     r2,0h                                        ;2  1416
08035C7C 2009     mov     r0,9h                                        ;2  1418
08035C7E 7008     strb    r0,[r1]                                      ;5  1423
08035C80 1C18     mov     r0,r3                                        ;2  1425
08035C82 302D     add     r0,2Dh                                       ;2  1427
08035C84 7002     strb    r2,[r0]                                      ;5  1432
08035C86 3001     add     r0,1h                                        ;2  1434
08035C88 2101     mov     r1,1h                                        ;2  1436
08035C8A 7001     strb    r1,[r0]                                      ;5  1441
08035C8C 3802     sub     r0,2h                                        ;2  1443
08035C8E 7002     strb    r2,[r0]                                      ;5  1448
08035C90 3003     add     r0,3h                                        ;2  1450
08035C92 7001     strb    r1,[r0]                                      ;5  1455
08035C94 4803     ldr     r0,=82EDC20h                                 ;9  1464
08035C96 6198     str     r0,[r3,18h]                                  ;5  1469
08035C98 771A     strb    r2,[r3,1Ch]                                  ;5  1474
08035C9A 82DA     strh    r2,[r3,16h]                                  ;5  1479
08035C9C 4770     bx      r14                                          ;8  1487
08035C9E 0000     lsl     r0,r0,0h                                     ;2  1489
08035CA0 0738     lsl     r0,r7,1Ch                                    ;2  1491
08035CA2 0300     lsl     r0,r0,0Ch                                    ;2  1493
08035CA4 DC20     bgt     8035CE8h                                     ;8  1501
08035CA6 082E     lsr     r6,r5,20h                                    ;2  1503
08035CA8 B510     push    r4,r14                                       ;14 1517
08035CAA B081     add     sp,-4h                                       ;2  1519
08035CAC F7FFFE7A bl      80359A4h                                     ;10 1529
08035CB0 4C08     ldr     r4,=3000738h                                 ;9  1538
08035CB2 8821     ldrh    r1,[r4]                                      ;4  1542
08035CB4 2080     mov     r0,80h                                       ;2  1544
08035CB6 0100     lsl     r0,r0,4h                                     ;2  1546
08035CB8 4008     and     r0,r1                                        ;2  1548
08035CBA 2800     cmp     r0,0h                                        ;2  1550
08035CBC D019     beq     8035CF2h                                     ;8  1558
08035CBE F7FFFE4D bl      803595Ch                                     ;10 1568
08035CC2 0600     lsl     r0,r0,18h                                    ;2  1570
08035CC4 2800     cmp     r0,0h                                        ;2  1572
08035CC6 D009     beq     8035CDCh                                     ;8  1580
08035CC8 8821     ldrh    r1,[r4]                                      ;4  1584
08035CCA 4803     ldr     r0,=0F7FFh                                   ;9  1593
08035CCC 4008     and     r0,r1                                        ;2  1595
08035CCE 8020     strh    r0,[r4]                                      ;5  1600
08035CD0 E00F     b       8035CF2h                                     ;8  1608
08035CD2 0000     lsl     r0,r0,0h                                     ;2  1610
08035CD4 0738     lsl     r0,r7,1Ch                                    ;2  1612
08035CD6 0300     lsl     r0,r0,0Ch                                    ;2  1614
08035CD8 F7FF     ????                                                 ;10 1624
08035CDA 0000     lsl     r0,r0,0h                                     ;2  1626
08035CDC 1C21     mov     r1,r4                                        ;2  1628
08035CDE 3124     add     r1,24h                                       ;2  1630
08035CE0 2042     mov     r0,42h                                       ;2  1632
08035CE2 7008     strb    r0,[r1]                                      ;5  1637
08035CE4 8821     ldrh    r1,[r4]                                      ;4  1641
08035CE6 2280     mov     r2,80h                                       ;2  1643
08035CE8 0212     lsl     r2,r2,8h                                     ;2  1645
08035CEA 1C10     mov     r0,r2                                        ;2  1647
08035CEC 4308     orr     r0,r1                                        ;2  1649
08035CEE 8020     strh    r0,[r4]                                      ;5  1654
08035CF0 E011     b       8035D16h                                     ;8  1662
08035CF2 2001     mov     r0,1h                                        ;2  1664
08035CF4 F7FFFD56 bl      80357A4h                                     ;10 1674
08035CF8 4909     ldr     r1,=30013D4h                                 ;9  1683
08035CFA 480A     ldr     r0,=3001588h                                 ;9  1692
08035CFC 3070     add     r0,70h                                       ;2  1694
08035CFE 8800     ldrh    r0,[r0]                                      ;4  1698
08035D00 8A8A     ldrh    r2,[r1,14h]                                  ;4  1702
08035D02 1880     add     r0,r0,r2                                     ;2  1704
08035D04 0400     lsl     r0,r0,10h                                    ;2  1706
08035D06 0C00     lsr     r0,r0,10h                                    ;2  1708
08035D08 8A49     ldrh    r1,[r1,12h]                                  ;4  1712
08035D0A 2202     mov     r2,2h                                        ;2  1714
08035D0C 9200     str     r2,[sp]                                      ;5  1719
08035D0E 221E     mov     r2,1Eh                                       ;2  1721
08035D10 2328     mov     r3,28h                                       ;2  1723
08035D12 F7FFFB63 bl      80353DCh                                     ;10 1733
08035D16 B001     add     sp,4h                                        ;2  1735
08035D18 BC10     pop     r4                                           ;9  1744
08035D1A BC01     pop     r0                                           ;9  1753
08035D1C 4700     bx      r0                                           ;8  1761
08035D1E 0000     lsl     r0,r0,0h                                     ;2  1763
08035D20 13D4     asr     r4,r2,0Fh                                    ;2  1765
08035D22 0300     lsl     r0,r0,0Ch                                    ;2  1767
08035D24 1588     asr     r0,r1,16h                                    ;2  1769
08035D26 0300     lsl     r0,r0,0Ch                                    ;2  1771
08035D28 480D     ldr     r0,=3000738h                                 ;9  1780
08035D2A 4684     mov     r12,r0                                       ;2  1782
08035D2C 4661     mov     r1,r12                                       ;2  1784
08035D2E 3124     add     r1,24h                                       ;2  1786
08035D30 2200     mov     r2,0h                                        ;2  1788
08035D32 2043     mov     r0,43h                                       ;2  1790
08035D34 7008     strb    r0,[r1]                                      ;5  1795
08035D36 480B     ldr     r0,=82EDCA8h                                 ;9  1804
08035D38 4661     mov     r1,r12                                       ;2  1806
08035D3A 6188     str     r0,[r1,18h]                                  ;5  1811
08035D3C 770A     strb    r2,[r1,1Ch]                                  ;5  1816
08035D3E 2300     mov     r3,0h                                        ;2  1818
08035D40 82CA     strh    r2,[r1,16h]                                  ;5  1823
08035D42 312C     add     r1,2Ch                                       ;2  1825
08035D44 2004     mov     r0,4h                                        ;2  1827
08035D46 7008     strb    r0,[r1]                                      ;5  1832
08035D48 3101     add     r1,1h                                        ;2  1834
08035D4A 7008     strb    r0,[r1]                                      ;5  1839
08035D4C 3106     add     r1,6h                                        ;2  1841
08035D4E 7008     strb    r0,[r1]                                      ;5  1846
08035D50 4660     mov     r0,r12                                       ;2  1848
08035D52 302A     add     r0,2Ah                                       ;2  1850
08035D54 7003     strb    r3,[r0]                                      ;5  1855
08035D56 4904     ldr     r1,=3001530h                                 ;9  1864
08035D58 2001     mov     r0,1h                                        ;2  1866
08035D5A 74C8     strb    r0,[r1,13h]                                  ;5  1871
08035D5C 4770     bx      r14                                          ;8  1879
08035D5E 0000     lsl     r0,r0,0h                                     ;2  1881
08035D60 0738     lsl     r0,r7,1Ch                                    ;2  1883
08035D62 0300     lsl     r0,r0,0Ch                                    ;2  1885
08035D64 DCA8     bgt     8035CB8h                                     ;8  1893
08035D66 082E     lsr     r6,r5,20h                                    ;2  1895
08035D68 1530     asr     r0,r6,14h                                    ;2  1897
08035D6A 0300     lsl     r0,r0,0Ch                                    ;2  1899
08035D6C B530     push    r4,r5,r14                                    ;18 1917
08035D6E F7FFFE19 bl      80359A4h                                     ;10 1927
08035D72 2002     mov     r0,2h                                        ;2  1929
08035D74 F7FFFD16 bl      80357A4h                                     ;10 1939
08035D78 4B15     ldr     r3,=3000738h                                 ;9  1948
08035D7A 1C19     mov     r1,r3                                        ;2  1950
08035D7C 312C     add     r1,2Ch                                       ;2  1952
08035D7E 7808     ldrb    r0,[r1]                                      ;4  1956
08035D80 3801     sub     r0,1h                                        ;2  1958
08035D82 7008     strb    r0,[r1]                                      ;5  1963
08035D84 0600     lsl     r0,r0,18h                                    ;2  1965
08035D86 0E02     lsr     r2,r0,18h                                    ;2  1967
08035D88 2A00     cmp     r2,0h                                        ;2  1969
08035D8A D115     bne     8035DB8h                                     ;8  1977
08035D8C 2004     mov     r0,4h                                        ;2  1979
08035D8E 7008     strb    r0,[r1]                                      ;5  1984
08035D90 3101     add     r1,1h                                        ;2  1986
08035D92 7808     ldrb    r0,[r1]                                      ;4  1990
08035D94 3001     add     r0,1h                                        ;2  1992
08035D96 7008     strb    r0,[r1]                                      ;5  1997
08035D98 0600     lsl     r0,r0,18h                                    ;2  1999
08035D9A 0E00     lsr     r0,r0,18h                                    ;2  2001
08035D9C 2804     cmp     r0,4h                                        ;2  2003
08035D9E D900     bls     8035DA2h                                     ;8  2011
08035DA0 700A     strb    r2,[r1]                                      ;5  2016
08035DA2 4A0C     ldr     r2,=40000D4h                                 ;9  2025
08035DA4 7808     ldrb    r0,[r1]                                      ;4  2029
08035DA6 0140     lsl     r0,r0,5h                                     ;2  2031
08035DA8 490B     ldr     r1,=82ED988h                                 ;9  2040
08035DAA 1840     add     r0,r0,r1                                     ;2  2042
08035DAC 6010     str     r0,[r2]                                      ;5  2047
08035DAE 480B     ldr     r0,=5000380h                                 ;9  2056
08035DB0 6050     str     r0,[r2,4h]                                   ;5  2061
08035DB2 480B     ldr     r0,=80000008h                                ;9  2070
08035DB4 6090     str     r0,[r2,8h]                                   ;5  2075
08035DB6 6890     ldr     r0,[r2,8h]                                   ;4  2079
08035DB8 4C05     ldr     r4,=3000738h                                 ;9  2088
08035DBA 8860     ldrh    r0,[r4,2h]                                   ;4  2092
08035DBC 88A1     ldrh    r1,[r4,4h]                                   ;4  2096
08035DBE F7FFFACF bl      8035360h                                     ;10 2106
08035DC2 0600     lsl     r0,r0,18h                                    ;2  2108
08035DC4 2800     cmp     r0,0h                                        ;2  2110
08035DC6 D00F     beq     8035DE8h                                     ;8  2118
08035DC8 4906     ldr     r1,=30013D4h                                 ;9  2127
08035DCA 88A0     ldrh    r0,[r4,4h]                                   ;4  2131
08035DCC 8248     strh    r0,[r1,12h]                                  ;5  2136
08035DCE E00E     b       8035DEEh                                     ;8  2144
08035DD0 0738     lsl     r0,r7,1Ch                                    ;2  2146
08035DD2 0300     lsl     r0,r0,0Ch                                    ;2  2148
08035DD4 00D4     lsl     r4,r2,3h                                     ;2  2150
08035DD6 0400     lsl     r0,r0,10h                                    ;2  2152
08035DD8 D988     bls     8035CECh                                     ;8  2160
08035DDA 082E     lsr     r6,r5,20h                                    ;2  2162
08035DDC 0380     lsl     r0,r0,0Eh                                    ;2  2164
08035DDE 0500     lsl     r0,r0,14h                                    ;2  2166
08035DE0 0008     lsl     r0,r1,0h                                     ;2  2168
08035DE2 8000     strh    r0,[r0]                                      ;5  2173
08035DE4 13D4     asr     r4,r2,0Fh                                    ;2  2175
08035DE6 0300     lsl     r0,r0,0Ch                                    ;2  2177
08035DE8 491C     ldr     r1,=30013D4h                                 ;9  2186
08035DEA 8A48     ldrh    r0,[r1,12h]                                  ;4  2190
08035DEC 80A0     strh    r0,[r4,4h]                                   ;5  2195
08035DEE 4C1C     ldr     r4,=3000738h                                 ;9  2204
08035DF0 481C     ldr     r0,=3001588h                                 ;9  2213
08035DF2 3070     add     r0,70h                                       ;2  2215
08035DF4 8800     ldrh    r0,[r0]                                      ;4  2219
08035DF6 8A89     ldrh    r1,[r1,14h]                                  ;4  2223
08035DF8 1840     add     r0,r0,r1                                     ;2  2225
08035DFA 2500     mov     r5,0h                                        ;2  2227
08035DFC 8060     strh    r0,[r4,2h]                                   ;5  2232
08035DFE F7FFFC73 bl      80356E8h                                     ;10 2242
08035E02 0600     lsl     r0,r0,18h                                    ;2  2244
08035E04 2800     cmp     r0,0h                                        ;2  2246
08035E06 D037     beq     8035E78h                                     ;8  2254
08035E08 4817     ldr     r0,=300083Ch                                 ;9  2263
08035E0A 7801     ldrb    r1,[r0]                                      ;4  2267
08035E0C 2001     mov     r0,1h                                        ;2  2269
08035E0E 4008     and     r0,r1                                        ;2  2271
08035E10 2210     mov     r2,10h                                       ;2  2273
08035E12 2800     cmp     r0,0h                                        ;2  2275
08035E14 D000     beq     8035E18h                                     ;8  2283
08035E16 221C     mov     r2,1Ch                                       ;2  2285
08035E18 1C21     mov     r1,r4                                        ;2  2287
08035E1A 3124     add     r1,24h                                       ;2  2289
08035E1C 2009     mov     r0,9h                                        ;2  2291
08035E1E 7008     strb    r0,[r1]                                      ;5  2296
08035E20 1C20     mov     r0,r4                                        ;2  2298
08035E22 3020     add     r0,20h                                       ;2  2300
08035E24 7005     strb    r5,[r0]                                      ;5  2305
08035E26 3102     add     r1,2h                                        ;2  2307
08035E28 200F     mov     r0,0Fh                                       ;2  2309
08035E2A 7008     strb    r0,[r1]                                      ;5  2314
08035E2C 8821     ldrh    r1,[r4]                                      ;4  2318
08035E2E 480F     ldr     r0,=7BFFh                                    ;9  2327
08035E30 4008     and     r0,r1                                        ;2  2329
08035E32 8020     strh    r0,[r4]                                      ;5  2334
08035E34 1C20     mov     r0,r4                                        ;2  2336
08035E36 302C     add     r0,2Ch                                       ;2  2338
08035E38 7005     strb    r5,[r0]                                      ;5  2343
08035E3A 3003     add     r0,3h                                        ;2  2345
08035E3C 7002     strb    r2,[r0]                                      ;5  2350
08035E3E 3802     sub     r0,2h                                        ;2  2352
08035E40 7005     strb    r5,[r0]                                      ;5  2357
08035E42 3001     add     r0,1h                                        ;2  2359
08035E44 7002     strb    r2,[r0]                                      ;5  2364
08035E46 480A     ldr     r0,=82EDC20h                                 ;9  2373
08035E48 61A0     str     r0,[r4,18h]                                  ;5  2378
08035E4A 7725     strb    r5,[r4,1Ch]                                  ;5  2383
08035E4C 2000     mov     r0,0h                                        ;2  2385
08035E4E 82E0     strh    r0,[r4,16h]                                  ;5  2390
08035E50 1C20     mov     r0,r4                                        ;2  2392
08035E52 3033     add     r0,33h                                       ;2  2394
08035E54 7005     strb    r5,[r0]                                      ;5  2399
08035E56 4807     ldr     r0,=3001530h                                 ;9  2408
08035E58 74C5     strb    r5,[r0,13h]                                  ;5  2413
08035E5A E036     b       8035ECAh                                     ;8  2421
08035E5C 13D4     asr     r4,r2,0Fh                                    ;2  2423
08035E5E 0300     lsl     r0,r0,0Ch                                    ;2  2425
08035E60 0738     lsl     r0,r7,1Ch                                    ;2  2427
08035E62 0300     lsl     r0,r0,0Ch                                    ;2  2429
08035E64 1588     asr     r0,r1,16h                                    ;2  2431
08035E66 0300     lsl     r0,r0,0Ch                                    ;2  2433
08035E68 083C     lsr     r4,r7,20h                                    ;2  2435
08035E6A 0300     lsl     r0,r0,0Ch                                    ;2  2437
08035E6C 7BFF     ldrb    r7,[r7,0Fh]                                  ;4  2441
08035E6E 0000     lsl     r0,r0,0h                                     ;2  2443
08035E70 DC20     bgt     8035EB4h                                     ;8  2451
08035E72 082E     lsr     r6,r5,20h                                    ;2  2453
08035E74 1530     asr     r0,r6,14h                                    ;2  2455
08035E76 0300     lsl     r0,r0,0Ch                                    ;2  2457
08035E78 1C20     mov     r0,r4                                        ;2  2459
08035E7A 302A     add     r0,2Ah                                       ;2  2461
08035E7C 7801     ldrb    r1,[r0]                                      ;4  2465
08035E7E 201F     mov     r0,1Fh                                       ;2  2467
08035E80 4008     and     r0,r1                                        ;2  2469
08035E82 2800     cmp     r0,0h                                        ;2  2471
08035E84 D11C     bne     8035EC0h                                     ;8  2479
08035E86 2081     mov     r0,81h                                       ;2  2481
08035E88 F7CCFE4A bl      8002B20h                                     ;10 2491
08035E8C 4804     ldr     r0,=3001530h                                 ;9  2500
08035E8E 7BC0     ldrb    r0,[r0,0Fh]                                  ;4  2504
08035E90 2230     mov     r2,30h                                       ;2  2506
08035E92 4002     and     r2,r0                                        ;2  2508
08035E94 2A00     cmp     r2,0h                                        ;2  2510
08035E96 D107     bne     8035EA8h                                     ;8  2518
08035E98 4802     ldr     r0,=16Dh                                     ;9  2527
08035E9A F7CCFDBD bl      8002A18h                                     ;10 2537
08035E9E E00F     b       8035EC0h                                     ;8  2545
08035EA0 1530     asr     r0,r6,14h                                    ;2  2547
08035EA2 0300     lsl     r0,r0,0Ch                                    ;2  2549
08035EA4 016D     lsl     r5,r5,5h                                     ;2  2551
08035EA6 0000     lsl     r0,r0,0h                                     ;2  2553
08035EA8 2A30     cmp     r2,30h                                       ;2  2555
08035EAA D105     bne     8035EB8h                                     ;8  2563
08035EAC 4801     ldr     r0,=16Fh                                     ;9  2572
08035EAE F7CCFDB3 bl      8002A18h                                     ;10 2582
08035EB2 E005     b       8035EC0h                                     ;8  2590
08035EB4 016F     lsl     r7,r5,5h                                     ;2  2592
08035EB6 0000     lsl     r0,r0,0h                                     ;2  2594
08035EB8 20B7     mov     r0,0B7h                                      ;2  2596
08035EBA 0040     lsl     r0,r0,1h                                     ;2  2598
08035EBC F7CCFDAC bl      8002A18h                                     ;10 2608
08035EC0 4903     ldr     r1,=3000738h                                 ;9  2617
08035EC2 312A     add     r1,2Ah                                       ;2  2619
08035EC4 7808     ldrb    r0,[r1]                                      ;4  2623
08035EC6 3001     add     r0,1h                                        ;2  2625
08035EC8 7008     strb    r0,[r1]                                      ;5  2630
08035ECA BC30     pop     r4,r5                                        ;5  2635
08035ECC BC01     pop     r0                                           ;4  2639
08035ECE 4700     bx      r0                                           ;8  2647
08035ED0 0738     lsl     r0,r7,1Ch                                    ;2  2649
08035ED2 0300     lsl     r0,r0,0Ch                                    ;2  2651
08035ED4 B5F0     push    r4-r7,r14                                    ;9  2660
08035ED6 B081     add     sp,-4h                                       ;2  2662
08035ED8 4805     ldr     r0,=300083Ch                                 ;9  2671
08035EDA 7802     ldrb    r2,[r0]                                      ;4  2675
08035EDC 4805     ldr     r0,=3000738h                                 ;9  2684
08035EDE 8843     ldrh    r3,[r0,2h]                                   ;4  2688
08035EE0 8884     ldrh    r4,[r0,4h]                                   ;4  2692
08035EE2 8801     ldrh    r1,[r0]                                      ;4  2696
08035EE4 2040     mov     r0,40h                                       ;2  2698
08035EE6 4008     and     r0,r1                                        ;2  2700
08035EE8 2800     cmp     r0,0h                                        ;2  2702
08035EEA D009     beq     8035F00h                                     ;8  2710
08035EEC 1898     add     r0,r3,r2                                     ;2  2712
08035EEE E008     b       8035F02h                                     ;8  2720
08035EF0 083C     lsr     r4,r7,20h                                    ;2  2722
08035EF2 0300     lsl     r0,r0,0Ch                                    ;2  2724
08035EF4 0738     lsl     r0,r7,1Ch                                    ;2  2726
08035EF6 0300     lsl     r0,r0,0Ch                                    ;2  2728
08035EF8 1C58     add     r0,r3,1                                      ;2  2730
08035EFA 0600     lsl     r0,r0,18h                                    ;2  2732
08035EFC 0E03     lsr     r3,r0,18h                                    ;2  2734
08035EFE E02F     b       8035F60h                                     ;8  2742
08035F00 1A98     sub     r0,r3,r2                                     ;2  2744
08035F02 0400     lsl     r0,r0,10h                                    ;2  2746
08035F04 0C03     lsr     r3,r0,10h                                    ;2  2748
08035F06 1C22     mov     r2,r4                                        ;2  2750
08035F08 3224     add     r2,24h                                       ;2  2752
08035F0A 2029     mov     r0,29h                                       ;2  2754
08035F0C 9000     str     r0,[sp]                                      ;5  2759
08035F0E 2000     mov     r0,0h                                        ;2  2761
08035F10 1C19     mov     r1,r3                                        ;2  2763
08035F12 2301     mov     r3,1h                                        ;2  2765
08035F14 F7DBF8B6 bl      8011084h                                     ;10 2775
08035F18 2064     mov     r0,64h                                       ;2  2777
08035F1A 4684     mov     r12,r0                                       ;2  2779
08035F1C 2765     mov     r7,65h                                       ;2  2781
08035F1E 2662     mov     r6,62h                                       ;2  2783
08035F20 2501     mov     r5,1h                                        ;2  2785
08035F22 2480     mov     r4,80h                                       ;2  2787
08035F24 2300     mov     r3,0h                                        ;2  2789
08035F26 4914     ldr     r1,=30001ACh                                 ;9  2798
08035F28 22A8     mov     r2,0A8h                                      ;2  2800
08035F2A 00D2     lsl     r2,r2,3h                                     ;2  2802
08035F2C 1888     add     r0,r1,r2                                     ;2  2804
08035F2E 4281     cmp     r1,r0                                        ;2  2806
08035F30 D216     bcs     8035F60h                                     ;8  2814
08035F32 1C0A     mov     r2,r1                                        ;2  2816
08035F34 3224     add     r2,24h                                       ;2  2818
08035F36 8808     ldrh    r0,[r1]                                      ;4  2822
08035F38 4028     and     r0,r5                                        ;2  2824
08035F3A 2800     cmp     r0,0h                                        ;2  2826
08035F3C D00B     beq     8035F56h                                     ;8  2834
08035F3E 7B90     ldrb    r0,[r2,0Eh]                                  ;4  2838
08035F40 4020     and     r0,r4                                        ;2  2840
08035F42 2800     cmp     r0,0h                                        ;2  2842
08035F44 D107     bne     8035F56h                                     ;8  2850
08035F46 7F48     ldrb    r0,[r1,1Dh]                                  ;4  2854
08035F48 4560     cmp     r0,r12                                       ;2  2856
08035F4A D001     beq     8035F50h                                     ;8  2864
08035F4C 42B8     cmp     r0,r7                                        ;2  2866
08035F4E D102     bne     8035F56h                                     ;8  2874
08035F50 7810     ldrb    r0,[r2]                                      ;4  2878
08035F52 42B0     cmp     r0,r6                                        ;2  2880
08035F54 D3D0     bcc     8035EF8h                                     ;8  2888
08035F56 3238     add     r2,38h                                       ;2  2890
08035F58 3138     add     r1,38h                                       ;2  2892
08035F5A 4808     ldr     r0,=30006ECh                                 ;9  2901
08035F5C 4281     cmp     r1,r0                                        ;2  2903
08035F5E D3EA     bcc     8035F36h                                     ;8  2911
08035F60 2B00     cmp     r3,0h                                        ;2  2913
08035F62 D14F     bne     8036004h                                     ;8  2921
08035F64 4806     ldr     r0,=3000055h                                 ;9  2930
08035F66 7800     ldrb    r0,[r0]                                      ;4  2934
08035F68 3801     sub     r0,1h                                        ;2  2936
08035F6A 2812     cmp     r0,12h                                       ;2  2938
08035F6C D84A     bhi     8036004h                                     ;8  2946
08035F6E 0080     lsl     r0,r0,2h                                     ;2  2948
08035F70 4904     ldr     r1,=8035F88h                                 ;9  2957
08035F72 1840     add     r0,r0,r1                                     ;2  2959
08035F74 6800     ldr     r0,[r0]                                      ;4  2963
08035F76 4687     mov     r15,r0                                       ;2  2965
08035F78 01AC     lsl     r4,r5,6h                                     ;2  2967
08035F7A 0300     lsl     r0,r0,0Ch                                    ;2  2969
08035F7C 06EC     lsl     r4,r5,1Bh                                    ;2  2971
08035F7E 0300     lsl     r0,r0,0Ch                                    ;2  2973
08035F80 0055     lsl     r5,r2,1h                                     ;2  2975
08035F82 0300     lsl     r0,r0,0Ch                                    ;2  2977
08035F84 5F88     ldsh    r0,[r1,r6]                                   ;4  2981
08035F86 0803     lsr     r3,r0,20h                                    ;2  2983
08035F88 5FDA     ldsh    r2,[r3,r7]                                   ;4  2987
08035F8A 0803     lsr     r3,r0,20h                                    ;2  2989
08035F8C 5FE0     ldsh    r0,[r4,r7]                                   ;4  2993
08035F8E 0803     lsr     r3,r0,20h                                    ;2  2995
08035F90 6004     str     r4,[r0]                                      ;5  3000
08035F92 0803     lsr     r3,r0,20h                                    ;2  3002
08035F94 6004     str     r4,[r0]                                      ;5  3007
08035F96 0803     lsr     r3,r0,20h                                    ;2  3009
08035F98 6004     str     r4,[r0]                                      ;5  3014
08035F9A 0803     lsr     r3,r0,20h                                    ;2  3016
08035F9C 6004     str     r4,[r0]                                      ;5  3021
08035F9E 0803     lsr     r3,r0,20h                                    ;2  3023
08035FA0 6004     str     r4,[r0]                                      ;5  3028
08035FA2 0803     lsr     r3,r0,20h                                    ;2  3030
08035FA4 6004     str     r4,[r0]                                      ;5  3035
08035FA6 0803     lsr     r3,r0,20h                                    ;2  3037
08035FA8 6004     str     r4,[r0]                                      ;5  3042
08035FAA 0803     lsr     r3,r0,20h                                    ;2  3044
08035FAC 6004     str     r4,[r0]                                      ;5  3049
08035FAE 0803     lsr     r3,r0,20h                                    ;2  3051
08035FB0 6004     str     r4,[r0]                                      ;5  3056
08035FB2 0803     lsr     r3,r0,20h                                    ;2  3058
08035FB4 6004     str     r4,[r0]                                      ;5  3063
08035FB6 0803     lsr     r3,r0,20h                                    ;2  3065
08035FB8 6004     str     r4,[r0]                                      ;5  3070
08035FBA 0803     lsr     r3,r0,20h                                    ;2  3072
08035FBC 5FD4     ldsh    r4,[r2,r7]                                   ;4  3076
08035FBE 0803     lsr     r3,r0,20h                                    ;2  3078
08035FC0 5FE6     ldsh    r6,[r4,r7]                                   ;4  3082
08035FC2 0803     lsr     r3,r0,20h                                    ;2  3084
08035FC4 5FEC     ldsh    r4,[r5,r7]                                   ;4  3088
08035FC6 0803     lsr     r3,r0,20h                                    ;2  3090
08035FC8 6004     str     r4,[r0]                                      ;5  3095
08035FCA 0803     lsr     r3,r0,20h                                    ;2  3097
08035FCC 6004     str     r4,[r0]                                      ;5  3102
08035FCE 0803     lsr     r3,r0,20h                                    ;2  3104
08035FD0 5FF2     ldsh    r2,[r6,r7]                                   ;4  3108
08035FD2 0803     lsr     r3,r0,20h                                    ;2  3110
08035FD4 2001     mov     r0,1h                                        ;2  3112
08035FD6 2137     mov     r1,37h                                       ;2  3114
08035FD8 E00D     b       8035FF6h                                     ;8  3122
08035FDA 2001     mov     r0,1h                                        ;2  3124
08035FDC 2138     mov     r1,38h                                       ;2  3126
08035FDE E00A     b       8035FF6h                                     ;8  3134
08035FE0 2001     mov     r0,1h                                        ;2  3136
08035FE2 2139     mov     r1,39h                                       ;2  3138
08035FE4 E007     b       8035FF6h                                     ;8  3146
08035FE6 2001     mov     r0,1h                                        ;2  3148
08035FE8 213A     mov     r1,3Ah                                       ;2  3150
08035FEA E004     b       8035FF6h                                     ;8  3158
08035FEC 2001     mov     r0,1h                                        ;2  3160
08035FEE 213B     mov     r1,3Bh                                       ;2  3162
08035FF0 E001     b       8035FF6h                                     ;8  3170
08035FF2 2001     mov     r0,1h                                        ;2  3172
08035FF4 213C     mov     r1,3Ch                                       ;2  3174
08035FF6 F02AFC61 bl      80608BCh                                     ;10 3184
08035FFA 4904     ldr     r1,=300007Bh                                 ;9  3193
08035FFC 2214     mov     r2,14h                                       ;2  3195
08035FFE 4252     neg     r2,r2                                        ;2  3197
08036000 1C10     mov     r0,r2                                        ;2  3199
08036002 7008     strb    r0,[r1]                                      ;5  3204
08036004 B001     add     sp,4h                                        ;2  3206
08036006 BCF0     pop     r4-r7                                        ;7  3213
08036008 BC01     pop     r0                                           ;4  3217
0803600A 4700     bx      r0                                           ;8  3225
0803600C 007B     lsl     r3,r7,1h                                     ;2  3227
0803600E 0300     lsl     r0,r0,0Ch                                    ;2  3229
08036010 B510     push    r4,r14                                       ;6  3235
08036012 490B     ldr     r1,=3000738h                                 ;9  3244
08036014 1C0B     mov     r3,r1                                        ;2  3246
08036016 3332     add     r3,32h                                       ;2  3248
08036018 781A     ldrb    r2,[r3]                                      ;4  3252
0803601A 2402     mov     r4,2h                                        ;2  3254
0803601C 1C20     mov     r0,r4                                        ;2  3256
0803601E 4010     and     r0,r2                                        ;2  3258
08036020 2800     cmp     r0,0h                                        ;2  3260
08036022 D00F     beq     8036044h                                     ;8  3268
08036024 20FD     mov     r0,0FDh                                      ;2  3270
08036026 4010     and     r0,r2                                        ;2  3272
08036028 7018     strb    r0,[r3]                                      ;5  3277
0803602A 8809     ldrh    r1,[r1]                                      ;4  3281
0803602C 1C20     mov     r0,r4                                        ;2  3283
0803602E 4008     and     r0,r1                                        ;2  3285
08036030 2800     cmp     r0,0h                                        ;2  3287
08036032 D01E     beq     8036072h                                     ;8  3295
08036034 20B9     mov     r0,0B9h                                      ;2  3297
08036036 0040     lsl     r0,r0,1h                                     ;2  3299
08036038 F7CCFD72 bl      8002B20h                                     ;10 3309
0803603C E019     b       8036072h                                     ;8  3317
0803603E 0000     lsl     r0,r0,0h                                     ;2  3319
08036040 0738     lsl     r0,r7,1Ch                                    ;2  3321
08036042 0300     lsl     r0,r0,0Ch                                    ;2  3323
08036044 1C08     mov     r0,r1                                        ;2  3325
08036046 302B     add     r0,2Bh                                       ;2  3327
08036048 7800     ldrb    r0,[r0]                                      ;4  3331
0803604A 227F     mov     r2,7Fh                                       ;2  3333
0803604C 4002     and     r2,r0                                        ;2  3335
0803604E 2A02     cmp     r2,2h                                        ;2  3337
08036050 D10F     bne     8036072h                                     ;8  3345
08036052 8A88     ldrh    r0,[r1,14h]                                  ;4  3349
08036054 88CB     ldrh    r3,[r1,6h]                                   ;4  3353
08036056 4298     cmp     r0,r3                                        ;2  3355
08036058 D10A     bne     8036070h                                     ;8  3363
0803605A 8808     ldrh    r0,[r1]                                      ;4  3367
0803605C 4002     and     r2,r0                                        ;2  3369
0803605E 2A00     cmp     r2,0h                                        ;2  3371
08036060 D007     beq     8036072h                                     ;8  3379
08036062 4802     ldr     r0,=171h                                     ;9  3388
08036064 F7CCFD5C bl      8002B20h                                     ;10 3398
08036068 E003     b       8036072h                                     ;8  3406
0803606A 0000     lsl     r0,r0,0h                                     ;2  3408
0803606C 0171     lsl     r1,r6,5h                                     ;2  3410
0803606E 0000     lsl     r0,r0,0h                                     ;2  3412
08036070 80C8     strh    r0,[r1,6h]                                   ;5  3417
08036072 4A0C     ldr     r2,=3000738h                                 ;9  3426
08036074 1C10     mov     r0,r2                                        ;2  3428
08036076 3030     add     r0,30h                                       ;2  3430
08036078 7800     ldrb    r0,[r0]                                      ;4  3434
0803607A 2800     cmp     r0,0h                                        ;2  3436
0803607C D022     beq     80360C4h                                     ;8  3444
0803607E 480A     ldr     r0,=0FFD0h                                   ;9  3453
08036080 8150     strh    r0,[r2,0Ah]                                  ;5  3458
08036082 2028     mov     r0,28h                                       ;2  3460
08036084 8190     strh    r0,[r2,0Ch]                                  ;5  3465
08036086 4809     ldr     r0,=0FFC0h                                   ;9  3474
08036088 81D0     strh    r0,[r2,0Eh]                                  ;5  3479
0803608A 2040     mov     r0,40h                                       ;2  3481
0803608C 8210     strh    r0,[r2,10h]                                  ;5  3486
0803608E 2001     mov     r0,1h                                        ;2  3488
08036090 F7FFFB88 bl      80357A4h                                     ;10 3498
08036094 4806     ldr     r0,=300002Ch                                 ;9  3507
08036096 7800     ldrb    r0,[r0]                                      ;4  3511
08036098 2800     cmp     r0,0h                                        ;2  3513
0803609A D10B     bne     80360B4h                                     ;8  3521
0803609C F7D9FFD6 bl      801004Ch                                     ;10 3531
080360A0 E00A     b       80360B8h                                     ;8  3539
080360A2 0000     lsl     r0,r0,0h                                     ;2  3541
080360A4 0738     lsl     r0,r7,1Ch                                    ;2  3543
080360A6 0300     lsl     r0,r0,0Ch                                    ;2  3545
080360A8 FFD0     bl      lr+0FA0h                                     ;10 3555
080360AA 0000     lsl     r0,r0,0h                                     ;2  3557
080360AC FFC0     bl      lr+0F80h                                     ;10 3567
080360AE 0000     lsl     r0,r0,0h                                     ;2  3569
080360B0 002C     lsl     r4,r5,0h                                     ;2  3571
080360B2 0300     lsl     r0,r0,0Ch                                    ;2  3573
080360B4 F7D9FFF6 bl      80100A4h                                     ;10 3583
080360B8 4901     ldr     r1,=3000738h                                 ;9  3592
080360BA 2065     mov     r0,65h                                       ;2  3594
080360BC 7748     strb    r0,[r1,1Dh]                                  ;5  3599
080360BE E050     b       8036162h                                     ;8  3607
080360C0 0738     lsl     r0,r7,1Ch                                    ;2  3609
080360C2 0300     lsl     r0,r0,0Ch                                    ;2  3611
080360C4 7F50     ldrb    r0,[r2,1Dh]                                  ;4  3615
080360C6 2865     cmp     r0,65h                                       ;2  3617
080360C8 D10F     bne     80360EAh                                     ;8  3625
080360CA 490F     ldr     r1,=0FFD8h                                   ;9  3634
080360CC 8151     strh    r1,[r2,0Ah]                                  ;5  3639
080360CE 2020     mov     r0,20h                                       ;2  3641
080360D0 8190     strh    r0,[r2,0Ch]                                  ;5  3646
080360D2 81D1     strh    r1,[r2,0Eh]                                  ;5  3651
080360D4 2028     mov     r0,28h                                       ;2  3653
080360D6 8210     strh    r0,[r2,10h]                                  ;5  3658
080360D8 2064     mov     r0,64h                                       ;2  3660
080360DA 7750     strb    r0,[r2,1Dh]                                  ;5  3665
080360DC 1C11     mov     r1,r2                                        ;2  3667
080360DE 3124     add     r1,24h                                       ;2  3669
080360E0 7808     ldrb    r0,[r1]                                      ;4  3673
080360E2 2861     cmp     r0,61h                                       ;2  3675
080360E4 D801     bhi     80360EAh                                     ;8  3683
080360E6 2008     mov     r0,8h                                        ;2  3685
080360E8 7008     strb    r0,[r1]                                      ;5  3690
080360EA 4808     ldr     r0,=3000738h                                 ;9  3699
080360EC 3024     add     r0,24h                                       ;2  3701
080360EE 7800     ldrb    r0,[r0]                                      ;4  3705
080360F0 2808     cmp     r0,8h                                        ;2  3707
080360F2 D025     beq     8036140h                                     ;8  3715
080360F4 2808     cmp     r0,8h                                        ;2  3717
080360F6 DC0E     bgt     8036116h                                     ;8  3725
080360F8 2801     cmp     r0,1h                                        ;2  3727
080360FA D01B     beq     8036134h                                     ;8  3735
080360FC 2801     cmp     r0,1h                                        ;2  3737
080360FE DC07     bgt     8036110h                                     ;8  3745
08036100 2800     cmp     r0,0h                                        ;2  3747
08036102 D014     beq     803612Eh                                     ;8  3755
08036104 E028     b       8036158h                                     ;8  3763
08036106 0000     lsl     r0,r0,0h                                     ;2  3765
08036108 FFD8     bl      lr+0FB0h                                     ;10 3775
0803610A 0000     lsl     r0,r0,0h                                     ;2  3777
0803610C 0738     lsl     r0,r7,1Ch                                    ;2  3779
0803610E 0300     lsl     r0,r0,0Ch                                    ;2  3781
08036110 2802     cmp     r0,2h                                        ;2  3783
08036112 D012     beq     803613Ah                                     ;8  3791
08036114 E020     b       8036158h                                     ;8  3799
08036116 2842     cmp     r0,42h                                       ;2  3801
08036118 D017     beq     803614Ah                                     ;8  3809
0803611A 2842     cmp     r0,42h                                       ;2  3811
0803611C DC02     bgt     8036124h                                     ;8  3819
0803611E 2809     cmp     r0,9h                                        ;2  3821
08036120 D010     beq     8036144h                                     ;8  3829
08036122 E019     b       8036158h                                     ;8  3837
08036124 2843     cmp     r0,43h                                       ;2  3839
08036126 D012     beq     803614Eh                                     ;8  3847
08036128 2862     cmp     r0,62h                                       ;2  3849
0803612A D013     beq     8036154h                                     ;8  3857
0803612C E014     b       8036158h                                     ;8  3865
0803612E F7FFFC4F bl      80359D0h                                     ;10 3875
08036132 E011     b       8036158h                                     ;8  3883
08036134 F7FFFD0E bl      8035B54h                                     ;10 3893
08036138 E00E     b       8036158h                                     ;8  3901
0803613A F7FFFD2D bl      8035B98h                                     ;10 3911
0803613E E00B     b       8036158h                                     ;8  3919
08036140 F7FFFD98 bl      8035C74h                                     ;10 3929
08036144 F7FFFDB0 bl      8035CA8h                                     ;10 3939
08036148 E006     b       8036158h                                     ;8  3947
0803614A F7FFFDED bl      8035D28h                                     ;10 3957
0803614E F7FFFE0D bl      8035D6Ch                                     ;10 3967
08036152 E001     b       8036158h                                     ;8  3975
08036154 F7FFFEBE bl      8035ED4h                                     ;10 3985
08036158 4A03     ldr     r2,=3000738h                                 ;9  3994
0803615A 8811     ldrh    r1,[r2]                                      ;4  3998
0803615C 4803     ldr     r0,=0F7FFh                                   ;9  4007
0803615E 4008     and     r0,r1                                        ;2  4009
08036160 8010     strh    r0,[r2]                                      ;5  4014
08036162 BC10     pop     r4                                           ;4  4018
08036164 BC01     pop     r0                                           ;4  4022
08036166 4700     bx      r0                                           ;8  4030
