

08012818 B500     push    r14                                     
0801281A 4A0E     ldr     r2,=30006BCh                            
0801281C 1C10     mov     r0,r2                                   
0801281E 3024     add     r0,24h                                  
08012820 7800     ldrb    r0,[r0]   ;读取pose                               
08012822 2800     cmp     r0,0h                                   
08012824 D113     bne     @@end     ;不为0则结束                           
08012826 1C10     mov     r0,r2                                   
08012828 302A     add     r0,2Ah                                  
0801282A 7803     ldrb    r3,[r0]                                 
0801282C 8811     ldrh    r1,[r2]                                 
0801282E 2080     mov     r0,80h                                  
08012830 0180     lsl     r0,r0,6h   ;2000h                             
08012832 4008     and     r0,r1                                   
08012834 2800     cmp     r0,0h                                   
08012836 D105     bne     8012844h                                
08012838 1C18     mov     r0,r3                                   
0801283A 3810     sub     r0,10h                                  
0801283C 0600     lsl     r0,r0,18h                               
0801283E 0E00     lsr     r0,r0,18h                               
08012840 280F     cmp     r0,0Fh                                  
08012842 D804     bhi     @@end 

                               
08012844 3234     add     r2,34h                                  
08012846 7811     ldrb    r1,[r2]                                 
08012848 2002     mov     r0,2h                                   
0801284A 4308     orr     r0,r1                                   
0801284C 7010     strb    r0,[r2]

@@end:                                 
0801284E BC01     pop     r0                                      
08012850 4700     bx      r0  


;pose 0调用
0804BDF0 B530     push    r4,r5,r14                               
0804BDF2 F7C6FD11 bl      8012818h                                
0804BDF6 4A09     ldr     r2,=30006BCh                            
0804BDF8 1C10     mov     r0,r2                                   
0804BDFA 3034     add     r0,34h                                  
0804BDFC 7801     ldrb    r1,[r0]                                 
0804BDFE 2002     mov     r0,2h                                   
0804BE00 4008     and     r0,r1                                   
0804BE02 2800     cmp     r0,0h                                   
0804BE04 D00C     beq     804BE20h                                
0804BE06 8811     ldrh    r1,[r2]                                 
0804BE08 2080     mov     r0,80h                                  
0804BE0A 0180     lsl     r0,r0,6h                                
0804BE0C 4008     and     r0,r1                                   
0804BE0E 0400     lsl     r0,r0,10h                               
0804BE10 0C00     lsr     r0,r0,10h                               
0804BE12 2800     cmp     r0,0h                                   
0804BE14 D104     bne     804BE20h                                
0804BE16 8010     strh    r0,[r2]                                 
0804BE18 E03E     b       804BE98h                                
0804BE1A 0000     lsl     r0,r0,0h                                
0804BE1C 06BC     lsl     r4,r7,1Ah                               
0804BE1E 0300     lsl     r0,r0,0Ch                               
0804BE20 4819     ldr     r0,=30006BCh                            
0804BE22 4684     mov     r12,r0                                  
0804BE24 3027     add     r0,27h                                  
0804BE26 2400     mov     r4,0h                                   
0804BE28 2210     mov     r2,10h                                  
0804BE2A 7002     strb    r2,[r0]                                 
0804BE2C 4661     mov     r1,r12                                  
0804BE2E 3128     add     r1,28h                                  
0804BE30 2308     mov     r3,8h                                   
0804BE32 2008     mov     r0,8h                                   
0804BE34 7008     strb    r0,[r1]                                 
0804BE36 4660     mov     r0,r12                                  
0804BE38 3029     add     r0,29h                                  
0804BE3A 7002     strb    r2,[r0]                                 
0804BE3C 2500     mov     r5,0h                                   
0804BE3E 4813     ldr     r0,=0FFC0h                              
0804BE40 4661     mov     r1,r12                                  
0804BE42 8148     strh    r0,[r1,0Ah]                             
0804BE44 818C     strh    r4,[r1,0Ch]                             
0804BE46 3020     add     r0,20h                                  
0804BE48 81C8     strh    r0,[r1,0Eh]                             
0804BE4A 2020     mov     r0,20h                                  
0804BE4C 8208     strh    r0,[r1,10h]                             
0804BE4E 770D     strb    r5,[r1,1Ch]                             
0804BE50 82CC     strh    r4,[r1,16h]                             
0804BE52 4A0F     ldr     r2,=82E4D4Ch                            
0804BE54 7F49     ldrb    r1,[r1,1Dh]                             
0804BE56 00C8     lsl     r0,r1,3h                                
0804BE58 1A40     sub     r0,r0,r1                                
0804BE5A 0040     lsl     r0,r0,1h                                
0804BE5C 1880     add     r0,r0,r2                                
0804BE5E 8800     ldrh    r0,[r0]                                 
0804BE60 4661     mov     r1,r12                                  
0804BE62 8288     strh    r0,[r1,14h]                             
0804BE64 3134     add     r1,34h                                  
0804BE66 7808     ldrb    r0,[r1]                                 
0804BE68 4303     orr     r3,r0                                   
0804BE6A 700B     strb    r3,[r1]                                 
0804BE6C 4660     mov     r0,r12                                  
0804BE6E 3025     add     r0,25h                                  
0804BE70 7005     strb    r5,[r0]                                 
0804BE72 3910     sub     r1,10h                                  
0804BE74 7808     ldrb    r0,[r1]                                 
0804BE76 2859     cmp     r0,59h                                  
0804BE78 D10C     bne     804BE94h                                
0804BE7A 205A     mov     r0,5Ah                                  
0804BE7C 7008     strb    r0,[r1]                                 
0804BE7E 202C     mov     r0,2Ch                                  
0804BE80 4661     mov     r1,r12                                  
0804BE82 80C8     strh    r0,[r1,6h]                              
0804BE84 E008     b       804BE98h                                
0804BE86 0000     lsl     r0,r0,0h                                
0804BE88 06BC     lsl     r4,r7,1Ah                               
0804BE8A 0300     lsl     r0,r0,0Ch                               
0804BE8C FFC0     bl      lr+0F80h                                
0804BE8E 0000     lsl     r0,r0,0h                                
0804BE90 4D4C     ldr     r5,=7008201Bh                           
0804BE92 082E     lsr     r6,r5,20h                               
0804BE94 2001     mov     r0,1h                                   
0804BE96 7008     strb    r0,[r1]                                 
0804BE98 BC30     pop     r4,r5                                   
0804BE9A BC01     pop     r0                                      
0804BE9C 4700     bx      r0                                      
0804BE9E 0000     lsl     r0,r0,0h                                
0804BEA0 4904     ldr     r1,=30006BCh                            
0804BEA2 1C0B     mov     r3,r1                                   
0804BEA4 3324     add     r3,24h                                  
0804BEA6 2200     mov     r2,0h                                   
0804BEA8 2002     mov     r0,2h                                   
0804BEAA 7018     strb    r0,[r3]                                 
0804BEAC 770A     strb    r2,[r1,1Ch]                             
0804BEAE 82CA     strh    r2,[r1,16h]                             
0804BEB0 4770     bx      r14                                     
0804BEB2 0000     lsl     r0,r0,0h                                
0804BEB4 06BC     lsl     r4,r7,1Ah                               
0804BEB6 0300     lsl     r0,r0,0Ch                               
0804BEB8 B510     push    r4,r14                                  
0804BEBA 4C0A     ldr     r4,=30006BCh                            
0804BEBC 8821     ldrh    r1,[r4]                                 
0804BEBE 2080     mov     r0,80h                                  
0804BEC0 0180     lsl     r0,r0,6h                                
0804BEC2 4008     and     r0,r1                                   
0804BEC4 2800     cmp     r0,0h                                   
0804BEC6 D10A     bne     804BEDEh                                
0804BEC8 20C0     mov     r0,0C0h                                 
0804BECA 21C0     mov     r1,0C0h                                 
0804BECC F7C5FE2A bl      8011B24h                                
0804BED0 0600     lsl     r0,r0,18h                               
0804BED2 2800     cmp     r0,0h                                   
0804BED4 D003     beq     804BEDEh                                
0804BED6 1C21     mov     r1,r4                                   
0804BED8 3124     add     r1,24h                                  
0804BEDA 2017     mov     r0,17h                                  
0804BEDC 7008     strb    r0,[r1]                                 
0804BEDE BC10     pop     r4                                      
0804BEE0 BC01     pop     r0                                      
0804BEE2 4700     bx      r0                                      
0804BEE4 06BC     lsl     r4,r7,1Ah                               
0804BEE6 0300     lsl     r0,r0,0Ch                               
0804BEE8 4B0C     ldr     r3,=30006BCh                            
0804BEEA 1C1A     mov     r2,r3                                   
0804BEEC 3224     add     r2,24h                                  
0804BEEE 2100     mov     r1,0h                                   
0804BEF0 2018     mov     r0,18h                                  
0804BEF2 7010     strb    r0,[r2]                                 
0804BEF4 7719     strb    r1,[r3,1Ch]                             
0804BEF6 82D9     strh    r1,[r3,16h]                             
0804BEF8 1C19     mov     r1,r3                                   
0804BEFA 3125     add     r1,25h                                  
0804BEFC 2002     mov     r0,2h                                   
0804BEFE 7008     strb    r0,[r1]                                 
0804BF00 3210     add     r2,10h                                  
0804BF02 7811     ldrb    r1,[r2]                                 
0804BF04 20F7     mov     r0,0F7h                                 
0804BF06 4008     and     r0,r1                                   
0804BF08 7010     strb    r0,[r2]                                 
0804BF0A 4805     ldr     r0,=3000070h                            
0804BF0C 7A81     ldrb    r1,[r0,0Ah]                             
0804BF0E 2003     mov     r0,3h                                   
0804BF10 4008     and     r0,r1                                   
0804BF12 1C19     mov     r1,r3                                   
0804BF14 3121     add     r1,21h                                  
0804BF16 7008     strb    r0,[r1]                                 
0804BF18 4770     bx      r14                                     
0804BF1A 0000     lsl     r0,r0,0h                                
0804BF1C 06BC     lsl     r4,r7,1Ah                               
0804BF1E 0300     lsl     r0,r0,0Ch                               
0804BF20 0070     lsl     r0,r6,1h                                
0804BF22 0300     lsl     r0,r0,0Ch                               
0804BF24 B500     push    r14                                     
0804BF26 F7C5FD21 bl      801196Ch                                
0804BF2A 2800     cmp     r0,0h                                   
0804BF2C D003     beq     804BF36h                                
0804BF2E 4803     ldr     r0,=30006BCh                            
0804BF30 3024     add     r0,24h                                  
0804BF32 2119     mov     r1,19h                                  
0804BF34 7001     strb    r1,[r0]                                 
0804BF36 BC01     pop     r0                                      
0804BF38 4700     bx      r0                                      
0804BF3A 0000     lsl     r0,r0,0h                                
0804BF3C 06BC     lsl     r4,r7,1Ah                               
0804BF3E 0300     lsl     r0,r0,0Ch                               
0804BF40 4B08     ldr     r3,=30006BCh                            
0804BF42 1C1A     mov     r2,r3                                   
0804BF44 3224     add     r2,24h                                  
0804BF46 2100     mov     r1,0h                                   
0804BF48 201A     mov     r0,1Ah                                  
0804BF4A 7010     strb    r0,[r2]                                 
0804BF4C 1C18     mov     r0,r3                                   
0804BF4E 3031     add     r0,31h                                  
0804BF50 7001     strb    r1,[r0]                                 
0804BF52 320A     add     r2,0Ah                                  
0804BF54 203C     mov     r0,3Ch                                  
0804BF56 7010     strb    r0,[r2]                                 
0804BF58 3201     add     r2,1h                                   
0804BF5A 7010     strb    r0,[r2]                                 
0804BF5C 7719     strb    r1,[r3,1Ch]                             
0804BF5E 82D9     strh    r1,[r3,16h]                             
0804BF60 4770     bx      r14                                     
0804BF62 0000     lsl     r0,r0,0h                                
0804BF64 06BC     lsl     r4,r7,1Ah                               
0804BF66 0300     lsl     r0,r0,0Ch                               
0804BF68 B570     push    r4-r6,r14                               
0804BF6A 4A06     ldr     r2,=30006BCh                            
0804BF6C 1C11     mov     r1,r2                                   
0804BF6E 312E     add     r1,2Eh                                  
0804BF70 7808     ldrb    r0,[r1]                                 
0804BF72 2800     cmp     r0,0h                                   
0804BF74 D008     beq     804BF88h                                
0804BF76 3801     sub     r0,1h                                   
0804BF78 7008     strb    r0,[r1]                                 
0804BF7A 8850     ldrh    r0,[r2,2h]                              
0804BF7C 3804     sub     r0,4h                                   
0804BF7E 8050     strh    r0,[r2,2h]                              
0804BF80 E022     b       804BFC8h                                
0804BF82 0000     lsl     r0,r0,0h                                
0804BF84 06BC     lsl     r4,r7,1Ah                               
0804BF86 0300     lsl     r0,r0,0Ch                               
0804BF88 2031     mov     r0,31h                                  
0804BF8A 1880     add     r0,r0,r2                                
0804BF8C 4684     mov     r12,r0                                  
0804BF8E 7803     ldrb    r3,[r0]                                 
0804BF90 4D0F     ldr     r5,=837CEECh                            
0804BF92 0058     lsl     r0,r3,1h                                
0804BF94 1940     add     r0,r0,r5                                
0804BF96 8804     ldrh    r4,[r0]                                 
0804BF98 2600     mov     r6,0h                                   
0804BF9A 5F81     ldsh    r1,[r0,r6]                              
0804BF9C 480D     ldr     r0,=7FFFh                               
0804BF9E 4281     cmp     r1,r0                                   
0804BFA0 D101     bne     804BFA6h                                
0804BFA2 882C     ldrh    r4,[r5]                                 
0804BFA4 2300     mov     r3,0h                                   
0804BFA6 1C58     add     r0,r3,1                                 
0804BFA8 4661     mov     r1,r12                                  
0804BFAA 7008     strb    r0,[r1]                                 
0804BFAC 8850     ldrh    r0,[r2,2h]                              
0804BFAE 1900     add     r0,r0,r4                                
0804BFB0 8050     strh    r0,[r2,2h]                              
0804BFB2 1C11     mov     r1,r2                                   
0804BFB4 312F     add     r1,2Fh                                  
0804BFB6 7808     ldrb    r0,[r1]                                 
0804BFB8 3801     sub     r0,1h                                   
0804BFBA 7008     strb    r0,[r1]                                 
0804BFBC 0600     lsl     r0,r0,18h                               
0804BFBE 2800     cmp     r0,0h                                   
0804BFC0 D102     bne     804BFC8h                                
0804BFC2 390B     sub     r1,0Bh                                  
0804BFC4 201B     mov     r0,1Bh                                  
0804BFC6 7008     strb    r0,[r1]                                 
0804BFC8 BC70     pop     r4-r6                                   
0804BFCA BC01     pop     r0                                      
0804BFCC 4700     bx      r0                                      
0804BFCE 0000     lsl     r0,r0,0h                                
0804BFD0 CEEC     ldmia   [r6]!,r2,r3,r5-r7                       
0804BFD2 0837     lsr     r7,r6,20h                               
0804BFD4 7FFF     ldrb    r7,[r7,1Fh]                             
0804BFD6 0000     lsl     r0,r0,0h                                
0804BFD8 480B     ldr     r0,=30006BCh                            
0804BFDA 4684     mov     r12,r0                                  
0804BFDC 4661     mov     r1,r12                                  
0804BFDE 3124     add     r1,24h                                  
0804BFE0 2200     mov     r2,0h                                   
0804BFE2 201C     mov     r0,1Ch                                  
0804BFE4 7008     strb    r0,[r1]                                 
0804BFE6 2300     mov     r3,0h                                   
0804BFE8 2096     mov     r0,96h                                  
0804BFEA 0040     lsl     r0,r0,1h                                
0804BFEC 4661     mov     r1,r12                                  
0804BFEE 80C8     strh    r0,[r1,6h]                              

0804C332 E005     b       804C340h                                
0804C334 F015FB00 bl      8061938h                                
0804C338 4902     ldr     r1,=30006BCh                            
0804C33A 8848     ldrh    r0,[r1,2h]                              
0804C33C 3820     sub     r0,20h                                  
0804C33E 8048     strh    r0,[r1,2h]                              
0804C340 BC01     pop     r0                                      
0804C342 4700     bx      r0                                      
0804C344 06BC     lsl     r4,r7,1Ah                               
0804C346 0300     lsl     r0,r0,0Ch                               
0804C348 B500     push    r14                                     
0804C34A 4805     ldr     r0,=30006BCh                            
0804C34C 1C01     mov     r1,r0                                   
0804C34E 3132     add     r1,32h                                  
0804C350 7809     ldrb    r1,[r1]                                 
0804C352 1C02     mov     r2,r0                                   
0804C354 2900     cmp     r1,0h                                   
0804C356 D005     beq     804C364h                                
0804C358 F7C5FD74 bl      8011E44h                                
0804C35C E108     b       804C570h                                
0804C35E 0000     lsl     r0,r0,0h                                
0804C360 06BC     lsl     r4,r7,1Ah                               
0804C362 0300     lsl     r0,r0,0Ch                               
0804C364 1C10     mov     r0,r2                                   
0804C366 3024     add     r0,24h                                  
0804C368 7800     ldrb    r0,[r0]                                 
0804C36A 285B     cmp     r0,5Bh                                  
0804C36C D900     bls     804C370h                                
0804C36E E0FF     b       804C570h                                
0804C370 0080     lsl     r0,r0,2h                                
0804C372 4902     ldr     r1,=804C380h                            
0804C374 1840     add     r0,r0,r1                                
0804C376 6800     ldr     r0,[r0]                                 
0804C378 4687     mov     r15,r0                                  
0804C37A 0000     lsl     r0,r0,0h                                
0804C37C C380     stmia   [r3]!,r7                                
0804C37E 0804     lsr     r4,r0,20h                               
0804C380 C4F0     stmia   [r4]!,r4-r7                             
0804C382 0804     lsr     r4,r0,20h                               
0804C384 C504     stmia   [r5]!,r2                                
0804C386 0804     lsr     r4,r0,20h                               
0804C388 C50C     stmia   [r5]!,r2,r3                             
0804C38A 0804     lsr     r4,r0,20h                               
0804C38C C570     stmia   [r5]!,r4-r6                             
0804C38E 0804     lsr     r4,r0,20h                               
0804C390 C570     stmia   [r5]!,r4-r6                             
0804C392 0804     lsr     r4,r0,20h                               
0804C394 C570     stmia   [r5]!,r4-r6                             
0804C396 0804     lsr     r4,r0,20h                               
0804C398 C570     stmia   [r5]!,r4-r6                             
0804C39A 0804     lsr     r4,r0,20h                               
0804C39C C570     stmia   [r5]!,r4-r6                             
0804C39E 0804     lsr     r4,r0,20h                               
0804C3A0 C570     stmia   [r5]!,r4-r6                             
0804C3A2 0804     lsr     r4,r0,20h                               
0804C3A4 C570     stmia   [r5]!,r4-r6                             
0804C3A6 0804     lsr     r4,r0,20h                               
0804C3A8 C570     stmia   [r5]!,r4-r6                             
0804C3AA 0804     lsr     r4,r0,20h                               
0804C3AC C570     stmia   [r5]!,r4-r6                             
0804C3AE 0804     lsr     r4,r0,20h                               
0804C3B0 C570     stmia   [r5]!,r4-r6                             
0804C3B2 0804     lsr     r4,r0,20h                               
0804C3B4 C570     stmia   [r5]!,r4-r6                             
0804C3B6 0804     lsr     r4,r0,20h                               
0804C3B8 C570     stmia   [r5]!,r4-r6                             
0804C3BA 0804     lsr     r4,r0,20h                               
0804C3BC C570     stmia   [r5]!,r4-r6                             
0804C3BE 0804     lsr     r4,r0,20h                               
0804C3C0 C570     stmia   [r5]!,r4-r6                             
0804C3C2 0804     lsr     r4,r0,20h                               
0804C3C4 C570     stmia   [r5]!,r4-r6                             
0804C3C6 0804     lsr     r4,r0,20h                               
0804C3C8 C570     stmia   [r5]!,r4-r6                             
0804C3CA 0804     lsr     r4,r0,20h                               
0804C3CC C570     stmia   [r5]!,r4-r6                             
0804C3CE 0804     lsr     r4,r0,20h                               
0804C3D0 C570     stmia   [r5]!,r4-r6                             
0804C3D2 0804     lsr     r4,r0,20h                               
0804C3D4 C570     stmia   [r5]!,r4-r6                             
0804C3D6 0804     lsr     r4,r0,20h                               
0804C3D8 C570     stmia   [r5]!,r4-r6                             
0804C3DA 0804     lsr     r4,r0,20h                               
0804C3DC C518     stmia   [r5]!,r3,r4                             
0804C3DE 0804     lsr     r4,r0,20h                               
0804C3E0 C520     stmia   [r5]!,r5                                
0804C3E2 0804     lsr     r4,r0,20h                               
0804C3E4 C52C     stmia   [r5]!,r2,r3,r5                          
0804C3E6 0804     lsr     r4,r0,20h                               
0804C3E8 C534     stmia   [r5]!,r2,r4,r5                          
0804C3EA 0804     lsr     r4,r0,20h                               
0804C3EC C540     stmia   [r5]!,r6                                
0804C3EE 0804     lsr     r4,r0,20h                               
0804C3F0 C544     stmia   [r5]!,r2,r6                             
0804C3F2 0804     lsr     r4,r0,20h                               
0804C3F4 C570     stmia   [r5]!,r4-r6                             
0804C3F6 0804     lsr     r4,r0,20h                               
0804C3F8 C54A     stmia   [r5]!,r1,r3,r6                          
0804C3FA 0804     lsr     r4,r0,20h                               
0804C3FC C570     stmia   [r5]!,r4-r6                             
0804C3FE 0804     lsr     r4,r0,20h                               
0804C400 C570     stmia   [r5]!,r4-r6                             
0804C402 0804     lsr     r4,r0,20h                               
0804C404 C570     stmia   [r5]!,r4-r6                             
0804C406 0804     lsr     r4,r0,20h                               
0804C408 C570     stmia   [r5]!,r4-r6                             
0804C40A 0804     lsr     r4,r0,20h                               
0804C40C C570     stmia   [r5]!,r4-r6                             
0804C40E 0804     lsr     r4,r0,20h                               
0804C410 C570     stmia   [r5]!,r4-r6                             
0804C412 0804     lsr     r4,r0,20h                               
0804C414 C570     stmia   [r5]!,r4-r6                             
0804C416 0804     lsr     r4,r0,20h                               
0804C418 C570     stmia   [r5]!,r4-r6                             
0804C41A 0804     lsr     r4,r0,20h                               
0804C41C C570     stmia   [r5]!,r4-r6                             
0804C41E 0804     lsr     r4,r0,20h                               
0804C420 C570     stmia   [r5]!,r4-r6                             
0804C422 0804     lsr     r4,r0,20h                               
0804C424 C570     stmia   [r5]!,r4-r6                             
0804C426 0804     lsr     r4,r0,20h                               
0804C428 C570     stmia   [r5]!,r4-r6                             
0804C42A 0804     lsr     r4,r0,20h                               
0804C42C C570     stmia   [r5]!,r4-r6                             
0804C42E 0804     lsr     r4,r0,20h                               
0804C430 C570     stmia   [r5]!,r4-r6                             
0804C432 0804     lsr     r4,r0,20h                               
0804C434 C570     stmia   [r5]!,r4-r6                             
0804C436 0804     lsr     r4,r0,20h                               
0804C438 C570     stmia   [r5]!,r4-r6                             
0804C43A 0804     lsr     r4,r0,20h                               
0804C43C C570     stmia   [r5]!,r4-r6                             
0804C43E 0804     lsr     r4,r0,20h                               
0804C440 C570     stmia   [r5]!,r4-r6                             
0804C442 0804     lsr     r4,r0,20h                               
0804C444 C570     stmia   [r5]!,r4-r6                             
0804C446 0804     lsr     r4,r0,20h                               
0804C448 C570     stmia   [r5]!,r4-r6                             
0804C44A 0804     lsr     r4,r0,20h                               
0804C44C C570     stmia   [r5]!,r4-r6                             
0804C44E 0804     lsr     r4,r0,20h                               
0804C450 C570     stmia   [r5]!,r4-r6                             
0804C452 0804     lsr     r4,r0,20h                               
0804C454 C570     stmia   [r5]!,r4-r6                             
0804C456 0804     lsr     r4,r0,20h                               
0804C458 C570     stmia   [r5]!,r4-r6                             
0804C45A 0804     lsr     r4,r0,20h                               
0804C45C C570     stmia   [r5]!,r4-r6                             
0804C45E 0804     lsr     r4,r0,20h                               
0804C460 C570     stmia   [r5]!,r4-r6                             
0804C462 0804     lsr     r4,r0,20h                               
0804C464 C570     stmia   [r5]!,r4-r6                             
0804C466 0804     lsr     r4,r0,20h                               
0804C468 C570     stmia   [r5]!,r4-r6                             
0804C46A 0804     lsr     r4,r0,20h                               
0804C46C C570     stmia   [r5]!,r4-r6                             
0804C46E 0804     lsr     r4,r0,20h                               
0804C470 C570     stmia   [r5]!,r4-r6                             
0804C472 0804     lsr     r4,r0,20h                               
0804C474 C570     stmia   [r5]!,r4-r6                             
0804C476 0804     lsr     r4,r0,20h                               
0804C478 C570     stmia   [r5]!,r4-r6                             
0804C47A 0804     lsr     r4,r0,20h                               
0804C47C C570     stmia   [r5]!,r4-r6                             
0804C47E 0804     lsr     r4,r0,20h                               
0804C480 C570     stmia   [r5]!,r4-r6                             
0804C482 0804     lsr     r4,r0,20h                               
0804C484 C570     stmia   [r5]!,r4-r6                             
0804C486 0804     lsr     r4,r0,20h                               
0804C488 C570     stmia   [r5]!,r4-r6                             
0804C48A 0804     lsr     r4,r0,20h                               
0804C48C C570     stmia   [r5]!,r4-r6                             
0804C48E 0804     lsr     r4,r0,20h                               
0804C490 C570     stmia   [r5]!,r4-r6                             
0804C492 0804     lsr     r4,r0,20h                               
0804C494 C570     stmia   [r5]!,r4-r6                             
0804C496 0804     lsr     r4,r0,20h                               
0804C498 C570     stmia   [r5]!,r4-r6                             
0804C49A 0804     lsr     r4,r0,20h                               
0804C49C C570     stmia   [r5]!,r4-r6                             
0804C49E 0804     lsr     r4,r0,20h                               
0804C4A0 C570     stmia   [r5]!,r4-r6                             
0804C4A2 0804     lsr     r4,r0,20h                               
0804C4A4 C570     stmia   [r5]!,r4-r6                             
0804C4A6 0804     lsr     r4,r0,20h                               
0804C4A8 C570     stmia   [r5]!,r4-r6                             
0804C4AA 0804     lsr     r4,r0,20h                               
0804C4AC C570     stmia   [r5]!,r4-r6                             
0804C4AE 0804     lsr     r4,r0,20h                               
0804C4B0 C570     stmia   [r5]!,r4-r6                             
0804C4B2 0804     lsr     r4,r0,20h                               
0804C4B4 C570     stmia   [r5]!,r4-r6                             
0804C4B6 0804     lsr     r4,r0,20h                               
0804C4B8 C570     stmia   [r5]!,r4-r6                             
0804C4BA 0804     lsr     r4,r0,20h                               
0804C4BC C570     stmia   [r5]!,r4-r6                             
0804C4BE 0804     lsr     r4,r0,20h                               
0804C4C0 C570     stmia   [r5]!,r4-r6                             
0804C4C2 0804     lsr     r4,r0,20h                               
0804C4C4 C570     stmia   [r5]!,r4-r6                             
0804C4C6 0804     lsr     r4,r0,20h                               
0804C4C8 C570     stmia   [r5]!,r4-r6                             
0804C4CA 0804     lsr     r4,r0,20h                               
0804C4CC C570     stmia   [r5]!,r4-r6                             
0804C4CE 0804     lsr     r4,r0,20h                               
0804C4D0 C570     stmia   [r5]!,r4-r6                             
0804C4D2 0804     lsr     r4,r0,20h                               
0804C4D4 C570     stmia   [r5]!,r4-r6                             
0804C4D6 0804     lsr     r4,r0,20h                               
0804C4D8 C570     stmia   [r5]!,r4-r6                             
0804C4DA 0804     lsr     r4,r0,20h                               
0804C4DC C550     stmia   [r5]!,r4,r6                             
0804C4DE 0804     lsr     r4,r0,20h                               
0804C4E0 C554     stmia   [r5]!,r2,r4,r6                          
0804C4E2 0804     lsr     r4,r0,20h                               
0804C4E4 C55A     stmia   [r5]!,r1,r3,r4,r6                       
0804C4E6 0804     lsr     r4,r0,20h                               
0804C4E8 C55E     stmia   [r5]!,r1-r4,r6                          
0804C4EA 0804     lsr     r4,r0,20h                               
0804C4EC C564     stmia   [r5]!,r2,r5,r6                          
0804C4EE 0804     lsr     r4,r0,20h                               
0804C4F0 F7FFFC7E bl      804BDF0h                                
0804C4F4 4901     ldr     r1,=30006BCh                            
0804C4F6 4802     ldr     r0,=837E214h                            
0804C4F8 6188     str     r0,[r1,18h]                             
0804C4FA E039     b       804C570h                                
0804C4FC 06BC     lsl     r4,r7,1Ah                               
0804C4FE 0300     lsl     r0,r0,0Ch                               
0804C500 E214     b       804C92Ch                                
0804C502 0837     lsr     r7,r6,20h                               
0804C504 4803     ldr     r0,=837E214h                            
0804C506 6190     str     r0,[r2,18h]                             
0804C508 F7FFFCCA bl      804BEA0h                                
0804C50C F7FFFCD4 bl      804BEB8h                                
0804C510 E02E     b       804C570h                                
0804C512 0000     lsl     r0,r0,0h                                
0804C514 E214     b       804C940h                                
0804C516 0837     lsr     r7,r6,20h                               
0804C518 4803     ldr     r0,=837E23Ch                            
0804C51A 6190     str     r0,[r2,18h]                             
0804C51C F7FFFCE4 bl      804BEE8h                                
0804C520 F7FFFD00 bl      804BF24h                                
0804C524 E024     b       804C570h                                
0804C526 0000     lsl     r0,r0,0h                                
0804C528 E23C     b       804C9A4h                                
0804C52A 0837     lsr     r7,r6,20h                               
0804C52C 4803     ldr     r0,=837E27Ch                            
0804C52E 6190     str     r0,[r2,18h]                             
0804C530 F7FFFD06 bl      804BF40h                                
0804C534 F7FFFD18 bl      804BF68h                                
0804C538 E01A     b       804C570h                                
0804C53A 0000     lsl     r0,r0,0h                                
0804C53C E27C     b       804CA38h                                
0804C53E 0837     lsr     r7,r6,20h                               
0804C540 F7FFFD4A bl      804BFD8h                                
0804C544 F7FFFD62 bl      804C00Ch                                
0804C548 E012     b       804C570h                                
0804C54A F7FFFDA9 bl      804C0A0h                                
0804C54E E00F     b       804C570h                                
0804C550 F015F8B6 bl      80616C0h                                
0804C554 F015F8CA bl      80616ECh                                
0804C558 E00A     b       804C570h                                
0804C55A F7FFFC49 bl      804BDF0h                                
0804C55E F015FEB9 bl      80622D4h                                
0804C562 E005     b       804C570h                                
0804C564 F015F9E8 bl      8061938h                                
0804C568 4902     ldr     r1,=30006BCh                            
0804C56A 8848     ldrh    r0,[r1,2h]                              
0804C56C 3820     sub     r0,20h                                  
0804C56E 8048     strh    r0,[r1,2h]                              
0804C570 BC01     pop     r0                                      
0804C572 4700     bx      r0                                      
0804C574 06BC     lsl     r4,r7,1Ah                               
0804C576 0300     lsl     r0,r0,0Ch                               
0804C578 B5F0     push    r4-r7,r14                               
0804C57A 4C20     ldr     r4,=30006BCh                            
0804C57C 1C21     mov     r1,r4                                   
0804C57E 3126     add     r1,26h                                  
0804C580 2001     mov     r0,1h                                   
0804C582 7008     strb    r0,[r1]                                 
0804C584 1C23     mov     r3,r4                                   
0804C586 3324     add     r3,24h                                  
0804C588 781E     ldrb    r6,[r3]                                 
0804C58A 2E00     cmp     r6,0h                                   
0804C58C D165     bne     804C65Ah                                
0804C58E 1C22     mov     r2,r4                                   
0804C590 3234     add     r2,34h                                  
0804C592 7810     ldrb    r0,[r2]                                 
0804C594 2101     mov     r1,1h                                   
0804C596 4308     orr     r0,r1                                   
0804C598 7010     strb    r0,[r2]                                 
0804C59A 7818     ldrb    r0,[r3]                                 
0804C59C 3001     add     r0,1h                                   
0804C59E 7018     strb    r0,[r3]                                 
0804C5A0 1C21     mov     r1,r4                                   
0804C5A2 3127     add     r1,27h                                  
0804C5A4 2018     mov     r0,18h                                  
0804C5A6 7008     strb    r0,[r1]                                 
0804C5A8 1C20     mov     r0,r4                                   
0804C5AA 3028     add     r0,28h                                  
0804C5AC 7006     strb    r6,[r0]                                 
0804C5AE 3102     add     r1,2h                                   
0804C5B0 2008     mov     r0,8h                                   
0804C5B2 7008     strb    r0,[r1]                                 
0804C5B4 2200     mov     r2,0h                                   
0804C5B6 4912     ldr     r1,=0FFFCh                              
0804C5B8 8161     strh    r1,[r4,0Ah]                             
0804C5BA 2004     mov     r0,4h                                   
0804C5BC 81A0     strh    r0,[r4,0Ch]                             
0804C5BE 81E1     strh    r1,[r4,0Eh]                             
0804C5C0 8220     strh    r0,[r4,10h]                             
0804C5C2 1C20     mov     r0,r4                                   
0804C5C4 3025     add     r0,25h                                  
0804C5C6 7002     strb    r2,[r0]                                 
0804C5C8 1C21     mov     r1,r4                                   
0804C5CA 3122     add     r1,22h                                  
0804C5CC 2010     mov     r0,10h                                  
0804C5CE 7008     strb    r0,[r1]                                 
0804C5D0 7722     strb    r2,[r4,1Ch]                             
0804C5D2 82E6     strh    r6,[r4,16h]                             
0804C5D4 1C20     mov     r0,r4                                   
0804C5D6 302A     add     r0,2Ah                                  
0804C5D8 7800     ldrb    r0,[r0]                                 
0804C5DA 250F     mov     r5,0Fh                                  
0804C5DC 4005     and     r5,r0                                   
0804C5DE 1C2F     mov     r7,r5                                   
0804C5E0 F02FFB06 bl      807BBF0h                                
0804C5E4 0600     lsl     r0,r0,18h                               
0804C5E6 21C0     mov     r1,0C0h                                 
0804C5E8 04C9     lsl     r1,r1,13h                               
0804C5EA 1840     add     r0,r0,r1                                
0804C5EC 0E00     lsr     r0,r0,18h                               
0804C5EE 4285     cmp     r5,r0                                   
0804C5F0 D132     bne     804C658h                                
0804C5F2 2D07     cmp     r5,7h                                   
0804C5F4 D108     bne     804C608h                                
0804C5F6 4803     ldr     r0,=837EDFCh                            
0804C5F8 61A0     str     r0,[r4,18h]                             
0804C5FA E02E     b       804C65Ah                                
0804C5FC 06BC     lsl     r4,r7,1Ah                               
0804C5FE 0300     lsl     r0,r0,0Ch                               
0804C600 FFFC     bl      lr+0FF8h                                
0804C602 0000     lsl     r0,r0,0h                                
0804C604 EDFC     ????                                            
0804C606 0837     lsr     r7,r6,20h                               
0804C608 2D08     cmp     r5,8h                                   
0804C60A D105     bne     804C618h                                
0804C60C 4801     ldr     r0,=837EE44h                            
0804C60E 61A0     str     r0,[r4,18h]                             
0804C610 E023     b       804C65Ah                                
0804C612 0000     lsl     r0,r0,0h                                
0804C614 EE44     ????                                            
0804C616 0837     lsr     r7,r6,20h                               



;主程序
0804C118 B500     push    r14                                     
0804C11A 4805     ldr     r0,=30006BCh                            
0804C11C 1C01     mov     r1,r0                                   
0804C11E 3132     add     r1,32h                                  
0804C120 7809     ldrb    r1,[r1]       ;读取敌人冰冻时间                            
0804C122 1C02     mov     r2,r0                                   
0804C124 2900     cmp     r1,0h                                   
0804C126 D005     beq     @@freezetimezero                                
0804C128 F7C5FE8C bl      8011E44h      ;冰冻例程??                           
0804C12C E108     b       @@end                                

@@freezetimezero:                              
0804C134 1C10     mov     r0,r2                                   
0804C136 3024     add     r0,24h                                  
0804C138 7800     ldrb    r0,[r0]       ;pose如果小于等于5B                          
0804C13A 285B     cmp     r0,5Bh                                     
0804C13C D900     bls     @@pass                               
0804C13E E0FF     b       @@end    

@@pass:                            
0804C140 0080     lsl     r0,r0,2h                                
0804C142 4902     ldr     r1,=804C150h  ;PoseTable                          
0804C144 1840     add     r0,r0,r1                                
0804C146 6800     ldr     r0,[r0]                                 
0804C148 4687     mov     r15,r0                                  

PoseTable:
    .word 804c2c0h  ;00
	.word 804c2d4h  ;01
	.word 804c2dch  ;02
	.word 804c340h .word 804c340h .word 804c340h .word 804c340h
	.word 804c340h .word 804c340h .word 804c340h .word 804c340h
	.word 804c340h .word 804c340h .word 804c340h .word 804c340h
	.word 804c340h .word 804c340h .word 804c340h .word 804c340h
	.word 804c340h .word 804c340h .word 804c340h .word 804c340h
	.word 804c2e8h  ;17h
	.word 804c2f0h  ;18h
	.word 804c2fch  ;19h
	.word 804c304h  ;1ah
	.word 804c310h  ;1bh
	.word 804c314h  ;1ch
	.word 804c340h  ;1dh
	.word 804c31ah  ;1eh
	.word 804c340h .word 804c340h .word 804c340h .word 804c340h
	.word 804c340h .word 804c340h .word 804c340h .word 804c340h
	.word 804c340h .word 804c340h .word 804c340h .word 804c340h
	.word 804c340h .word 804c340h .word 804c340h .word 804c340h
	.word 804c340h .word 804c340h .word 804c340h .word 804c340h
	.word 804c340h .word 804c340h .word 804c340h .word 804c340h
	.word 804c340h .word 804c340h .word 804c340h .word 804c340h
	.word 804c340h .word 804c340h .word 804c340h .word 804c340h
	.word 804c340h .word 804c340h .word 804c340h .word 804c340h
	.word 804c340h .word 804c340h .word 804c340h .word 804c340h
	.word 804c340h .word 804c340h .word 804c340h .word 804c340h
	.word 804c340h .word 804c340h .word 804c340h .word 804c340h
	.word 804c340h .word 804c340h .word 804c340h .word 804c340h
	.word 804c340h .word 804c340h .word 804c340h .word 804c340h
    .word 804c320h  ;57h
	.word 804c324h  ;58h
	.word 804c32ah  ;59h
	.word 804c32eh  ;5ah
	.word 804c334h  ;5bh

;pose 00	
0804C2C0 F7FFFD96 bl      804BDF0h                                
0804C2C4 4901     ldr     r1,=30006BCh                            
0804C2C6 4802     ldr     r0,=837D85Ch                            
0804C2C8 6188     str     r0,[r1,18h]                             
0804C2CA E039     b       @@end                                
0804C2CC 06BC     lsl     r4,r7,1Ah                               
0804C2CE 0300     lsl     r0,r0,0Ch                               
0804C2D0 D85C     bhi     804C38Ch                                
0804C2D2 0837     lsr     r7,r6,20h                               
0804C2D4 4803     ldr     r0,=837D85Ch                            
0804C2D6 6190     str     r0,[r2,18h]                             
0804C2D8 F7FFFDE2 bl      804BEA0h                                
0804C2DC F7FFFDEC bl      804BEB8h                                
0804C2E0 E02E     b       @@end                                
0804C2E2 0000     lsl     r0,r0,0h                                
0804C2E4 D85C     bhi     804C3A0h                                
0804C2E6 0837     lsr     r7,r6,20h                               
0804C2E8 4803     ldr     r0,=837D884h                            
0804C2EA 6190     str     r0,[r2,18h]                             
0804C2EC F7FFFDFC bl      804BEE8h                                
0804C2F0 F7FFFE18 bl      804BF24h                                
0804C2F4 E024     b       @@end                                
0804C2F6 0000     lsl     r0,r0,0h                                
0804C2F8 D884     bhi     804C204h                                
0804C2FA 0837     lsr     r7,r6,20h                               
0804C2FC 4803     ldr     r0,=837D8BCh                            
0804C2FE 6190     str     r0,[r2,18h]                             
0804C300 F7FFFE1E bl      804BF40h                                
0804C304 F7FFFE30 bl      804BF68h                                
0804C308 E01A     b       @@end                                
0804C30A 0000     lsl     r0,r0,0h                                
0804C30C D8BC     bhi     804C288h                                
0804C30E 0837     lsr     r7,r6,20h                               
0804C310 F7FFFE62 bl      804BFD8h                                
0804C314 F7FFFE7A bl      804C00Ch                                
0804C318 E012     b       @@end                                
0804C31A F7FFFEC1 bl      804C0A0h                                
0804C31E E00F     b       @@end                                
0804C320 F015F9CE bl      80616C0h                                
0804C324 F015F9E2 bl      80616ECh                                
0804C328 E00A     b       @@end                                
0804C32A F7FFFD61 bl      804BDF0h                                
0804C32E F015FFD1 bl      80622D4h                                
0804C332 E005     b       @@end                                
0804C334 F015FB00 bl      8061938h                                
0804C338 4902     ldr     r1,=30006BCh                            
0804C33A 8848     ldrh    r0,[r1,2h]                              
0804C33C 3820     sub     r0,20h                                  
0804C33E 8048     strh    r0,[r1,2h] 

@@end:                             
0804C340 BC01     pop     r0                                      
0804C342 4700     bx      r0  

                                    
0804C344 06BC     lsl     r4,r7,1Ah                               
0804C346 0300     lsl     r0,r0,0Ch  

                             
0804C348 B500     push    r14                                     
0804C34A 4805     ldr     r0,=30006BCh                            
0804C34C 1C01     mov     r1,r0                                   
0804C34E 3132     add     r1,32h                                  
0804C350 7809     ldrb    r1,[r1]                                 
0804C352 1C02     mov     r2,r0                                   
0804C354 2900     cmp     r1,0h                                   
0804C356 D005     beq     804C364h                                
0804C358 F7C5FD74 bl      8011E44h                                
0804C35C E108     b       804C570h                                
0804C35E 0000     lsl     r0,r0,0h                                
0804C360 06BC     lsl     r4,r7,1Ah                               
0804C362 0300     lsl     r0,r0,0Ch                               
0804C364 1C10     mov     r0,r2                                   
0804C366 3024     add     r0,24h                                  
0804C368 7800     ldrb    r0,[r0]                                 
0804C36A 285B     cmp     r0,5Bh                                  
0804C36C D900     bls     804C370h                                
0804C36E E0FF     b       804C570h                                
0804C370 0080     lsl     r0,r0,2h                                
0804C372 4902     ldr     r1,=804C380h                            
0804C374 1840     add     r0,r0,r1                                
0804C376 6800     ldr     r0,[r0]                                 
0804C378 4687     mov     r15,r0                                  
0804C37A 0000     lsl     r0,r0,0h                                
0804C37C C380     stmia   [r3]!,r7                                
0804C37E 0804     lsr     r4,r0,20h                               
0804C380 C4F0     stmia   [r4]!,r4-r7                             
0804C382 0804     lsr     r4,r0,20h                               
0804C384 C504     stmia   [r5]!,r2                                
0804C386 0804     lsr     r4,r0,20h                               
0804C388 C50C     stmia   [r5]!,r2,r3                             
0804C38A 0804     lsr     r4,r0,20h                               
0804C38C C570     stmia   [r5]!,r4-r6                             
0804C38E 0804     lsr     r4,r0,20h                               
0804C390 C570     stmia   [r5]!,r4-r6                             
0804C392 0804     lsr     r4,r0,20h                               
0804C394 C570     stmia   [r5]!,r4-r6                             
0804C396 0804     lsr     r4,r0,20h                               
0804C398 C570     stmia   [r5]!,r4-r6                             
0804C39A 0804     lsr     r4,r0,20h                               
0804C39C C570     stmia   [r5]!,r4-r6                             
0804C39E 0804     lsr     r4,r0,20h                               
0804C3A0 C570     stmia   [r5]!,r4-r6                             
0804C3A2 0804     lsr     r4,r0,20h                               
0804C3A4 C570     stmia   [r5]!,r4-r6                             
0804C3A6 0804     lsr     r4,r0,20h                               
0804C3A8 C570     stmia   [r5]!,r4-r6                             
0804C3AA 0804     lsr     r4,r0,20h                               
0804C3AC C570     stmia   [r5]!,r4-r6                             
0804C3AE 0804     lsr     r4,r0,20h                               
0804C3B0 C570     stmia   [r5]!,r4-r6                             
0804C3B2 0804     lsr     r4,r0,20h                               
0804C3B4 C570     stmia   [r5]!,r4-r6                             
0804C3B6 0804     lsr     r4,r0,20h                               
0804C3B8 C570     stmia   [r5]!,r4-r6                             
0804C3BA 0804     lsr     r4,r0,20h                               
0804C3BC C570     stmia   [r5]!,r4-r6                             
0804C3BE 0804     lsr     r4,r0,20h                               
0804C3C0 C570     stmia   [r5]!,r4-r6                             
0804C3C2 0804     lsr     r4,r0,20h                               
0804C3C4 C570     stmia   [r5]!,r4-r6                             
0804C3C6 0804     lsr     r4,r0,20h                               
0804C3C8 C570     stmia   [r5]!,r4-r6                             
0804C3CA 0804     lsr     r4,r0,20h                               
0804C3CC C570     stmia   [r5]!,r4-r6                             
0804C3CE 0804     lsr     r4,r0,20h                               
0804C3D0 C570     stmia   [r5]!,r4-r6                             
0804C3D2 0804     lsr     r4,r0,20h                               
0804C3D4 C570     stmia   [r5]!,r4-r6                             
0804C3D6 0804     lsr     r4,r0,20h                               
0804C3D8 C570     stmia   [r5]!,r4-r6                             
0804C3DA 0804     lsr     r4,r0,20h                               
0804C3DC C518     stmia   [r5]!,r3,r4                             
0804C3DE 0804     lsr     r4,r0,20h                               
0804C3E0 C520     stmia   [r5]!,r5                                
0804C3E2 0804     lsr     r4,r0,20h                               
0804C3E4 C52C     stmia   [r5]!,r2,r3,r5                          
0804C3E6 0804     lsr     r4,r0,20h                               
0804C3E8 C534     stmia   [r5]!,r2,r4,r5                          
0804C3EA 0804     lsr     r4,r0,20h                               
0804C3EC C540     stmia   [r5]!,r6                                
0804C3EE 0804     lsr     r4,r0,20h                               
0804C3F0 C544     stmia   [r5]!,r2,r6                             
0804C3F2 0804     lsr     r4,r0,20h                               
0804C3F4 C570     stmia   [r5]!,r4-r6                             
0804C3F6 0804     lsr     r4,r0,20h                               
0804C3F8 C54A     stmia   [r5]!,r1,r3,r6                          
0804C3FA 0804     lsr     r4,r0,20h                               
0804C3FC C570     stmia   [r5]!,r4-r6                             
0804C3FE 0804     lsr     r4,r0,20h                               
0804C400 C570     stmia   [r5]!,r4-r6                             
0804C402 0804     lsr     r4,r0,20h                               
0804C404 C570     stmia   [r5]!,r4-r6                             
0804C406 0804     lsr     r4,r0,20h                               
0804C408 C570     stmia   [r5]!,r4-r6                             
0804C40A 0804     lsr     r4,r0,20h                               
0804C40C C570     stmia   [r5]!,r4-r6                             
0804C40E 0804     lsr     r4,r0,20h                               
0804C410 C570     stmia   [r5]!,r4-r6                             
0804C412 0804     lsr     r4,r0,20h                               
0804C414 C570     stmia   [r5]!,r4-r6                             
0804C416 0804     lsr     r4,r0,20h                               
0804C418 C570     stmia   [r5]!,r4-r6                             
0804C41A 0804     lsr     r4,r0,20h                               
0804C41C C570     stmia   [r5]!,r4-r6                             
0804C41E 0804     lsr     r4,r0,20h                               
0804C420 C570     stmia   [r5]!,r4-r6                             
0804C422 0804     lsr     r4,r0,20h                               
0804C424 C570     stmia   [r5]!,r4-r6                             
0804C426 0804     lsr     r4,r0,20h                               
0804C428 C570     stmia   [r5]!,r4-r6                             
0804C42A 0804     lsr     r4,r0,20h                               
0804C42C C570     stmia   [r5]!,r4-r6                             
0804C42E 0804     lsr     r4,r0,20h                               
0804C430 C570     stmia   [r5]!,r4-r6                             
0804C432 0804     lsr     r4,r0,20h                               
0804C434 C570     stmia   [r5]!,r4-r6                             
0804C436 0804     lsr     r4,r0,20h                               
0804C438 C570     stmia   [r5]!,r4-r6                             
0804C43A 0804     lsr     r4,r0,20h                               
0804C43C C570     stmia   [r5]!,r4-r6                             
0804C43E 0804     lsr     r4,r0,20h                               
0804C440 C570     stmia   [r5]!,r4-r6                             
0804C442 0804     lsr     r4,r0,20h                               
0804C444 C570     stmia   [r5]!,r4-r6                             
0804C446 0804     lsr     r4,r0,20h                               
0804C448 C570     stmia   [r5]!,r4-r6                             
0804C44A 0804     lsr     r4,r0,20h                               
0804C44C C570     stmia   [r5]!,r4-r6                             
0804C44E 0804     lsr     r4,r0,20h                               
0804C450 C570     stmia   [r5]!,r4-r6                             
0804C452 0804     lsr     r4,r0,20h                               
0804C454 C570     stmia   [r5]!,r4-r6                             
0804C456 0804     lsr     r4,r0,20h                               
0804C458 C570     stmia   [r5]!,r4-r6                             
0804C45A 0804     lsr     r4,r0,20h                               
0804C45C C570     stmia   [r5]!,r4-r6                             
0804C45E 0804     lsr     r4,r0,20h                               
0804C460 C570     stmia   [r5]!,r4-r6                             
0804C462 0804     lsr     r4,r0,20h                               
0804C464 C570     stmia   [r5]!,r4-r6                             
0804C466 0804     lsr     r4,r0,20h                               
0804C468 C570     stmia   [r5]!,r4-r6                             
0804C46A 0804     lsr     r4,r0,20h                               
0804C46C C570     stmia   [r5]!,r4-r6                             
0804C46E 0804     lsr     r4,r0,20h                               
0804C470 C570     stmia   [r5]!,r4-r6                             
0804C472 0804     lsr     r4,r0,20h                               
0804C474 C570     stmia   [r5]!,r4-r6                             
0804C476 0804     lsr     r4,r0,20h                               
0804C478 C570     stmia   [r5]!,r4-r6                             
0804C47A 0804     lsr     r4,r0,20h                               
0804C47C C570     stmia   [r5]!,r4-r6                             
0804C47E 0804     lsr     r4,r0,20h                               
0804C480 C570     stmia   [r5]!,r4-r6                             
0804C482 0804     lsr     r4,r0,20h                               
0804C484 C570     stmia   [r5]!,r4-r6                             
0804C486 0804     lsr     r4,r0,20h                               
0804C488 C570     stmia   [r5]!,r4-r6                             
0804C48A 0804     lsr     r4,r0,20h                               
0804C48C C570     stmia   [r5]!,r4-r6                             
0804C48E 0804     lsr     r4,r0,20h                               
0804C490 C570     stmia   [r5]!,r4-r6                             
0804C492 0804     lsr     r4,r0,20h                               
0804C494 C570     stmia   [r5]!,r4-r6                             
0804C496 0804     lsr     r4,r0,20h                               
0804C498 C570     stmia   [r5]!,r4-r6                             
0804C49A 0804     lsr     r4,r0,20h                               
0804C49C C570     stmia   [r5]!,r4-r6                             
0804C49E 0804     lsr     r4,r0,20h                               
0804C4A0 C570     stmia   [r5]!,r4-r6                             
0804C4A2 0804     lsr     r4,r0,20h                               
0804C4A4 C570     stmia   [r5]!,r4-r6                             
0804C4A6 0804     lsr     r4,r0,20h                               
0804C4A8 C570     stmia   [r5]!,r4-r6                             
0804C4AA 0804     lsr     r4,r0,20h                               
0804C4AC C570     stmia   [r5]!,r4-r6                             
0804C4AE 0804     lsr     r4,r0,20h                               
0804C4B0 C570     stmia   [r5]!,r4-r6                             
0804C4B2 0804     lsr     r4,r0,20h                               
0804C4B4 C570     stmia   [r5]!,r4-r6                             
0804C4B6 0804     lsr     r4,r0,20h                               
0804C4B8 C570     stmia   [r5]!,r4-r6                             
0804C4BA 0804     lsr     r4,r0,20h                               
0804C4BC C570     stmia   [r5]!,r4-r6                             
0804C4BE 0804     lsr     r4,r0,20h                               
0804C4C0 C570     stmia   [r5]!,r4-r6                             
0804C4C2 0804     lsr     r4,r0,20h                               
0804C4C4 C570     stmia   [r5]!,r4-r6                             
0804C4C6 0804     lsr     r4,r0,20h                               
0804C4C8 C570     stmia   [r5]!,r4-r6                             
0804C4CA 0804     lsr     r4,r0,20h                               
0804C4CC C570     stmia   [r5]!,r4-r6                             
0804C4CE 0804     lsr     r4,r0,20h                               
0804C4D0 C570     stmia   [r5]!,r4-r6                             
0804C4D2 0804     lsr     r4,r0,20h                               
0804C4D4 C570     stmia   [r5]!,r4-r6                             
0804C4D6 0804     lsr     r4,r0,20h                               
0804C4D8 C570     stmia   [r5]!,r4-r6                             
0804C4DA 0804     lsr     r4,r0,20h                               
0804C4DC C550     stmia   [r5]!,r4,r6                             
0804C4DE 0804     lsr     r4,r0,20h                               
0804C4E0 C554     stmia   [r5]!,r2,r4,r6                          
0804C4E2 0804     lsr     r4,r0,20h                               
0804C4E4 C55A     stmia   [r5]!,r1,r3,r4,r6                       
0804C4E6 0804     lsr     r4,r0,20h                               
0804C4E8 C55E     stmia   [r5]!,r1-r4,r6                          
0804C4EA 0804     lsr     r4,r0,20h                               
0804C4EC C564     stmia   [r5]!,r2,r5,r6                          
0804C4EE 0804     lsr     r4,r0,20h                               
0804C4F0 F7FFFC7E bl      804BDF0h                                
0804C4F4 4901     ldr     r1,=30006BCh                            
0804C4F6 4802     ldr     r0,=837E214h                            
0804C4F8 6188     str     r0,[r1,18h]                             
0804C4FA E039     b       804C570h                                
0804C4FC 06BC     lsl     r4,r7,1Ah                               
0804C4FE 0300     lsl     r0,r0,0Ch                               
0804C500 E214     b       804C92Ch                                
0804C502 0837     lsr     r7,r6,20h                               
0804C504 4803     ldr     r0,=837E214h                            
0804C506 6190     str     r0,[r2,18h]                             
0804C508 F7FFFCCA bl      804BEA0h                                
0804C50C F7FFFCD4 bl      804BEB8h                                
0804C510 E02E     b       804C570h                                
0804C512 0000     lsl     r0,r0,0h                                
0804C514 E214     b       804C940h                                
0804C516 0837     lsr     r7,r6,20h                               
0804C518 4803     ldr     r0,=837E23Ch                            
0804C51A 6190     str     r0,[r2,18h]                             
0804C51C F7FFFCE4 bl      804BEE8h                                
0804C520 F7FFFD00 bl      804BF24h                                
0804C524 E024     b       804C570h                                
0804C526 0000     lsl     r0,r0,0h                                
0804C528 E23C     b       804C9A4h                                
0804C52A 0837     lsr     r7,r6,20h                               
0804C52C 4803     ldr     r0,=837E27Ch                            
0804C52E 6190     str     r0,[r2,18h]                             
0804C530 F7FFFD06 bl      804BF40h                                
0804C534 F7FFFD18 bl      804BF68h                                
0804C538 E01A     b       804C570h                                
0804C53A 0000     lsl     r0,r0,0h                                
0804C53C E27C     b       804CA38h                                
0804C53E 0837     lsr     r7,r6,20h                               
0804C540 F7FFFD4A bl      804BFD8h                                
0804C544 F7FFFD62 bl      804C00Ch                                
0804C548 E012     b       804C570h                                
0804C54A F7FFFDA9 bl      804C0A0h                                
0804C54E E00F     b       804C570h                                
0804C550 F015F8B6 bl      80616C0h                                
0804C554 F015F8CA bl      80616ECh                                
0804C558 E00A     b       804C570h                                
0804C55A F7FFFC49 bl      804BDF0h                                
0804C55E F015FEB9 bl      80622D4h                                
0804C562 E005     b       804C570h                                
0804C564 F015F9E8 bl      8061938h                                
0804C568 4902     ldr     r1,=30006BCh                            
0804C56A 8848     ldrh    r0,[r1,2h]                              
0804C56C 3820     sub     r0,20h                                  
0804C56E 8048     strh    r0,[r1,2h]                              
0804C570 BC01     pop     r0                                      
0804C572 4700     bx      r0                                      
0804C574 06BC     lsl     r4,r7,1Ah                               
0804C576 0300     lsl     r0,r0,0Ch                               
0804C578 B5F0     push    r4-r7,r14                               
0804C57A 4C20     ldr     r4,=30006BCh                            
0804C57C 1C21     mov     r1,r4                                   
0804C57E 3126     add     r1,26h                                  
0804C580 2001     mov     r0,1h                                   
0804C582 7008     strb    r0,[r1]                                 
0804C584 1C23     mov     r3,r4                                   
0804C586 3324     add     r3,24h                                  
0804C588 781E     ldrb    r6,[r3]                                 
0804C58A 2E00     cmp     r6,0h                                   
0804C58C D165     bne     804C65Ah                                
0804C58E 1C22     mov     r2,r4                                   
0804C590 3234     add     r2,34h                                  
0804C592 7810     ldrb    r0,[r2]                                 
0804C594 2101     mov     r1,1h                                   
0804C596 4308     orr     r0,r1                                   
0804C598 7010     strb    r0,[r2]                                 
0804C59A 7818     ldrb    r0,[r3]                                 
0804C59C 3001     add     r0,1h                                   
0804C59E 7018     strb    r0,[r3]                                 
0804C5A0 1C21     mov     r1,r4                                   
0804C5A2 3127     add     r1,27h                                  
0804C5A4 2018     mov     r0,18h                                  
0804C5A6 7008     strb    r0,[r1]                                 
0804C5A8 1C20     mov     r0,r4                                   
0804C5AA 3028     add     r0,28h                                  
0804C5AC 7006     strb    r6,[r0]                                 
0804C5AE 3102     add     r1,2h                                   
0804C5B0 2008     mov     r0,8h                                   
0804C5B2 7008     strb    r0,[r1]                                 
0804C5B4 2200     mov     r2,0h                                   
0804C5B6 4912     ldr     r1,=0FFFCh                              
0804C5B8 8161     strh    r1,[r4,0Ah]                             
0804C5BA 2004     mov     r0,4h                                   
0804C5BC 81A0     strh    r0,[r4,0Ch]                             
0804C5BE 81E1     strh    r1,[r4,0Eh]                             
0804C5C0 8220     strh    r0,[r4,10h]                             
0804C5C2 1C20     mov     r0,r4                                   
0804C5C4 3025     add     r0,25h                                  
0804C5C6 7002     strb    r2,[r0]                                 
0804C5C8 1C21     mov     r1,r4                                   
0804C5CA 3122     add     r1,22h                                  
0804C5CC 2010     mov     r0,10h                                  
0804C5CE 7008     strb    r0,[r1]                                 
0804C5D0 7722     strb    r2,[r4,1Ch]                             
0804C5D2 82E6     strh    r6,[r4,16h]                             
0804C5D4 1C20     mov     r0,r4                                   
0804C5D6 302A     add     r0,2Ah                                  
0804C5D8 7800     ldrb    r0,[r0]                                 
0804C5DA 250F     mov     r5,0Fh                                  
0804C5DC 4005     and     r5,r0                                   
0804C5DE 1C2F     mov     r7,r5                                   
0804C5E0 F02FFB06 bl      807BBF0h                                
0804C5E4 0600     lsl     r0,r0,18h                               
0804C5E6 21C0     mov     r1,0C0h                                 
0804C5E8 04C9     lsl     r1,r1,13h                               
0804C5EA 1840     add     r0,r0,r1                                
0804C5EC 0E00     lsr     r0,r0,18h                               
0804C5EE 4285     cmp     r5,r0                                   
0804C5F0 D132     bne     804C658h                                
0804C5F2 2D07     cmp     r5,7h                                   
0804C5F4 D108     bne     804C608h                                
0804C5F6 4803     ldr     r0,=837EDFCh                            
0804C5F8 61A0     str     r0,[r4,18h]                             
0804C5FA E02E     b       804C65Ah                                
0804C5FC 06BC     lsl     r4,r7,1Ah                               
0804C5FE 0300     lsl     r0,r0,0Ch                               
0804C600 FFFC     bl      lr+0FF8h                                
0804C602 0000     lsl     r0,r0,0h                                
0804C604 EDFC     ????                                            
0804C606 0837     lsr     r7,r6,20h                               
0804C608 2D08     cmp     r5,8h                                   
0804C60A D105     bne     804C618h                                
0804C60C 4801     ldr     r0,=837EE44h                            
0804C60E 61A0     str     r0,[r4,18h]                             
0804C610 E023     b       804C65Ah                                
0804C612 0000     lsl     r0,r0,0h                                
0804C614 EE44     ????                                            
0804C616 0837     lsr     r7,r6,20h                               
