



08049DCC B570     push    r4-r6,r14      ;主程序                         
08049DCE 4819     ldr     r0,=3000738h                            
08049DD0 1C01     mov     r1,r0                                   
08049DD2 3126     add     r1,26h                                  
08049DD4 2601     mov     r6,1h                                   
08049DD6 700E     strb    r6,[r1]       ;300075e写入1h                          
08049DD8 1C03     mov     r3,r0                                   
08049DDA 3324     add     r3,24h                                  
08049DDC 781A     ldrb    r2,[r3]       ;读取pose                          
08049DDE 1C04     mov     r4,r0                                   
08049DE0 2A00     cmp     r2,0h                                   
08049DE2 D138     bne     8049E56h      ;不是零的话跳转                          
08049DE4 8821     ldrh    r1,[r4]                                 
08049DE6 4D14     ldr     r5,=8004h                               
08049DE8 1C28     mov     r0,r5                                   
08049DEA 2500     mov     r5,0h                                   
08049DEC 4308     orr     r0,r1                                   
08049DEE 8020     strh    r0,[r4]       ;8004 orr 取向                         
08049DF0 1C20     mov     r0,r4                                   
08049DF2 3025     add     r0,25h        ;300075d写入0                          
08049DF4 7005     strb    r5,[r0]                                 
08049DF6 3002     add     r0,2h         ;300075f写入1                         
08049DF8 7006     strb    r6,[r0]                                 
08049DFA 3001     add     r0,1h                                   
08049DFC 7006     strb    r6,[r0]       ;3000760写入1                          
08049DFE 3001     add     r0,1h                                   
08049E00 7006     strb    r6,[r0]       ;3000761写入1                          
08049E02 8162     strh    r2,[r4,0Ah]                             
08049E04 81A2     strh    r2,[r4,0Ch]                             
08049E06 81E2     strh    r2,[r4,0Eh]                             
08049E08 8222     strh    r2,[r4,10h]   ;四面分界写入0                          
08049E0A 480C     ldr     r0,=82B2750h                            
08049E0C 61A0     str     r0,[r4,18h]                             
08049E0E 7725     strb    r5,[r4,1Ch]                             
08049E10 82E2     strh    r2,[r4,16h]   ;写入动画图,默认动画帧和计数                          
08049E12 2009     mov     r0,9h                                   
08049E14 7018     strb    r0,[r3]       ;pose写入9                          
08049E16 490A     ldr     r1,=0C41h                               
08049E18 2001     mov     r0,1h                                   
08049E1A F00BFE11 bl      8055A40h                                
08049E1E 4809     ldr     r0,=30001A8h                            
08049E20 8800     ldrh    r0,[r0]                                 
08049E22 2800     cmp     r0,0h                                   
08049E24 D010     beq     8049E48h      ;警报为0跳转                             
08049E26 1C20     mov     r0,r4                                   
08049E28 302E     add     r0,2Eh        ;3000766写入0                          
08049E2A 7005     strb    r5,[r0]                                 
08049E2C 1C21     mov     r1,r4                                   
08049E2E 312F     add     r1,2Fh                                 
08049E30 2010     mov     r0,10h                                  
08049E32 E00F     b       8049E54h 
                               
08049E34 0738     lsl     r0,r7,1Ch                               
08049E36 0300     lsl     r0,r0,0Ch                               
08049E38 8004     strh    r4,[r0]                                 
08049E3A 0000     lsl     r0,r0,0h                                
08049E3C 2750     mov     r7,50h                                  
08049E3E 082B     lsr     r3,r5,20h                               
08049E40 0C41     lsr     r1,r0,11h                               
08049E42 0000     lsl     r0,r0,0h                                
08049E44 01A8     lsl     r0,r5,6h                                
08049E46 0300     lsl     r0,r0,0Ch 

.org 8049e48h                                                
08049E48 1C20     mov     r0,r4                                   
08049E4A 302E     add     r0,2Eh                                  
08049E4C 7006     strb    r6,[r0]                                 
08049E4E 1C21     mov     r1,r4                                   
08049E50 312F     add     r1,2Fh                                  
08049E52 2008     mov     r0,8h  
.org 8049e54h                                 
08049E54 7008     strb    r0,[r1]     ;3000767 pose为0写入8,否则写入10

.org 8049e56h                                
08049E56 480C     ldr     r0,=30001A8h     ;pose 0                       
08049E58 8800     ldrh    r0,[r0]                                 
08049E5A 2800     cmp     r0,0h                                   
08049E5C D016     beq     8049E8Ch    ;警报为0跳转                              
08049E5E 1C22     mov     r2,r4                                   
08049E60 322E     add     r2,2Eh                                  
08049E62 7810     ldrb    r0,[r2]     ;警报不为0读取3000766的值是否为0                            
08049E64 2800     cmp     r0,0h                                   
08049E66 D01B     beq     8049EA0h                                
08049E68 3801     sub     r0,1h       ;如果不为0则减1                            
08049E6A 7010     strb    r0,[r2]                                 
08049E6C 0600     lsl     r0,r0,18h                               
08049E6E 2800     cmp     r0,0h                                   
08049E70 D116     bne     8049EA0h                                
08049E72 1C21     mov     r1,r4                                   
08049E74 312F     add     r1,2Fh                                  
08049E76 7808     ldrb    r0,[r1]                                 
08049E78 280F     cmp     r0,0Fh                                  
08049E7A D811     bhi     8049EA0h                                
08049E7C 3001     add     r0,1h                                   
08049E7E 7008     strb    r0,[r1]                                 
08049E80 2001     mov     r0,1h                                   
08049E82 7010     strb    r0,[r2]                                 
08049E84 E00C     b       8049EA0h                                
08049E86 0000     lsl     r0,r0,0h                                
08049E88 01A8     lsl     r0,r5,6h                                
08049E8A 0300     lsl     r0,r0,0Ch                               
08049E8C 1C21     mov     r1,r4                                   
08049E8E 312F     add     r1,2Fh                                  
08049E90 7808     ldrb    r0,[r1]                                 
08049E92 2808     cmp     r0,8h                                   
08049E94 D004     beq     8049EA0h                                
08049E96 2008     mov     r0,8h                                   
08049E98 7008     strb    r0,[r1]                                 
08049E9A 3901     sub     r1,1h                                   
08049E9C 2001     mov     r0,1h                                   
08049E9E 7008     strb    r0,[r1]                                 
08049EA0 1C20     mov     r0,r4                                   
08049EA2 302F     add     r0,2Fh                                  
08049EA4 7801     ldrb    r1,[r0]                                 
08049EA6 2000     mov     r0,0h                                   
08049EA8 2200     mov     r2,0h                                   
08049EAA 2310     mov     r3,10h                                  
08049EAC F00BFE3A bl      8055B24h                                
08049EB0 BC70     pop     r4-r6                                   
08049EB2 BC01     pop     r0                                      
08049EB4 4700     bx      r0                                      
08049EB6 0000     lsl     r0,r0,0h                                
08049EB8 B570     push    r4-r6,r14                               
08049EBA B083     add     sp,-0Ch                                 
08049EBC 4C07     ldr     r4,=3000738h                            
08049EBE 7F60     ldrb    r0,[r4,1Dh]                             
08049EC0 28AD     cmp     r0,0ADh                                 
08049EC2 D10D     bne     8049EE0h                                
08049EC4 2003     mov     r0,3h                                   
08049EC6 211D     mov     r1,1Dh                                  
08049EC8 F016FCF8 bl      80608BCh                                
08049ECC 2800     cmp     r0,0h                                   
08049ECE D10F     bne     8049EF0h                                
08049ED0 8821     ldrh    r1,[r4]                                 
08049ED2 2010     mov     r0,10h                                  
08049ED4 4308     orr     r0,r1                                   
08049ED6 8020     strh    r0,[r4]                                 
08049ED8 E00D     b       8049EF6h                                
08049EDA 0000     lsl     r0,r0,0h                                
08049EDC 0738     lsl     r0,r7,1Ch                               
08049EDE 0300     lsl     r0,r0,0Ch                               
08049EE0 28AE     cmp     r0,0AEh                                 
08049EE2 D108     bne     8049EF6h                                
08049EE4 2003     mov     r0,3h                                   
08049EE6 2124     mov     r1,24h                                  
08049EE8 F016FCE8 bl      80608BCh                                
08049EEC 2800     cmp     r0,0h                                   
08049EEE D002     beq     8049EF6h                                
08049EF0 2000     mov     r0,0h                                   
08049EF2 8020     strh    r0,[r4]                                 
08049EF4 E06C     b       8049FD0h                                
08049EF6 4C0B     ldr     r4,=3000738h                            
08049EF8 8821     ldrh    r1,[r4]                                 
08049EFA 2040     mov     r0,40h                                  
08049EFC 4308     orr     r0,r1                                   
08049EFE 8020     strh    r0,[r4]                                 
08049F00 88A0     ldrh    r0,[r4,4h]                              
08049F02 300C     add     r0,0Ch                                  
08049F04 80A0     strh    r0,[r4,4h]                              
08049F06 8866     ldrh    r6,[r4,2h]                              
08049F08 88A5     ldrh    r5,[r4,4h]                              
08049F0A 1C28     mov     r0,r5                                   
08049F0C 1C31     mov     r1,r6                                   
08049F0E 2200     mov     r2,0h                                   
08049F10 F00DFCFC bl      805790Ch                                
08049F14 8821     ldrh    r1,[r4]                                 
08049F16 2040     mov     r0,40h                                  
08049F18 4008     and     r0,r1                                   
08049F1A 2800     cmp     r0,0h                                   
08049F1C D004     beq     8049F28h                                
08049F1E 1C28     mov     r0,r5                                   
08049F20 3010     add     r0,10h                                  
08049F22 E003     b       8049F2Ch                                
08049F24 0738     lsl     r0,r7,1Ch                               
08049F26 0300     lsl     r0,r0,0Ch                               
08049F28 1C28     mov     r0,r5                                   
08049F2A 3810     sub     r0,10h                                  
08049F2C 0400     lsl     r0,r0,10h                               
08049F2E 0C05     lsr     r5,r0,10h                               
08049F30 4C09     ldr     r4,=3000738h                            
08049F32 7FA1     ldrb    r1,[r4,1Eh]                             
08049F34 7FE2     ldrb    r2,[r4,1Fh]                             
08049F36 1C20     mov     r0,r4                                   
08049F38 3023     add     r0,23h                                  
08049F3A 7803     ldrb    r3,[r0]                                 
08049F3C 9600     str     r6,[sp]                                 
08049F3E 9501     str     r5,[sp,4h]                              
08049F40 2500     mov     r5,0h                                   
08049F42 9502     str     r5,[sp,8h]                              
08049F44 2036     mov     r0,36h                                  
08049F46 F7C4F987 bl      800E258h                                
08049F4A 0600     lsl     r0,r0,18h                               
08049F4C 0E00     lsr     r0,r0,18h                               
08049F4E 28FF     cmp     r0,0FFh                                 
08049F50 D104     bne     8049F5Ch                                
08049F52 8025     strh    r5,[r4]                                 
08049F54 E03C     b       8049FD0h                                
08049F56 0000     lsl     r0,r0,0h                                
08049F58 0738     lsl     r0,r7,1Ch                               
08049F5A 0300     lsl     r0,r0,0Ch                               
08049F5C 1C21     mov     r1,r4                                   
08049F5E 3124     add     r1,24h                                  
08049F60 2008     mov     r0,8h                                   
08049F62 7008     strb    r0,[r1]                                 
08049F64 1C20     mov     r0,r4                                   
08049F66 3027     add     r0,27h                                  
08049F68 2128     mov     r1,28h                                  
08049F6A 7001     strb    r1,[r0]                                 
08049F6C 3001     add     r0,1h                                   
08049F6E 7001     strb    r1,[r0]                                 
08049F70 1C21     mov     r1,r4                                   
08049F72 3129     add     r1,29h                                  
08049F74 2010     mov     r0,10h                                  
08049F76 7008     strb    r0,[r1]                                 
08049F78 2100     mov     r1,0h                                   
08049F7A 4817     ldr     r0,=0FF88h                              
08049F7C 8160     strh    r0,[r4,0Ah]                             
08049F7E 2078     mov     r0,78h                                  
08049F80 81A0     strh    r0,[r4,0Ch]                             
08049F82 4816     ldr     r0,=0FFECh                              
08049F84 81E0     strh    r0,[r4,0Eh]                             
08049F86 2014     mov     r0,14h                                  
08049F88 8220     strh    r0,[r4,10h]                             
08049F8A 4815     ldr     r0,=8318724h                            
08049F8C 61A0     str     r0,[r4,18h]                             
08049F8E 7721     strb    r1,[r4,1Ch]                             
08049F90 82E5     strh    r5,[r4,16h]                             
08049F92 1C21     mov     r1,r4                                   
08049F94 3125     add     r1,25h                                  
08049F96 2004     mov     r0,4h                                   
08049F98 7008     strb    r0,[r1]                                 
08049F9A 3903     sub     r1,3h                                   
08049F9C 2005     mov     r0,5h                                   
08049F9E 7008     strb    r0,[r1]                                 
08049FA0 4810     ldr     r0,=3000088h                            
08049FA2 7B01     ldrb    r1,[r0,0Ch]                             
08049FA4 2003     mov     r0,3h                                   
08049FA6 4008     and     r0,r1                                   
08049FA8 1C21     mov     r1,r4                                   
08049FAA 3121     add     r1,21h                                  
08049FAC 7008     strb    r0,[r1]                                 
08049FAE 4A0E     ldr     r2,=82B0D68h                            
08049FB0 7F61     ldrb    r1,[r4,1Dh]                             
08049FB2 00C8     lsl     r0,r1,3h                                
08049FB4 1840     add     r0,r0,r1                                
08049FB6 0040     lsl     r0,r0,1h                                
08049FB8 1880     add     r0,r0,r2                                
08049FBA 8800     ldrh    r0,[r0]                                 
08049FBC 82A0     strh    r0,[r4,14h]                             
08049FBE 1C08     mov     r0,r1                                   
08049FC0 28AE     cmp     r0,0AEh                                 
08049FC2 D105     bne     8049FD0h                                
08049FC4 1C20     mov     r0,r4                                   
08049FC6 3034     add     r0,34h                                  
08049FC8 2101     mov     r1,1h                                   
08049FCA 7001     strb    r1,[r0]                                 
08049FCC 3814     sub     r0,14h                                  
08049FCE 7001     strb    r1,[r0]                                 
08049FD0 B003     add     sp,0Ch                                  
08049FD2 BC70     pop     r4-r6                                   
08049FD4 BC01     pop     r0                                      
08049FD6 4700     bx      r0                                      
08049FD8 FF88     bl      lr+0F10h                                
08049FDA 0000     lsl     r0,r0,0h                                
08049FDC FFEC     bl      lr+0FD8h                                
08049FDE 0000     lsl     r0,r0,0h                                
08049FE0 8724     strh    r4,[r4,38h]                             
08049FE2 0831     lsr     r1,r6,20h                               
08049FE4 0088     lsl     r0,r1,2h                                
08049FE6 0300     lsl     r0,r0,0Ch                               
08049FE8 0D68     lsr     r0,r5,15h                               
08049FEA 082B     lsr     r3,r5,20h                               
08049FEC 4908     ldr     r1,=3000738h                            
08049FEE 1C0A     mov     r2,r1                                   
08049FF0 3224     add     r2,24h                                  
08049FF2 2300     mov     r3,0h                                   
08049FF4 2009     mov     r0,9h                                   
08049FF6 7010     strb    r0,[r2]                                 
08049FF8 4806     ldr     r0,=8318724h                            
08049FFA 6188     str     r0,[r1,18h]                             
08049FFC 770B     strb    r3,[r1,1Ch]                             
08049FFE 82CB     strh    r3,[r1,16h]                             
0804A000 4805     ldr     r0,=300083Ch                            
0804A002 7800     ldrb    r0,[r0]                                 
0804A004 0080     lsl     r0,r0,2h                                
0804A006 303D     add     r0,3Dh                                  
0804A008 312C     add     r1,2Ch                                  
0804A00A 7008     strb    r0,[r1]                                 
0804A00C 4770     bx      r14                                     
0804A00E 0000     lsl     r0,r0,0h                                
0804A010 0738     lsl     r0,r7,1Ch                               
0804A012 0300     lsl     r0,r0,0Ch                               
0804A014 8724     strh    r4,[r4,38h]                             
0804A016 0831     lsr     r1,r6,20h                               
0804A018 083C     lsr     r4,r7,20h                               
0804A01A 0300     lsl     r0,r0,0Ch                               
0804A01C B570     push    r4-r6,r14                               
0804A01E 4C0D     ldr     r4,=3000738h                            
0804A020 1C26     mov     r6,r4                                   
0804A022 362C     add     r6,2Ch                                  
0804A024 7830     ldrb    r0,[r6]                                 
0804A026 3801     sub     r0,1h                                   
0804A028 7030     strb    r0,[r6]                                 
0804A02A 0600     lsl     r0,r0,18h                               
0804A02C 0E05     lsr     r5,r0,18h                               
0804A02E 2D00     cmp     r5,0h                                   
0804A030 D119     bne     804A066h                                
0804A032 21E0     mov     r1,0E0h                                 
0804A034 0049     lsl     r1,r1,1h                                
0804A036 2080     mov     r0,80h                                  
0804A038 2200     mov     r2,0h                                   
0804A03A F7C5FF39 bl      800FEB0h                                
0804A03E 2803     cmp     r0,3h                                   
0804A040 D10C     bne     804A05Ch                                
0804A042 1C20     mov     r0,r4                                   
0804A044 3024     add     r0,24h                                  
0804A046 2123     mov     r1,23h                                  
0804A048 7001     strb    r1,[r0]                                 
0804A04A 4803     ldr     r0,=831874Ch                            
0804A04C 61A0     str     r0,[r4,18h]                             
0804A04E 7725     strb    r5,[r4,1Ch]                             
0804A050 82E5     strh    r5,[r4,16h]                             
0804A052 E008     b       804A066h                                
0804A054 0738     lsl     r0,r7,1Ch                               
0804A056 0300     lsl     r0,r0,0Ch                               
0804A058 874C     strh    r4,[r1,3Ah]                             
0804A05A 0831     lsr     r1,r6,20h                               
0804A05C 4803     ldr     r0,=300083Ch                            
0804A05E 7800     ldrb    r0,[r0]                                 
0804A060 0080     lsl     r0,r0,2h                                
0804A062 303D     add     r0,3Dh                                  
0804A064 7030     strb    r0,[r6]                                 
0804A066 BC70     pop     r4-r6                                   
0804A068 BC01     pop     r0                                      
0804A06A 4700     bx      r0                                      
0804A06C 083C     lsr     r4,r7,20h                               
0804A06E 0300     lsl     r0,r0,0Ch                               
0804A070 B500     push    r14                                     
0804A072 F7C5FDA9 bl      800FBC8h                                
0804A076 2800     cmp     r0,0h                                   
0804A078 D00C     beq     804A094h                                
0804A07A 4907     ldr     r1,=3000738h                            
0804A07C 1C0A     mov     r2,r1                                   
0804A07E 3224     add     r2,24h                                  
0804A080 2300     mov     r3,0h                                   
0804A082 2025     mov     r0,25h                                  
0804A084 7010     strb    r0,[r2]                                 
0804A086 4805     ldr     r0,=8318784h                            
0804A088 6188     str     r0,[r1,18h]                             
0804A08A 770B     strb    r3,[r1,1Ch]                             
0804A08C 82CB     strh    r3,[r1,16h]                             
0804A08E 4804     ldr     r0,=25Ah                                
0804A090 F7B8FCC2 bl      8002A18h                                
0804A094 BC01     pop     r0                                      
0804A096 4700     bx      r0                                      
0804A098 0738     lsl     r0,r7,1Ch                               
0804A09A 0300     lsl     r0,r0,0Ch                               
0804A09C 8784     strh    r4,[r0,3Ch]                             
0804A09E 0831     lsr     r1,r6,20h                               
0804A0A0 025A     lsl     r2,r3,9h                                
0804A0A2 0000     lsl     r0,r0,0h                                
0804A0A4 B530     push    r4,r5,r14                               
0804A0A6 B083     add     sp,-0Ch                                 
0804A0A8 F7C5FD8E bl      800FBC8h                                
0804A0AC 2800     cmp     r0,0h                                   
0804A0AE D025     beq     804A0FCh                                
0804A0B0 4814     ldr     r0,=3000738h                            
0804A0B2 4684     mov     r12,r0                                  
0804A0B4 4661     mov     r1,r12                                  
0804A0B6 3124     add     r1,24h                                  
0804A0B8 2200     mov     r2,0h                                   
0804A0BA 2027     mov     r0,27h                                  
0804A0BC 7008     strb    r0,[r1]                                 
0804A0BE 4812     ldr     r0,=831886Ch                            
0804A0C0 4661     mov     r1,r12                                  
0804A0C2 6188     str     r0,[r1,18h]                             
0804A0C4 770A     strb    r2,[r1,1Ch]                             
0804A0C6 82CA     strh    r2,[r1,16h]                             
0804A0C8 312C     add     r1,2Ch                                  
0804A0CA 203C     mov     r0,3Ch                                  
0804A0CC 7008     strb    r0,[r1]                                 
0804A0CE 4662     mov     r2,r12                                  
0804A0D0 7F50     ldrb    r0,[r2,1Dh]                             
0804A0D2 28AE     cmp     r0,0AEh                                 
0804A0D4 D112     bne     804A0FCh                                
0804A0D6 2058     mov     r0,58h                                  
0804A0D8 7008     strb    r0,[r1]                                 
0804A0DA 8890     ldrh    r0,[r2,4h]                              
0804A0DC 3010     add     r0,10h                                  
0804A0DE 0400     lsl     r0,r0,10h                               
0804A0E0 0C00     lsr     r0,r0,10h                               
0804A0E2 2440     mov     r4,40h                                  
0804A0E4 7FD2     ldrb    r2,[r2,1Fh]                             
0804A0E6 3909     sub     r1,9h                                   
0804A0E8 780B     ldrb    r3,[r1]                                 
0804A0EA 4665     mov     r5,r12                                  
0804A0EC 8869     ldrh    r1,[r5,2h]                              
0804A0EE 9100     str     r1,[sp]                                 
0804A0F0 9001     str     r0,[sp,4h]                              
0804A0F2 9402     str     r4,[sp,8h]                              
0804A0F4 2037     mov     r0,37h                                  
0804A0F6 2100     mov     r1,0h                                   
0804A0F8 F7C4F8AE bl      800E258h                                
0804A0FC B003     add     sp,0Ch                                  
0804A0FE BC30     pop     r4,r5                                   
0804A100 BC01     pop     r0                                      
0804A102 4700     bx      r0                                      
0804A104 0738     lsl     r0,r7,1Ch                               
0804A106 0300     lsl     r0,r0,0Ch                               
0804A108 886C     ldrh    r4,[r5,2h]                              
0804A10A 0831     lsr     r1,r6,20h                               
0804A10C B530     push    r4,r5,r14                               
0804A10E 4C09     ldr     r4,=3000738h                            
0804A110 1C21     mov     r1,r4                                   
0804A112 312C     add     r1,2Ch                                  
0804A114 7808     ldrb    r0,[r1]                                 
0804A116 1C02     mov     r2,r0                                   
0804A118 2A00     cmp     r2,0h                                   
0804A11A D111     bne     804A140h                                
0804A11C 3908     sub     r1,8h                                   
0804A11E 2029     mov     r0,29h                                  
0804A120 7008     strb    r0,[r1]                                 
0804A122 4805     ldr     r0,=831881Ch                            
0804A124 61A0     str     r0,[r4,18h]                             
0804A126 7722     strb    r2,[r4,1Ch]                             
0804A128 82E2     strh    r2,[r4,16h]                             
0804A12A 4804     ldr     r0,=25Bh                                
0804A12C F7B8FC74 bl      8002A18h                                
0804A130 E020     b       804A174h                                
0804A132 0000     lsl     r0,r0,0h                                
0804A134 0738     lsl     r0,r7,1Ch                               
0804A136 0300     lsl     r0,r0,0Ch                               
0804A138 881C     ldrh    r4,[r3]                                 
0804A13A 0831     lsr     r1,r6,20h                               
0804A13C 025B     lsl     r3,r3,9h                                
0804A13E 0000     lsl     r0,r0,0h                                
0804A140 1E42     sub     r2,r0,1                                 
0804A142 2500     mov     r5,0h                                   
0804A144 700A     strb    r2,[r1]                                 
0804A146 69A1     ldr     r1,[r4,18h]                             
0804A148 4804     ldr     r0,=831886Ch                            
0804A14A 4281     cmp     r1,r0                                   
0804A14C D10A     bne     804A164h                                
0804A14E F7C5FD3B bl      800FBC8h                                
0804A152 2800     cmp     r0,0h                                   
0804A154 D00E     beq     804A174h                                
0804A156 4802     ldr     r0,=83187E4h                            
0804A158 E009     b       804A16Eh                                
0804A15A 0000     lsl     r0,r0,0h                                
0804A15C 886C     ldrh    r4,[r5,2h]                              
0804A15E 0831     lsr     r1,r6,20h                               
0804A160 87E4     strh    r4,[r4,3Eh]                             
0804A162 0831     lsr     r1,r6,20h                               
0804A164 0610     lsl     r0,r2,18h                               
0804A166 0E00     lsr     r0,r0,18h                               
0804A168 2807     cmp     r0,7h                                   
0804A16A D103     bne     804A174h                                
0804A16C 4803     ldr     r0,=83188A4h                            
0804A16E 61A0     str     r0,[r4,18h]                             
0804A170 7725     strb    r5,[r4,1Ch]                             
0804A172 82E5     strh    r5,[r4,16h]                             
0804A174 BC30     pop     r4,r5                                   
0804A176 BC01     pop     r0                                      
0804A178 4700     bx      r0                                      
0804A17A 0000     lsl     r0,r0,0h                                
0804A17C 88A4     ldrh    r4,[r4,4h]                              
0804A17E 0831     lsr     r1,r6,20h                               
0804A180 B500     push    r14                                     
0804A182 F7C5FD3D bl      800FC00h                                
0804A186 2800     cmp     r0,0h                                   
0804A188 D003     beq     804A192h                                
0804A18A 4803     ldr     r0,=3000738h                            
0804A18C 3024     add     r0,24h                                  
0804A18E 2108     mov     r1,8h                                   
0804A190 7001     strb    r1,[r0]                                 
0804A192 BC01     pop     r0                                      
0804A194 4700     bx      r0                                      
0804A196 0000     lsl     r0,r0,0h                                
0804A198 0738     lsl     r0,r7,1Ch                               
0804A19A 0300     lsl     r0,r0,0Ch                               
0804A19C 4809     ldr     r0,=3000738h                            
0804A19E 4684     mov     r12,r0                                  
0804A1A0 4661     mov     r1,r12                                  
0804A1A2 3124     add     r1,24h                                  
0804A1A4 2200     mov     r2,0h                                   
0804A1A6 2067     mov     r0,67h                                  
0804A1A8 7008     strb    r0,[r1]                                 
0804A1AA 4807     ldr     r0,=8318844h                            
0804A1AC 4661     mov     r1,r12                                  
0804A1AE 6188     str     r0,[r1,18h]                             
0804A1B0 770A     strb    r2,[r1,1Ch]                             
0804A1B2 2300     mov     r3,0h                                   
0804A1B4 82CA     strh    r2,[r1,16h]                             
0804A1B6 312C     add     r1,2Ch                                  
0804A1B8 2028     mov     r0,28h                                  
0804A1BA 7008     strb    r0,[r1]                                 
0804A1BC 4660     mov     r0,r12                                  
0804A1BE 3025     add     r0,25h                                  
0804A1C0 7003     strb    r3,[r0]                                 
0804A1C2 4770     bx      r14                                     
0804A1C4 0738     lsl     r0,r7,1Ch                               
0804A1C6 0300     lsl     r0,r0,0Ch                               
0804A1C8 8844     ldrh    r4,[r0,2h]                              
0804A1CA 0831     lsr     r1,r6,20h                               
0804A1CC B5F0     push    r4-r7,r14                               
0804A1CE B083     add     sp,-0Ch                                 
0804A1D0 4C0D     ldr     r4,=3000738h                            
0804A1D2 1C21     mov     r1,r4                                   
0804A1D4 312C     add     r1,2Ch                                  
0804A1D6 7808     ldrb    r0,[r1]                                 
0804A1D8 3801     sub     r0,1h                                   
0804A1DA 7008     strb    r0,[r1]                                 
0804A1DC 0600     lsl     r0,r0,18h                               
0804A1DE 0E01     lsr     r1,r0,18h                               
0804A1E0 1C0A     mov     r2,r1                                   
0804A1E2 2003     mov     r0,3h                                   
0804A1E4 4008     and     r0,r1                                   
0804A1E6 2800     cmp     r0,0h                                   
0804A1E8 D152     bne     804A290h                                
0804A1EA 2004     mov     r0,4h                                   
0804A1EC 4008     and     r0,r1                                   
0804A1EE 2800     cmp     r0,0h                                   
0804A1F0 D00C     beq     804A20Ch                                
0804A1F2 1C20     mov     r0,r4                                   
0804A1F4 3033     add     r0,33h                                  
0804A1F6 7800     ldrb    r0,[r0]                                 
0804A1F8 7FE1     ldrb    r1,[r4,1Fh]                             
0804A1FA 1840     add     r0,r0,r1                                
0804A1FC 210E     mov     r1,0Eh                                  
0804A1FE 1A09     sub     r1,r1,r0                                
0804A200 1C20     mov     r0,r4                                   
0804A202 3020     add     r0,20h                                  
0804A204 7001     strb    r1,[r0]                                 
0804A206 E043     b       804A290h                                
0804A208 0738     lsl     r0,r7,1Ch                               
0804A20A 0300     lsl     r0,r0,0Ch                               
0804A20C 1C20     mov     r0,r4                                   
0804A20E 3034     add     r0,34h                                  
0804A210 7801     ldrb    r1,[r0]                                 
0804A212 3814     sub     r0,14h                                  
0804A214 7001     strb    r1,[r0]                                 
0804A216 2A00     cmp     r2,0h                                   
0804A218 D13A     bne     804A290h                                
0804A21A 8866     ldrh    r6,[r4,2h]                              
0804A21C 88A5     ldrh    r5,[r4,4h]                              
0804A21E 1C28     mov     r0,r5                                   
0804A220 1C31     mov     r1,r6                                   
0804A222 2201     mov     r2,1h                                   
0804A224 F00DFB72 bl      805790Ch                                
0804A228 7F60     ldrb    r0,[r4,1Dh]                             
0804A22A 28AD     cmp     r0,0ADh                                 
0804A22C D104     bne     804A238h                                
0804A22E 2001     mov     r0,1h                                   
0804A230 211D     mov     r1,1Dh                                  
0804A232 F016FB43 bl      80608BCh                                
0804A236 E005     b       804A244h                                
0804A238 28AE     cmp     r0,0AEh                                 
0804A23A D103     bne     804A244h                                
0804A23C 2001     mov     r0,1h                                   
0804A23E 2124     mov     r1,24h                                  
0804A240 F016FB3C bl      80608BCh                                
0804A244 4814     ldr     r0,=300083Ch                            
0804A246 7804     ldrb    r4,[r0]                                 
0804A248 1C28     mov     r0,r5                                   
0804A24A 3010     add     r0,10h                                  
0804A24C 0400     lsl     r0,r0,10h                               
0804A24E 0C05     lsr     r5,r0,10h                               
0804A250 1C21     mov     r1,r4                                   
0804A252 3948     sub     r1,48h                                  
0804A254 1A71     sub     r1,r6,r1                                
0804A256 1B2A     sub     r2,r5,r4                                
0804A258 2022     mov     r0,22h                                  
0804A25A 9000     str     r0,[sp]                                 
0804A25C 2000     mov     r0,0h                                   
0804A25E 2301     mov     r3,1h                                   
0804A260 F7C6FF10 bl      8011084h                                
0804A264 4A0D     ldr     r2,=3000738h                            
0804A266 8810     ldrh    r0,[r2]                                 
0804A268 2800     cmp     r0,0h                                   
0804A26A D011     beq     804A290h                                
0804A26C 2001     mov     r0,1h                                   
0804A26E 4004     and     r4,r0                                   
0804A270 271C     mov     r7,1Ch                                  
0804A272 2C00     cmp     r4,0h                                   
0804A274 D000     beq     804A278h                                
0804A276 271A     mov     r7,1Ah                                  
0804A278 7F91     ldrb    r1,[r2,1Eh]                             
0804A27A 1C10     mov     r0,r2                                   
0804A27C 3023     add     r0,23h                                  
0804A27E 7803     ldrb    r3,[r0]                                 
0804A280 9600     str     r6,[sp]                                 
0804A282 9501     str     r5,[sp,4h]                              
0804A284 2000     mov     r0,0h                                   
0804A286 9002     str     r0,[sp,8h]                              
0804A288 1C38     mov     r0,r7                                   
0804A28A 2200     mov     r2,0h                                   
0804A28C F7C4F8A2 bl      800E3D4h                                
0804A290 B003     add     sp,0Ch                                  
0804A292 BCF0     pop     r4-r7                                   
0804A294 BC01     pop     r0                                      
0804A296 4700     bx      r0                                      
0804A298 083C     lsr     r4,r7,20h                               
0804A29A 0300     lsl     r0,r0,0Ch                               
0804A29C 0738     lsl     r0,r7,1Ch                               
0804A29E 0300     lsl     r0,r0,0Ch                               
0804A2A0 B500     push    r14                                     
0804A2A2 4809     ldr     r0,=3000738h                            
0804A2A4 3024     add     r0,24h                                  
0804A2A6 7800     ldrb    r0,[r0]                                 
0804A2A8 2827     cmp     r0,27h                                  
0804A2AA D028     beq     804A2FEh                                
0804A2AC 2827     cmp     r0,27h                                  
0804A2AE DC13     bgt     804A2D8h                                
0804A2B0 2823     cmp     r0,23h                                  
0804A2B2 D01E     beq     804A2F2h                                
0804A2B4 2823     cmp     r0,23h                                  
0804A2B6 DC0C     bgt     804A2D2h                                
0804A2B8 2808     cmp     r0,8h                                   
0804A2BA D015     beq     804A2E8h                                
0804A2BC 2808     cmp     r0,8h                                   
0804A2BE DC05     bgt     804A2CCh                                
0804A2C0 2800     cmp     r0,0h                                   
0804A2C2 D00E     beq     804A2E2h                                
0804A2C4 E024     b       804A310h                                
0804A2C6 0000     lsl     r0,r0,0h                                
0804A2C8 0738     lsl     r0,r7,1Ch                               
0804A2CA 0300     lsl     r0,r0,0Ch                               

