

0800FC00 B500     push    r14                                     
0800FC02 480B     ldr     r0,=3000738h                            
0800FC04 7F01     ldrb    r1,[r0,1Ch]   ;读取动画帧                          
0800FC06 8AC3     ldrh    r3,[r0,16h]   ;读取动画序号                            
0800FC08 0609     lsl     r1,r1,18h                               
0800FC0A 2280     mov     r2,80h                                  
0800FC0C 0492     lsl     r2,r2,12h     ;2000000                          
0800FC0E 1889     add     r1,r1,r2      ;加上动画帧000000                          
0800FC10 0E09     lsr     r1,r1,18h     ;相当于动画帧加2?                          
0800FC12 6982     ldr     r2,[r0,18h]   ;读取OAM                          
0800FC14 00D8     lsl     r0,r3,3h      ;动画序号乘以8                          
0800FC16 1880     add     r0,r0,r2      ;加上OAM地址                          
0800FC18 7900     ldrb    r0,[r0,4h]    ;读取动画帧                         
0800FC1A 4288     cmp     r0,r1         ;当前动画帧和动画帧+2相比                          
0800FC1C D20A     bcs     @@end         ;大于等于返回0                         
0800FC1E 1C58     add     r0,r3,1       ;动画序号+1                          
0800FC20 0400     lsl     r0,r0,10h                               
0800FC22 0B40     lsr     r0,r0,0Dh     ;乘以8                          
0800FC24 1880     add     r0,r0,r2      ;加OAM                          
0800FC26 7900     ldrb    r0,[r0,4h]    ;读取动画帧                          
0800FC28 2800     cmp     r0,0h                                  
0800FC2A D103     bne     @@end         ;不等于0则返回0                     
0800FC2C 2001     mov     r0,1h         ;等于0则返回1                         
0800FC2E E002     b       @@Return1                               

@@end:                              
0800FC34 2000     mov     r0,0h         

@@Return1:                                 
0800FC36 BC02     pop     r1                                      
0800FC38 4708     bx      r1 

                                     
0800FC3A 0000     lsl     r0,r0,0h                                
0800FC3C B510     push    r4,r14                                  
0800FC3E 0600     lsl     r0,r0,18h                               
0800FC40 0E00     lsr     r0,r0,18h                               
0800FC42 4B0D     ldr     r3,=30001ACh                            
0800FC44 00C1     lsl     r1,r0,3h                                
0800FC46 1A09     sub     r1,r1,r0                                
0800FC48 00C9     lsl     r1,r1,3h                                
0800FC4A 18C8     add     r0,r1,r3                                
0800FC4C 7F02     ldrb    r2,[r0,1Ch]                             
0800FC4E 8AC4     ldrh    r4,[r0,16h]                             
0800FC50 3201     add     r2,1h                                   
0800FC52 0612     lsl     r2,r2,18h                               
0800FC54 0E12     lsr     r2,r2,18h                               
0800FC56 3318     add     r3,18h                                  
0800FC58 18C9     add     r1,r1,r3                                
0800FC5A 6809     ldr     r1,[r1]                                 
0800FC5C 00E0     lsl     r0,r4,3h                                
0800FC5E 1840     add     r0,r0,r1                                
0800FC60 7900     ldrb    r0,[r0,4h]                              
0800FC62 4290     cmp     r0,r2                                   
0800FC64 D20A     bcs     800FC7Ch                                
0800FC66 1C60     add     r0,r4,1                                 
0800FC68 0400     lsl     r0,r0,10h                               
0800FC6A 0B40     lsr     r0,r0,0Dh                               
0800FC6C 1840     add     r0,r0,r1                                
0800FC6E 7900     ldrb    r0,[r0,4h]                              
0800FC70 2800     cmp     r0,0h                                   
0800FC72 D103     bne     800FC7Ch                                
0800FC74 2001     mov     r0,1h                                   
0800FC76 E002     b       800FC7Eh                                
0800FC78 01AC     lsl     r4,r5,6h                                
0800FC7A 0300     lsl     r0,r0,0Ch                               
0800FC7C 2000     mov     r0,0h                                   
0800FC7E BC10     pop     r4                                      
0800FC80 BC02     pop     r1                                      
0800FC82 4708     bx      r1                                      
0800FC84 B510     push    r4,r14                                  
0800FC86 0600     lsl     r0,r0,18h                               
0800FC88 0E00     lsr     r0,r0,18h                               
0800FC8A 4B0E     ldr     r3,=30001ACh                            
0800FC8C 00C1     lsl     r1,r0,3h                                
0800FC8E 1A09     sub     r1,r1,r0                                
0800FC90 00C9     lsl     r1,r1,3h                                
0800FC92 18C8     add     r0,r1,r3                                
0800FC94 7F02     ldrb    r2,[r0,1Ch]                             
0800FC96 8AC4     ldrh    r4,[r0,16h]                             
0800FC98 0612     lsl     r2,r2,18h                               
0800FC9A 2080     mov     r0,80h                                  
0800FC9C 0480     lsl     r0,r0,12h                               
0800FC9E 1812     add     r2,r2,r0                                
0800FCA0 0E12     lsr     r2,r2,18h                               
0800FCA2 3318     add     r3,18h                                  
0800FCA4 18C9     add     r1,r1,r3                                
0800FCA6 6809     ldr     r1,[r1]                                 
0800FCA8 00E0     lsl     r0,r4,3h                                
0800FCAA 1840     add     r0,r0,r1                                
0800FCAC 7900     ldrb    r0,[r0,4h]                              
0800FCAE 4290     cmp     r0,r2                                   
0800FCB0 D20A     bcs     800FCC8h                                
0800FCB2 1C60     add     r0,r4,1                                 
0800FCB4 0400     lsl     r0,r0,10h                               
0800FCB6 0B40     lsr     r0,r0,0Dh                               
0800FCB8 1840     add     r0,r0,r1                                
0800FCBA 7900     ldrb    r0,[r0,4h]                              
0800FCBC 2800     cmp     r0,0h                                   
0800FCBE D103     bne     800FCC8h                                
0800FCC0 2001     mov     r0,1h                                   
0800FCC2 E002     b       800FCCAh                                
0800FCC4 01AC     lsl     r4,r5,6h                                
0800FCC6 0300     lsl     r0,r0,0Ch                               
0800FCC8 2000     mov     r0,0h                                   
0800FCCA BC10     pop     r4                                      
0800FCCC BC02     pop     r1                                      
0800FCCE 4708     bx      r1                                      
0800FCD0 B500     push    r14                                     
0800FCD2 480A     ldr     r0,=300070Ch                            
0800FCD4 7B01     ldrb    r1,[r0,0Ch]                             
0800FCD6 8882     ldrh    r2,[r0,4h]                              
0800FCD8 3101     add     r1,1h                                   
0800FCDA 0609     lsl     r1,r1,18h                               
0800FCDC 0E09     lsr     r1,r1,18h                               
0800FCDE 6803     ldr     r3,[r0]                                 
0800FCE0 00D0     lsl     r0,r2,3h                                
0800FCE2 18C0     add     r0,r0,r3                                
0800FCE4 7900     ldrb    r0,[r0,4h]                              
0800FCE6 4288     cmp     r0,r1                                   
0800FCE8 D20A     bcs     800FD00h                                
0800FCEA 1C50     add     r0,r2,1                                 
0800FCEC 0400     lsl     r0,r0,10h                               
0800FCEE 0B40     lsr     r0,r0,0Dh                               
0800FCF0 18C0     add     r0,r0,r3                                
0800FCF2 7900     ldrb    r0,[r0,4h]                              
0800FCF4 2800     cmp     r0,0h                                   
0800FCF6 D103     bne     800FD00h                                
0800FCF8 2001     mov     r0,1h                                   
0800FCFA E002     b       800FD02h                                
0800FCFC 070C     lsl     r4,r1,1Ch                               
0800FCFE 0300     lsl     r0,r0,0Ch                               
0800FD00 2000     mov     r0,0h                                   
0800FD02 BC02     pop     r1                                      
0800FD04 4708     bx      r1                                      
0800FD06 0000     lsl     r0,r0,0h                                
0800FD08 B500     push    r14                                     
0800FD0A 480B     ldr     r0,=300070Ch                            
0800FD0C 7B01     ldrb    r1,[r0,0Ch]                             
0800FD0E 8883     ldrh    r3,[r0,4h]                              
0800FD10 0609     lsl     r1,r1,18h                               
0800FD12 2280     mov     r2,80h                                  
0800FD14 0492     lsl     r2,r2,12h                               
0800FD16 1889     add     r1,r1,r2                                
0800FD18 0E09     lsr     r1,r1,18h                               
0800FD1A 6802     ldr     r2,[r0]                                 
0800FD1C 00D8     lsl     r0,r3,3h                                
0800FD1E 1880     add     r0,r0,r2                                
0800FD20 7900     ldrb    r0,[r0,4h]                              
0800FD22 4288     cmp     r0,r1                                   
0800FD24 D20A     bcs     800FD3Ch                                
0800FD26 1C58     add     r0,r3,1                                 
0800FD28 0400     lsl     r0,r0,10h                               
0800FD2A 0B40     lsr     r0,r0,0Dh                               
0800FD2C 1880     add     r0,r0,r2                                
0800FD2E 7900     ldrb    r0,[r0,4h]                              
0800FD30 2800     cmp     r0,0h                                   
0800FD32 D103     bne     800FD3Ch                                
0800FD34 2001     mov     r0,1h                                   
0800FD36 E002     b       800FD3Eh                                
0800FD38 070C     lsl     r4,r1,1Ch                               
0800FD3A 0300     lsl     r0,r0,0Ch                               
0800FD3C 2000     mov     r0,0h                                   
0800FD3E BC02     pop     r1                                      
0800FD40 4708     bx      r1                                      
0800FD42 0000     lsl     r0,r0,0h                                
0800FD44 B500     push    r14                                     
0800FD46 480A     ldr     r0,=3000720h                            
0800FD48 7B01     ldrb    r1,[r0,0Ch]                             
0800FD4A 8882     ldrh    r2,[r0,4h]                              
0800FD4C 3101     add     r1,1h                                   
0800FD4E 0609     lsl     r1,r1,18h                               
0800FD50 0E09     lsr     r1,r1,18h                               
0800FD52 6803     ldr     r3,[r0]                                 
0800FD54 00D0     lsl     r0,r2,3h                                
0800FD56 18C0     add     r0,r0,r3                                
0800FD58 7900     ldrb    r0,[r0,4h]                              
0800FD5A 4288     cmp     r0,r1                                   
0800FD5C D20A     bcs     800FD74h                                
0800FD5E 1C50     add     r0,r2,1                                 
0800FD60 0400     lsl     r0,r0,10h                               
0800FD62 0B40     lsr     r0,r0,0Dh                               
0800FD64 18C0     add     r0,r0,r3                                
0800FD66 7900     ldrb    r0,[r0,4h]                              
0800FD68 2800     cmp     r0,0h                                   
0800FD6A D103     bne     800FD74h                                
0800FD6C 2001     mov     r0,1h                                   
0800FD6E E002     b       800FD76h                                
0800FD70 0720     lsl     r0,r4,1Ch                               
0800FD72 0300     lsl     r0,r0,0Ch                               
0800FD74 2000     mov     r0,0h                                   
0800FD76 BC02     pop     r1                                      
0800FD78 4708     bx      r1                                      
0800FD7A 0000     lsl     r0,r0,0h                                
0800FD7C B500     push    r14                                     
0800FD7E 7B01     ldrb    r1,[r0,0Ch]                             
0800FD80 8882     ldrh    r2,[r0,4h]                              
0800FD82 3101     add     r1,1h                                   
0800FD84 0609     lsl     r1,r1,18h                               
0800FD86 0E09     lsr     r1,r1,18h                               
0800FD88 6803     ldr     r3,[r0]                                 
0800FD8A 00D0     lsl     r0,r2,3h                                
0800FD8C 18C0     add     r0,r0,r3                                
0800FD8E 7900     ldrb    r0,[r0,4h]                              
0800FD90 4288     cmp     r0,r1                                   
0800FD92 D208     bcs     800FDA6h                                
0800FD94 1C50     add     r0,r2,1                                 
0800FD96 0400     lsl     r0,r0,10h                               
0800FD98 0B40     lsr     r0,r0,0Dh                               
0800FD9A 18C0     add     r0,r0,r3                                
0800FD9C 7900     ldrb    r0,[r0,4h]                              
0800FD9E 2800     cmp     r0,0h                                   
0800FDA0 D101     bne     800FDA6h                                
0800FDA2 2001     mov     r0,1h                                   
0800FDA4 E000     b       800FDA8h                                
0800FDA6 2000     mov     r0,0h                                   
0800FDA8 BC02     pop     r1                                      
0800FDAA 4708     bx      r1                                      
0800FDAC B500     push    r14                                     
0800FDAE 7B01     ldrb    r1,[r0,0Ch]                             
0800FDB0 8883     ldrh    r3,[r0,4h]                              
0800FDB2 0609     lsl     r1,r1,18h                               
0800FDB4 2280     mov     r2,80h                                  
0800FDB6 0492     lsl     r2,r2,12h                               
0800FDB8 1889     add     r1,r1,r2                                
0800FDBA 0E09     lsr     r1,r1,18h                               
0800FDBC 6802     ldr     r2,[r0]                                 
0800FDBE 00D8     lsl     r0,r3,3h                                
0800FDC0 1880     add     r0,r0,r2                                
0800FDC2 7900     ldrb    r0,[r0,4h]                              
0800FDC4 4288     cmp     r0,r1                                   
0800FDC6 D208     bcs     800FDDAh                                
0800FDC8 1C58     add     r0,r3,1                                 
0800FDCA 0400     lsl     r0,r0,10h                               
0800FDCC 0B40     lsr     r0,r0,0Dh                               
0800FDCE 1880     add     r0,r0,r2                                
0800FDD0 7900     ldrb    r0,[r0,4h]                              
0800FDD2 2800     cmp     r0,0h                                   
0800FDD4 D101     bne     800FDDAh                                
0800FDD6 2001     mov     r0,1h                                   
0800FDD8 E000     b       800FDDCh                                
0800FDDA 2000     mov     r0,0h                                   
0800FDDC BC02     pop     r1                                      
0800FDDE 4708     bx      r1                                      
0800FDE0 B5F0     push    r4-r7,r14                               
0800FDE2 0400     lsl     r0,r0,10h                               
0800FDE4 0C05     lsr     r5,r0,10h                               
0800FDE6 0409     lsl     r1,r1,10h                               
0800FDE8 0C0F     lsr     r7,r1,10h                               
0800FDEA 2600     mov     r6,0h                                   
0800FDEC 4A09     ldr     r2,=30013D4h                            
0800FDEE 480A     ldr     r0,=3001588h                            
0800FDF0 3070     add     r0,70h                                  
0800FDF2 2100     mov     r1,0h                                   
0800FDF4 5E40     ldsh    r0,[r0,r1]                              
0800FDF6 0FC1     lsr     r1,r0,1Fh                               
0800FDF8 1840     add     r0,r0,r1                                
0800FDFA 1040     asr     r0,r0,1h                                
0800FDFC 8A91     ldrh    r1,[r2,14h]                             
0800FDFE 1840     add     r0,r0,r1                                
0800FE00 0400     lsl     r0,r0,10h                               
0800FE02 0C03     lsr     r3,r0,10h                               
0800FE04 8A54     ldrh    r4,[r2,12h]                             
0800FE06 4805     ldr     r0,=3000738h                            
0800FE08 8841     ldrh    r1,[r0,2h]                              
0800FE0A 8882     ldrh    r2,[r0,4h]                              
0800FE0C 4299     cmp     r1,r3                                   
0800FE0E D907     bls     800FE20h                                
0800FE10 1AC8     sub     r0,r1,r3                                
0800FE12 E006     b       800FE22h                                
0800FE14 13D4     asr     r4,r2,0Fh                               
0800FE16 0300     lsl     r0,r0,0Ch                               
0800FE18 1588     asr     r0,r1,16h                               
0800FE1A 0300     lsl     r0,r0,0Ch                               
0800FE1C 0738     lsl     r0,r7,1Ch                               
0800FE1E 0300     lsl     r0,r0,0Ch                               
0800FE20 1A58     sub     r0,r3,r1                                
0800FE22 42A8     cmp     r0,r5                                   
0800FE24 DB01     blt     800FE2Ah                                
0800FE26 2000     mov     r0,0h                                   
0800FE28 E00B     b       800FE42h                                
0800FE2A 42A2     cmp     r2,r4                                   
0800FE2C D904     bls     800FE38h                                
0800FE2E 1B10     sub     r0,r2,r4                                
0800FE30 42B8     cmp     r0,r7                                   
0800FE32 DA05     bge     800FE40h                                
0800FE34 2604     mov     r6,4h                                   
0800FE36 E003     b       800FE40h                                
0800FE38 1AA0     sub     r0,r4,r2                                
0800FE3A 42B8     cmp     r0,r7                                   
0800FE3C DA00     bge     800FE40h                                
0800FE3E 2608     mov     r6,8h                                   
0800FE40 1C30     mov     r0,r6                                   
0800FE42 BCF0     pop     r4-r7                                   
0800FE44 BC02     pop     r1                                      
0800FE46 4708     bx      r1                                      
0800FE48 B570     push    r4-r6,r14                               
0800FE4A 0400     lsl     r0,r0,10h                               
0800FE4C 0C06     lsr     r6,r0,10h                               
0800FE4E 0409     lsl     r1,r1,10h                               
0800FE50 0C0C     lsr     r4,r1,10h                               
0800FE52 2500     mov     r5,0h                                   
0800FE54 4A09     ldr     r2,=30013D4h                            
0800FE56 480A     ldr     r0,=3001588h                            
0800FE58 3070     add     r0,70h                                  
0800FE5A 2100     mov     r1,0h                                   
0800FE5C 5E40     ldsh    r0,[r0,r1]                              
0800FE5E 0FC1     lsr     r1,r0,1Fh                               
0800FE60 1840     add     r0,r0,r1                                
0800FE62 1040     asr     r0,r0,1h                                
0800FE64 8A91     ldrh    r1,[r2,14h]                             
0800FE66 1840     add     r0,r0,r1                                
0800FE68 0400     lsl     r0,r0,10h                               
0800FE6A 0C03     lsr     r3,r0,10h                               
0800FE6C 8A51     ldrh    r1,[r2,12h]                             
0800FE6E 4805     ldr     r0,=3000738h                            
0800FE70 8842     ldrh    r2,[r0,2h]                              
0800FE72 8880     ldrh    r0,[r0,4h]                              
0800FE74 4288     cmp     r0,r1                                   
0800FE76 D907     bls     800FE88h                                
0800FE78 1A40     sub     r0,r0,r1                                
0800FE7A E006     b       800FE8Ah                                
0800FE7C 13D4     asr     r4,r2,0Fh                               
0800FE7E 0300     lsl     r0,r0,0Ch                               
0800FE80 1588     asr     r0,r1,16h                               
0800FE82 0300     lsl     r0,r0,0Ch                               
0800FE84 0738     lsl     r0,r7,1Ch                               
0800FE86 0300     lsl     r0,r0,0Ch                               
0800FE88 1A08     sub     r0,r1,r0                                
0800FE8A 42A0     cmp     r0,r4                                   
0800FE8C DB01     blt     800FE92h                                
0800FE8E 2000     mov     r0,0h                                   
0800FE90 E00B     b       800FEAAh                                
0800FE92 429A     cmp     r2,r3                                   
0800FE94 D904     bls     800FEA0h                                
0800FE96 1AD0     sub     r0,r2,r3                                
0800FE98 42B0     cmp     r0,r6                                   
0800FE9A DA05     bge     800FEA8h                                
0800FE9C 2501     mov     r5,1h                                   
0800FE9E E003     b       800FEA8h                                
0800FEA0 1A98     sub     r0,r3,r2                                
0800FEA2 42B0     cmp     r0,r6                                   
0800FEA4 DA00     bge     800FEA8h                                
0800FEA6 2502     mov     r5,2h                                   
0800FEA8 1C28     mov     r0,r5                                   
0800FEAA BC70     pop     r4-r6                                   
0800FEAC BC02     pop     r1                                      
0800FEAE 4708     bx      r1                                      
0800FEB0 B5F0     push    r4-r7,r14                               
0800FEB2 464F     mov     r7,r9                                   
0800FEB4 4646     mov     r6,r8                                   
0800FEB6 B4C0     push    r6,r7                                   
0800FEB8 0400     lsl     r0,r0,10h                               
0800FEBA 0C07     lsr     r7,r0,10h                               
0800FEBC 0409     lsl     r1,r1,10h                               
0800FEBE 0C09     lsr     r1,r1,10h                               
0800FEC0 4689     mov     r9,r1                                   
0800FEC2 0412     lsl     r2,r2,10h                               
0800FEC4 0C12     lsr     r2,r2,10h                               
0800FEC6 4690     mov     r8,r2                                   
0800FEC8 2000     mov     r0,0h                                   
0800FECA 4684     mov     r12,r0                                  
0800FECC 2600     mov     r6,0h                                   
0800FECE 4A0A     ldr     r2,=30013D4h                            
0800FED0 480A     ldr     r0,=3001588h                            
0800FED2 3070     add     r0,70h                                  
0800FED4 2100     mov     r1,0h                                   
0800FED6 5E40     ldsh    r0,[r0,r1]                              
0800FED8 0FC1     lsr     r1,r0,1Fh                               
0800FEDA 1840     add     r0,r0,r1                                
0800FEDC 1040     asr     r0,r0,1h                                
0800FEDE 8A91     ldrh    r1,[r2,14h]                             
0800FEE0 1840     add     r0,r0,r1                                
0800FEE2 0400     lsl     r0,r0,10h                               
0800FEE4 0C03     lsr     r3,r0,10h                               
0800FEE6 8A55     ldrh    r5,[r2,12h]                             
0800FEE8 4805     ldr     r0,=3000738h                            
0800FEEA 8842     ldrh    r2,[r0,2h]                              
0800FEEC 8884     ldrh    r4,[r0,4h]                              
0800FEEE 1C01     mov     r1,r0                                   
0800FEF0 429A     cmp     r2,r3                                   
0800FEF2 D907     bls     800FF04h                                
0800FEF4 1AD0     sub     r0,r2,r3                                
0800FEF6 E006     b       800FF06h                                
0800FEF8 13D4     asr     r4,r2,0Fh                               
0800FEFA 0300     lsl     r0,r0,0Ch                               
0800FEFC 1588     asr     r0,r1,16h                               
0800FEFE 0300     lsl     r0,r0,0Ch                               
0800FF00 0738     lsl     r0,r7,1Ch                               
0800FF02 0300     lsl     r0,r0,0Ch                               
0800FF04 1A98     sub     r0,r3,r2                                
0800FF06 42B8     cmp     r0,r7                                   
0800FF08 DB01     blt     800FF0Eh                                
0800FF0A 2000     mov     r0,0h                                   
0800FF0C E022     b       800FF54h                                
0800FF0E 8809     ldrh    r1,[r1]                                 
0800FF10 2040     mov     r0,40h                                  
0800FF12 4008     and     r0,r1                                   
0800FF14 2800     cmp     r0,0h                                   
0800FF16 D000     beq     800FF1Ah                                
0800FF18 2601     mov     r6,1h                                   
0800FF1A 42AC     cmp     r4,r5                                   
0800FF1C D90C     bls     800FF38h                                
0800FF1E 2E00     cmp     r6,0h                                   
0800FF20 D005     beq     800FF2Eh                                
0800FF22 1B60     sub     r0,r4,r5                                
0800FF24 4540     cmp     r0,r8                                   
0800FF26 DA14     bge     800FF52h                                
0800FF28 200C     mov     r0,0Ch                                  
0800FF2A 4684     mov     r12,r0                                  
0800FF2C E011     b       800FF52h                                
0800FF2E 1B60     sub     r0,r4,r5                                
0800FF30 4548     cmp     r0,r9                                   
0800FF32 DA0E     bge     800FF52h                                
0800FF34 2103     mov     r1,3h                                   
0800FF36 E00B     b       800FF50h                                
0800FF38 2E00     cmp     r6,0h                                   
0800FF3A D005     beq     800FF48h                                
0800FF3C 1B28     sub     r0,r5,r4                                
0800FF3E 4548     cmp     r0,r9                                   
0800FF40 DA07     bge     800FF52h                                
0800FF42 2003     mov     r0,3h                                   
0800FF44 4684     mov     r12,r0                                  
0800FF46 E004     b       800FF52h                                
0800FF48 1B28     sub     r0,r5,r4                                
0800FF4A 4540     cmp     r0,r8                                   
0800FF4C DA01     bge     800FF52h                                
0800FF4E 210C     mov     r1,0Ch                                  
0800FF50 468C     mov     r12,r1                                  
0800FF52 4660     mov     r0,r12                                  
0800FF54 BC18     pop     r3,r4                                   
0800FF56 4698     mov     r8,r3                                   
0800FF58 46A1     mov     r9,r4                                   
0800FF5A BCF0     pop     r4-r7                                   
0800FF5C BC02     pop     r1                                      
0800FF5E 4708     bx      r1                                      
0800FF60 B530     push    r4,r5,r14                               
0800FF62 1C04     mov     r4,r0                                   
0800FF64 8821     ldrh    r1,[r4]                                 
0800FF66 2080     mov     r0,80h                                  
0800FF68 0140     lsl     r0,r0,5h                                
0800FF6A 4008     and     r0,r1                                   
0800FF6C 0400     lsl     r0,r0,10h                               
0800FF6E 0C00     lsr     r0,r0,10h                               
0800FF70 2800     cmp     r0,0h                                   
0800FF72 D013     beq     800FF9Ch                                
0800FF74 4D07     ldr     r5,=30013D4h                            
0800FF76 7868     ldrb    r0,[r5,1h]                              
0800FF78 2801     cmp     r0,1h                                   
0800FF7A D006     beq     800FF8Ah                                
0800FF7C 2802     cmp     r0,2h                                   
0800FF7E D102     bne     800FF86h                                
0800FF80 20FD     mov     r0,0FDh                                 
0800FF82 F7F7FAB1 bl      80074E8h                                
0800FF86 2001     mov     r0,1h                                   
0800FF88 7068     strb    r0,[r5,1h]                              
0800FF8A 8821     ldrh    r1,[r4]                                 
0800FF8C 4802     ldr     r0,=0EFFFh                              
0800FF8E 4008     and     r0,r1                                   
0800FF90 8020     strh    r0,[r4]                                 
0800FF92 E024     b       800FFDEh                                
0800FF94 13D4     asr     r4,r2,0Fh                               
0800FF96 0300     lsl     r0,r0,0Ch                               
0800FF98 EFFF     ????                                            
0800FF9A 0000     lsl     r0,r0,0h                                
0800FF9C 1C21     mov     r1,r4                                   
0800FF9E 3131     add     r1,31h                                  
0800FFA0 780A     ldrb    r2,[r1]                                 
0800FFA2 2A01     cmp     r2,1h                                   
0800FFA4 D014     beq     800FFD0h                                
0800FFA6 2A02     cmp     r2,2h                                   
0800FFA8 D119     bne     800FFDEh                                
0800FFAA 2001     mov     r0,1h                                   
0800FFAC 7008     strb    r0,[r1]                                 
0800FFAE 4806     ldr     r0,=30013F4h                            
0800FFB0 4906     ldr     r1,=30013D4h                            
0800FFB2 8A80     ldrh    r0,[r0,14h]                             
0800FFB4 8A8A     ldrh    r2,[r1,14h]                             
0800FFB6 4290     cmp     r0,r2                                   
0800FFB8 D811     bhi     800FFDEh                                
0800FFBA 8960     ldrh    r0,[r4,0Ah]                             
0800FFBC 8864     ldrh    r4,[r4,2h]                              
0800FFBE 1900     add     r0,r0,r4                                
0800FFC0 3001     add     r0,1h                                   
0800FFC2 8288     strh    r0,[r1,14h]                             
0800FFC4 E00B     b       800FFDEh                                
0800FFC6 0000     lsl     r0,r0,0h                                
0800FFC8 13F4     asr     r4,r6,0Fh                               
0800FFCA 0300     lsl     r0,r0,0Ch                               
0800FFCC 13D4     asr     r4,r2,0Fh                               
0800FFCE 0300     lsl     r0,r0,0Ch                               
0800FFD0 7008     strb    r0,[r1]                                 
0800FFD2 4904     ldr     r1,=30013D4h                            
0800FFD4 7848     ldrb    r0,[r1,1h]                              
0800FFD6 2801     cmp     r0,1h                                   
0800FFD8 D101     bne     800FFDEh                                
0800FFDA 2002     mov     r0,2h                                   
0800FFDC 7048     strb    r0,[r1,1h]                              
0800FFDE BC30     pop     r4,r5                                   
0800FFE0 BC01     pop     r0                                      
0800FFE2 4700     bx      r0                                      
0800FFE4 13D4     asr     r4,r2,0Fh                               
0800FFE6 0300     lsl     r0,r0,0Ch                               
0800FFE8 B510     push    r4,r14                                  
0800FFEA 4812     ldr     r0,=3000C77h                            
0800FFEC 7801     ldrb    r1,[r0]                                 
0800FFEE 2401     mov     r4,1h                                   
0800FFF0 1C20     mov     r0,r4                                   
0800FFF2 4008     and     r0,r1                                   
0800FFF4 4B10     ldr     r3,=3000738h                            
0800FFF6 2800     cmp     r0,0h                                   
0800FFF8 D004     beq     8010004h                                
0800FFFA 1C19     mov     r1,r3                                   
0800FFFC 3130     add     r1,30h                                  
0800FFFE 7808     ldrb    r0,[r1]                                 
08010000 3801     sub     r0,1h                                   
08010002 7008     strb    r0,[r1]                                 
08010004 1C1A     mov     r2,r3                                   
08010006 1C10     mov     r0,r2                                   
08010008 3030     add     r0,30h                                  
0801000A 7801     ldrb    r1,[r0]                                 
0801000C 2900     cmp     r1,0h                                   
0801000E D102     bne     8010016h                                
08010010 7F10     ldrb    r0,[r2,1Ch]                             
08010012 3801     sub     r0,1h                                   
08010014 7710     strb    r0,[r2,1Ch]                             
08010016 292D     cmp     r1,2Dh                                  
08010018 D815     bhi     8010046h                                
0801001A 4021     and     r1,r4                                   
0801001C 2900     cmp     r1,0h                                   
0801001E D00D     beq     801003Ch                                
08010020 1C10     mov     r0,r2                                   
08010022 3033     add     r0,33h                                  
08010024 7800     ldrb    r0,[r0]                                 
08010026 7FD1     ldrb    r1,[r2,1Fh]                             
08010028 1840     add     r0,r0,r1                                
0801002A 210F     mov     r1,0Fh                                  
0801002C 1A09     sub     r1,r1,r0                                
0801002E 1C10     mov     r0,r2                                   
08010030 3020     add     r0,20h                                  
08010032 E007     b       8010044h                                
08010034 0C77     lsr     r7,r6,11h                               
08010036 0300     lsl     r0,r0,0Ch                               
08010038 0738     lsl     r0,r7,1Ch                               
0801003A 0300     lsl     r0,r0,0Ch                               
0801003C 1C18     mov     r0,r3                                   
0801003E 3034     add     r0,34h                                  
08010040 7801     ldrb    r1,[r0]                                 
08010042 3814     sub     r0,14h                                  
08010044 7001     strb    r1,[r0]                                 
08010046 BC10     pop     r4                                      
08010048 BC01     pop     r0                                      
0801004A 4700     bx      r0                                      
0801004C B500     push    r14                                     
0801004E 4A10     ldr     r2,=3000738h                            
08010050 1C10     mov     r0,r2                                   
08010052 3030     add     r0,30h                                  
08010054 7801     ldrb    r1,[r0]                                 
08010056 3901     sub     r1,1h                                   
08010058 7001     strb    r1,[r0]                                 
0801005A 7800     ldrb    r0,[r0]                                 
0801005C 1C01     mov     r1,r0                                   
0801005E 2900     cmp     r1,0h                                   
08010060 D102     bne     8010068h                                
08010062 7F10     ldrb    r0,[r2,1Ch]                             
08010064 3801     sub     r0,1h                                   
08010066 7710     strb    r0,[r2,1Ch]                             
08010068 295A     cmp     r1,5Ah                                  
0801006A D818     bhi     801009Eh                                
0801006C 2001     mov     r0,1h                                   
0801006E 4008     and     r0,r1                                   
08010070 2800     cmp     r0,0h                                   
08010072 D114     bne     801009Eh                                
08010074 2002     mov     r0,2h                                   
08010076 4008     and     r0,r1                                   
08010078 2800     cmp     r0,0h                                   
0801007A D00B     beq     8010094h                                
0801007C 1C10     mov     r0,r2                                   
0801007E 3033     add     r0,33h                                  
08010080 7800     ldrb    r0,[r0]                                 
08010082 7FD1     ldrb    r1,[r2,1Fh]                             
08010084 1840     add     r0,r0,r1                                
08010086 210F     mov     r1,0Fh                                  
08010088 1A09     sub     r1,r1,r0                                
0801008A 1C10     mov     r0,r2                                   
0801008C 3020     add     r0,20h                                  
0801008E E005     b       801009Ch                                
08010090 0738     lsl     r0,r7,1Ch                               
08010092 0300     lsl     r0,r0,0Ch                               
08010094 1C10     mov     r0,r2                                   
08010096 3034     add     r0,34h                                  
08010098 7801     ldrb    r1,[r0]                                 
0801009A 3814     sub     r0,14h                                  
0801009C 7001     strb    r1,[r0]                                 
0801009E BC01     pop     r0                                      
080100A0 4700     bx      r0                                      
080100A2 0000     lsl     r0,r0,0h                                
080100A4 B500     push    r14                                     
080100A6 4A10     ldr     r2,=3000738h                            
080100A8 1C10     mov     r0,r2                                   
080100AA 3030     add     r0,30h                                  
080100AC 7801     ldrb    r1,[r0]                                 
080100AE 3902     sub     r1,2h                                   
080100B0 7001     strb    r1,[r0]                                 
080100B2 7800     ldrb    r0,[r0]                                 
080100B4 1C01     mov     r1,r0                                   
080100B6 2900     cmp     r1,0h                                   
080100B8 D102     bne     80100C0h                                
080100BA 7F10     ldrb    r0,[r2,1Ch]                             
080100BC 3801     sub     r0,1h                                   
080100BE 7710     strb    r0,[r2,1Ch]                             
080100C0 2978     cmp     r1,78h                                  
080100C2 D818     bhi     80100F6h                                
080100C4 2002     mov     r0,2h                                   
080100C6 4008     and     r0,r1                                   
080100C8 2800     cmp     r0,0h                                   
080100CA D114     bne     80100F6h                                
080100CC 2004     mov     r0,4h                                   
080100CE 4008     and     r0,r1                                   
080100D0 2800     cmp     r0,0h                                   
080100D2 D00B     beq     80100ECh                                
080100D4 1C10     mov     r0,r2                                   
080100D6 3033     add     r0,33h                                  
080100D8 7800     ldrb    r0,[r0]                                 
080100DA 7FD1     ldrb    r1,[r2,1Fh]                             
080100DC 1840     add     r0,r0,r1                                
080100DE 210F     mov     r1,0Fh                                  
080100E0 1A09     sub     r1,r1,r0                                
080100E2 1C10     mov     r0,r2                                   
080100E4 3020     add     r0,20h                                  
080100E6 E005     b       80100F4h                                
080100E8 0738     lsl     r0,r7,1Ch                               
080100EA 0300     lsl     r0,r0,0Ch                               
080100EC 1C10     mov     r0,r2                                   
080100EE 3034     add     r0,34h                                  
080100F0 7801     ldrb    r1,[r0]                                 
080100F2 3814     sub     r0,14h                                  
080100F4 7001     strb    r1,[r0]                                 
080100F6 BC01     pop     r0                                      
080100F8 4700     bx      r0                                      
080100FA 0000     lsl     r0,r0,0h                                
080100FC B5F0     push    r4-r7,r14                               
080100FE 4647     mov     r7,r8                                   

