
;生产砖块
08057E7C B5F0     push    r4-r7,r14                               
08057E7E 4647     mov     r7,r8                                   
08057E80 B480     push    r7                                      
08057E82 B085     add     sp,-14h                                 
08057E84 0400     lsl     r0,r0,10h                               
08057E86 0C07     lsr     r7,r0,10h  ;Y坐标                             
08057E88 0409     lsl     r1,r1,10h                               
08057E8A 0C0A     lsr     r2,r1,10h  ;X坐标                             
08057E8C 4690     mov     r8,r2                                   
08057E8E 466A     mov     r2,r13                                  
08057E90 0D80     lsr     r0,r0,16h  ;得到Y值                             
08057E92 2400     mov     r4,0h                                   
08057E94 2300     mov     r3,0h                                   
08057E96 8250     strh    r0,[r2,12h]  ;Y值写入SP+12h                           
08057E98 4668     mov     r0,r13                                  
08057E9A 0D89     lsr     r1,r1,16h    ;得到X值                           
08057E9C 8201     strh    r1,[r0,10h]  ;写入SP+10                            
08057E9E 4A08     ldr     r2,=300009Ch                            
08057EA0 8B90     ldrh    r0,[r2,1Ch]  ;读取30000b8 房间宽度                           
08057EA2 4281     cmp     r1,r0        ;X值比较房间宽度                           
08057EA4 D204     bcs     @@equalormorethan                                
08057EA6 4668     mov     r0,r13                                  
08057EA8 8A40     ldrh    r0,[r0,12h]  ;读取Y值                           
08057EAA 8BD2     ldrh    r2,[r2,1Eh]  ;读取房间高度                           
08057EAC 4290     cmp     r0,r2        ;Y值和房间高度比较                           
08057EAE D30D     bcc     @@Nomorethan  

@@equalormorethan:                              
08057EB0 4804     ldr     r0,=30000DCh                            
08057EB2 8003     strh    r3,[r0]                                 
08057EB4 8043     strh    r3,[r0,2h]   ;房间的填充浸入值归0                           
08057EB6 4804     ldr     r0,=3000079h                            
08057EB8 7004     strb    r4,[r0]      ;要造的砖写入0                           
08057EBA 2000     mov     r0,0h                                   
08057EBC E04F     b       @@end                                

@@Nomorethan:                               
08057ECC 4A08     ldr     r2,=3000079h                            
08057ECE 7811     ldrb    r1,[r2]       ;读取3000079的值                          
08057ED0 2900     cmp     r1,0h                                   
08057ED2 D111     bne     @@Make                                
08057ED4 2002     mov     r0,2h                                   
08057ED6 9003     str     r0,[sp,0Ch]   ;SP+C写入2                          
08057ED8 4806     ldr     r0,=30000DCh                            
08057EDA 8001     strh    r1,[r0]                                 
08057EDC 8041     strh    r1,[r0,2h]    ;浸入填充为0                          
08057EDE 4668     mov     r0,r13                                  
08057EE0 8A41     ldrh    r1,[r0,12h]   ;读取Y值                          
08057EE2 8A02     ldrh    r2,[r0,10h]   ;读取X值                          
08057EE4 1C38     mov     r0,r7                                   
08057EE6 2302     mov     r3,2h                                   
08057EE8 F000F8EA bl      80580C0h                                
08057EEC E00E     b       @@goto                                

@@Make:                               
08057EF8 2905     cmp     r1,5h         ;制造砖块设定值如果                          
08057EFA D905     bls     @@lessthan5      ;小于等于5跳转                           
08057EFC 2001     mov     r0,1h                                   
08057EFE 9003     str     r0,[sp,0Ch]     ;如果是5以上SP+C写入1                       
08057F00 2906     cmp     r1,6h           ;不等于                        
08057F02 D103     bne     @@goto                                
08057F04 7014     strb    r4,[r2]         ;如果是6则要造砖设定值写入0                        
08057F06 E001     b       @@goto 

@@lessthan5:                               
08057F08 2002     mov     r0,2h                                   
08057F0A 9003     str     r0,[sp,0Ch]   ;SP+C写入2

@@goto:                            
08057F0C 4A17     ldr     r2,=300009Ch                            
08057F0E 4668     mov     r0,r13                                  
08057F10 8A45     ldrh    r5,[r0,12h]   ;得到Y值                          
08057F12 8B90     ldrh    r0,[r2,1Ch]   ;得到房间宽度                          
08057F14 4368     mul     r0,r5                                   
08057F16 4669     mov     r1,r13                                  
08057F18 8A0B     ldrh    r3,[r1,10h]                             
08057F1A 18C0     add     r0,r0,r3                                
08057F1C 6991     ldr     r1,[r2,18h]                             
08057F1E 0040     lsl     r0,r0,1h                                
08057F20 1840     add     r0,r0,r1      ;得到偏移值                          
08057F22 8804     ldrh    r4,[r0]       ;读取CLIP序号                          
08057F24 4E12     ldr     r6,=3000079h                            
08057F26 7830     ldrb    r0,[r6]       ;读取造砖设定值                          
08057F28 2800     cmp     r0,0h                                   
08057F2A D006     beq     @@zero                                
08057F2C 1C22     mov     r2,r4         ;CLIP序号                           
08057F2E 1C28     mov     r0,r5         ;Y值                         
08057F30 1C19     mov     r1,r3         ;X值                          
08057F32 F001FCA3 bl      805987Ch      ;造砖?????                           
08057F36 2000     mov     r0,0h                                   
08057F38 7030     strb    r0,[r6]       ;造砖设定值归零

@@zero:                                
08057F3A 480E     ldr     r0,=3005450h                            
08057F3C 6840     ldr     r0,[r0,4h]    ;砖块碰撞地址                          
08057F3E 1900     add     r0,r0,r4      ;加上clip序号                          
08057F40 7800     ldrb    r0,[r0]       ;读取碰撞                          
08057F42 9000     str     r0,[sp]       ;写入SP                          
08057F44 213F     mov     r1,3Fh                                  
08057F46 1C38     mov     r0,r7                                   
08057F48 4008     and     r0,r1         ;Y坐标 and 3f 仅当40时为0                          
08057F4A 9002     str     r0,[sp,8h]    ;写入sp+8                          
08057F4C 4640     mov     r0,r8                                   
08057F4E 4008     and     r0,r1         ;X坐标也同样 余40的数皆有                         
08057F50 9001     str     r0,[sp,4h]    ;写入SP+4                          
08057F52 4809     ldr     r0,=3005704h                            
08057F54 6801     ldr     r1,[r0]                                 
08057F56 4668     mov     r0,r13                                  
08057F58 F032FE50 bl      808ABFCh      ;BX R1                          
08057F5C 1C04     mov     r4,r0 

@@end:                                  
08057F5E B005     add     sp,14h                                  
08057F60 BC08     pop     r3                                      
08057F62 4698     mov     r8,r3                                   
08057F64 BCF0     pop     r4-r7                                   
08057F66 BC02     pop     r1                                      
08057F68 4708     bx      r1 
                                     
08057F6A 0000     lsl     r0,r0,0h                                
08057F6C 009C     lsl     r4,r3,2h                                
08057F6E 0300     lsl     r0,r0,0Ch                               
08057F70 0079     lsl     r1,r7,1h                                
08057F72 0300     lsl     r0,r0,0Ch                               
08057F74 5450     strb    r0,[r2,r1]                              
08057F76 0300     lsl     r0,r0,0Ch                               
08057F78 5704     ldsb    r4,[r0,r4]                              
08057F7A 0300     lsl     r0,r0,0Ch                               
08057F7C B500     push    r14                                     
08057F7E 1C02     mov     r2,r0                                   
08057F80 2100     mov     r1,0h                                   
08057F82 6810     ldr     r0,[r2]                                 
08057F84 280C     cmp     r0,0Ch                                  
08057F86 D877     bhi     8058078h                                
08057F88 0080     lsl     r0,r0,2h                                
08057F8A 4902     ldr     r1,=8057F98h                            
08057F8C 1840     add     r0,r0,r1                                
08057F8E 6800     ldr     r0,[r0]                                 
08057F90 4687     mov     r15,r0                                  
08057F92 0000     lsl     r0,r0,0h                                
08057F94 7F98     ldrb    r0,[r3,1Eh]                             
08057F96 0805     lsr     r5,r0,20h                               
08057F98 804A     strh    r2,[r1,2h]                              
08057F9A 0805     lsr     r5,r0,20h                               
08057F9C 7FCC     ldrb    r4,[r1,1Fh]                             
08057F9E 0805     lsr     r5,r0,20h                               
08057FA0 7FD4     ldrb    r4,[r2,1Fh]                             
08057FA2 0805     lsr     r5,r0,20h                               
08057FA4 7FE4     ldrb    r4,[r4,1Fh]                             
08057FA6 0805     lsr     r5,r0,20h                               
08057FA8 7FF8     ldrb    r0,[r7,1Fh]                             
08057FAA 0805     lsr     r5,r0,20h                               
08057FAC 800A     strh    r2,[r1]                                 
08057FAE 0805     lsr     r5,r0,20h                               
08057FB0 801E     strh    r6,[r3]                                 
08057FB2 0805     lsr     r5,r0,20h                               
08057FB4 8034     strh    r4,[r6]                                 
08057FB6 0805     lsr     r5,r0,20h                               
08057FB8 804E     strh    r6,[r1,2h]                              
08057FBA 0805     lsr     r5,r0,20h                               
08057FBC 8058     strh    r0,[r3,2h]                              
08057FBE 0805     lsr     r5,r0,20h                               
08057FC0 8062     strh    r2,[r4,2h]                              
08057FC2 0805     lsr     r5,r0,20h                               
08057FC4 806E     strh    r6,[r5,2h]                              
08057FC6 0805     lsr     r5,r0,20h                               
08057FC8 804A     strh    r2,[r1,2h]                              
08057FCA 0805     lsr     r5,r0,20h                               
08057FCC 6811     ldr     r1,[r2]                                 
08057FCE 2080     mov     r0,80h                                  
08057FD0 0440     lsl     r0,r0,11h                               
08057FD2 E050     b       8058076h                                
08057FD4 6891     ldr     r1,[r2,8h]                              
08057FD6 6850     ldr     r0,[r2,4h]                              
08057FD8 4281     cmp     r1,r0                                   
08057FDA DB36     blt     805804Ah                                
08057FDC 6811     ldr     r1,[r2]                                 
08057FDE 2080     mov     r0,80h                                  
08057FE0 0440     lsl     r0,r0,11h                               
08057FE2 E048     b       8058076h                                
08057FE4 6850     ldr     r0,[r2,4h]                              
08057FE6 213F     mov     r1,3Fh                                  
08057FE8 1A09     sub     r1,r1,r0                                
08057FEA 6890     ldr     r0,[r2,8h]                              
08057FEC 4288     cmp     r0,r1                                   
08057FEE DB2C     blt     805804Ah                                
08057FF0 6811     ldr     r1,[r2]                                 
08057FF2 2080     mov     r0,80h                                  
08057FF4 0440     lsl     r0,r0,11h                               
08057FF6 E03E     b       8058076h                                
08057FF8 6850     ldr     r0,[r2,4h]                              
08057FFA 1040     asr     r0,r0,1h                                
08057FFC 6891     ldr     r1,[r2,8h]                              
08057FFE 4281     cmp     r1,r0                                   
08058000 DB23     blt     805804Ah                                
08058002 6811     ldr     r1,[r2]                                 
08058004 2080     mov     r0,80h                                  
08058006 0440     lsl     r0,r0,11h                               
08058008 E035     b       8058076h                                
0805800A 6850     ldr     r0,[r2,4h]                              
0805800C 303F     add     r0,3Fh                                  
0805800E 1040     asr     r0,r0,1h                                
08058010 6891     ldr     r1,[r2,8h]                              
08058012 4281     cmp     r1,r0                                   
08058014 DB19     blt     805804Ah                                
08058016 6811     ldr     r1,[r2]                                 
08058018 2080     mov     r0,80h                                  
0805801A 0440     lsl     r0,r0,11h                               
0805801C E02B     b       8058076h                                
0805801E 6850     ldr     r0,[r2,4h]                              
08058020 1040     asr     r0,r0,1h                                
08058022 213F     mov     r1,3Fh                                  
08058024 1A09     sub     r1,r1,r0                                
08058026 6890     ldr     r0,[r2,8h]                              
08058028 4288     cmp     r0,r1                                   
0805802A DB0E     blt     805804Ah                                
0805802C 6811     ldr     r1,[r2]                                 
0805802E 2080     mov     r0,80h                                  
08058030 0440     lsl     r0,r0,11h                               
08058032 E020     b       8058076h                                
08058034 6850     ldr     r0,[r2,4h]                              
08058036 213F     mov     r1,3Fh                                  
08058038 1A09     sub     r1,r1,r0                                
0805803A 1049     asr     r1,r1,1h                                
0805803C 6890     ldr     r0,[r2,8h]                              
0805803E 4288     cmp     r0,r1                                   
08058040 DB03     blt     805804Ah                                
08058042 6811     ldr     r1,[r2]                                 
08058044 2080     mov     r0,80h                                  
08058046 0440     lsl     r0,r0,11h                               
08058048 E015     b       8058076h                                
0805804A 6811     ldr     r1,[r2]                                 
0805804C E014     b       8058078h                                
0805804E 68D0     ldr     r0,[r2,0Ch]                             
08058050 2801     cmp     r0,1h                                   
08058052 DD0C     ble     805806Eh                                
08058054 2000     mov     r0,0h                                   
08058056 E007     b       8058068h                                
08058058 68D0     ldr     r0,[r2,0Ch]                             
0805805A 2801     cmp     r0,1h                                   
0805805C DC07     bgt     805806Eh                                
0805805E 2000     mov     r0,0h                                   
08058060 E002     b       8058068h                                
08058062 68D0     ldr     r0,[r2,0Ch]                             
08058064 2800     cmp     r0,0h                                   
08058066 D102     bne     805806Eh                                
08058068 6010     str     r0,[r2]                                 
0805806A 2100     mov     r1,0h                                   
0805806C E004     b       8058078h                                
0805806E 2001     mov     r0,1h                                   
08058070 6010     str     r0,[r2]                                 
08058072 2180     mov     r1,80h                                  
08058074 0449     lsl     r1,r1,11h                               
08058076 4301     orr     r1,r0                                   
08058078 1C08     mov     r0,r1                                   
0805807A BC02     pop     r1                                      
0805807C 4708     bx      r1                                      
0805807E 0000     lsl     r0,r0,0h                                
08058080 B510     push    r4,r14                                  
08058082 0400     lsl     r0,r0,10h                               
08058084 0C04     lsr     r4,r0,10h                               
08058086 0409     lsl     r1,r1,10h                               
08058088 4B07     ldr     r3,=30000DCh                            
0805808A 2200     mov     r2,0h                                   
0805808C 801A     strh    r2,[r3]                                 
0805808E 805A     strh    r2,[r3,2h]                              
08058090 0D83     lsr     r3,r0,16h                               
08058092 0D8A     lsr     r2,r1,16h                               
08058094 4805     ldr     r0,=300009Ch                            
08058096 8BC1     ldrh    r1,[r0,1Eh]                             
08058098 428B     cmp     r3,r1                                   
0805809A D202     bcs     80580A2h                                
0805809C 8B80     ldrh    r0,[r0,1Ch]                             
0805809E 4282     cmp     r2,r0                                   
080580A0 D306     bcc     80580B0h                                
080580A2 2000     mov     r0,0h                                   
080580A4 E009     b       80580BAh                                
080580A6 0000     lsl     r0,r0,0h                                
080580A8 00DC     lsl     r4,r3,3h                                
080580AA 0300     lsl     r0,r0,0Ch                               
080580AC 009C     lsl     r4,r3,2h                                
080580AE 0300     lsl     r0,r0,0Ch                               
080580B0 1C20     mov     r0,r4                                   
080580B2 1C19     mov     r1,r3                                   
080580B4 2300     mov     r3,0h                                   
080580B6 F000F803 bl      80580C0h                                
080580BA BC10     pop     r4                                      
080580BC BC02     pop     r1                                      
080580BE 4708     bx      r1 

;                                     
080580C0 B5F0     push    r4-r7,r14                               
080580C2 0400     lsl     r0,r0,10h      ;Y坐标                         
080580C4 0C07     lsr     r7,r0,10h                               
080580C6 0409     lsl     r1,r1,10h      ;Y值                         
080580C8 0C09     lsr     r1,r1,10h                               
080580CA 0412     lsl     r2,r2,10h      ;X值                         
080580CC 0C12     lsr     r2,r2,10h                               
080580CE 061B     lsl     r3,r3,18h                               
080580D0 0E1E     lsr     r6,r3,18h      ;2h                         
080580D2 4C0B     ldr     r4,=3005450h                            
080580D4 4B0B     ldr     r3,=300009Ch                            
080580D6 8B98     ldrh    r0,[r3,1Ch]    ;得到房间宽度                         
080580D8 4348     mul     r0,r1          ;乘以Y值                        
080580DA 1880     add     r0,r0,r2       ;加上X值                        
080580DC 6999     ldr     r1,[r3,18h]    ;获得clip坐标                         
080580DE 0040     lsl     r0,r0,1h                                
080580E0 1840     add     r0,r0,r1                                
080580E2 8800     ldrh    r0,[r0]        ;得到砖块序号                          
080580E4 68A1     ldr     r1,[r4,8h]     ;读取砖块行为地址                        
080580E6 0040     lsl     r0,r0,1h       ;砖块序号乘以2                         
080580E8 1840     add     r0,r0,r1       ;加上行为偏移量                         
080580EA 8805     ldrh    r5,[r0]        ;读取行为值                         
080580EC 2D00     cmp     r5,0h                                   
080580EE D00D     beq     @@behaviNoin0-F                                
080580F0 2D0F     cmp     r5,0Fh                                  
080580F2 DC0B     bgt     @@behaviNoin0-F                                
080580F4 4904     ldr     r1,=83458E4h                            
080580F6 0068     lsl     r0,r5,1h       ;行为值乘以2                         
080580F8 1840     add     r0,r0,r1       ;加上偏移值                         
080580FA 8804     ldrh    r4,[r0]        ;读取数值                         
080580FC E007     b       @@Peer                                

@@behaviNoin0-F:                              
0805810C 2400     mov     r4,0h  

@@Peer:                                
0805810E 2E00     cmp     r6,0h                                   
08058110 D10C     bne     805812Ch                                
08058112 1E60     sub     r0,r4,1                                 
08058114 2801     cmp     r0,1h                                   
08058116 D809     bhi     805812Ch                                
08058118 480A     ldr     r0,=30013D4h                            
0805811A 7800     ldrb    r0,[r0]                                 
0805811C 281D     cmp     r0,1Dh      ;如果是坐电梯姿势                                 
0805811E D005     beq     805812Ch                                
08058120 1C20     mov     r0,r4                                   
08058122 F000F83B bl      805819Ch                                
08058126 2800     cmp     r0,0h                                   
08058128 D000     beq     805812Ch                                
0805812A 2400     mov     r4,0h     

                              
0805812C 4806     ldr     r0,=30000DCh                            
0805812E 8004     strh    r4,[r0]                                 
08058130 2400     mov     r4,0h                                   
08058132 1C2A     mov     r2,r5                                   
08058134 3A40     sub     r2,40h                                  
08058136 1C05     mov     r5,r0                                   
08058138 2A03     cmp     r2,3h                                   
0805813A D809     bhi     8058150h                                
0805813C 4903     ldr     r1,=8345924h                            
0805813E 0050     lsl     r0,r2,1h                                
08058140 1840     add     r0,r0,r1                                
08058142 E022     b       805818Ah                                
08058144 13D4     asr     r4,r2,0Fh                               
08058146 0300     lsl     r0,r0,0Ch                               
08058148 00DC     lsl     r4,r3,3h                                
0805814A 0300     lsl     r0,r0,0Ch                               
0805814C 5924     ldr     r4,[r4,r4]                              
0805814E 0834     lsr     r4,r6,20h                               
08058150 490A     ldr     r1,=30000BCh                            
08058152 7848     ldrb    r0,[r1,1h]                              
08058154 2800     cmp     r0,0h                                   
08058156 D019     beq     805818Ch                                
08058158 7D08     ldrb    r0,[r1,14h]                             
0805815A 2800     cmp     r0,0h                                   
0805815C D016     beq     805818Ch                                
0805815E 2807     cmp     r0,7h                                   
08058160 D814     bhi     805818Ch                                
08058162 4B07     ldr     r3,=8345904h                            
08058164 0081     lsl     r1,r0,2h                                
08058166 1C98     add     r0,r3,2                                 
08058168 180A     add     r2,r1,r0                                
0805816A 8810     ldrh    r0,[r2]                                 
0805816C 2800     cmp     r0,0h                                   
0805816E D00B     beq     8058188h                                
08058170 4804     ldr     r0,=300006Ch                            
08058172 8800     ldrh    r0,[r0]                                 
08058174 42B8     cmp     r0,r7                                   
08058176 D807     bhi     8058188h                                
08058178 8814     ldrh    r4,[r2]                                 
0805817A E007     b       805818Ch                                
0805817C 00BC     lsl     r4,r7,2h                                
0805817E 0300     lsl     r0,r0,0Ch                               
08058180 5904     ldr     r4,[r0,r4]                              
08058182 0834     lsr     r4,r6,20h                               
08058184 006C     lsl     r4,r5,1h                                
08058186 0300     lsl     r0,r0,0Ch                               
08058188 18C8     add     r0,r1,r3                                
0805818A 8804     ldrh    r4,[r0]                                 
0805818C 806C     strh    r4,[r5,2h]                              
0805818E 8828     ldrh    r0,[r5]                                 
08058190 0400     lsl     r0,r0,10h                               
08058192 8869     ldrh    r1,[r5,2h]                              
08058194 4308     orr     r0,r1                                   
08058196 BCF0     pop     r4-r7                                   
08058198 BC02     pop     r1                                      
0805819A 4708     bx      r1 

                                     
0805819C B5F0     push    r4-r7,r14                               
0805819E 464F     mov     r7,r9                                   
080581A0 4646     mov     r6,r8                                   
080581A2 B4C0     push    r6,r7                                   
080581A4 480E     ldr     r0,=3000198h                            
080581A6 2100     mov     r1,0h                                   
080581A8 7081     strb    r1,[r0,2h]                              
080581AA 2200     mov     r2,0h                                   
080581AC 8001     strh    r1,[r0]                                 
080581AE 70C2     strb    r2,[r0,3h]                              
080581B0 2400     mov     r4,0h                                   
080581B2 2508     mov     r5,8h                                   
080581B4 480B     ldr     r0,=3000054h                            
080581B6 4681     mov     r9,r0                                   
080581B8 490B     ldr     r1,=8345934h                            
080581BA 4688     mov     r8,r1                                   
080581BC 4646     mov     r6,r8                                   
080581BE 3644     add     r6,44h                                  
080581C0 2740     mov     r7,40h                                  
080581C2 4808     ldr     r0,=3000054h                            
080581C4 4908     ldr     r1,=8345934h                            
080581C6 1879     add     r1,r7,r1                                
080581C8 7800     ldrb    r0,[r0]                                 
080581CA 780A     ldrb    r2,[r1]                                 
080581CC 4290     cmp     r0,r2                                   
080581CE D10F     bne     80581F0h                                
080581D0 4806     ldr     r0,=3000055h                            
080581D2 7800     ldrb    r0,[r0]                                 
080581D4 7849     ldrb    r1,[r1,1h]                              
080581D6 4288     cmp     r0,r1                                   
080581D8 D10A     bne     80581F0h                                
080581DA 2401     mov     r4,1h                                   
080581DC E016     b       805820Ch                                
080581DE 0000     lsl     r0,r0,0h                                
080581E0 0198     lsl     r0,r3,6h                                
080581E2 0300     lsl     r0,r0,0Ch                               
080581E4 0054     lsl     r4,r2,1h                                
080581E6 0300     lsl     r0,r0,0Ch                               
080581E8 5934     ldr     r4,[r6,r4]                              
080581EA 0834     lsr     r4,r6,20h                               
080581EC 0055     lsl     r5,r2,1h                                
080581EE 0300     lsl     r0,r0,0Ch                               
080581F0 4649     mov     r1,r9                                   
080581F2 7808     ldrb    r0,[r1]                                 
080581F4 7832     ldrb    r2,[r6]                                 
080581F6 4290     cmp     r0,r2                                   
080581F8 D106     bne     8058208h                                
080581FA 480B     ldr     r0,=3000055h                            
080581FC 7800     ldrb    r0,[r0]                                 
080581FE 7871     ldrb    r1,[r6,1h]                              
08058200 4288     cmp     r0,r1                                   
08058202 D101     bne     8058208h                                
08058204 2401     mov     r4,1h                                   
08058206 4264     neg     r4,r4                                   
08058208 2C00     cmp     r4,0h                                   
0805820A D019     beq     8058240h                                
0805820C 2D08     cmp     r5,8h                                   
0805820E D10E     bne     805822Eh                                
08058210 2003     mov     r0,3h                                   
08058212 2141     mov     r1,41h                                  
08058214 F008FB52 bl      80608BCh                                
08058218 2800     cmp     r0,0h                                   
0805821A D007     beq     805822Ch                                
0805821C 4646     mov     r6,r8                                   
0805821E 3634     add     r6,34h                                  
08058220 2730     mov     r7,30h                                  
08058222 2506     mov     r5,6h                                   
08058224 E003     b       805822Eh                                
08058226 0000     lsl     r0,r0,0h                                
08058228 0055     lsl     r5,r2,1h                                
0805822A 0300     lsl     r0,r0,0Ch                               
0805822C 2400     mov     r4,0h                                   
0805822E 2C00     cmp     r4,0h                                   
08058230 D006     beq     8058240h                                
08058232 4802     ldr     r0,=3000198h                            
08058234 7085     strb    r5,[r0,2h]                              
08058236 70C4     strb    r4,[r0,3h]                              
08058238 E007     b       805824Ah                                
0805823A 0000     lsl     r0,r0,0h                                
0805823C 0198     lsl     r0,r3,6h                                
0805823E 0300     lsl     r0,r0,0Ch                               
08058240 3E08     sub     r6,8h                                   
08058242 3F08     sub     r7,8h                                   
08058244 3D01     sub     r5,1h                                   
08058246 2D00     cmp     r5,0h                                   
08058248 DCBB     bgt     80581C2h                                
0805824A 2000     mov     r0,0h                                   
0805824C 2C00     cmp     r4,0h                                   
0805824E D100     bne     8058252h                                
08058250 2001     mov     r0,1h                                   
08058252 1C04     mov     r4,r0                                   
08058254 BC18     pop     r3,r4                                   
08058256 4698     mov     r8,r3                                   
08058258 46A1     mov     r9,r4                                   
0805825A BCF0     pop     r4-r7                                   
0805825C BC02     pop     r1                                      
0805825E 4708     bx      r1                                      
08058260 B500     push    r14                                     
08058262 0400     lsl     r0,r0,10h                               
08058264 0409     lsl     r1,r1,10h                               
08058266 0D83     lsr     r3,r0,16h                               
08058268 0D89     lsr     r1,r1,16h                               
0805826A 4A04     ldr     r2,=300009Ch                            
0805826C 8BD0     ldrh    r0,[r2,1Eh]                             
0805826E 4283     cmp     r3,r0                                   
08058270 DA02     bge     8058278h                                
08058272 8B90     ldrh    r0,[r2,1Ch]                             
08058274 4281     cmp     r1,r0                                   
08058276 DB03     blt     8058280h                                
08058278 2000     mov     r0,0h                                   
0805827A E021     b       80582C0h                                
0805827C 009C     lsl     r4,r3,2h                                
0805827E 0300     lsl     r0,r0,0Ch                               
08058280 4358     mul     r0,r3                                   
08058282 1840     add     r0,r0,r1                                
08058284 6991     ldr     r1,[r2,18h]                             
08058286 0040     lsl     r0,r0,1h                                
08058288 1840     add     r0,r0,r1                                
0805828A 8802     ldrh    r2,[r0]                                 
0805828C 2080     mov     r0,80h                                  
0805828E 00C0     lsl     r0,r0,3h                                
08058290 4010     and     r0,r2                                   
08058292 2800     cmp     r0,0h                                   
08058294 D001     beq     805829Ah                                
08058296 2200     mov     r2,0h                                   
08058298 E004     b       80582A4h                                
0805829A 4806     ldr     r0,=3005450h                            
0805829C 6881     ldr     r1,[r0,8h]                              
0805829E 0050     lsl     r0,r2,1h                                
080582A0 1840     add     r0,r0,r1                                
080582A2 8802     ldrh    r2,[r0]                                 
080582A4 1C11     mov     r1,r2                                   
080582A6 3950     sub     r1,50h                                  
080582A8 2904     cmp     r1,4h                                   
080582AA D807     bhi     80582BCh                                
080582AC 4802     ldr     r0,=834592Ch                            
080582AE 1808     add     r0,r1,r0                                
080582B0 7802     ldrb    r2,[r0]                                 
080582B2 E004     b       80582BEh                                
080582B4 5450     strb    r0,[r2,r1]                              
080582B6 0300     lsl     r0,r0,0Ch                               
080582B8 592C     ldr     r4,[r5,r4]                              
080582BA 0834     lsr     r4,r6,20h                               
080582BC 2200     mov     r2,0h                                   
080582BE 1C10     mov     r0,r2                                   
080582C0 BC02     pop     r1                                      
080582C2 4708     bx      r1                                      
080582C4 B5F0     push    r4-r7,r14                               
080582C6 1C05     mov     r5,r0                                   
080582C8 F000F906 bl      80584D8h                                
080582CC 4814     ldr     r0,=3000144h                            
080582CE 8807     ldrh    r7,[r0]                                 
080582D0 8846     ldrh    r6,[r0,2h]                              
080582D2 4C14     ldr     r4,=3000118h                            
080582D4 7820     ldrb    r0,[r4]                                 
080582D6 2800     cmp     r0,0h                                   
080582D8 D009     beq     80582EEh                                
080582DA 1C20     mov     r0,r4                                   
080582DC 1C29     mov     r1,r5                                   
080582DE F000F881 bl      80583E4h                                
080582E2 1C07     mov     r7,r0                                   
080582E4 1C20     mov     r0,r4                                   
080582E6 1C29     mov     r1,r5                                   
080582E8 F000F89C bl      8058424h                                
080582EC 1C06     mov     r6,r0                                   
080582EE 340C     add     r4,0Ch                                  
080582F0 7820     ldrb    r0,[r4]                                 
080582F2 2800     cmp     r0,0h                                   
080582F4 D00B     beq     805830Eh                                
080582F6 1C20     mov     r0,r4                                   
080582F8 1C29     mov     r1,r5                                   
080582FA F000F873 bl      80583E4h                                
080582FE 1838     add     r0,r7,r0                                
08058300 1047     asr     r7,r0,1h                                
08058302 1C20     mov     r0,r4                                   
08058304 1C29     mov     r1,r5                                   
08058306 F000F88D bl      8058424h                                
0805830A 1830     add     r0,r6,r0                                
0805830C 1046     asr     r6,r0,1h                                
0805830E 0438     lsl     r0,r7,10h                               
08058310 0C00     lsr     r0,r0,10h                               
08058312 0431     lsl     r1,r6,10h                               
08058314 0C09     lsr     r1,r1,10h                               
08058316 F000F807 bl      8058328h                                
0805831A BCF0     pop     r4-r7                                   
0805831C BC01     pop     r0                                      
0805831E 4700     bx      r0                                      
08058320 0144     lsl     r4,r0,5h                                
08058322 0300     lsl     r0,r0,0Ch                               
08058324 0118     lsl     r0,r3,4h                                
08058326 0300     lsl     r0,r0,0Ch                               
08058328 B530     push    r4,r5,r14                               
0805832A 0400     lsl     r0,r0,10h                               
0805832C 0C04     lsr     r4,r0,10h                               
0805832E 0409     lsl     r1,r1,10h                               
08058330 0C0A     lsr     r2,r1,10h                               
08058332 490C     ldr     r1,=3000144h                            
08058334 800C     strh    r4,[r1]                                 
08058336 804A     strh    r2,[r1,2h]                              
08058338 480B     ldr     r0,=3000C72h                            
0805833A 2300     mov     r3,0h                                   
0805833C 5EC0     ldsh    r0,[r0,r3]                              
0805833E 1C0D     mov     r5,r1                                   
08058340 2800     cmp     r0,0h                                   
08058342 D04B     beq     80583DCh                                
08058344 4809     ldr     r0,=30013BAh                            
08058346 1C03     mov     r3,r0                                   
08058348 8818     ldrh    r0,[r3]                                 
0805834A 4282     cmp     r2,r0                                   
0805834C D020     beq     8058390h                                
0805834E 8818     ldrh    r0,[r3]                                 
08058350 1A11     sub     r1,r2,r0                                
08058352 2900     cmp     r1,0h                                   
08058354 DD0E     ble     8058374h                                
08058356 4806     ldr     r0,=3005714h                            
08058358 2206     mov     r2,6h                                   
0805835A 5E80     ldsh    r0,[r0,r2]                              
0805835C 4288     cmp     r0,r1                                   
0805835E DA0F     bge     8058380h                                
08058360 E00D     b       805837Eh                                
08058362 0000     lsl     r0,r0,0h                                
08058364 0144     lsl     r4,r0,5h                                
08058366 0300     lsl     r0,r0,0Ch                               
08058368 0C72     lsr     r2,r6,11h                               
0805836A 0300     lsl     r0,r0,0Ch                               
0805836C 13BA     asr     r2,r7,0Eh                               
0805836E 0300     lsl     r0,r0,0Ch                               
08058370 5714     ldsb    r4,[r2,r4]                              
08058372 0300     lsl     r0,r0,0Ch                               
08058374 4805     ldr     r0,=3005714h                            
08058376 2204     mov     r2,4h                                   
08058378 5E80     ldsh    r0,[r0,r2]                              
0805837A 4288     cmp     r0,r1                                   
0805837C DD00     ble     8058380h                                
0805837E 1C01     mov     r1,r0                                   
08058380 7169     strb    r1,[r5,5h]                              
08058382 8818     ldrh    r0,[r3]                                 
08058384 1840     add     r0,r0,r1                                
08058386 8018     strh    r0,[r3]                                 
08058388 E004     b       8058394h                                
0805838A 0000     lsl     r0,r0,0h                                
0805838C 5714     ldsb    r4,[r2,r4]                              
0805838E 0300     lsl     r0,r0,0Ch                               
08058390 2000     mov     r0,0h                                   
08058392 7168     strb    r0,[r5,5h]                              
08058394 4807     ldr     r0,=30013B8h                            
08058396 1C02     mov     r2,r0                                   
08058398 8813     ldrh    r3,[r2]                                 
0805839A 429C     cmp     r4,r3                                   
0805839C D01C     beq     80583D8h                                
0805839E 8810     ldrh    r0,[r2]                                 
080583A0 1A21     sub     r1,r4,r0                                
080583A2 2900     cmp     r1,0h                                   
080583A4 DD0A     ble     80583BCh                                
080583A6 4804     ldr     r0,=3005714h                            
080583A8 2302     mov     r3,2h                                   
080583AA 5EC0     ldsh    r0,[r0,r3]                              
080583AC 4288     cmp     r0,r1                                   
080583AE DA0B     bge     80583C8h                                
080583B0 E009     b       80583C6h                                
080583B2 0000     lsl     r0,r0,0h                                
080583B4 13B8     asr     r0,r7,0Eh                               
080583B6 0300     lsl     r0,r0,0Ch                               
080583B8 5714     ldsb    r4,[r2,r4]                              
080583BA 0300     lsl     r0,r0,0Ch                               
080583BC 4805     ldr     r0,=3005714h                            
080583BE 2300     mov     r3,0h                                   
080583C0 5EC0     ldsh    r0,[r0,r3]                              
080583C2 4288     cmp     r0,r1                                   
080583C4 DD00     ble     80583C8h                                
080583C6 1C01     mov     r1,r0                                   
080583C8 7129     strb    r1,[r5,4h]                              
080583CA 8810     ldrh    r0,[r2]                                 
080583CC 1840     add     r0,r0,r1                                
080583CE 8010     strh    r0,[r2]                                 
080583D0 E004     b       80583DCh                                
080583D2 0000     lsl     r0,r0,0h                                
080583D4 5714     ldsb    r4,[r2,r4]                              
080583D6 0300     lsl     r0,r0,0Ch                               
080583D8 2000     mov     r0,0h                                   
080583DA 7128     strb    r0,[r5,4h]                              
080583DC BC30     pop     r4,r5                                   
080583DE BC01     pop     r0                                      
080583E0 4700     bx      r0                                      
080583E2 0000     lsl     r0,r0,0h                                
080583E4 B510     push    r4,r14                                  
080583E6 1C03     mov     r3,r0                                   
080583E8 8809     ldrh    r1,[r1]                                 
080583EA 889A     ldrh    r2,[r3,4h]                              
080583EC 24F0     mov     r4,0F0h                                 
080583EE 0064     lsl     r4,r4,1h                                
080583F0 1910     add     r0,r2,r4                                
080583F2 4281     cmp     r1,r0                                   
080583F4 DA01     bge     80583FAh                                
080583F6 1C10     mov     r0,r2                                   
080583F8 E00E     b       8058418h                                
080583FA 885A     ldrh    r2,[r3,2h]                              
080583FC 4B03     ldr     r3,=0FFFFFE20h                          
080583FE 18D0     add     r0,r2,r3                                
08058400 4281     cmp     r1,r0                                   
08058402 DD07     ble     8058414h                                
08058404 4C02     ldr     r4,=0FFFFFC40h                          
08058406 1910     add     r0,r2,r4                                
08058408 E006     b       8058418h                                
0805840A 0000     lsl     r0,r0,0h                                
0805840C FE20     bl      lr+0C40h                                
0805840E FFFF     bl      lr+0FFEh                                
08058410 FC40     bl      lr+880h                                 
08058412 FFFF     bl      lr+0FFEh                                
08058414 4A02     ldr     r2,=0FFFFFE20h                          
08058416 1888     add     r0,r1,r2                                
08058418 BC10     pop     r4                                      
0805841A BC02     pop     r1                                      
0805841C 4708     bx      r1                                      
0805841E 0000     lsl     r0,r0,0h                                
08058420 FE20     bl      lr+0C40h                                
08058422 FFFF     bl      lr+0FFEh                                
08058424 B510     push    r4,r14                                  
08058426 1C02     mov     r2,r0                                   
08058428 7810     ldrb    r0,[r2]                                 
0805842A 2802     cmp     r0,2h                                   
0805842C D11C     bne     8058468h                                
0805842E 8849     ldrh    r1,[r1,2h]                              
08058430 88D3     ldrh    r3,[r2,6h]                              
08058432 24C0     mov     r4,0C0h                                 
08058434 0064     lsl     r4,r4,1h                                
08058436 1918     add     r0,r3,r4                                
08058438 4281     cmp     r1,r0                                   
0805843A DB08     blt     805844Eh                                
0805843C 8912     ldrh    r2,[r2,8h]                              
0805843E 4C05     ldr     r4,=0FFFFFF00h                          
08058440 1910     add     r0,r2,r4                                
08058442 4281     cmp     r1,r0                                   
08058444 DD0A     ble     805845Ch                                
08058446 4904     ldr     r1,=0FFFFFD80h                          
08058448 1850     add     r0,r2,r1                                
0805844A 4298     cmp     r0,r3                                   
0805844C DA0F     bge     805846Eh                                
0805844E 1C18     mov     r0,r3                                   
08058450 E00D     b       805846Eh                                
08058452 0000     lsl     r0,r0,0h                                
08058454 FF00     bl      lr+0E00h                                
08058456 FFFF     bl      lr+0FFEh                                
08058458 FD80     bl      lr+0B00h                                
0805845A FFFF     bl      lr+0FFEh                                
0805845C 4A01     ldr     r2,=0FFFFFE80h                          
0805845E 1888     add     r0,r1,r2                                
08058460 E005     b       805846Eh                                
08058462 0000     lsl     r0,r0,0h                                
08058464 FE80     bl      lr+0D00h                                
08058466 FFFF     bl      lr+0FFEh                                
08058468 8910     ldrh    r0,[r2,8h]                              
0805846A 4C02     ldr     r4,=0FFFFFD80h                          
0805846C 1900     add     r0,r0,r4                                
0805846E BC10     pop     r4                                      
08058470 BC02     pop     r1                                      
08058472 4708     bx      r1                                      
08058474 FD80     bl      lr+0B00h                                
08058476 FFFF     bl      lr+0FFEh                                
08058478 B530     push    r4,r5,r14                               
0805847A 4908     ldr     r1,=875FD28h                            
0805847C 4808     ldr     r0,=3000054h                            
0805847E 7800     ldrb    r0,[r0]                                 
08058480 0080     lsl     r0,r0,2h                                
08058482 1840     add     r0,r0,r1                                
08058484 6802     ldr     r2,[r0]                                 
08058486 6813     ldr     r3,[r2]                                 
08058488 4806     ldr     r0,=3000055h                            
0805848A 7819     ldrb    r1,[r3]                                 
0805848C 1C05     mov     r5,r0                                   
0805848E 4C06     ldr     r4,=3005708h                            
08058490 7828     ldrb    r0,[r5]                                 
08058492 4281     cmp     r1,r0                                   
08058494 D10C     bne     80584B0h                                
08058496 6023     str     r3,[r4]                                 
08058498 E015     b       80584C6h                                
0805849A 0000     lsl     r0,r0,0h                                
0805849C FD28     bl      lr+0A50h                                
0805849E 0875     lsr     r5,r6,1h                                
080584A0 0054     lsl     r4,r2,1h                                
080584A2 0300     lsl     r0,r0,0Ch                               
080584A4 0055     lsl     r5,r2,1h                                
080584A6 0300     lsl     r0,r0,0Ch                               
080584A8 5708     ldsb    r0,[r1,r4]                              
080584AA 0300     lsl     r0,r0,0Ch                               
080584AC 6021     str     r1,[r4]                                 
080584AE E00D     b       80584CCh                                
080584B0 6811     ldr     r1,[r2]                                 
080584B2 7808     ldrb    r0,[r1]                                 
080584B4 28FF     cmp     r0,0FFh                                 
080584B6 D0F9     beq     80584ACh                                
080584B8 3204     add     r2,4h                                   
080584BA 6811     ldr     r1,[r2]                                 
080584BC 7808     ldrb    r0,[r1]                                 
080584BE 782B     ldrb    r3,[r5]                                 
080584C0 4298     cmp     r0,r3                                   
080584C2 D1F5     bne     80584B0h                                
080584C4 6021     str     r1,[r4]                                 
080584C6 4903     ldr     r1,=30000BCh                            
080584C8 2003     mov     r0,3h                                   
080584CA 7148     strb    r0,[r1,5h]                              
080584CC BC30     pop     r4,r5                                   
080584CE BC01     pop     r0                                      
080584D0 4700     bx      r0                                      
080584D2 0000     lsl     r0,r0,0h                                
080584D4 00BC     lsl     r4,r7,2h                                
080584D6 0300     lsl     r0,r0,0Ch                               
080584D8 B5F0     push    r4-r7,r14                               
080584DA 464F     mov     r7,r9                                   
080584DC 4646     mov     r6,r8                                   
080584DE B4C0     push    r6,r7                                   
080584E0 B084     add     sp,-10h                                 
080584E2 4A1C     ldr     r2,=3000118h                            
080584E4 2100     mov     r1,0h                                   
080584E6 7011     strb    r1,[r2]                                 
080584E8 7311     strb    r1,[r2,0Ch]                             
080584EA 8801     ldrh    r1,[r0]                                 
080584EC 0989     lsr     r1,r1,6h                                
080584EE 4688     mov     r8,r1                                   
080584F0 8840     ldrh    r0,[r0,2h]                              
080584F2 3801     sub     r0,1h                                   
080584F4 0280     lsl     r0,r0,0Ah                               
080584F6 0C00     lsr     r0,r0,10h                               
080584F8 4684     mov     r12,r0                                  
080584FA 4817     ldr     r0,=3005708h                            
080584FC 6800     ldr     r0,[r0]                                 
080584FE 3001     add     r0,1h                                   
08058500 7805     ldrb    r5,[r0]                                 
08058502 1C44     add     r4,r0,1                                 
08058504 1C17     mov     r7,r2                                   
08058506 2D00     cmp     r5,0h                                   
08058508 D100     bne     805850Ch                                
0805850A E084     b       8058616h                                
0805850C 4E13     ldr     r6,=300009Ch                            
0805850E 46B9     mov     r9,r7                                   
08058510 4648     mov     r0,r9                                   
08058512 3018     add     r0,18h                                  
08058514 4282     cmp     r2,r0                                   
08058516 D100     bne     805851Ah                                
08058518 E088     b       805862Ch                                
0805851A 2000     mov     r0,0h                                   
0805851C 9000     str     r0,[sp]                                 
0805851E 2001     mov     r0,1h                                   
08058520 9001     str     r0,[sp,4h]                              
08058522 2002     mov     r0,2h                                   
08058524 9002     str     r0,[sp,8h]                              
08058526 2003     mov     r0,3h                                   
08058528 9003     str     r0,[sp,0Ch]                             
0805852A 7920     ldrb    r0,[r4,4h]                              
0805852C 28FF     cmp     r0,0FFh                                 
0805852E D017     beq     8058560h                                
08058530 79E0     ldrb    r0,[r4,7h]                              
08058532 28FF     cmp     r0,0FFh                                 
08058534 D014     beq     8058560h                                
08058536 7961     ldrb    r1,[r4,5h]                              
08058538 8BB0     ldrh    r0,[r6,1Ch]                             
0805853A 4348     mul     r0,r1                                   
0805853C 7921     ldrb    r1,[r4,4h]                              
0805853E 1843     add     r3,r0,r1                                
08058540 69B1     ldr     r1,[r6,18h]                             
08058542 0058     lsl     r0,r3,1h                                
08058544 1840     add     r0,r0,r1                                
08058546 8800     ldrh    r0,[r0]                                 
08058548 2800     cmp     r0,0h                                   
0805854A D11C     bne     8058586h                                
0805854C 79A0     ldrb    r0,[r4,6h]                              
0805854E 28FF     cmp     r0,0FFh                                 
08058550 D019     beq     8058586h                                
08058552 E013     b       805857Ch                                
08058554 0118     lsl     r0,r3,4h                                
08058556 0300     lsl     r0,r0,0Ch                               
08058558 5708     ldsb    r0,[r1,r4]                              
0805855A 0300     lsl     r0,r0,0Ch                               
0805855C 009C     lsl     r4,r3,2h                                
0805855E 0300     lsl     r0,r0,0Ch                               
08058560 4836     ldr     r0,=30013D4h                            
08058562 7800     ldrb    r0,[r0]                                 
08058564 281D     cmp     r0,1Dh                                  
08058566 D10E     bne     8058586h                                
08058568 79E0     ldrb    r0,[r4,7h]                              
0805856A 28FF     cmp     r0,0FFh                                 
0805856C D00B     beq     8058586h                                
0805856E 79A0     ldrb    r0,[r4,6h]                              
08058570 3802     sub     r0,2h                                   
08058572 0600     lsl     r0,r0,18h                               
08058574 0E00     lsr     r0,r0,18h                               
08058576 2801     cmp     r0,1h                                   
08058578 D805     bhi     8058586h                                
0805857A 79A0     ldrb    r0,[r4,6h]                              
0805857C 0080     lsl     r0,r0,2h                                
0805857E 466B     mov     r3,r13                                  
08058580 1819     add     r1,r3,r0                                
08058582 2007     mov     r0,7h                                   
08058584 6008     str     r0,[r1]                                 
08058586 9800     ldr     r0,[sp]                                 
08058588 1820     add     r0,r4,r0                                
0805858A 7801     ldrb    r1,[r0]                                 
0805858C 4541     cmp     r1,r8                                   
0805858E D83D     bhi     805860Ch                                
08058590 9801     ldr     r0,[sp,4h]                              
08058592 1820     add     r0,r4,r0                                
08058594 7800     ldrb    r0,[r0]                                 
08058596 4580     cmp     r8,r0                                   
08058598 D838     bhi     805860Ch                                
0805859A 9802     ldr     r0,[sp,8h]                              
0805859C 1820     add     r0,r4,r0                                
0805859E 7800     ldrb    r0,[r0]                                 
080585A0 4560     cmp     r0,r12                                  
080585A2 D833     bhi     805860Ch                                
080585A4 9803     ldr     r0,[sp,0Ch]                             
080585A6 1820     add     r0,r4,r0                                
080585A8 7800     ldrb    r0,[r0]                                 
080585AA 4584     cmp     r12,r0                                  
080585AC D82E     bhi     805860Ch                                
080585AE 7810     ldrb    r0,[r2]                                 
080585B0 2800     cmp     r0,0h                                   
080585B2 D12B     bne     805860Ch                                
080585B4 0188     lsl     r0,r1,6h                                
080585B6 2880     cmp     r0,80h                                  
080585B8 DA00     bge     80585BCh                                
080585BA 2080     mov     r0,80h                                  
080585BC 8090     strh    r0,[r2,4h]                              
080585BE 8BB0     ldrh    r0,[r6,1Ch]                             
080585C0 0180     lsl     r0,r0,6h                                
080585C2 1C03     mov     r3,r0                                   
080585C4 3B80     sub     r3,80h                                  
080585C6 9801     ldr     r0,[sp,4h]                              
080585C8 1820     add     r0,r4,r0                                
080585CA 7800     ldrb    r0,[r0]                                 
080585CC 3001     add     r0,1h                                   
080585CE 0180     lsl     r0,r0,6h                                
080585D0 1C19     mov     r1,r3                                   
080585D2 4298     cmp     r0,r3                                   
080585D4 DA00     bge     80585D8h                                
080585D6 1C01     mov     r1,r0                                   
080585D8 8051     strh    r1,[r2,2h]                              
080585DA 9802     ldr     r0,[sp,8h]                              
080585DC 1820     add     r0,r4,r0                                
080585DE 7800     ldrb    r0,[r0]                                 
080585E0 0180     lsl     r0,r0,6h                                
080585E2 2880     cmp     r0,80h                                  
080585E4 DA00     bge     80585E8h                                
080585E6 2080     mov     r0,80h                                  
080585E8 80D0     strh    r0,[r2,6h]                              
080585EA 8BF0     ldrh    r0,[r6,1Eh]                             
080585EC 0180     lsl     r0,r0,6h                                
080585EE 1C03     mov     r3,r0                                   
080585F0 3B80     sub     r3,80h                                  
080585F2 9803     ldr     r0,[sp,0Ch]                             
080585F4 1820     add     r0,r4,r0                                
080585F6 7800     ldrb    r0,[r0]                                 
080585F8 3001     add     r0,1h                                   
080585FA 0180     lsl     r0,r0,6h                                
080585FC 1C19     mov     r1,r3                                   
080585FE 4298     cmp     r0,r3                                   
08058600 DA00     bge     8058604h                                
08058602 1C01     mov     r1,r0                                   
08058604 8111     strh    r1,[r2,8h]                              
08058606 2002     mov     r0,2h                                   
08058608 7010     strb    r0,[r2]                                 
0805860A 320C     add     r2,0Ch                                  
0805860C 3408     add     r4,8h                                   
0805860E 3D01     sub     r5,1h                                   
08058610 2D00     cmp     r5,0h                                   
08058612 D000     beq     8058616h                                
08058614 E77C     b       8058510h                                
08058616 7838     ldrb    r0,[r7]                                 
08058618 2800     cmp     r0,0h                                   
0805861A D107     bne     805862Ch                                
0805861C 7B38     ldrb    r0,[r7,0Ch]                             
0805861E 2800     cmp     r0,0h                                   
08058620 D104     bne     805862Ch                                
08058622 7038     strb    r0,[r7]                                 
08058624 8078     strh    r0,[r7,2h]                              
08058626 80B8     strh    r0,[r7,4h]                              
08058628 80F8     strh    r0,[r7,6h]                              
0805862A 8138     strh    r0,[r7,8h]                              
0805862C B004     add     sp,10h                                  
0805862E BC18     pop     r3,r4                                   
08058630 4698     mov     r8,r3                                   
08058632 46A1     mov     r9,r4                                   
08058634 BCF0     pop     r4-r7                                   
08058636 BC01     pop     r0                                      
08058638 4700     bx      r0                                      
0805863A 0000     lsl     r0,r0,0h                                
0805863C 13D4     asr     r4,r2,0Fh                               
0805863E 0300     lsl     r0,r0,0Ch                               
08058640 B530     push    r4,r5,r14                               
08058642 B081     add     sp,-4h                                  
08058644 480D     ldr     r0,=3005520h                            
08058646 7840     ldrb    r0,[r0,1h]                              
08058648 2800     cmp     r0,0h                                   
0805864A D000     beq     805864Eh                                
0805864C E0E7     b       805881Eh                                
0805864E 480C     ldr     r0,=3000100h                            
08058650 7801     ldrb    r1,[r0]                                 
08058652 1C04     mov     r4,r0                                   
08058654 2900     cmp     r1,0h                                   
08058656 D137     bne     80586C8h                                
08058658 4A0A     ldr     r2,=30013D4h                            
0805865A 8A91     ldrh    r1,[r2,14h]                             
0805865C 3101     add     r1,1h                                   
0805865E 0409     lsl     r1,r1,10h                               
08058660 8A50     ldrh    r0,[r2,12h]                             
08058662 4308     orr     r0,r1                                   
08058664 9000     str     r0,[sp]                                 
08058666 7810     ldrb    r0,[r2]                                 
08058668 1C01     mov     r1,r0                                   
0805866A 2915     cmp     r1,15h                                  
0805866C D001     beq     8058672h                                
0805866E 293D     cmp     r1,3Dh                                  
08058670 D10C     bne     805868Ch                                
08058672 4905     ldr     r1,=300003Eh                            
08058674 2001     mov     r0,1h                                   
08058676 8008     strh    r0,[r1]                                 
08058678 E03C     b       80586F4h                                
0805867A 0000     lsl     r0,r0,0h                                
0805867C 5520     strb    r0,[r4,r4]                              
0805867E 0300     lsl     r0,r0,0Ch                               
08058680 0100     lsl     r0,r0,4h                                
08058682 0300     lsl     r0,r0,0Ch                               
08058684 13D4     asr     r4,r2,0Fh                               
08058686 0300     lsl     r0,r0,0Ch                               
08058688 003E     lsl     r6,r7,0h                                
0805868A 0300     lsl     r0,r0,0Ch                               
0805868C 381A     sub     r0,1Ah                                  
0805868E 0600     lsl     r0,r0,18h                               
08058690 0E00     lsr     r0,r0,18h                               
08058692 2801     cmp     r0,1h                                   
08058694 D806     bhi     80586A4h                                
08058696 4902     ldr     r1,=300003Eh                            
08058698 2008     mov     r0,8h                                   
0805869A 8008     strh    r0,[r1]                                 
0805869C E02A     b       80586F4h                                
0805869E 0000     lsl     r0,r0,0h                                
080586A0 003E     lsl     r6,r7,0h                                
080586A2 0300     lsl     r0,r0,0Ch                               
080586A4 291C     cmp     r1,1Ch                                  
080586A6 D105     bne     80586B4h                                
080586A8 4901     ldr     r1,=300003Eh                            
080586AA 2014     mov     r0,14h                                  
080586AC 8008     strh    r0,[r1]                                 
080586AE E021     b       80586F4h                                
080586B0 003E     lsl     r6,r7,0h                                
080586B2 0300     lsl     r0,r0,0Ch                               
080586B4 4903     ldr     r1,=300003Eh                            
080586B6 8808     ldrh    r0,[r1]                                 
080586B8 2800     cmp     r0,0h                                   
080586BA D01B     beq     80586F4h                                
080586BC 3801     sub     r0,1h                                   
080586BE 8008     strh    r0,[r1]                                 
080586C0 E018     b       80586F4h                                
080586C2 0000     lsl     r0,r0,0h                                
080586C4 003E     lsl     r6,r7,0h                                
080586C6 0300     lsl     r0,r0,0Ch                               
080586C8 2901     cmp     r1,1h                                   
080586CA D105     bne     80586D8h                                
080586CC 88A1     ldrh    r1,[r4,4h]                              
080586CE 0409     lsl     r1,r1,10h                               
080586D0 8860     ldrh    r0,[r4,2h]                              
080586D2 4308     orr     r0,r1                                   
080586D4 9000     str     r0,[sp]                                 
080586D6 E00D     b       80586F4h                                
080586D8 4A19     ldr     r2,=30013D4h                            
080586DA 8A51     ldrh    r1,[r2,12h]                             
080586DC 8860     ldrh    r0,[r4,2h]                              
080586DE 1809     add     r1,r1,r0                                
080586E0 88A0     ldrh    r0,[r4,4h]                              
080586E2 3001     add     r0,1h                                   
080586E4 8A92     ldrh    r2,[r2,14h]                             
080586E6 1880     add     r0,r0,r2                                
080586E8 03C0     lsl     r0,r0,0Fh                               
080586EA 0C00     lsr     r0,r0,10h                               
080586EC 0400     lsl     r0,r0,10h                               
080586EE 0849     lsr     r1,r1,1h                                
080586F0 4301     orr     r1,r0                                   
080586F2 9100     str     r1,[sp]                                 
080586F4 9A00     ldr     r2,[sp]                                 
080586F6 0C11     lsr     r1,r2,10h                               
080586F8 2080     mov     r0,80h                                  
080586FA 0200     lsl     r0,r0,8h                                
080586FC 4008     and     r0,r1                                   
080586FE 2800     cmp     r0,0h                                   
08058700 D002     beq     8058708h                                
08058702 4810     ldr     r0,=0FFFFh                              
08058704 4002     and     r2,r0                                   
08058706 9200     str     r2,[sp]                                 
08058708 4B0F     ldr     r3,=3005714h                            
0805870A 4A10     ldr     r2,=8345988h                            
0805870C 6810     ldr     r0,[r2]                                 
0805870E 6851     ldr     r1,[r2,4h]                              
08058710 6018     str     r0,[r3]                                 
08058712 6059     str     r1,[r3,4h]                              
08058714 7820     ldrb    r0,[r4]                                 
08058716 1C1C     mov     r4,r3                                   
08058718 2800     cmp     r0,0h                                   
0805871A D142     bne     80587A2h                                
0805871C 480C     ldr     r0,=300003Eh                            
0805871E 8800     ldrh    r0,[r0]                                 
08058720 2800     cmp     r0,0h                                   
08058722 D13A     bne     805879Ah                                
08058724 4A06     ldr     r2,=30013D4h                            
08058726 8A51     ldrh    r1,[r2,12h]                             
08058728 480A     ldr     r0,=3001600h                            
0805872A 8800     ldrh    r0,[r0]                                 
0805872C 1A09     sub     r1,r1,r0                                
0805872E 2900     cmp     r1,0h                                   
08058730 DD12     ble     8058758h                                
08058732 2502     mov     r5,2h                                   
08058734 5F58     ldsh    r0,[r3,r5]                              
08058736 4281     cmp     r1,r0                                   
08058738 DB16     blt     8058768h                                
0805873A 1D08     add     r0,r1,4                                 
0805873C 8058     strh    r0,[r3,2h]                              
0805873E E013     b       8058768h                                
08058740 13D4     asr     r4,r2,0Fh                               
08058742 0300     lsl     r0,r0,0Ch                               
08058744 FFFF     bl      lr+0FFEh                                
08058746 0000     lsl     r0,r0,0h                                
08058748 5714     ldsb    r4,[r2,r4]                              
0805874A 0300     lsl     r0,r0,0Ch                               
0805874C 5988     ldr     r0,[r1,r6]                              
0805874E 0834     lsr     r4,r6,20h                               
08058750 003E     lsl     r6,r7,0h                                
08058752 0300     lsl     r0,r0,0Ch                               
08058754 1600     asr     r0,r0,18h                               
08058756 0300     lsl     r0,r0,0Ch                               
08058758 2900     cmp     r1,0h                                   
0805875A DA05     bge     8058768h                                
0805875C 2500     mov     r5,0h                                   
0805875E 5F58     ldsh    r0,[r3,r5]                              
08058760 4281     cmp     r1,r0                                   
08058762 DC01     bgt     8058768h                                
08058764 1F08     sub     r0,r1,4                                 
08058766 8018     strh    r0,[r3]                                 
08058768 8A90     ldrh    r0,[r2,14h]                             
0805876A 4906     ldr     r1,=3001602h                            
0805876C 8809     ldrh    r1,[r1]                                 
0805876E 1A41     sub     r1,r0,r1                                
08058770 2900     cmp     r1,0h                                   
08058772 DD09     ble     8058788h                                
08058774 2206     mov     r2,6h                                   
08058776 5EA0     ldsh    r0,[r4,r2]                              
08058778 4281     cmp     r1,r0                                   
0805877A DB12     blt     80587A2h                                


;造砖????
0805987C B5F0     push    r4-r7,r14                               
0805987E B082     add     sp,-8h                                  
08059880 0400     lsl     r0,r0,10h                                   
08059882 0409     lsl     r1,r1,10h                               
08059884 0C0C     lsr     r4,r1,10h      ;X值                         
08059886 0412     lsl     r2,r2,10h                               
08059888 0C17     lsr     r7,r2,10h      ;clip序号                         
0805988A 4A0D     ldr     r2,=0FFFF0000h                          
0805988C 0C05     lsr     r5,r0,10h      ;Y值                         
0805988E 4320     orr     r0,r4                                   
08059890 9000     str     r0,[sp]        ;1个字节是Y值,1个字节是X值                          
08059892 4B0C     ldr     r3,=3005450h                            
08059894 6899     ldr     r1,[r3,8h]     ;读取砖块行为值地址                         
08059896 0078     lsl     r0,r7,1h       ;clip序号乘以2加行为地址                         
08059898 1840     add     r0,r0,r1                                
0805989A 8801     ldrh    r1,[r0]        ;读取clip行为                          
0805989C 9801     ldr     r0,[sp,4h]                              
0805989E 4010     and     r0,r2          ;读取                         
080598A0 4308     orr     r0,r1                                   
080598A2 4909     ldr     r1,=0FF00FFFFh                          
080598A4 4008     and     r0,r1                                   
080598A6 9001     str     r0,[sp,4h]                              
080598A8 2600     mov     r6,0h                                   
080598AA 4808     ldr     r0,=3000079h                            
080598AC 7800     ldrb    r0,[r0]                                 
080598AE 3801     sub     r0,1h                                   
080598B0 280E     cmp     r0,0Eh                                  
080598B2 D900     bls     80598B6h                                
080598B4 E08D     b       80599D2h                                
080598B6 0080     lsl     r0,r0,2h                                
080598B8 4905     ldr     r1,=80598D4h                            
080598BA 1840     add     r0,r0,r1                                
080598BC 6800     ldr     r0,[r0]                                 
080598BE 4687     mov     r15,r0                                  
080598C0 0000     lsl     r0,r0,0h                                
080598C2 FFFF     bl      lr+0FFEh                                
080598C4 5450     strb    r0,[r2,r1]                              
080598C6 0300     lsl     r0,r0,0Ch                               
080598C8 FFFF     bl      lr+0FFEh                                
080598CA FF00     bl      lr+0E00h                                
080598CC 0079     lsl     r1,r7,1h                                
080598CE 0300     lsl     r0,r0,0Ch                               
080598D0 98D4     ldr     r0,[sp,350h]                            
080598D2 0805     lsr     r5,r0,20h                               
080598D4 9964     ldr     r1,[sp,190h]                            
080598D6 0805     lsr     r5,r0,20h                               
080598D8 9980     ldr     r1,[sp,200h]                            
080598DA 0805     lsr     r5,r0,20h                               
080598DC 9998     ldr     r1,[sp,260h]                            
080598DE 0805     lsr     r5,r0,20h                               
080598E0 99B8     ldr     r1,[sp,2E0h]                            
080598E2 0805     lsr     r5,r0,20h                               
080598E4 9958     ldr     r1,[sp,160h]                            
080598E6 0805     lsr     r5,r0,20h                               
080598E8 99D2     ldr     r1,[sp,348h]                            
080598EA 0805     lsr     r5,r0,20h                               
080598EC 9910     ldr     r1,[sp,40h]                             
080598EE 0805     lsr     r5,r0,20h                               
080598F0 9910     ldr     r1,[sp,40h]                             
080598F2 0805     lsr     r5,r0,20h                               
080598F4 9910     ldr     r1,[sp,40h]                             
080598F6 0805     lsr     r5,r0,20h                               
080598F8 9910     ldr     r1,[sp,40h]                             
080598FA 0805     lsr     r5,r0,20h                               
080598FC 9910     ldr     r1,[sp,40h]                             
080598FE 0805     lsr     r5,r0,20h                               
08059900 992C     ldr     r1,[sp,0B0h]                            
08059902 0805     lsr     r5,r0,20h                               
08059904 992C     ldr     r1,[sp,0B0h]                            
08059906 0805     lsr     r5,r0,20h                               
08059908 9940     ldr     r1,[sp,100h]                            
0805990A 0805     lsr     r5,r0,20h                               
0805990C 9958     ldr     r1,[sp,160h]                            
0805990E 0805     lsr     r5,r0,20h                               
08059910 6858     ldr     r0,[r3,4h]                              
08059912 19C0     add     r0,r0,r7                                
08059914 7800     ldrb    r0,[r0]                                 
08059916 280B     cmp     r0,0Bh                                  
08059918 D11E     bne     8059958h                                
0805991A 4668     mov     r0,r13                                  
0805991C 8800     ldrh    r0,[r0]                                 
0805991E 9900     ldr     r1,[sp]                                 
08059920 0C09     lsr     r1,r1,10h                               
08059922 F001FAFD bl      805AF20h                                
08059926 2800     cmp     r0,0h                                   
08059928 D112     bne     8059950h                                
0805992A E015     b       8059958h                                
0805992C 4668     mov     r0,r13                                  
0805992E F7FFFBBF bl      80590B0h                                
08059932 2800     cmp     r0,0h                                   
08059934 D04D     beq     80599D2h                                
08059936 4801     ldr     r0,=135h                                
08059938 E008     b       805994Ch                                
0805993A 0000     lsl     r0,r0,0h                                
0805993C 0135     lsl     r5,r6,4h                                
0805993E 0000     lsl     r0,r0,0h                                
08059940 4668     mov     r0,r13                                  
08059942 F7FFFBB5 bl      80590B0h                                
08059946 2800     cmp     r0,0h                                   
08059948 D043     beq     80599D2h                                
0805994A 4802     ldr     r0,=139h                                
0805994C F7A9F8E8 bl      8002B20h                                
08059950 2601     mov     r6,1h                                   
08059952 E03E     b       80599D2h                                
08059954 0139     lsl     r1,r7,4h                                
08059956 0000     lsl     r0,r0,0h                                
08059958 4668     mov     r0,r13                                  
0805995A F7FFFBA9 bl      80590B0h                                
0805995E 2800     cmp     r0,0h                                   
08059960 D037     beq     80599D2h                                
08059962 E7F5     b       8059950h                                
08059964 2000     mov     r0,0h                                   
08059966 1C21     mov     r1,r4                                   
08059968 1C2A     mov     r2,r5                                   
0805996A F000F839 bl      80599E0h                                
0805996E 2800     cmp     r0,0h                                   
08059970 D104     bne     805997Ch                                
08059972 2000     mov     r0,0h                                   
08059974 1C29     mov     r1,r5                                   
08059976 1C22     mov     r2,r4                                   
08059978 F000FDF0 bl      805A55Ch                                
0805997C 2000     mov     r0,0h                                   
0805997E E014     b       80599AAh                                
08059980 2001     mov     r0,1h                                   
08059982 1C21     mov     r1,r4                                   
08059984 1C2A     mov     r2,r5                                   
08059986 F000F82B bl      80599E0h                                
0805998A 1C06     mov     r6,r0                                   
0805998C 2E00     cmp     r6,0h                                   
0805998E D020     beq     80599D2h                                
08059990 4800     ldr     r0,=43Eh                                
08059992 E00A     b       80599AAh                                
08059994 043E     lsl     r6,r7,10h                               
08059996 0000     lsl     r0,r0,0h                                
08059998 2001     mov     r0,1h                                   
0805999A 1C21     mov     r1,r4                                   
0805999C 1C2A     mov     r2,r5                                   
0805999E F000F81F bl      80599E0h                                
080599A2 1C06     mov     r6,r0                                   
080599A4 2E00     cmp     r6,0h                                   
080599A6 D014     beq     80599D2h                                
080599A8 4802     ldr     r0,=43Dh                                
080599AA 1C29     mov     r1,r5                                   
080599AC 1C22     mov     r2,r4                                   
080599AE F000FE4D bl      805A64Ch                                
080599B2 E00E     b       80599D2h                                
080599B4 043D     lsl     r5,r7,10h                               
080599B6 0000     lsl     r0,r0,0h                                
080599B8 2001     mov     r0,1h                                   
080599BA 1C21     mov     r1,r4                                   
080599BC 1C2A     mov     r2,r5                                   
080599BE F000F80F bl      80599E0h                                
080599C2 1C06     mov     r6,r0                                   
080599C4 2E00     cmp     r6,0h                                   
080599C6 D004     beq     80599D2h                                
080599C8 4804     ldr     r0,=43Fh                                
080599CA 1C29     mov     r1,r5                                   
080599CC 1C22     mov     r2,r4                                   
080599CE F000FE3D bl      805A64Ch                                
080599D2 1C30     mov     r0,r6                                   
080599D4 B002     add     sp,8h                                   
080599D6 BCF0     pop     r4-r7                                   
080599D8 BC02     pop     r1                                      
080599DA 4708     bx      r1                                      
080599DC 043F     lsl     r7,r7,10h                               
080599DE 0000     lsl     r0,r0,0h                                
080599E0 B5F0     push    r4-r7,r14                               
080599E2 4647     mov     r7,r8                                   
080599E4 B480     push    r7                                      
080599E6 0600     lsl     r0,r0,18h                               
080599E8 0409     lsl     r1,r1,10h                               
080599EA 0C0F     lsr     r7,r1,10h                               
080599EC 0412     lsl     r2,r2,10h                               
080599EE 0C15     lsr     r5,r2,10h                               
080599F0 2600     mov     r6,0h                                   
080599F2 2800     cmp     r0,0h                                   
080599F4 D123     bne     8059A3Eh                                
080599F6 4808     ldr     r0,=2027780h                            
080599F8 4680     mov     r8,r0                                   
080599FA 233F     mov     r3,3Fh                                  
080599FC 217E     mov     r1,7Eh                                  
080599FE 4441     add     r1,r8                                   
08059A00 468C     mov     r12,r1                                  
08059A02 880A     ldrh    r2,[r1]                                 
08059A04 0239     lsl     r1,r7,8h                                
08059A06 1C08     mov     r0,r1                                   
08059A08 4328     orr     r0,r5                                   
08059A0A 1C0C     mov     r4,r1                                   
08059A0C 4282     cmp     r2,r0                                   
08059A0E D105     bne     8059A1Ch                                
08059A10 4660     mov     r0,r12                                  
08059A12 8006     strh    r6,[r0]                                 
08059A14 E038     b       8059A88h                                
08059A16 0000     lsl     r0,r0,0h                                
08059A18 7780     strb    r0,[r0,1Eh]                             
08059A1A 0202     lsl     r2,r0,8h                                
08059A1C 3B01     sub     r3,1h                                   
08059A1E 2B00     cmp     r3,0h                                   
08059A20 DD33     ble     8059A8Ah                                
08059A22 3B01     sub     r3,1h                                   
08059A24 0058     lsl     r0,r3,1h                                
08059A26 4641     mov     r1,r8                                   
08059A28 1842     add     r2,r0,r1                                
08059A2A 8811     ldrh    r1,[r2]                                 
08059A2C 1C20     mov     r0,r4                                   
08059A2E 4328     orr     r0,r5                                   
08059A30 4281     cmp     r1,r0                                   
08059A32 D1F3     bne     8059A1Ch                                
08059A34 2000     mov     r0,0h                                   
08059A36 8010     strh    r0,[r2]                                 
08059A38 E026     b       8059A88h                                
08059A3A 23FF     mov     r3,0FFh                                 
08059A3C E013     b       8059A66h                                
08059A3E 4802     ldr     r0,=2027780h                            
08059A40 4680     mov     r8,r0                                   
08059A42 2340     mov     r3,40h                                  
08059A44 023C     lsl     r4,r7,8h                                
08059A46 E004     b       8059A52h                                
08059A48 7780     strb    r0,[r0,1Eh]                             
08059A4A 0202     lsl     r2,r0,8h                                
08059A4C 3B01     sub     r3,1h                                   
08059A4E 2B00     cmp     r3,0h                                   
08059A50 DD09     ble     8059A66h                                
08059A52 3B01     sub     r3,1h                                   
08059A54 0058     lsl     r0,r3,1h                                
08059A56 4440     add     r0,r8                                   
08059A58 8801     ldrh    r1,[r0]                                 
08059A5A 1C20     mov     r0,r4                                   
08059A5C 4328     orr     r0,r5                                   
08059A5E 4281     cmp     r1,r0                                   
08059A60 D0EB     beq     8059A3Ah                                
08059A62 2900     cmp     r1,0h                                   
08059A64 D1F2     bne     8059A4Ch                                
08059A66 2600     mov     r6,0h                                   
08059A68 2BFF     cmp     r3,0FFh                                 
08059A6A D00E     beq     8059A8Ah                                
08059A6C 490A     ldr     r1,=300009Ch                            
08059A6E 8B88     ldrh    r0,[r1,1Ch]                             
08059A70 4368     mul     r0,r5                                   
08059A72 19C0     add     r0,r0,r7                                
08059A74 6989     ldr     r1,[r1,18h]                             
08059A76 0040     lsl     r0,r0,1h                                
08059A78 1840     add     r0,r0,r1                                
08059A7A 8800     ldrh    r0,[r0]                                 





0800F47C B530     push    r4,r5,r14                               
0800F47E 0400     lsl     r0,r0,10h    ;Y坐标                           
0800F480 0C05     lsr     r5,r0,10h                               
0800F482 0409     lsl     r1,r1,10h    ;X坐标                           
0800F484 0C0C     lsr     r4,r1,10h                               
0800F486 1C28     mov     r0,r5                                   
0800F488 1C21     mov     r1,r4                                   
0800F48A F048FCF7 bl      8057E7Ch                                
0800F48E 1C01     mov     r1,r0                                   
0800F490 2080     mov     r0,80h                                  
0800F492 0440     lsl     r0,r0,11h    ;1000000                              
0800F494 4008     and     r0,r1                                   
0800F496 2300     mov     r3,0h                                   
0800F498 2800     cmp     r0,0h                                   
0800F49A D000     beq     800F49Eh                                
0800F49C 2311     mov     r3,11h                                  
0800F49E 20FF     mov     r0,0FFh                                 
0800F4A0 4008     and     r0,r1                                   
0800F4A2 3802     sub     r0,2h                                   
0800F4A4 280A     cmp     r0,0Ah                                  
0800F4A6 D860     bhi     800F56Ah                                
0800F4A8 0080     lsl     r0,r0,2h                                
0800F4AA 4902     ldr     r1,=800F4B8h                            
0800F4AC 1840     add     r0,r0,r1                                
0800F4AE 6800     ldr     r0,[r0]                                 
0800F4B0 4687     mov     r15,r0                                  
0800F4B2 0000     lsl     r0,r0,0h                                
0800F4B4 F4B8     ????                                            
0800F4B6 0800     lsr     r0,r0,20h                               
0800F4B8 F52C     ????                                            
0800F4BA 0800     lsr     r0,r0,20h                               
0800F4BC F4E4     ????                                            
0800F4BE 0800     lsr     r0,r0,20h                               
0800F4C0 F554     ????                                            
0800F4C2 0800     lsr     r0,r0,20h                               
0800F4C4 F540     ????                                            
0800F4C6 0800     lsr     r0,r0,20h                               
0800F4C8 F4FC     ????                                            
0800F4CA 0800     lsr     r0,r0,20h                               
0800F4CC F510     ????                                            
0800F4CE 0800     lsr     r0,r0,20h                               
0800F4D0 F56A     ????                                            
0800F4D2 0800     lsr     r0,r0,20h                               
0800F4D4 F56A     ????                                            
0800F4D6 0800     lsr     r0,r0,20h                               
0800F4D8 F56A     ????                                            
0800F4DA 0800     lsr     r0,r0,20h                               
0800F4DC F56A     ????                                            
0800F4DE 0800     lsr     r0,r0,20h                               
0800F4E0 F568     ????                                            
0800F4E2 0800     lsr     r0,r0,20h                               
0800F4E4 4904     ldr     r1,=0FFC0h                              
0800F4E6 4029     and     r1,r5                                   
0800F4E8 203F     mov     r0,3Fh                                  
0800F4EA 4020     and     r0,r4                                   
0800F4EC 383F     sub     r0,3Fh                                  
0800F4EE 1A09     sub     r1,r1,r0                                
0800F4F0 0409     lsl     r1,r1,10h                               
0800F4F2 0C0A     lsr     r2,r1,10h                               
0800F4F4 2305     mov     r3,5h                                   
0800F4F6 E03A     b       800F56Eh                                
0800F4F8 FFC0     bl      lr+0F80h                                
0800F4FA 0000     lsl     r0,r0,0h                                
0800F4FC 4903     ldr     r1,=0FFC0h                              
0800F4FE 4029     and     r1,r5                                   
0800F500 203F     mov     r0,3Fh                                  
0800F502 4020     and     r0,r4                                   
0800F504 0840     lsr     r0,r0,1h                                
0800F506 383F     sub     r0,3Fh                                  
0800F508 E008     b       800F51Ch                                
0800F50A 0000     lsl     r0,r0,0h                                
0800F50C FFC0     bl      lr+0F80h                                
0800F50E 0000     lsl     r0,r0,0h                                
0800F510 4905     ldr     r1,=0FFC0h                              
0800F512 4029     and     r1,r5                                   
0800F514 203F     mov     r0,3Fh                                  
0800F516 4020     and     r0,r4                                   
0800F518 0840     lsr     r0,r0,1h                                
0800F51A 381F     sub     r0,1Fh                                  
0800F51C 1A09     sub     r1,r1,r0                                
0800F51E 0409     lsl     r1,r1,10h                               
0800F520 0C0A     lsr     r2,r1,10h                               
0800F522 2303     mov     r3,3h                                   
0800F524 E023     b       800F56Eh                                
0800F526 0000     lsl     r0,r0,0h                                
0800F528 FFC0     bl      lr+0F80h                                
0800F52A 0000     lsl     r0,r0,0h                                
0800F52C 4A03     ldr     r2,=0FFC0h                              
0800F52E 402A     and     r2,r5                                   
0800F530 203F     mov     r0,3Fh                                  
0800F532 4020     and     r0,r4                                   
0800F534 4302     orr     r2,r0                                   
0800F536 2304     mov     r3,4h                                   
0800F538 E019     b       800F56Eh                                
0800F53A 0000     lsl     r0,r0,0h                                
0800F53C FFC0     bl      lr+0F80h                                
0800F53E 0000     lsl     r0,r0,0h                                
0800F540 4A03     ldr     r2,=0FFC0h                              
0800F542 402A     and     r2,r5                                   
0800F544 203F     mov     r0,3Fh                                  
0800F546 4020     and     r0,r4                                   
0800F548 0840     lsr     r0,r0,1h                                
0800F54A 301F     add     r0,1Fh                                  
0800F54C E007     b       800F55Eh                                
0800F54E 0000     lsl     r0,r0,0h                                
0800F550 FFC0     bl      lr+0F80h                                
0800F552 0000     lsl     r0,r0,0h                                
0800F554 4A03     ldr     r2,=0FFC0h                              
0800F556 402A     and     r2,r5                                   
0800F558 203F     mov     r0,3Fh                                  
0800F55A 4020     and     r0,r4                                   
0800F55C 0840     lsr     r0,r0,1h                                
0800F55E 4302     orr     r2,r0                                   
0800F560 2302     mov     r3,2h                                   
0800F562 E004     b       800F56Eh                                
0800F564 FFC0     bl      lr+0F80h                                
0800F566 0000     lsl     r0,r0,0h                                
0800F568 2310     mov     r3,10h                                  
0800F56A 4A03     ldr     r2,=0FFC0h                              
0800F56C 402A     and     r2,r5                                   
0800F56E 4295     cmp     r5,r2                                   
0800F570 D306     bcc     800F580h                                
0800F572 4802     ldr     r0,=30007F0h                            
0800F574 7003     strb    r3,[r0]                                 
0800F576 E006     b       800F586h                                
0800F578 FFC0     bl      lr+0F80h                                
0800F57A 0000     lsl     r0,r0,0h                                
0800F57C 07F0     lsl     r0,r6,1Fh                               
0800F57E 0300     lsl     r0,r0,0Ch                               
0800F580 4903     ldr     r1,=30007F0h                            
0800F582 2000     mov     r0,0h                                   
0800F584 7008     strb    r0,[r1]                                 
0800F586 1C10     mov     r0,r2                                   
0800F588 BC30     pop     r4,r5                                   
0800F58A BC02     pop     r1                                      
0800F58C 4708     bx      r1                                      
0800F58E 0000     lsl     r0,r0,0h                                
0800F590 07F0     lsl     r0,r6,1Fh                               
0800F592 0300     lsl     r0,r0,0Ch                               
0800F594 B5F0     push    r4-r7,r14                               
0800F596 4657     mov     r7,r10                                  
0800F598 464E     mov     r6,r9                                   
0800F59A 4645     mov     r5,r8                                   
0800F59C B4E0     push    r5-r7                                   
0800F59E 4F18     ldr     r7,=3000738h                            
0800F5A0 887D     ldrh    r5,[r7,2h]                              
0800F5A2 46A9     mov     r9,r5                                   
0800F5A4 88BC     ldrh    r4,[r7,4h]                              
0800F5A6 46A2     mov     r10,r4                                  
0800F5A8 1F28     sub     r0,r5,4                                 
0800F5AA 0400     lsl     r0,r0,10h                               
0800F5AC 0C00     lsr     r0,r0,10h                               
0800F5AE 1C21     mov     r1,r4                                   
0800F5B0 F7FFFED6 bl      800F360h                                
0800F5B4 1C02     mov     r2,r0                                   
0800F5B6 4E13     ldr     r6,=30007F0h                            
0800F5B8 7831     ldrb    r1,[r6]                                 
0800F5BA 200F     mov     r0,0Fh                                  
0800F5BC 4680     mov     r8,r0                                   
0800F5BE 4008     and     r0,r1                                   
0800F5C0 2801     cmp     r0,1h                                   
0800F5C2 D814     bhi     800F5EEh                                
0800F5C4 1C28     mov     r0,r5                                   
0800F5C6 1C21     mov     r1,r4                                   
0800F5C8 F7FFFECA bl      800F360h                                
0800F5CC 1C02     mov     r2,r0                                   
0800F5CE 7831     ldrb    r1,[r6]                                 
0800F5D0 4640     mov     r0,r8                                   
0800F5D2 4008     and     r0,r1                                   
0800F5D4 2801     cmp     r0,1h                                   
0800F5D6 D80A     bhi     800F5EEh                                
0800F5D8 4648     mov     r0,r9                                   
0800F5DA 3004     add     r0,4h                                   
0800F5DC 0400     lsl     r0,r0,10h                               
0800F5DE 0C00     lsr     r0,r0,10h                               
0800F5E0 4651     mov     r1,r10                                  
0800F5E2 F7FFFEBD bl      800F360h                                
0800F5E6 1C02     mov     r2,r0                                   
0800F5E8 7830     ldrb    r0,[r6]                                 
0800F5EA 2800     cmp     r0,0h                                   
0800F5EC D000     beq     800F5F0h                                
0800F5EE 807A     strh    r2,[r7,2h]                              
0800F5F0 BC38     pop     r3-r5                                   
0800F5F2 4698     mov     r8,r3                                   
0800F5F4 46A1     mov     r9,r4                                   
0800F5F6 46AA     mov     r10,r5                                  
0800F5F8 BCF0     pop     r4-r7                                   
0800F5FA BC01     pop     r0                                      
0800F5FC 4700     bx      r0                                      
0800F5FE 0000     lsl     r0,r0,0h                                
0800F600 0738     lsl     r0,r7,1Ch                               
0800F602 0300     lsl     r0,r0,0Ch                               
0800F604 07F0     lsl     r0,r6,1Fh                               
0800F606 0300     lsl     r0,r0,0Ch                               
0800F608 B5F0     push    r4-r7,r14                               
0800F60A 4657     mov     r7,r10                                  
0800F60C 464E     mov     r6,r9                                   
0800F60E 4645     mov     r5,r8                                   
0800F610 B4E0     push    r5-r7                                   
0800F612 4E1B     ldr     r6,=3000738h                            
0800F614 89B0     ldrh    r0,[r6,0Ch]                             
0800F616 8871     ldrh    r1,[r6,2h]                              
0800F618 1840     add     r0,r0,r1                                
0800F61A 0400     lsl     r0,r0,10h                               
0800F61C 0C05     lsr     r5,r0,10h                               
0800F61E 46A9     mov     r9,r5                                   
0800F620 88B4     ldrh    r4,[r6,4h]                              
0800F622 46A2     mov     r10,r4                                  
0800F624 1F28     sub     r0,r5,4                                 
0800F626 0400     lsl     r0,r0,10h                               
0800F628 0C00     lsr     r0,r0,10h                               
0800F62A 1C21     mov     r1,r4                                   
0800F62C F7FFFE98 bl      800F360h                                
0800F630 1C02     mov     r2,r0                                   
0800F632 4F14     ldr     r7,=30007F0h                            
0800F634 7839     ldrb    r1,[r7]                                 
0800F636 200F     mov     r0,0Fh                                  
0800F638 4680     mov     r8,r0                                   
0800F63A 4008     and     r0,r1                                   
0800F63C 2801     cmp     r0,1h                                   
0800F63E D814     bhi     800F66Ah                                
0800F640 1C28     mov     r0,r5                                   
0800F642 1C21     mov     r1,r4                                   
0800F644 F7FFFE8C bl      800F360h                                
0800F648 1C02     mov     r2,r0                                   
0800F64A 7839     ldrb    r1,[r7]                                 
0800F64C 4640     mov     r0,r8                                   
0800F64E 4008     and     r0,r1                                   
0800F650 2801     cmp     r0,1h                                   
0800F652 D80A     bhi     800F66Ah                                
0800F654 4648     mov     r0,r9                                   
0800F656 3004     add     r0,4h                                   
0800F658 0400     lsl     r0,r0,10h                               
0800F65A 0C00     lsr     r0,r0,10h                               
0800F65C 4651     mov     r1,r10                                  
0800F65E F7FFFE7F bl      800F360h                                
0800F662 1C02     mov     r2,r0                                   
0800F664 7838     ldrb    r0,[r7]                                 
0800F666 2800     cmp     r0,0h                                   
0800F668 D002     beq     800F670h                                
0800F66A 89B0     ldrh    r0,[r6,0Ch]                             
0800F66C 1A10     sub     r0,r2,r0                                
0800F66E 8070     strh    r0,[r6,2h]                              
0800F670 BC38     pop     r3-r5                                   
0800F672 4698     mov     r8,r3                                   
0800F674 46A1     mov     r9,r4                                   
0800F676 46AA     mov     r10,r5                                  
0800F678 BCF0     pop     r4-r7                                   
0800F67A BC01     pop     r0                                      
0800F67C 4700     bx      r0                                      
0800F67E 0000     lsl     r0,r0,0h                                
0800F680 0738     lsl     r0,r7,1Ch                               
0800F682 0300     lsl     r0,r0,0Ch                               
0800F684 07F0     lsl     r0,r6,1Fh                               
0800F686 0300     lsl     r0,r0,0Ch                               
0800F688 B500     push    r14                                     
0800F68A 0400     lsl     r0,r0,10h                               
0800F68C 0C00     lsr     r0,r0,10h                               
0800F68E 0409     lsl     r1,r1,10h                               
0800F690 0C09     lsr     r1,r1,10h                               
0800F692 F048FBF3 bl      8057E7Ch                                
0800F696 1C03     mov     r3,r0                                   
0800F698 2280     mov     r2,80h                                  
0800F69A 0452     lsl     r2,r2,11h                               
0800F69C 401A     and     r2,r3                                   
0800F69E 2A00     cmp     r2,0h                                   
0800F6A0 D006     beq     800F6B0h                                
0800F6A2 4902     ldr     r1,=30007F1h                            
0800F6A4 2011     mov     r0,11h                                  
0800F6A6 7008     strb    r0,[r1]                                 
0800F6A8 1C0A     mov     r2,r1                                   
0800F6AA E004     b       800F6B6h                                
0800F6AC 07F1     lsl     r1,r6,1Fh                               
0800F6AE 0300     lsl     r0,r0,0Ch                               
0800F6B0 4806     ldr     r0,=30007F1h                            
0800F6B2 7002     strb    r2,[r0]                                 
0800F6B4 1C02     mov     r2,r0                                   
0800F6B6 20FF     mov     r0,0FFh                                 
0800F6B8 4018     and     r0,r3                                   
0800F6BA 3802     sub     r0,2h                                   
0800F6BC 280A     cmp     r0,0Ah                                  
0800F6BE D82D     bhi     800F71Ch                                
0800F6C0 0080     lsl     r0,r0,2h                                
0800F6C2 4903     ldr     r1,=800F6D4h                            
0800F6C4 1840     add     r0,r0,r1                                
0800F6C6 6800     ldr     r0,[r0]                                 
0800F6C8 4687     mov     r15,r0                                  
0800F6CA 0000     lsl     r0,r0,0h                                
0800F6CC 07F1     lsl     r1,r6,1Fh                               
0800F6CE 0300     lsl     r0,r0,0Ch                               
0800F6D0 F6D4     ????                                            
0800F6D2 0800     lsr     r0,r0,20h                               
0800F6D4 F70C     ????                                            
0800F6D6 0800     lsr     r0,r0,20h                               
0800F6D8 F700     ????                                            
0800F6DA 0800     lsr     r0,r0,20h                               
0800F6DC F714     ????                                            
0800F6DE 0800     lsr     r0,r0,20h                               
0800F6E0 F710     ????                                            
0800F6E2 0800     lsr     r0,r0,20h                               
0800F6E4 F704     ????                                            
0800F6E6 0800     lsr     r0,r0,20h                               
0800F6E8 F708     ????                                            
0800F6EA 0800     lsr     r0,r0,20h                               
0800F6EC F71C     ????                                            
0800F6EE 0800     lsr     r0,r0,20h                               
0800F6F0 F71C     ????                                            
0800F6F2 0800     lsr     r0,r0,20h                               
0800F6F4 F71C     ????                                            
0800F6F6 0800     lsr     r0,r0,20h                               
0800F6F8 F71C     ????                                            
0800F6FA 0800     lsr     r0,r0,20h                               
0800F6FC F718     ????                                            
0800F6FE 0800     lsr     r0,r0,20h                               
0800F700 2005     mov     r0,5h                                   
0800F702 E00A     b       800F71Ah                                
0800F704 2003     mov     r0,3h                                   
0800F706 E008     b       800F71Ah                                
0800F708 2003     mov     r0,3h                                   
0800F70A E006     b       800F71Ah                                
0800F70C 2004     mov     r0,4h                                   
0800F70E E004     b       800F71Ah                                
0800F710 2002     mov     r0,2h                                   
0800F712 E002     b       800F71Ah                                
0800F714 2002     mov     r0,2h                                   
0800F716 E000     b       800F71Ah                                
0800F718 2010     mov     r0,10h                                  
0800F71A 7010     strb    r0,[r2]                                 
0800F71C BC01     pop     r0                                      
0800F71E 4700     bx      r0   

                                   
0800F720 B500     push    r14                                     
0800F722 0400     lsl     r0,r0,10h                               
0800F724 0C00     lsr     r0,r0,10h                               
0800F726 0409     lsl     r1,r1,10h                               
0800F728 0C09     lsr     r1,r1,10h                               
0800F72A F048FBA7 bl      8057E7Ch                                
0800F72E 1C01     mov     r1,r0                                   
0800F730 2080     mov     r0,80h                                  
0800F732 0440     lsl     r0,r0,11h                               
0800F734 4008     and     r0,r1                                   
0800F736 2200     mov     r2,0h                                   
0800F738 2800     cmp     r0,0h                                   
0800F73A D000     beq     800F73Eh                                
0800F73C 2211     mov     r2,11h                                  
0800F73E 20FF     mov     r0,0FFh                                 
0800F740 4008     and     r0,r1                                   
0800F742 3802     sub     r0,2h                                   
0800F744 280A     cmp     r0,0Ah                                  
0800F746 D826     bhi     800F796h                                
0800F748 0080     lsl     r0,r0,2h                                
0800F74A 4902     ldr     r1,=800F758h                            
0800F74C 1840     add     r0,r0,r1                                
0800F74E 6800     ldr     r0,[r0]                                 
0800F750 4687     mov     r15,r0                                  
0800F752 0000     lsl     r0,r0,0h                                
0800F754 F758     ????                                            
0800F756 0800     lsr     r0,r0,20h                               
0800F758 F78C     ????                                            
0800F75A 0800     lsr     r0,r0,20h                               
0800F75C F784     ????                                            
0800F75E 0800     lsr     r0,r0,20h                               
0800F760 F790     ????                                            
0800F762 0800     lsr     r0,r0,20h                               
0800F764 F790     ????                                            
0800F766 0800     lsr     r0,r0,20h                               
0800F768 F788     ????                                            
0800F76A 0800     lsr     r0,r0,20h                               
0800F76C F788     ????                                            
0800F76E 0800     lsr     r0,r0,20h                               
0800F770 F796     ????                                            
0800F772 0800     lsr     r0,r0,20h                               
0800F774 F796     ????                                            
0800F776 0800     lsr     r0,r0,20h                               
0800F778 F796     ????                                            
0800F77A 0800     lsr     r0,r0,20h                               
0800F77C F796     ????                                            
0800F77E 0800     lsr     r0,r0,20h                               
0800F780 F794     ????                                            
0800F782 0800     lsr     r0,r0,20h                               
0800F784 2205     mov     r2,5h                                   
0800F786 E006     b       800F796h                                
0800F788 2203     mov     r2,3h                                   
0800F78A E004     b       800F796h                                
0800F78C 2204     mov     r2,4h                                   
0800F78E E002     b       800F796h                                
0800F790 2202     mov     r2,2h                                   
0800F792 E000     b       800F796h                                
0800F794 2210     mov     r2,10h                                  
0800F796 1C10     mov     r0,r2                                   
0800F798 BC02     pop     r1                                      
0800F79A 4708     bx      r1                                      
0800F79C B530     push    r4,r5,r14                               
0800F79E 4C08     ldr     r4,=3000738h                            
0800F7A0 8860     ldrh    r0,[r4,2h]                              
0800F7A2 88A1     ldrh    r1,[r4,4h]                              
0800F7A4 F7FFFE6A bl      800F47Ch                                
0800F7A8 1C01     mov     r1,r0                                   
0800F7AA 4806     ldr     r0,=30007F0h                            
0800F7AC 7800     ldrb    r0,[r0]                                 
0800F7AE 2800     cmp     r0,0h                                   
0800F7B0 D00A     beq     800F7C8h                                
0800F7B2 8061     strh    r1,[r4,2h]                              
0800F7B4 1C21     mov     r1,r4                                   
0800F7B6 3124     add     r1,24h                                  
0800F7B8 200E     mov     r0,0Eh                                  
0800F7BA 7008     strb    r0,[r1]                                 
0800F7BC E022     b       800F804h                                
0800F7BE 0000     lsl     r0,r0,0h                                
0800F7C0 0738     lsl     r0,r7,1Ch                               
0800F7C2 0300     lsl     r0,r0,0Ch                               
0800F7C4 07F0     lsl     r0,r6,1Fh                               
0800F7C6 0300     lsl     r0,r0,0Ch                               
0800F7C8 202F     mov     r0,2Fh                                  
0800F7CA 1900     add     r0,r0,r4                                
0800F7CC 4684     mov     r12,r0                                  
0800F7CE 7801     ldrb    r1,[r0]                                 
0800F7D0 4B07     ldr     r3,=82B0D04h                            
0800F7D2 0048     lsl     r0,r1,1h                                
0800F7D4 18C0     add     r0,r0,r3                                
0800F7D6 2500     mov     r5,0h                                   
0800F7D8 5F42     ldsh    r2,[r0,r5]                              
0800F7DA 4806     ldr     r0,=7FFFh                               
0800F7DC 4282     cmp     r2,r0                                   
0800F7DE D10B     bne     800F7F8h                                
0800F7E0 1E48     sub     r0,r1,1                                 
0800F7E2 0040     lsl     r0,r0,1h                                
0800F7E4 18C0     add     r0,r0,r3                                
0800F7E6 2100     mov     r1,0h                                   
0800F7E8 5E40     ldsh    r0,[r0,r1]                              
0800F7EA 8865     ldrh    r5,[r4,2h]                              
0800F7EC 1940     add     r0,r0,r5                                
0800F7EE E008     b       800F802h                                
0800F7F0 0D04     lsr     r4,r0,14h                               
0800F7F2 082B     lsr     r3,r5,20h                               
0800F7F4 7FFF     ldrb    r7,[r7,1Fh]                             
0800F7F6 0000     lsl     r0,r0,0h                                
0800F7F8 1C48     add     r0,r1,1                                 
0800F7FA 4661     mov     r1,r12                                  
0800F7FC 7008     strb    r0,[r1]                                 
0800F7FE 8860     ldrh    r0,[r4,2h]                              
0800F800 1880     add     r0,r0,r2                                
0800F802 8060     strh    r0,[r4,2h]                              
0800F804 BC30     pop     r4,r5                                   
0800F806 BC01     pop     r0                                      
0800F808 4700     bx      r0                                      
0800F80A 0000     lsl     r0,r0,0h                                
0800F80C B500     push    r14                                     
0800F80E 4805     ldr     r0,=300083Ch                            
0800F810 7801     ldrb    r1,[r0]                                 
0800F812 2001     mov     r0,1h                                   
0800F814 4008     and     r0,r1                                   
0800F816 2800     cmp     r0,0h                                   
0800F818 D00A     beq     800F830h                                
0800F81A 4A03     ldr     r2,=3000738h                            
0800F81C 8811     ldrh    r1,[r2]                                 
0800F81E 4803     ldr     r0,=0FFBFh                              
0800F820 4008     and     r0,r1                                   
0800F822 E009     b       800F838h                                
0800F824 083C     lsr     r4,r7,20h                               
0800F826 0300     lsl     r0,r0,0Ch                               
0800F828 0738     lsl     r0,r7,1Ch                               
0800F82A 0300     lsl     r0,r0,0Ch                               
0800F82C FFBF     bl      lr+0F7Eh                                
0800F82E 0000     lsl     r0,r0,0h                                
0800F830 4A03     ldr     r2,=3000738h                            
0800F832 8811     ldrh    r1,[r2]                                 
0800F834 2040     mov     r0,40h                                  
0800F836 4308     orr     r0,r1                                   
0800F838 8010     strh    r0,[r2]                                 
0800F83A BC01     pop     r0                                      
0800F83C 4700     bx      r0                                      
0800F83E 0000     lsl     r0,r0,0h                                
0800F840 0738     lsl     r0,r7,1Ch                               
0800F842 0300     lsl     r0,r0,0Ch                               
0800F844 B500     push    r14                                     
0800F846 4805     ldr     r0,=300083Ch                            
0800F848 7801     ldrb    r1,[r0]                                 
0800F84A 2001     mov     r0,1h                                   
0800F84C 4008     and     r0,r1                                   
0800F84E 2800     cmp     r0,0h                                   
0800F850 D00A     beq     800F868h                                
0800F852 4A03     ldr     r2,=3000738h                            
0800F854 8811     ldrh    r1,[r2]                                 
0800F856 4803     ldr     r0,=0FDFFh                              
0800F858 4008     and     r0,r1                                   
0800F85A E00B     b       800F874h                                
0800F85C 083C     lsr     r4,r7,20h                               
0800F85E 0300     lsl     r0,r0,0Ch                               
0800F860 0738     lsl     r0,r7,1Ch                               
0800F862 0300     lsl     r0,r0,0Ch                               
0800F864 FDFF     bl      lr+0BFEh                                
0800F866 0000     lsl     r0,r0,0h                                
0800F868 4A04     ldr     r2,=3000738h                            
0800F86A 8811     ldrh    r1,[r2]                                 
0800F86C 2380     mov     r3,80h                                  
0800F86E 009B     lsl     r3,r3,2h                                
0800F870 1C18     mov     r0,r3                                   
0800F872 4308     orr     r0,r1                                   
0800F874 8010     strh    r0,[r2]                                 
0800F876 BC01     pop     r0                                      
0800F878 4700     bx      r0                                      
0800F87A 0000     lsl     r0,r0,0h                                
0800F87C 0738     lsl     r0,r7,1Ch                               
0800F87E 0300     lsl     r0,r0,0Ch                               
0800F880 B500     push    r14                                     
0800F882 4A05     ldr     r2,=3000738h                            
0800F884 7F91     ldrb    r1,[r2,1Eh]                             
0800F886 2001     mov     r0,1h                                   
0800F888 4008     and     r0,r1                                   
0800F88A 2800     cmp     r0,0h                                   
0800F88C D008     beq     800F8A0h                                
0800F88E 8811     ldrh    r1,[r2]                                 
0800F890 4802     ldr     r0,=0FDFFh                              
0800F892 4008     and     r0,r1                                   
0800F894 E009     b       800F8AAh                                
0800F896 0000     lsl     r0,r0,0h                                
0800F898 0738     lsl     r0,r7,1Ch                               
0800F89A 0300     lsl     r0,r0,0Ch                               
0800F89C FDFF     bl      lr+0BFEh                                
0800F89E 0000     lsl     r0,r0,0h                                
0800F8A0 8811     ldrh    r1,[r2]                                 
0800F8A2 2380     mov     r3,80h                                  
0800F8A4 009B     lsl     r3,r3,2h                                
0800F8A6 1C18     mov     r0,r3                                   
0800F8A8 4308     orr     r0,r1                                   
0800F8AA 8010     strh    r0,[r2]                                 
0800F8AC BC01     pop     r0                                      
0800F8AE 4700     bx      r0                                      
0800F8B0 B500     push    r14                                     
0800F8B2 4A05     ldr     r2,=3000738h                            
0800F8B4 4905     ldr     r1,=30013D4h                            
0800F8B6 8890     ldrh    r0,[r2,4h]                              
0800F8B8 8A49     ldrh    r1,[r1,12h]                             
0800F8BA 4288     cmp     r0,r1                                   
0800F8BC D90A     bls     800F8D4h                                
0800F8BE 8811     ldrh    r1,[r2]                                 
0800F8C0 4803     ldr     r0,=0FFBFh                              
0800F8C2 4008     and     r0,r1                                   
0800F8C4 E009     b       800F8DAh                                
0800F8C6 0000     lsl     r0,r0,0h                                
0800F8C8 0738     lsl     r0,r7,1Ch                               
0800F8CA 0300     lsl     r0,r0,0Ch                               
0800F8CC 13D4     asr     r4,r2,0Fh                               
0800F8CE 0300     lsl     r0,r0,0Ch                               
0800F8D0 FFBF     bl      lr+0F7Eh                                
0800F8D2 0000     lsl     r0,r0,0h                                
0800F8D4 8811     ldrh    r1,[r2]                                 
0800F8D6 2040     mov     r0,40h                                  
0800F8D8 4308     orr     r0,r1                                   
0800F8DA 8010     strh    r0,[r2]                                 
0800F8DC BC01     pop     r0                                      
0800F8DE 4700     bx      r0                                      
0800F8E0 B500     push    r14                                     
0800F8E2 4A05     ldr     r2,=3000738h                            
0800F8E4 4905     ldr     r1,=30013D4h                            
0800F8E6 8890     ldrh    r0,[r2,4h]                              
0800F8E8 8A49     ldrh    r1,[r1,12h]                             
0800F8EA 4288     cmp     r0,r1                                   
0800F8EC D90A     bls     800F904h                                
0800F8EE 8811     ldrh    r1,[r2]                                 
0800F8F0 4803     ldr     r0,=0FDFFh                              
0800F8F2 4008     and     r0,r1                                   
0800F8F4 E00B     b       800F90Eh                                
0800F8F6 0000     lsl     r0,r0,0h                                
0800F8F8 0738     lsl     r0,r7,1Ch                               
0800F8FA 0300     lsl     r0,r0,0Ch                               
0800F8FC 13D4     asr     r4,r2,0Fh                               
0800F8FE 0300     lsl     r0,r0,0Ch                               
0800F900 FDFF     bl      lr+0BFEh                                
0800F902 0000     lsl     r0,r0,0h                                
0800F904 8811     ldrh    r1,[r2]                                 
0800F906 2380     mov     r3,80h                                  
0800F908 009B     lsl     r3,r3,2h                                
0800F90A 1C18     mov     r0,r3                                   
0800F90C 4308     orr     r0,r1                                   
0800F90E 8010     strh    r0,[r2]                                 
0800F910 BC01     pop     r0                                      
0800F912 4700     bx      r0                                      
0800F914 B500     push    r14                                     
0800F916 4A05     ldr     r2,=3000738h                            
0800F918 4905     ldr     r1,=30013D4h                            
0800F91A 8890     ldrh    r0,[r2,4h]                              
0800F91C 8A49     ldrh    r1,[r1,12h]                             
0800F91E 4288     cmp     r0,r1                                   
0800F920 D908     bls     800F934h                                
0800F922 8811     ldrh    r1,[r2]                                 
0800F924 2040     mov     r0,40h                                  
0800F926 4308     orr     r0,r1                                   
0800F928 E007     b       800F93Ah                                
0800F92A 0000     lsl     r0,r0,0h                                
0800F92C 0738     lsl     r0,r7,1Ch                               
0800F92E 0300     lsl     r0,r0,0Ch                               
0800F930 13D4     asr     r4,r2,0Fh                               
0800F932 0300     lsl     r0,r0,0Ch                               
0800F934 8811     ldrh    r1,[r2]                                 
0800F936 4802     ldr     r0,=0FFBFh                              
0800F938 4008     and     r0,r1                                   
0800F93A 8010     strh    r0,[r2]                                 
0800F93C BC01     pop     r0                                      
0800F93E 4700     bx      r0                                      
0800F940 FFBF     bl      lr+0F7Eh                                
0800F942 0000     lsl     r0,r0,0h                                
0800F944 B500     push    r14                                     
0800F946 4A06     ldr     r2,=3000738h                            
0800F948 4906     ldr     r1,=30013D4h                            
0800F94A 8890     ldrh    r0,[r2,4h]                              
0800F94C 8A49     ldrh    r1,[r1,12h]                             
0800F94E 4288     cmp     r0,r1                                   
0800F950 D90A     bls     800F968h                                
0800F952 8811     ldrh    r1,[r2]                                 
0800F954 2380     mov     r3,80h                                  
0800F956 009B     lsl     r3,r3,2h                                
0800F958 1C18     mov     r0,r3                                   
0800F95A 4308     orr     r0,r1                                   
0800F95C E007     b       800F96Eh                                
0800F95E 0000     lsl     r0,r0,0h                                
0800F960 0738     lsl     r0,r7,1Ch                               
0800F962 0300     lsl     r0,r0,0Ch                               
0800F964 13D4     asr     r4,r2,0Fh                               
0800F966 0300     lsl     r0,r0,0Ch                               
0800F968 8811     ldrh    r1,[r2]                                 
0800F96A 4802     ldr     r0,=0FDFFh                              
0800F96C 4008     and     r0,r1                                   
0800F96E 8010     strh    r0,[r2]                                 
0800F970 BC01     pop     r0                                      
0800F972 4700     bx      r0                                      
0800F974 FDFF     bl      lr+0BFEh                                
0800F976 0000     lsl     r0,r0,0h                                
0800F978 B530     push    r4,r5,r14                               
0800F97A 0400     lsl     r0,r0,10h                               

