


08003E60 B510     push    r4,r14                                  
08003E62 0600     lsl     r0,r0,18h                               
08003E64 0E02     lsr     r2,r0,18h                               
08003E66 1C14     mov     r4,r2        ;0                             
08003E68 4907     ldr     r1,=3001D00h                            
08003E6A 7848     ldrb    r0,[r1,1h]   ;读取3001d01                           
08003E6C 1C0B     mov     r3,r1                                   
08003E6E 2800     cmp     r0,0h        ;不为0跳转                           
08003E70 D11E     bne     @@end                                 
08003E72 2001     mov     r0,1h                                   
08003E74 7058     strb    r0,[r3,1h]   ;为零的话写入1                            
08003E76 2A80     cmp     r2,80h                                  
08003E78 D108     bne     @@StartDataNo80     ;一开始设定数不是80则跳转                           
08003E7A 1C1C     mov     r4,r3                                   
08003E7C 3421     add     r4,21h                                  
08003E7E 7821     ldrb    r1,[r4]             ;读取3001d21的值                    
08003E80 1C10     mov     r0,r2                                   
08003E82 4308     orr     r0,r1               ;orr 一开始设定数                     
08003E84 7020     strb    r0,[r4]             ;再写入                    
08003E86 E011     b       @@Peer                                

@@StartDataNo80:                               
08003E8C 2AFF     cmp     r2,0FFh                                 
08003E8E D106     bne     @@StartDataNoFF     ;一开始设定数不是FF跳转                    
08003E90 1C1A     mov     r2,r3                                   
08003E92 3221     add     r2,21h                                  
08003E94 7811     ldrb    r1,[r2]             ;得到3001d21的值                     
08003E96 207F     mov     r0,7Fh                                  
08003E98 4008     and     r0,r1               ;和7F and再写入                     
08003E9A 7010     strb    r0,[r2]                                 
08003E9C E006     b       @@Peer  

@@StartDataNoFF:                              
08003E9E 1C1A     mov     r2,r3                                   
08003EA0 3221     add     r2,21h           ;得到3001d21的值                        
08003EA2 7811     ldrb    r1,[r2]                                 
08003EA4 2080     mov     r0,80h           ;和80 and                      
08003EA6 4008     and     r0,r1                                   
08003EA8 4304     orr     r4,r0            ;orr一开始设定数再写入                       
08003EAA 7014     strb    r4,[r2]

@@Peer:                                 
08003EAC 2000     mov     r0,0h                                   
08003EAE 7058     strb    r0,[r3,1h]

@@end:                              
08003EB0 BC10     pop     r4                                      
08003EB2 BC01     pop     r0                                      
08003EB4 4700     bx      r0 



                                     
08003EB6 0000     lsl     r0,r0,0h                                
08003EB8 B570     push    r4-r6,r14                               
08003EBA 490D     ldr     r1,=3001D00h                            
08003EBC 784A     ldrb    r2,[r1,1h]                              
08003EBE 2A00     cmp     r2,0h                                   
08003EC0 D127     bne     8003F12h                                
08003EC2 2001     mov     r0,1h                                   
08003EC4 7048     strb    r0,[r1,1h]                              
08003EC6 480B     ldr     r0,=808F254h                            
08003EC8 6806     ldr     r6,[r0]                                 
08003ECA 1C08     mov     r0,r1                                   
08003ECC 3020     add     r0,20h                                  
08003ECE 7002     strb    r2,[r0]                                 
08003ED0 8B8A     ldrh    r2,[r1,1Ch]                             
08003ED2 1C10     mov     r0,r2                                   
08003ED4 385A     sub     r0,5Ah                                  
08003ED6 0400     lsl     r0,r0,10h                               
08003ED8 0C00     lsr     r0,r0,10h                               
08003EDA 2809     cmp     r0,9h                                   
08003EDC D80E     bhi     8003EFCh                                
08003EDE 4C06     ldr     r4,=808F2C0h                            
08003EE0 1C10     mov     r0,r2                                   
08003EE2 F7FFFD4D bl      8003980h                                
08003EE6 0400     lsl     r0,r0,10h                               
08003EE8 0B40     lsr     r0,r0,0Dh                               
08003EEA 1900     add     r0,r0,r4                                
08003EEC E009     b       8003F02h                                
08003EEE 0000     lsl     r0,r0,0h                                
08003EF0 1D00     add     r0,r0,4                                 
08003EF2 0300     lsl     r0,r0,0Ch                               
08003EF4 F254     ????                                            
08003EF6 0808     lsr     r0,r1,20h                               
08003EF8 F2C0     ????                                            
08003EFA 0808     lsr     r0,r1,20h                               
08003EFC 4906     ldr     r1,=808F2C0h                            
08003EFE 00D0     lsl     r0,r2,3h                                
08003F00 1840     add     r0,r0,r1                                
08003F02 6801     ldr     r1,[r0]                                 
08003F04 4D05     ldr     r5,=3001D00h                            
08003F06 2400     mov     r4,0h                                   
08003F08 706C     strb    r4,[r5,1h]                              
08003F0A 1C30     mov     r0,r6                                   
08003F0C F000FE20 bl      8004B50h                                
08003F10 706C     strb    r4,[r5,1h]                              
08003F12 BC70     pop     r4-r6                                   
08003F14 BC01     pop     r0                                      
08003F16 4700     bx      r0                                      
08003F18 F2C0     ????                                            
08003F1A 0808     lsr     r0,r1,20h                               
08003F1C 1D00     add     r0,r0,4                                 
08003F1E 0300     lsl     r0,r0,0Ch                               
08003F20 B570     push    r4-r6,r14                               
08003F22 2063     mov     r0,63h                                  
08003F24 F7FEFD78 bl      8002A18h                                
08003F28 2000     mov     r0,0h                                   
08003F2A F7FFFABF bl      80034ACh                                
08003F2E 4A0B     ldr     r2,=3001D00h                            
08003F30 7AD1     ldrb    r1,[r2,0Bh]                             
08003F32 2080     mov     r0,80h                                  
08003F34 4308     orr     r0,r1                                   
08003F36 72D0     strb    r0,[r2,0Bh]                             
08003F38 4D09     ldr     r5,=808F254h                            
08003F3A 6828     ldr     r0,[r5]                                 
08003F3C 4E09     ldr     r6,=0FFFFh                              
08003F3E 4C0A     ldr     r4,=50h                                 
08003F40 0424     lsl     r4,r4,10h                               
08003F42 0C24     lsr     r4,r4,10h                               
08003F44 1C31     mov     r1,r6                                   
08003F46 1C22     mov     r2,r4                                   
08003F48 F7FFF886 bl      8003058h                                
08003F4C 68E8     ldr     r0,[r5,0Ch]                             
08003F4E 1C31     mov     r1,r6                                   
08003F50 1C22     mov     r2,r4                                   
08003F52 F7FFF881 bl      8003058h                                
08003F56 BC70     pop     r4-r6                                   
08003F58 BC01     pop     r0                                      
08003F5A 4700     bx      r0                                      
08003F5C 1D00     add     r0,r0,4                                 
08003F5E 0300     lsl     r0,r0,0Ch                               
08003F60 F254     ????                                            
08003F62 0808     lsr     r0,r1,20h                               
08003F64 FFFF     bl      lr+0FFEh                                
08003F66 0000     lsl     r0,r0,0h                                
08003F68 0050     lsl     r0,r2,1h                                
08003F6A 0000     lsl     r0,r0,0h                                
08003F6C B570     push    r4-r6,r14                               
08003F6E 4C0C     ldr     r4,=808F254h                            
08003F70 6820     ldr     r0,[r4]                                 
08003F72 4D0C     ldr     r5,=0FFFFh                              
08003F74 2680     mov     r6,80h                                  
08003F76 0076     lsl     r6,r6,1h                                
08003F78 1C29     mov     r1,r5                                   
08003F7A 1C32     mov     r2,r6                                   
08003F7C F7FFF86C bl      8003058h                                
08003F80 68E0     ldr     r0,[r4,0Ch]                             
08003F82 1C29     mov     r1,r5                                   
08003F84 1C32     mov     r2,r6                                   
08003F86 F7FFF867 bl      8003058h                                
08003F8A 4A07     ldr     r2,=3001D00h                            
08003F8C 7AD1     ldrb    r1,[r2,0Bh]                             
08003F8E 207F     mov     r0,7Fh                                  
08003F90 4008     and     r0,r1                                   
08003F92 72D0     strb    r0,[r2,0Bh]                             
08003F94 2000     mov     r0,0h                                   
08003F96 F7FFFB1B bl      80035D0h                                
08003F9A BC70     pop     r4-r6                                   
08003F9C BC01     pop     r0                                      
08003F9E 4700     bx      r0                                      
08003FA0 F254     ????                                            
08003FA2 0808     lsr     r0,r1,20h                               
08003FA4 FFFF     bl      lr+0FFEh                                
08003FA6 0000     lsl     r0,r0,0h                                
08003FA8 1D00     add     r0,r0,4                                 
08003FAA 0300     lsl     r0,r0,0Ch                               
08003FAC B570     push    r4-r6,r14                               
08003FAE 0400     lsl     r0,r0,10h                               
08003FB0 0409     lsl     r1,r1,10h                               
08003FB2 0C0C     lsr     r4,r1,10h                               
08003FB4 490D     ldr     r1,=808F2C0h                            
08003FB6 0B40     lsr     r0,r0,0Dh                               
08003FB8 1840     add     r0,r0,r1                                
08003FBA 7902     ldrb    r2,[r0,4h]                              
08003FBC 6805     ldr     r5,[r0]                                 
08003FBE 480C     ldr     r0,=808CEE2h                            
08003FC0 1810     add     r0,r2,r0                                
08003FC2 7800     ldrb    r0,[r0]                                 
08003FC4 4E0B     ldr     r6,=3003B44h                            
08003FC6 2800     cmp     r0,0h                                   
08003FC8 D00A     beq     8003FE0h                                
08003FCA 00D0     lsl     r0,r2,3h                                
08003FCC 1983     add     r3,r0,r6                                
08003FCE 7819     ldrb    r1,[r3]                                 
08003FD0 2003     mov     r0,3h                                   
08003FD2 4008     and     r0,r1                                   
08003FD4 2800     cmp     r0,0h                                   
08003FD6 D003     beq     8003FE0h                                
08003FD8 7858     ldrb    r0,[r3,1h]                              
08003FDA 78A9     ldrb    r1,[r5,2h]                              
08003FDC 4288     cmp     r0,r1                                   
08003FDE D816     bhi     800400Eh                                
08003FE0 2C00     cmp     r4,0h                                   
08003FE2 D109     bne     8003FF8h                                
08003FE4 00D2     lsl     r2,r2,3h                                
08003FE6 1991     add     r1,r2,r6                                
08003FE8 2001     mov     r0,1h                                   
08003FEA E008     b       8003FFEh                                
08003FEC F2C0     ????                                            
08003FEE 0808     lsr     r0,r1,20h                               
08003FF0 CEE2     ldmia   [r6]!,r1,r5-r7                          
08003FF2 0808     lsr     r0,r1,20h                               
08003FF4 3B44     sub     r3,44h                                  
08003FF6 0300     lsl     r0,r0,0Ch                               
08003FF8 00D2     lsl     r2,r2,3h                                
08003FFA 1991     add     r1,r2,r6                                
08003FFC 2002     mov     r0,2h                                   
08003FFE 7008     strb    r0,[r1]                                 
08004000 804C     strh    r4,[r1,2h]                              
08004002 1991     add     r1,r2,r6                                
08004004 78A8     ldrb    r0,[r5,2h]                              
08004006 7048     strb    r0,[r1,1h]                              
08004008 1D30     add     r0,r6,4                                 
0800400A 1810     add     r0,r2,r0                                
0800400C 6005     str     r5,[r0]                                 
0800400E BC70     pop     r4-r6                                   
08004010 BC01     pop     r0                                      
08004012 4700     bx      r0                                      
08004014 B5F0     push    r4-r7,r14                               
08004016 0400     lsl     r0,r0,10h                               
08004018 0409     lsl     r1,r1,10h                               
0800401A 0C0F     lsr     r7,r1,10h                               
0800401C 490A     ldr     r1,=808F2C0h                            
0800401E 0B40     lsr     r0,r0,0Dh                               
08004020 1840     add     r0,r0,r1                                
08004022 7902     ldrb    r2,[r0,4h]                              
08004024 6806     ldr     r6,[r0]                                 
08004026 4D09     ldr     r5,=3003B44h                            
08004028 00D3     lsl     r3,r2,3h                                
0800402A 195C     add     r4,r3,r5                                
0800402C 7821     ldrb    r1,[r4]                                 
0800402E 2003     mov     r0,3h                                   
08004030 4008     and     r0,r1                                   
08004032 2800     cmp     r0,0h                                   
08004034 D00C     beq     8004050h                                
08004036 1D28     add     r0,r5,4                                 
08004038 1818     add     r0,r3,r0                                
0800403A 6800     ldr     r0,[r0]                                 
0800403C 4286     cmp     r6,r0                                   
0800403E D107     bne     8004050h                                
08004040 2000     mov     r0,0h                                   
08004042 7020     strb    r0,[r4]                                 
08004044 E01A     b       800407Ch                                
08004046 0000     lsl     r0,r0,0h                                
08004048 F2C0     ????                                            
0800404A 0808     lsr     r0,r1,20h                               
0800404C 3B44     sub     r3,44h                                  
0800404E 0300     lsl     r0,r0,0Ch                               
08004050 4807     ldr     r0,=808F254h                            
08004052 0051     lsl     r1,r2,1h                                
08004054 1889     add     r1,r1,r2                                
08004056 0089     lsl     r1,r1,2h                                
08004058 1809     add     r1,r1,r0                                
0800405A 6809     ldr     r1,[r1]                                 
0800405C 6908     ldr     r0,[r1,10h]                             
0800405E 4286     cmp     r6,r0                                   
08004060 D10C     bne     800407Ch                                
08004062 2F00     cmp     r7,0h                                   
08004064 D106     bne     8004074h                                
08004066 1C08     mov     r0,r1                                   
08004068 F000FDD8 bl      8004C1Ch                                
0800406C E006     b       800407Ch                                
0800406E 0000     lsl     r0,r0,0h                                
08004070 F254     ????                                            
08004072 0808     lsr     r0,r1,20h                               
08004074 1C08     mov     r0,r1                                   
08004076 1C39     mov     r1,r7                                   
08004078 F7FEFE0C bl      8002C94h                                
0800407C BCF0     pop     r4-r7                                   
0800407E BC01     pop     r0                                      
08004080 4700     bx      r0                                      
08004082 0000     lsl     r0,r0,0h                                
08004084 4770     bx      r14                                     
08004086 0000     lsl     r0,r0,0h                                
08004088 4770     bx      r14                                     
0800408A 0000     lsl     r0,r0,0h                                
0800408C B5F0     push    r4-r7,r14                               
0800408E 464F     mov     r7,r9                                   
08004090 4646     mov     r6,r8                                   
08004092 B4C0     push    r6,r7                                   
08004094 B081     add     sp,-4h                                  
08004096 2700     mov     r7,0h                                   
08004098 480A     ldr     r0,=808F254h                            
0800409A 6986     ldr     r6,[r0,18h]                             
0800409C 7F30     ldrb    r0,[r6,1Ch]                             
0800409E 2800     cmp     r0,0h                                   
080040A0 D14B     bne     800413Ah                                
080040A2 2201     mov     r2,1h                                   
080040A4 7732     strb    r2,[r6,1Ch]                             
080040A6 7FB1     ldrb    r1,[r6,1Eh]                             
080040A8 1C10     mov     r0,r2                                   
080040AA 4008     and     r0,r1                                   
080040AC 2800     cmp     r0,0h                                   
080040AE D144     bne     800413Ah                                
080040B0 7831     ldrb    r1,[r6]                                 
080040B2 2002     mov     r0,2h                                   
080040B4 4008     and     r0,r1                                   
080040B6 2800     cmp     r0,0h                                   
080040B8 D03F     beq     800413Ah                                
080040BA 77B2     strb    r2,[r6,1Eh]                             
080040BC 2100     mov     r1,0h                                   
080040BE 69B4     ldr     r4,[r6,18h]                             
080040C0 E038     b       8004134h                                
080040C2 0000     lsl     r0,r0,0h                                
080040C4 F254     ????                                            
080040C6 0808     lsr     r0,r1,20h                               
080040C8 1C20     mov     r0,r4                                   
080040CA 3034     add     r0,34h                                  
080040CC 7802     ldrb    r2,[r0]                                 
080040CE 20C0     mov     r0,0C0h                                 
080040D0 4010     and     r0,r2                                   
080040D2 3101     add     r1,1h                                   
080040D4 4688     mov     r8,r1                                   
080040D6 2150     mov     r1,50h                                  
080040D8 1909     add     r1,r1,r4                                
080040DA 4689     mov     r9,r1                                   
080040DC 2800     cmp     r0,0h                                   
080040DE D125     bne     800412Ch                                
080040E0 6CE0     ldr     r0,[r4,4Ch]                             
080040E2 2800     cmp     r0,0h                                   
080040E4 D006     beq     80040F4h                                
080040E6 2107     mov     r1,7h                                   
080040E8 4011     and     r1,r2                                   
080040EA 3901     sub     r1,1h                                   
080040EC 0609     lsl     r1,r1,18h                               
080040EE 0E09     lsr     r1,r1,18h                               
080040F0 F7FEF9E6 bl      80024C0h                                
080040F4 6CA0     ldr     r0,[r4,48h]                             
080040F6 2800     cmp     r0,0h                                   
080040F8 D018     beq     800412Ch                                
080040FA 1C04     mov     r4,r0                                   
080040FC 4B13     ldr     r3,=30039BCh                            
080040FE 2500     mov     r5,0h                                   
08004100 00F8     lsl     r0,r7,3h                                
08004102 1BC0     sub     r0,r0,r7                                
08004104 00C0     lsl     r0,r0,3h                                
08004106 18C0     add     r0,r0,r3                                
08004108 C010     stmia   [r0]!,r4                                
0800410A 1C21     mov     r1,r4                                   
0800410C 2234     mov     r2,34h                                  
0800410E 9300     str     r3,[sp]                                 
08004110 F088FAD4 bl      808C6BCh                                
08004114 1C78     add     r0,r7,1                                 
08004116 0600     lsl     r0,r0,18h                               
08004118 0E07     lsr     r7,r0,18h                               
0800411A 7025     strb    r5,[r4]                                 
0800411C 62A5     str     r5,[r4,28h]                             
0800411E 6B20     ldr     r0,[r4,30h]                             
08004120 6325     str     r5,[r4,30h]                             
08004122 62E5     str     r5,[r4,2Ch]                             
08004124 1C04     mov     r4,r0                                   
08004126 9B00     ldr     r3,[sp]                                 
08004128 2C00     cmp     r4,0h                                   
0800412A D1E9     bne     8004100h                                
0800412C 4641     mov     r1,r8                                   
0800412E 0608     lsl     r0,r1,18h                               
08004130 0E01     lsr     r1,r0,18h                               
08004132 464C     mov     r4,r9                                   
08004134 7870     ldrb    r0,[r6,1h]                              
08004136 4281     cmp     r1,r0                                   
08004138 D3C6     bcc     80040C8h                                
0800413A 2000     mov     r0,0h                                   
0800413C 7730     strb    r0,[r6,1Ch]                             
0800413E B001     add     sp,4h                                   
08004140 BC18     pop     r3,r4                                   
08004142 4698     mov     r8,r3                                   
08004144 46A1     mov     r9,r4                                   
08004146 BCF0     pop     r4-r7                                   
08004148 BC01     pop     r0                                      
0800414A 4700     bx      r0                                      
0800414C 39BC     sub     r1,0BCh                                 
0800414E 0300     lsl     r0,r0,0Ch                               
08004150 B5F0     push    r4-r7,r14                               
08004152 464F     mov     r7,r9                                   
08004154 4646     mov     r6,r8                                   
08004156 B4C0     push    r6,r7                                   
08004158 2600     mov     r6,0h                                   
0800415A 4822     ldr     r0,=808F254h                            
0800415C 6985     ldr     r5,[r0,18h]                             
0800415E 7F28     ldrb    r0,[r5,1Ch]                             
08004160 2800     cmp     r0,0h                                   
08004162 D136     bne     80041D2h                                
08004164 2001     mov     r0,1h                                   
08004166 7728     strb    r0,[r5,1Ch]                             
08004168 7FA9     ldrb    r1,[r5,1Eh]                             
0800416A 4008     and     r0,r1                                   
0800416C 2800     cmp     r0,0h                                   
0800416E D030     beq     80041D2h                                
08004170 20FE     mov     r0,0FEh                                 
08004172 4008     and     r0,r1                                   
08004174 77A8     strb    r0,[r5,1Eh]                             
08004176 2300     mov     r3,0h                                   
08004178 69AA     ldr     r2,[r5,18h]                             
0800417A 7868     ldrb    r0,[r5,1h]                              
0800417C 4283     cmp     r3,r0                                   
0800417E D228     bcs     80041D2h                                
08004180 1C10     mov     r0,r2                                   
08004182 3034     add     r0,34h                                  
08004184 7801     ldrb    r1,[r0]                                 
08004186 20C0     mov     r0,0C0h                                 
08004188 4008     and     r0,r1                                   
0800418A 1C5F     add     r7,r3,1                                 
0800418C 2150     mov     r1,50h                                  
0800418E 1889     add     r1,r1,r2                                
08004190 4688     mov     r8,r1                                   
08004192 2800     cmp     r0,0h                                   
08004194 D117     bne     80041C6h                                
08004196 6C90     ldr     r0,[r2,48h]                             
08004198 2800     cmp     r0,0h                                   
0800419A D014     beq     80041C6h                                
0800419C 1C04     mov     r4,r0                                   
0800419E 4812     ldr     r0,=30039BCh                            
080041A0 4681     mov     r9,r0                                   
080041A2 1C20     mov     r0,r4                                   
080041A4 F7FDFF7E bl      80020A4h                                
080041A8 00F1     lsl     r1,r6,3h                                
080041AA 1B89     sub     r1,r1,r6                                
080041AC 00C9     lsl     r1,r1,3h                                
080041AE 4449     add     r1,r9                                   
080041B0 3104     add     r1,4h                                   
080041B2 1C20     mov     r0,r4                                   
080041B4 2234     mov     r2,34h                                  
080041B6 F088FA81 bl      808C6BCh                                
080041BA 1C70     add     r0,r6,1                                 
080041BC 0600     lsl     r0,r0,18h                               
080041BE 0E06     lsr     r6,r0,18h                               
080041C0 6B24     ldr     r4,[r4,30h]                             
080041C2 2C00     cmp     r4,0h                                   
080041C4 D1ED     bne     80041A2h                                
080041C6 0638     lsl     r0,r7,18h                               
080041C8 0E03     lsr     r3,r0,18h                               
080041CA 4642     mov     r2,r8                                   
080041CC 7869     ldrb    r1,[r5,1h]                              
080041CE 428B     cmp     r3,r1                                   
080041D0 D3D6     bcc     8004180h                                
080041D2 2000     mov     r0,0h                                   
080041D4 7728     strb    r0,[r5,1Ch]                             
080041D6 BC18     pop     r3,r4                                   
080041D8 4698     mov     r8,r3                                   
080041DA 46A1     mov     r9,r4                                   
080041DC BCF0     pop     r4-r7                                   
080041DE BC01     pop     r0                                      
080041E0 4700     bx      r0                                      
080041E2 0000     lsl     r0,r0,0h                                
080041E4 F254     ????                                            
080041E6 0808     lsr     r0,r1,20h                               
080041E8 39BC     sub     r1,0BCh                                 
080041EA 0300     lsl     r0,r0,0Ch                               
080041EC B510     push    r4,r14                                  
080041EE 1C03     mov     r3,r0                                   
080041F0 0409     lsl     r1,r1,10h                               
080041F2 0C0C     lsr     r4,r1,10h                               
080041F4 7F18     ldrb    r0,[r3,1Ch]                             
080041F6 2800     cmp     r0,0h                                   
080041F8 D111     bne     800421Eh                                
080041FA 2001     mov     r0,1h                                   
080041FC 7718     strb    r0,[r3,1Ch]                             
080041FE 2100     mov     r1,0h                                   
08004200 699A     ldr     r2,[r3,18h]                             
08004202 E009     b       8004218h                                
08004204 7810     ldrb    r0,[r2]                                 
08004206 2800     cmp     r0,0h                                   
08004208 D002     beq     8004210h                                
0800420A 7890     ldrb    r0,[r2,2h]                              
0800420C 1900     add     r0,r0,r4                                
0800420E 7090     strb    r0,[r2,2h]                              
08004210 1C48     add     r0,r1,1                                 
08004212 0600     lsl     r0,r0,18h                               
08004214 0E01     lsr     r1,r0,18h                               
08004216 3250     add     r2,50h                                  
08004218 7858     ldrb    r0,[r3,1h]                              
0800421A 4281     cmp     r1,r0                                   
0800421C D3F2     bcc     8004204h                                
0800421E 2000     mov     r0,0h                                   
08004220 7718     strb    r0,[r3,1Ch]                             
08004222 BC10     pop     r4                                      
08004224 BC01     pop     r0                                      
08004226 4700     bx      r0                                      
08004228 B530     push    r4,r5,r14                               
0800422A 0400     lsl     r0,r0,10h                               
0800422C 0C05     lsr     r5,r0,10h                               
0800422E 480A     ldr     r0,=3001D00h                            
08004230 8B80     ldrh    r0,[r0,1Ch]                             
08004232 4285     cmp     r5,r0                                   
08004234 D00C     beq     8004250h                                
08004236 4809     ldr     r0,=808F254h                            
08004238 6804     ldr     r4,[r0]                                 
0800423A 1C20     mov     r0,r4                                   
0800423C F000FCEE bl      8004C1Ch                                
08004240 1C28     mov     r0,r5                                   
08004242 2108     mov     r1,8h                                   
08004244 F7FFFBD6 bl      80039F4h                                
08004248 1C20     mov     r0,r4                                   
0800424A 211E     mov     r1,1Eh                                  
0800424C F7FFFFCE bl      80041ECh                                
08004250 BC30     pop     r4,r5                                   
08004252 BC01     pop     r0                                      
08004254 4700     bx      r0                                      
08004256 0000     lsl     r0,r0,0h                                
08004258 1D00     add     r0,r0,4                                 
0800425A 0300     lsl     r0,r0,0Ch                               
0800425C F254     ????                                            
0800425E 0808     lsr     r0,r1,20h                               
08004260 B500     push    r14                                     
08004262 0400     lsl     r0,r0,10h                               
08004264 0C00     lsr     r0,r0,10h                               
08004266 F7FEFBD7 bl      8002A18h                                
0800426A 4803     ldr     r0,=808F254h                            
0800426C 6800     ldr     r0,[r0]                                 
0800426E 211E     mov     r1,1Eh                                  
08004270 F7FFFFBC bl      80041ECh                                
08004274 BC01     pop     r0                                      
08004276 4700     bx      r0                                      
08004278 F254     ????                                            
0800427A 0808     lsr     r0,r1,20h                               
0800427C B510     push    r4,r14                                  
0800427E 0400     lsl     r0,r0,10h                               
08004280 0C04     lsr     r4,r0,10h                               
08004282 4808     ldr     r0,=808F254h                            
08004284 6802     ldr     r2,[r0]                                 
08004286 4808     ldr     r0,=808F2C0h                            
08004288 6C83     ldr     r3,[r0,48h]                             
0800428A 7811     ldrb    r1,[r2]                                 
0800428C 2002     mov     r0,2h                                   
0800428E 4008     and     r0,r1                                   
08004290 2800     cmp     r0,0h                                   
08004292 D00B     beq     80042ACh                                
08004294 6910     ldr     r0,[r2,10h]                             
08004296 4283     cmp     r3,r0                                   
08004298 D108     bne     80042ACh                                
0800429A 2002     mov     r0,2h                                   
0800429C F7FFFDE0 bl      8003E60h                                
080042A0 E009     b       80042B6h                                
080042A2 0000     lsl     r0,r0,0h                                
080042A4 F254     ????                                            
080042A6 0808     lsr     r0,r1,20h                               
080042A8 F2C0     ????                                            
080042AA 0808     lsr     r0,r1,20h                               
080042AC 1C20     mov     r0,r4                                   
080042AE 2109     mov     r1,9h                                   
080042B0 2202     mov     r2,2h                                   
080042B2 F7FFFC3D bl      8003B30h                                
080042B6 BC10     pop     r4                                      
080042B8 BC01     pop     r0                                      
080042BA 4700     bx      r0                                      
080042BC B570     push    r4-r6,r14                               
080042BE 0400     lsl     r0,r0,10h                               
080042C0 0C05     lsr     r5,r0,10h                               
080042C2 4C0F     ldr     r4,=3001D00h                            
080042C4 7866     ldrb    r6,[r4,1h]                              
080042C6 2E00     cmp     r6,0h                                   
080042C8 D116     bne     80042F8h                                
080042CA 2001     mov     r0,1h                                   
080042CC 7060     strb    r0,[r4,1h]                              
080042CE 1C22     mov     r2,r4                                   
080042D0 3221     add     r2,21h                                  
080042D2 7811     ldrb    r1,[r2]                                 
080042D4 2080     mov     r0,80h                                  
080042D6 4008     and     r0,r1                                   
080042D8 7010     strb    r0,[r2]                                 
080042DA 2D00     cmp     r5,0h                                   
080042DC D100     bne     80042E0h                                
080042DE 4D09     ldr     r5,=12Bh                                
080042E0 4809     ldr     r0,=808F254h                            
080042E2 6800     ldr     r0,[r0]                                 
080042E4 4A09     ldr     r2,=808F2C0h                            
080042E6 00E9     lsl     r1,r5,3h                                
080042E8 1889     add     r1,r1,r2                                
080042EA 6809     ldr     r1,[r1]                                 
080042EC F000FC30 bl      8004B50h                                
080042F0 1C20     mov     r0,r4                                   
080042F2 3020     add     r0,20h                                  
080042F4 7006     strb    r6,[r0]                                 
080042F6 83A5     strh    r5,[r4,1Ch]                             
080042F8 BC70     pop     r4-r6                                   
080042FA BC01     pop     r0                                      
080042FC 4700     bx      r0                                      
080042FE 0000     lsl     r0,r0,0h                                
08004300 1D00     add     r0,r0,4                                 
08004302 0300     lsl     r0,r0,0Ch                               
08004304 012B     lsl     r3,r5,4h                                
08004306 0000     lsl     r0,r0,0h                                
08004308 F254     ????                                            
0800430A 0808     lsr     r0,r1,20h                               
0800430C F2C0     ????                                            
0800430E 0808     lsr     r0,r1,20h                               
08004310 B4F0     push    r4-r7                                   
08004312 4644     mov     r4,r8                                   
08004314 464D     mov     r5,r9                                   
08004316 4656     mov     r6,r10                                  
08004318 465F     mov     r7,r11                                  
0800431A B5F0     push    r4-r7,r14                               
0800431C A400     add     r4,=8004320h                            
0800431E 4720     bx      r4                                      
08004320 4088     lsl     r0,r1                                   
08004322 E59F     b       8003E64h                                
08004324 C004     stmia   [r0]!,r2                                
08004326 E5D4     b       8003ED2h                                
08004328 EC06     ????                                            
0800432A E3A0     b       8004A6Eh                                
0800432C 0001     lsl     r1,r0,0h                                
0800432E EA00     ????                                            
08004330 3001     add     r0,1h                                   
08004332 E253     b       80047DCh                                
08004334 0019     lsl     r1,r3,0h                                
08004336 0A00     lsr     r0,r0,8h                                
08004338 60DE     str     r6,[r3,0Ch]                             
0800433A E190     b       800465Eh                                
0800433C 70DE     strb    r6,[r3,3h]                              
0800433E E191     b       8004664h                                
08004340 40D1     lsr     r1,r2                                   
08004342 E0D0     b       80044E6h                                
08004344 50D1     str     r1,[r2,r3]                              
08004346 E0D1     b       80044ECh                                
08004348 A0DE     add     r0,=80046C4h                            
0800434A E190     b       800466Eh                                
0800434C B0DE     add     sp,-178h                                
0800434E E191     b       8004674h                                
08004350 80D1     strh    r1,[r2,6h]                              
08004352 E0D0     b       80044F6h                                
08004354 90D1     str     r0,[sp,344h]                            
08004356 E0D1     b       80044FCh                                
08004358 6004     str     r4,[r0]                                 
0800435A E086     b       800446Ah                                
0800435C 6005     str     r5,[r0]                                 
0800435E E086     b       800446Eh                                

