;--------------------------------------------------------------
;蜈蚣掉落碎石调用例程
08020E64 B5F0     push    r4-r7,r14                               
08020E66 4647     mov     r7,r8                                   
08020E68 B480     push    r7                                      
08020E6A 0600     lsl     r0,r0,18h                               
08020E6C 0E00     lsr     r0,r0,18h      ;764的值                            
08020E6E 4680     mov     r8,r0                                   
08020E70 490F     ldr     r1,=300080Ch                            
08020E72 8808     ldrh    r0,[r1]        ;Y坐标向上半格                         
08020E74 3020     add     r0,20h         ;原坐标                         
08020E76 0400     lsl     r0,r0,10h                               
08020E78 0C07     lsr     r7,r0,10h      ;原Y坐标                         
08020E7A 22D0     mov     r2,0D0h                                 
08020E7C 0052     lsl     r2,r2,1h       ;六格半长度                         
08020E7E 1C10     mov     r0,r2                                   
08020E80 8849     ldrh    r1,[r1,2h]     ;读取原X坐标                         
08020E82 1840     add     r0,r0,r1       ;加上六格半                         
08020E84 0400     lsl     r0,r0,10h                               
08020E86 0C06     lsr     r6,r0,10h      ;原x坐标右六格半                         
08020E88 480A     ldr     r0,=300083Ch                            
08020E8A 7805     ldrb    r5,[r0]        ;读取随机值                         
08020E8C 480A     ldr     r0,=3000C77h                            
08020E8E 7804     ldrb    r4,[r0]        ;0-FF的循环数                         
08020E90 2001     mov     r0,1h                                   
08020E92 4028     and     r0,r5          ;检查随机值是否是奇数                         
08020E94 2800     cmp     r0,0h                                   
08020E96 D011     beq     @@RNGNoOne                                
08020E98 1C2A     mov     r2,r5                                   
08020E9A 3A6C     sub     r2,6Ch         ;随机数减6Ch                         
08020E9C 18BA     add     r2,r7,r2       ;加Y坐标                         
08020E9E 016B     lsl     r3,r5,5h       ;随机数乘以32                         
08020EA0 3314     add     r3,14h         ;加14                         
08020EA2 18F3     add     r3,r6,r3       ;加上X坐标右六格半                         
08020EA4 2000     mov     r0,0h                                   
08020EA6 2105     mov     r1,5h                                   
08020EA8 F7F0FFCE bl      8011E48h       ;石子特效                          
08020EAC E010     b       8020ED0h                                

@@RNGNoOne:                              
08020EBC 1C2A     mov     r2,r5                                   
08020EBE 3A64     sub     r2,64h                                  
08020EC0 18BA     add     r2,r7,r2                                
08020EC2 012B     lsl     r3,r5,4h                                
08020EC4 331A     add     r3,1Ah                                  
08020EC6 18F3     add     r3,r6,r3                                
08020EC8 2000     mov     r0,0h                                   
08020ECA 2107     mov     r1,7h                                   
08020ECC F7F0FFBC bl      8011E48h 

@@Goto:                               
08020ED0 2D07     cmp     r5,7h         ;比较随机数                          
08020ED2 D90A     bls     RNGLessThan7                                
08020ED4 1C2A     mov     r2,r5                                   
08020ED6 3A50     sub     r2,50h        ;RNG减去50h                           
08020ED8 18BA     add     r2,r7,r2      ;加上Y坐标                          
08020EDA 006B     lsl     r3,r5,1h      ;RNG乘以2                          
08020EDC 3312     add     r3,12h        ;加上12                          
08020EDE 1AF3     sub     r3,r6,r3      ;减去X坐标                          
08020EE0 2000     mov     r0,0h                                   
08020EE2 2108     mov     r1,8h                                   
08020EE4 F7F0FFB0 bl      8011E48h                                
08020EE8 E011     b       @@Goto2

@@RNGLessThan7:                                
08020EEA 1C2A     mov     r2,r5                                   
08020EEC 3A5A     sub     r2,5Ah       ;RNG减去5Ah                           
08020EEE 18BA     add     r2,r7,r2     ;加上Y坐标                           
08020EF0 00AB     lsl     r3,r5,2h     ;RNG乘以4                           
08020EF2 3312     add     r3,12h       ;加上12h                           
08020EF4 1AF3     sub     r3,r6,r3     ;减去X坐标                           
08020EF6 2000     mov     r0,0h                                   
08020EF8 2106     mov     r1,6h                                   
08020EFA F7F0FFA5 bl      8011E48h                                
08020EFE 1C3A     mov     r2,r7                                   
08020F00 3A78     sub     r2,78h                                  
08020F02 0063     lsl     r3,r4,1h                                
08020F04 1AF3     sub     r3,r6,r3                                
08020F06 2000     mov     r0,0h                                   
08020F08 2105     mov     r1,5h                                   
08020F0A F7F0FF9D bl      8011E48h 

@@Goto2:                               
08020F0E 2020     mov     r0,20h                                  
08020F10 4641     mov     r1,r8                                   
08020F12 4008     and     r0,r1                                   
08020F14 2800     cmp     r0,0h                                   
08020F16 D12E     bne     @@end                                
08020F18 2001     mov     r0,1h                                   
08020F1A 4028     and     r0,r5                                   
08020F1C 2800     cmp     r0,0h                                   
08020F1E D008     beq     8020F32h                                
08020F20 1C3A     mov     r2,r7                                   
08020F22 3AA0     sub     r2,0A0h                                 
08020F24 0064     lsl     r4,r4,1h                                
08020F26 1B33     sub     r3,r6,r4                                
08020F28 2000     mov     r0,0h                                   
08020F2A 2106     mov     r1,6h                                   
08020F2C F7F0FF8C bl      8011E48h                                
08020F30 E007     b       8020F42h

                                
08020F32 1C3A     mov     r2,r7                                   
08020F34 3A28     sub     r2,28h                                  
08020F36 0064     lsl     r4,r4,1h                                
08020F38 1B33     sub     r3,r6,r4                                
08020F3A 2000     mov     r0,0h                                   
08020F3C 2108     mov     r1,8h                                   
08020F3E F7F0FF83 bl      8011E48h                                
08020F42 2D0B     cmp     r5,0Bh                                  
08020F44 D910     bls     8020F68h                                
08020F46 1C3A     mov     r2,r7                                   
08020F48 3A0A     sub     r2,0Ah                                  
08020F4A 1933     add     r3,r6,r4                                
08020F4C 2000     mov     r0,0h                                   
08020F4E 2105     mov     r1,5h                                   
08020F50 F7F0FF7A bl      8011E48h                                
08020F54 1C2A     mov     r2,r5                                   
08020F56 3A78     sub     r2,78h                                  
08020F58 18BA     add     r2,r7,r2                                
08020F5A 00EB     lsl     r3,r5,3h                                
08020F5C 1AF3     sub     r3,r6,r3                                
08020F5E 2000     mov     r0,0h                                   
08020F60 2106     mov     r1,6h                                   
08020F62 F7F0FF71 bl      8011E48h                                
08020F66 E006     b       8020F76h                                
08020F68 1C3A     mov     r2,r7                                   
08020F6A 3A3C     sub     r2,3Ch                                  
08020F6C 1933     add     r3,r6,r4                                
08020F6E 2000     mov     r0,0h                                   
08020F70 2107     mov     r1,7h                                   
08020F72 F7F0FF69 bl      8011E48h

@@end:                                
08020F76 BC08     pop     r3                                      
08020F78 4698     mov     r8,r3                                   
08020F7A BCF0     pop     r4-r7                                   
08020F7C BC01     pop     r0                                      
08020F7E 4700     bx      r0  


                                    
08020F80 B530     push    r4,r5,r14                               
08020F82 0400     lsl     r0,r0,10h                               
08020F84 0C05     lsr     r5,r0,10h                               
08020F86 0409     lsl     r1,r1,10h                               
08020F88 0C0C     lsr     r4,r1,10h                               
08020F8A 0612     lsl     r2,r2,18h                               
08020F8C 0E12     lsr     r2,r2,18h                               
08020F8E 1C10     mov     r0,r2                                   
08020F90 2A03     cmp     r2,3h                                   
08020F92 D015     beq     8020FC0h                                
08020F94 2A03     cmp     r2,3h                                   
08020F96 DC02     bgt     8020F9Eh                                
08020F98 2A01     cmp     r2,1h                                   
08020F9A D005     beq     8020FA8h                                
08020F9C E041     b       8021022h                                
08020F9E 2807     cmp     r0,7h                                   
08020FA0 D01E     beq     8020FE0h                                
08020FA2 280C     cmp     r0,0Ch                                  
08020FA4 D02D     beq     8021002h                                
08020FA6 E03C     b       8021022h                                
08020FA8 1C2A     mov     r2,r5                                   
08020FAA 3A40     sub     r2,40h                                  
08020FAC 2000     mov     r0,0h                                   
08020FAE 2111     mov     r1,11h                                  
08020FB0 1C23     mov     r3,r4                                   
08020FB2 F7F0FF49 bl      8011E48h                                
08020FB6 1C2A     mov     r2,r5                                   
08020FB8 3A10     sub     r2,10h                                  
08020FBA 1C23     mov     r3,r4                                   
08020FBC 333E     add     r3,3Eh                                  
08020FBE E01B     b       8020FF8h                                
08020FC0 1C2A     mov     r2,r5                                   
08020FC2 3228     add     r2,28h                                  
08020FC4 1C23     mov     r3,r4                                   
08020FC6 3B5C     sub     r3,5Ch                                  
08020FC8 2000     mov     r0,0h                                   
08020FCA 2113     mov     r1,13h                                  
08020FCC F7F0FF3C bl      8011E48h                                
08020FD0 1C23     mov     r3,r4                                   
08020FD2 331E     add     r3,1Eh                                  
08020FD4 2000     mov     r0,0h                                   
08020FD6 2104     mov     r1,4h                                   
08020FD8 1C2A     mov     r2,r5                                   
08020FDA F7F0FF35 bl      8011E48h                                
08020FDE E020     b       8021022h                                
08020FE0 1C2A     mov     r2,r5                                   
08020FE2 3214     add     r2,14h                                  
08020FE4 1C23     mov     r3,r4                                   
08020FE6 3B14     sub     r3,14h                                  
08020FE8 2000     mov     r0,0h                                   
08020FEA 2111     mov     r1,11h                                  
08020FEC F7F0FF2C bl      8011E48h                                
08020FF0 1C2A     mov     r2,r5                                   
08020FF2 3A14     sub     r2,14h                                  
08020FF4 1C23     mov     r3,r4                                   
08020FF6 336E     add     r3,6Eh                                  
08020FF8 2000     mov     r0,0h                                   
08020FFA 2112     mov     r1,12h                                  
08020FFC F7F0FF24 bl      8011E48h                                
08021000 E00F     b       8021022h                                
08021002 1C2A     mov     r2,r5                                   
08021004 3228     add     r2,28h                                  
08021006 1C23     mov     r3,r4                                   
08021008 331E     add     r3,1Eh                                  
0802100A 2000     mov     r0,0h                                   
0802100C 2113     mov     r1,13h                                  
0802100E F7F0FF1B bl      8011E48h                                
08021012 1C2A     mov     r2,r5                                   
08021014 3A10     sub     r2,10h                                  
08021016 1C23     mov     r3,r4                                   
08021018 3B64     sub     r3,64h                                  
0802101A 2000     mov     r0,0h                                   
0802101C 2104     mov     r1,4h                                   
0802101E F7F0FF13 bl      8011E48h                                
08021022 BC30     pop     r4,r5                                   
08021024 BC01     pop     r0                                      
08021026 4700     bx      r0                                      
08021028 B510     push    r4,r14                                  
0802102A 0600     lsl     r0,r0,18h                               
0802102C 0E00     lsr     r0,r0,18h                               
0802102E 4A12     ldr     r2,=30001ACh                            
08021030 00C1     lsl     r1,r0,3h                                
08021032 1A09     sub     r1,r1,r0                                
08021034 00C9     lsl     r1,r1,3h                                
08021036 188C     add     r4,r1,r2                                
08021038 88E2     ldrh    r2,[r4,6h]                              
0802103A 2A00     cmp     r2,0h                                   
0802103C D126     bne     802108Ch                                
0802103E 4B0F     ldr     r3,=3000738h                            
08021040 1C18     mov     r0,r3                                   
08021042 3024     add     r0,24h                                  
08021044 2142     mov     r1,42h                                  
08021046 7001     strb    r1,[r0]                                 
08021048 6999     ldr     r1,[r3,18h]                             
0802104A 480D     ldr     r0,=82D7A84h                            
0802104C 4281     cmp     r1,r0                                   
0802104E D010     beq     8021072h                                
08021050 480C     ldr     r0,=82D79D4h                            
08021052 4281     cmp     r1,r0                                   
08021054 D00D     beq     8021072h                                
08021056 6198     str     r0,[r3,18h]                             
08021058 771A     strb    r2,[r3,1Ch]                             
0802105A 82DA     strh    r2,[r3,16h]                             
0802105C 2040     mov     r0,40h                                  
0802105E 8198     strh    r0,[r3,0Ch]                             
08021060 8821     ldrh    r1,[r4]                                 
08021062 2280     mov     r2,80h                                  
08021064 0212     lsl     r2,r2,8h                                
08021066 1C10     mov     r0,r2                                   
08021068 4308     orr     r0,r1                                   
0802106A 8020     strh    r0,[r4]                                 
0802106C 4806     ldr     r0,=199h                                
0802106E F7E1FCD3 bl      8002A18h                                
08021072 2001     mov     r0,1h                                   
08021074 E00B     b       802108Eh                                
08021076 0000     lsl     r0,r0,0h                                
08021078 01AC     lsl     r4,r5,6h                                
0802107A 0300     lsl     r0,r0,0Ch                               
0802107C 0738     lsl     r0,r7,1Ch                               
0802107E 0300     lsl     r0,r0,0Ch                               
08021080 7A84     ldrb    r4,[r0,0Ah]                             
08021082 082D     lsr     r5,r5,20h                               
08021084 79D4     ldrb    r4,[r2,7h]                              
08021086 082D     lsr     r5,r5,20h                               
08021088 0199     lsl     r1,r3,6h                                
0802108A 0000     lsl     r0,r0,0h                                
0802108C 2000     mov     r0,0h                                   
0802108E BC10     pop     r4                                      
08021090 BC02     pop     r1                                      
08021092 4708     bx      r1                                      
08021094 B510     push    r4,r14                                  
08021096 B082     add     sp,-8h                                  
08021098 1C03     mov     r3,r0                                   
0802109A 041B     lsl     r3,r3,10h                               
0802109C 0C1B     lsr     r3,r3,10h                               
0802109E 0409     lsl     r1,r1,10h                               
080210A0 0C09     lsr     r1,r1,10h                               
080210A2 480B     ldr     r0,=3000738h                            
080210A4 7FC4     ldrb    r4,[r0,1Fh]                             
080210A6 9100     str     r1,[sp]                                 
080210A8 2000     mov     r0,0h                                   
080210AA 9001     str     r0,[sp,4h]                              
080210AC 2044     mov     r0,44h                                  
080210AE 2100     mov     r1,0h                                   
080210B0 1C22     mov     r2,r4                                   
080210B2 F7EDF933 bl      800E31Ch                                
080210B6 2044     mov     r0,44h                                  
080210B8 1C21     mov     r1,r4                                   
080210BA F7ECFFE3 bl      800E084h                                
080210BE 2044     mov     r0,44h                                  
080210C0 1C21     mov     r1,r4                                   
080210C2 2201     mov     r2,1h                                   
080210C4 F7ECFFF4 bl      800E0B0h                                
080210C8 B002     add     sp,8h                                   
080210CA BC10     pop     r4                                      
080210CC BC01     pop     r0                                      
080210CE 4700     bx      r0                                      
080210D0 0738     lsl     r0,r7,1Ch                               
080210D2 0300     lsl     r0,r0,0Ch                               
080210D4 B500     push    r14                                     
080210D6 4804     ldr     r0,=300002Ch                            
080210D8 7800     ldrb    r0,[r0]                                 
080210DA 2800     cmp     r0,0h                                   
080210DC D108     bne     80210F0h                                
080210DE 4803     ldr     r0,=3000738h                            
080210E0 302C     add     r0,2Ch                                  
080210E2 2178     mov     r1,78h                                  
080210E4 E00F     b       8021106h                                
080210E6 0000     lsl     r0,r0,0h                                
080210E8 002C     lsl     r4,r5,0h                                
080210EA 0300     lsl     r0,r0,0Ch                               
080210EC 0738     lsl     r0,r7,1Ch                               
080210EE 0300     lsl     r0,r0,0Ch                               
080210F0 2802     cmp     r0,2h                                   
080210F2 D105     bne     8021100h                                
080210F4 4801     ldr     r0,=3000738h                            
080210F6 302C     add     r0,2Ch                                  
080210F8 2128     mov     r1,28h                                  
080210FA E004     b       8021106h                                
080210FC 0738     lsl     r0,r7,1Ch                               
080210FE 0300     lsl     r0,r0,0Ch                               
08021100 4802     ldr     r0,=3000738h                            
08021102 302C     add     r0,2Ch                                  
08021104 2150     mov     r1,50h                                  
08021106 7001     strb    r1,[r0]                                 
08021108 BC01     pop     r0                                      
0802110A 4700     bx      r0                                      
0802110C 0738     lsl     r0,r7,1Ch                               
0802110E 0300     lsl     r0,r0,0Ch                               
08021110 B510     push    r4,r14                                  
08021112 4C09     ldr     r4,=3000738h                            
08021114 8860     ldrh    r0,[r4,2h]                              
08021116 30B0     add     r0,0B0h                                 
08021118 0400     lsl     r0,r0,10h                               
0802111A 0C00     lsr     r0,r0,10h                               
0802111C 22D0     mov     r2,0D0h                                 
0802111E 0052     lsl     r2,r2,1h                                
08021120 1C11     mov     r1,r2                                   
08021122 88A2     ldrh    r2,[r4,4h]                              
08021124 1889     add     r1,r1,r2                                
08021126 0409     lsl     r1,r1,10h                               
08021128 0C09     lsr     r1,r1,10h                               
0802112A F7FFFFB3 bl      8021094h                                
0802112E 2000     mov     r0,0h                                   
08021130 8020     strh    r0,[r4]                                 
08021132 BC10     pop     r4                                      
08021134 BC01     pop     r0                                      
08021136 4700     bx      r0                                      
;------------------------------------------------------------------
;pose 00                              
0802113C B530     push    r4,r5,r14                               
0802113E 4C0E     ldr     r4,=3000738h                            
08021140 7F60     ldrb    r0,[r4,1Dh]    ;读取ID                           
08021142 2842     cmp     r0,42h                                  
08021144 D11C     bne     @@Sprite43                                
08021146 2003     mov     r0,3h          ;精灵是42时                         
08021148 2119     mov     r1,19h                                  
0802114A F03FFBB7 bl      80608BCh       ;检查事件 42逃或4243死                           
0802114E 2800     cmp     r0,0h                                   
08021150 D040     beq     @@Spawn                                
08021152 2003     mov     r0,3h          ;42已经逃                         
08021154 211A     mov     r1,1Ah         ;检查43逃或4243死                         
08021156 F03FFBB1 bl      80608BCh                                
0802115A 2800     cmp     r0,0h                                   
0802115C D034     beq     @@NoSpawn                                
0802115E 4807     ldr     r0,=3001530h                            
08021160 7B01     ldrb    r1,[r0,0Ch]                             
08021162 2010     mov     r0,10h                                  
08021164 4008     and     r0,r1                                   
08021166 2800     cmp     r0,0h          ;检查光束是否吃                             
08021168 D12E     bne     @@NoSpawn      ;光束被吃则不产卵                          
0802116A 2003     mov     r0,3h                                   
0802116C 211B     mov     r1,1Bh                                  
0802116E F03FFBA5 bl      80608BCh       ;检查事件 43死?                            
08021172 2800     cmp     r0,0h                                   
08021174 D01C     beq     @@PoseGo60                                
08021176 E027     b       @@NoSpawn                                

@@Sprite43:                               
08021180 2003     mov     r0,3h                                   
08021182 211A     mov     r1,1Ah         ;检查43逃或4243死                          
08021184 F03FFB9A bl      80608BCh                                
08021188 2800     cmp     r0,0h          ;没有逃则产卵                         
0802118A D023     beq     @@Spawn                                
0802118C 2003     mov     r0,3h          ;43逃的情况下                         
0802118E 2119     mov     r1,19h         ;检查42逃或4243死                         
08021190 F03FFB94 bl      80608BCh                                
08021194 2800     cmp     r0,0h          ;没有逃的话则不产卵                         
08021196 D017     beq     @@NoSpawn                                
08021198 480A     ldr     r0,=3001530h                            
0802119A 7B01     ldrb    r1,[r0,0Ch]                             
0802119C 2010     mov     r0,10h                                  
0802119E 4008     and     r0,r1                                   
080211A0 2800     cmp     r0,0h          ;检查蓄力是否获得                          
080211A2 D111     bne     @@NoSpawn      ;获得则不产卵                          
080211A4 2003     mov     r0,3h                                   
080211A6 211B     mov     r1,1Bh         ;检查43是否死亡                         
080211A8 F03FFB88 bl      80608BCh                                
080211AC 2800     cmp     r0,0h                                   
080211AE D00B     beq     @@NoSpawn      ;死亡则不产卵

@@PoseGo60:                              
080211B0 1C21     mov     r1,r4                                   
080211B2 3124     add     r1,24h                                  
080211B4 2060     mov     r0,60h                                  
080211B6 7008     strb    r0,[r1]   ;pose写入60                               
080211B8 8821     ldrh    r1,[r4]                                 
080211BA 2004     mov     r0,4h                                   
080211BC 4308     orr     r0,r1                                   
080211BE 8020     strh    r0,[r4]   ;取向ORR4再写入                               
080211C0 E043     b       @@end                                

@@NoSpawn:                             
080211C8 4901     ldr     r1,=3000738h                            
080211CA 2000     mov     r0,0h                                   
080211CC 8008     strh    r0,[r1]                                 
080211CE E03C     b       @@end                                  

@@Spawn:                             
080211D4 4A1E     ldr     r2,=300080Ch                            
080211D6 481F     ldr     r0,=3000738h                            
080211D8 4684     mov     r12,r0                                  
080211DA 8841     ldrh    r1,[r0,2h]    ;Y坐标                           
080211DC 1C08     mov     r0,r1                                   
080211DE 3820     sub     r0,20h        ;向上半格                          
080211E0 2300     mov     r3,0h                                   
080211E2 2400     mov     r4,0h                                   
080211E4 8010     strh    r0,[r2]       ;写入80C                           
080211E6 4665     mov     r5,r12                                  
080211E8 88A8     ldrh    r0,[r5,4h]    ;X坐标                          
080211EA 8050     strh    r0,[r2,2h]    ;写入80E                          
080211EC 39A0     sub     r1,0A0h       ;Y坐标向上两格半                          
080211EE 8069     strh    r1,[r5,2h]    ;再写入                          
080211F0 4919     ldr     r1,=0FFA0h                              
080211F2 8169     strh    r1,[r5,0Ah]   ;上部分界写入NEG 60h                          
080211F4 2040     mov     r0,40h                                  
080211F6 81A8     strh    r0,[r5,0Ch]   ;下部分界写入40h                          
080211F8 81E9     strh    r1,[r5,0Eh]   ;左部分界写入NEG 60h                          
080211FA 2060     mov     r0,60h                                  
080211FC 8228     strh    r0,[r5,10h]   ;右部分界写入60h                          
080211FE 4660     mov     r0,r12                                  
08021200 3027     add     r0,27h                                  
08021202 2120     mov     r1,20h                                  
08021204 7001     strb    r1,[r0]       ;75F写入20h                           
08021206 3001     add     r0,1h                                   
08021208 7001     strb    r1,[r0]       ;760写入20h                          
0802120A 4661     mov     r1,r12                                  
0802120C 3129     add     r1,29h                                  
0802120E 2030     mov     r0,30h        ;761写入30h                          
08021210 7008     strb    r0,[r1]                                 
08021212 4812     ldr     r0,=82D795Ch                            
08021214 61A8     str     r0,[r5,18h]   ;OAM写入                          
08021216 772B     strb    r3,[r5,1Ch]                             
08021218 82EC     strh    r4,[r5,16h]                             
0802121A 3904     sub     r1,4h                                   
0802121C 2004     mov     r0,4h                                   
0802121E 7008     strb    r0,[r1]       ;属性写入4h                               
08021220 3903     sub     r1,3h                                   
08021222 200A     mov     r0,0Ah                                  
08021224 7008     strb    r0,[r1]       ;75A写入A                          
08021226 4A0E     ldr     r2,=82B0D68h                            
08021228 7F69     ldrb    r1,[r5,1Dh]                             
0802122A 00C8     lsl     r0,r1,3h                                
0802122C 1840     add     r0,r0,r1                                
0802122E 0040     lsl     r0,r0,1h                                
08021230 1880     add     r0,r0,r2                                
08021232 8800     ldrh    r0,[r0]                                 
08021234 82A8     strh    r0,[r5,14h]   ;写入最大血量                           
08021236 4660     mov     r0,r12                                  
08021238 302C     add     r0,2Ch                                  
0802123A 7003     strb    r3,[r0]       ;764写入0                           
0802123C 4661     mov     r1,r12                                  
0802123E 3124     add     r1,24h                                  
08021240 2008     mov     r0,8h                                   
08021242 7008     strb    r0,[r1]       ;pose写入8h                           
08021244 4660     mov     r0,r12                                  
08021246 302A     add     r0,2Ah                                  
08021248 7003     strb    r3,[r0]       ;762写入0

@@end:                                
0802124A BC30     pop     r4,r5                                   
0802124C BC01     pop     r0                                      
0802124E 4700     bx      r0                                      


/////////////////////////////////////////////////////////////////////////////////   

;pose 8                           
08021264 B5F0     push    r4-r7,r14                               
08021266 4647     mov     r7,r8                                   
08021268 B480     push    r7                                      
0802126A B083     add     sp,-0Ch                                 
0802126C 4811     ldr     r0,=300080Ch                            
0802126E 4680     mov     r8,r0                                   
08021270 21D0     mov     r1,0D0h                                  
08021272 0049     lsl     r1,r1,1h    ;6格半的长度                             
08021274 1C08     mov     r0,r1                                   
08021276 4642     mov     r2,r8                                   
08021278 8852     ldrh    r2,[r2,2h]  ;读取备份的X坐标                            
0802127A 1886     add     r6,r0,r2    ;加上精灵的X坐标,等于向右6格半                            
0802127C 0430     lsl     r0,r6,10h                               
0802127E 0C07     lsr     r7,r0,10h                               
08021280 4B0D     ldr     r3,=30013D4h                            
08021282 8A59     ldrh    r1,[r3,12h]  ;读取SA x坐标                           
08021284 1C0C     mov     r4,r1                                   
08021286 4A0D     ldr     r2,=3000738h                            
08021288 1C15     mov     r5,r2                                   
0802128A 352C     add     r5,2Ch                                  
0802128C 7828     ldrb    r0,[r5]      ;读取764的值                           
0802128E 3001     add     r0,1h        ;加1再写入                           
08021290 7028     strb    r0,[r5]                                 
08021292 480B     ldr     r0,=3001530h                            
08021294 8840     ldrh    r0,[r0,2h]   ;读取最大导弹值                           
08021296 2800     cmp     r0,0h                                   
08021298 D116     bne     @@HaveMissile                                
0802129A 4A0A     ldr     r2,=0FFFFFC00h                          
0802129C 18B8     add     r0,r7,r2     ;X坐标向右六格半再向左16格                           
0802129E 4281     cmp     r1,r0        ;Sa的X坐标比较,如果                          
080212A0 DC00     bgt     @@LeftInScope    ;Sa X坐标大于该坐标                           
080212A2 E0B3     b       @@end   

@@LeftInScope:                             
080212A4 2280     mov     r2,80h                                  
080212A6 00D2     lsl     r2,r2,3h                                
080212A8 18B8     add     r0,r7,r2     ;X坐标向右六格半再向右16格                           
080212AA 4281     cmp     r1,r0        ;Sa X坐标比较                           
080212AC DB00     blt     @@RightInScope                                
080212AE E0AD     b       @@end  

@@RightInScope:                              
080212B0 E01C     b       @@MakeSmallStone                                

@@HaveMissile:                               
080212C8 1C38     mov     r0,r7                                   
080212CA 3820     sub     r0,20h      ;X坐标向右六格                           
080212CC 4281     cmp     r1,r0       ;SA x坐标比较                            
080212CE DD02     ble     @@NoActivation    ;小于或等于                            
080212D0 3040     add     r0,40h      ;X坐标向右7格半                            
080212D2 4281     cmp     r1,r0       ;SA x坐标比较                            
080212D4 DB24     blt     @@Activation    

@@NoActivation:                              
080212D6 4910     ldr     r1,=0FFFFFC00h                          
080212D8 1878     add     r0,r7,r1    ;X坐标向左9格半                            
080212DA 4284     cmp     r4,r0       ;SA x坐标比较                            
080212DC DC00     bgt     @@InScope                                
080212DE E095     b       @@end 

@@InScope:                               
080212E0 2280     mov     r2,80h                                  
080212E2 00D2     lsl     r2,r2,3h                                
080212E4 18B8     add     r0,r7,r2                                
080212E6 4284     cmp     r4,r0       ;X坐标向右22格半                              
080212E8 DB00     blt     @@MakeSmallStone                                
080212EA E08F     b       @@end   

@@MakeSmallStone:                             
080212EC 480B     ldr     r0,=300083Ch                            
080212EE 7800     ldrb    r0,[r0]     ;读取随机数                            
080212F0 2800     cmp     r0,0h                                   
080212F2 D103     bne     @@RNGNo0                                
080212F4 200A     mov     r0,0Ah                                  
080212F6 2181     mov     r1,81h                                  
080212F8 F034F824 bl      8055344h    ;随机数为0的话垂直震动

@@RNGNo0:                               
080212FC 7829     ldrb    r1,[r5]     ;764的值                            
080212FE 201F     mov     r0,1Fh                                  
08021300 4008     and     r0,r1       ;1F and                            
08021302 2800     cmp     r0,0h                                   
08021304 D000     beq     @@764NoX0                                
08021306 E081     b       @@end  

@@764NoX0:                              
08021308 7828     ldrb    r0,[r5]     ;读取764的值                            
0802130A F7FFFDAB bl      8020E64h                                
0802130E 20C8     mov     r0,0C8h                                 
08021310 0040     lsl     r0,r0,1h                                
08021312 F7E1FB81 bl      8002A18h    ;播放震动的声音                            
08021316 E079     b       @@end                                

@@Activation:                              
08021320 490A     ldr     r1,=3000100h                            
08021322 2401     mov     r4,1h                                   
08021324 700C     strb    r4,[r1]                                 
08021326 8A98     ldrh    r0,[r3,14h]                             
08021328 8088     strh    r0,[r1,4h]                              
0802132A 804E     strh    r6,[r1,2h]                              
0802132C 89D9     ldrh    r1,[r3,0Eh]                             
0802132E 2010     mov     r0,10h                                  
08021330 4008     and     r0,r1                                   
08021332 0400     lsl     r0,r0,10h                               
08021334 0C00     lsr     r0,r0,10h                               
08021336 2800     cmp     r0,0h                                   
08021338 D00A     beq     8021350h                                
0802133A 4640     mov     r0,r8                                   
0802133C 8084     strh    r4,[r0,4h]                              
0802133E 21D0     mov     r1,0D0h                                 
08021340 0089     lsl     r1,r1,2h                                
08021342 1C08     mov     r0,r1                                   
08021344 8891     ldrh    r1,[r2,4h]                              
08021346 1840     add     r0,r0,r1                                
08021348 8090     strh    r0,[r2,4h]                              
0802134A E003     b       8021354h                                
0802134C 0100     lsl     r0,r0,4h                                
0802134E 0300     lsl     r0,r0,0Ch                               
08021350 4641     mov     r1,r8                                   
08021352 8088     strh    r0,[r1,4h]                              
08021354 8890     ldrh    r0,[r2,4h]                              
08021356 2100     mov     r1,0h                                   
08021358 4688     mov     r8,r1                                   
0802135A 8110     strh    r0,[r2,8h]                              
0802135C 8850     ldrh    r0,[r2,2h]                              
0802135E 80D0     strh    r0,[r2,6h]                              
08021360 7FD6     ldrb    r6,[r2,1Fh]                             
08021362 1C10     mov     r0,r2                                   
08021364 3023     add     r0,23h                                  
08021366 7805     ldrb    r5,[r0]                                 
08021368 8854     ldrh    r4,[r2,2h]                              
0802136A 8897     ldrh    r7,[r2,4h]                              
0802136C 1C11     mov     r1,r2                                   
0802136E 3124     add     r1,24h                                  
08021370 2009     mov     r0,9h                                   
08021372 7008     strb    r0,[r1]                                 
08021374 3108     add     r1,8h                                   
08021376 202E     mov     r0,2Eh                                  
08021378 7008     strb    r0,[r1]                                 
0802137A 9400     str     r4,[sp]                                 
0802137C 9701     str     r7,[sp,4h]                              
0802137E 4642     mov     r2,r8                                   
08021380 9202     str     r2,[sp,8h]                              
08021382 2009     mov     r0,9h                                   
08021384 2105     mov     r1,5h                                   
08021386 1C32     mov     r2,r6                                   
08021388 1C2B     mov     r3,r5                                   
0802138A F7ECFF65 bl      800E258h                                
0802138E 9400     str     r4,[sp]                                 
08021390 9701     str     r7,[sp,4h]                              
08021392 4640     mov     r0,r8                                   
08021394 9002     str     r0,[sp,8h]                              
08021396 2009     mov     r0,9h                                   
08021398 2104     mov     r1,4h                                   
0802139A 1C32     mov     r2,r6                                   
0802139C 1C2B     mov     r3,r5                                   
0802139E F7ECFF5B bl      800E258h                                
080213A2 9400     str     r4,[sp]                                 
080213A4 9701     str     r7,[sp,4h]                              
080213A6 4641     mov     r1,r8                                   
080213A8 9102     str     r1,[sp,8h]                              
080213AA 2009     mov     r0,9h                                   
080213AC 2103     mov     r1,3h                                   
080213AE 1C32     mov     r2,r6                                   
080213B0 1C2B     mov     r3,r5                                   
080213B2 F7ECFF51 bl      800E258h                                
080213B6 9400     str     r4,[sp]                                 
080213B8 9701     str     r7,[sp,4h]                              
080213BA 4642     mov     r2,r8                                   
080213BC 9202     str     r2,[sp,8h]                              
080213BE 2009     mov     r0,9h                                   
080213C0 2102     mov     r1,2h                                   
080213C2 1C32     mov     r2,r6                                   
080213C4 1C2B     mov     r3,r5                                   
080213C6 F7ECFF47 bl      800E258h                                
080213CA 9400     str     r4,[sp]                                 
080213CC 9701     str     r7,[sp,4h]                              
080213CE 4640     mov     r0,r8                                   
080213D0 9002     str     r0,[sp,8h]                              
080213D2 2009     mov     r0,9h                                   
080213D4 2101     mov     r1,1h                                   
080213D6 1C32     mov     r2,r6                                   
080213D8 1C2B     mov     r3,r5                                   
080213DA F7ECFF3D bl      800E258h                                
080213DE 9400     str     r4,[sp]                                 
080213E0 9701     str     r7,[sp,4h]                              
080213E2 4641     mov     r1,r8                                   
080213E4 9102     str     r1,[sp,8h]                              
080213E6 2009     mov     r0,9h                                   
080213E8 2100     mov     r1,0h                                   
080213EA 1C32     mov     r2,r6                                   
080213EC 1C2B     mov     r3,r5                                   
080213EE F7ECFF33 bl      800E258h                                
080213F2 2028     mov     r0,28h                                  
080213F4 2181     mov     r1,81h                                  
080213F6 F033FFA5 bl      8055344h                                
080213FA 4807     ldr     r0,=193h                                
080213FC F7E1FB0C bl      8002A18h                                
08021400 2002     mov     r0,2h                                   
08021402 F7FFFC3B bl      8020C7Ch                                
08021406 2002     mov     r0,2h                                   
08021408 F7FFFC7A bl      8020D00h 

@@end:                               
0802140C B003     add     sp,0Ch                                  
0802140E BC08     pop     r3                                      
08021410 4698     mov     r8,r3                                   
08021412 BCF0     pop     r4-r7                                   
08021414 BC01     pop     r0                                      
08021416 4700     bx      r0                                      
08021418 0193     lsl     r3,r2,6h                                
0802141A 0000     lsl     r0,r0,0h                                
0802141C B5F0     push    r4-r7,r14                               
0802141E 4810     ldr     r0,=300080Ch                            
08021420 8806     ldrh    r6,[r0]                                 
08021422 4910     ldr     r1,=3000738h                            
08021424 890D     ldrh    r5,[r1,8h]                              
08021426 1C2F     mov     r7,r5                                   
08021428 8848     ldrh    r0,[r1,2h]                              
0802142A 3010     add     r0,10h                                  
0802142C 8048     strh    r0,[r1,2h]                              
0802142E 1C08     mov     r0,r1                                   
08021430 302C     add     r0,2Ch                                  
08021432 7803     ldrb    r3,[r0]                                 
08021434 2B0F     cmp     r3,0Fh                                  
08021436 D817     bhi     8021468h                                
08021438 7804     ldrb    r4,[r0]                                 
0802143A 21C0     mov     r1,0C0h                                 
0802143C 0049     lsl     r1,r1,1h                                
0802143E 1870     add     r0,r6,r1                                
08021440 0400     lsl     r0,r0,10h                               
08021442 0C00     lsr     r0,r0,10h                               
08021444 1C29     mov     r1,r5                                   
08021446 1C22     mov     r2,r4                                   
08021448 F7FFFD9A bl      8020F80h                                
0802144C 2C08     cmp     r4,8h                                   
0802144E D129     bne     80214A4h                                
08021450 23E0     mov     r3,0E0h                                 
08021452 005B     lsl     r3,r3,1h                                
08021454 18F0     add     r0,r6,r3                                
08021456 1C29     mov     r1,r5                                   
08021458 2236     mov     r2,36h                                  
0802145A F032FE47 bl      80540ECh                                
0802145E E021     b       80214A4h                                
08021460 080C     lsr     r4,r1,20h                               
08021462 0300     lsl     r0,r0,0Ch                               
08021464 0738     lsl     r0,r7,1Ch                               
08021466 0300     lsl     r0,r0,0Ch                               
08021468 202E     mov     r0,2Eh                                  
0802146A 1AC0     sub     r0,r0,r3                                
0802146C 0600     lsl     r0,r0,18h                               
0802146E 0E04     lsr     r4,r0,18h                               
08021470 1C35     mov     r5,r6                                   
08021472 3540     add     r5,40h                                  
08021474 0428     lsl     r0,r5,10h                               
08021476 0C00     lsr     r0,r0,10h                               
08021478 1C39     mov     r1,r7                                   
0802147A 1C22     mov     r2,r4                                   
0802147C F7FFFD80 bl      8020F80h                                
08021480 2C00     cmp     r4,0h                                   
08021482 D10F     bne     80214A4h                                
08021484 1C28     mov     r0,r5                                   
08021486 1C39     mov     r1,r7                                   
08021488 2236     mov     r2,36h                                  
0802148A F032FE2F bl      80540ECh                                
0802148E 4813     ldr     r0,=191h                                
08021490 F7E1FAC2 bl      8002A18h                                
08021494 20CE     mov     r0,0CEh                                 
08021496 0040     lsl     r0,r0,1h                                
08021498 F7E1FABE bl      8002A18h                                
0802149C 203C     mov     r0,3Ch                                  
0802149E 2100     mov     r1,0h                                   
080214A0 F7E2FAA8 bl      80039F4h                                
080214A4 4A0E     ldr     r2,=3000738h                            
080214A6 1C13     mov     r3,r2                                   
080214A8 332C     add     r3,2Ch                                  
080214AA 7818     ldrb    r0,[r3]                                 
080214AC 3801     sub     r0,1h                                   
080214AE 7018     strb    r0,[r3]                                 
080214B0 0600     lsl     r0,r0,18h                               
080214B2 2800     cmp     r0,0h                                   
080214B4 D127     bne     8021506h                                
080214B6 1C11     mov     r1,r2                                   
080214B8 3124     add     r1,24h                                  
080214BA 2022     mov     r0,22h                                  
080214BC 7008     strb    r0,[r1]                                 
080214BE 200A     mov     r0,0Ah                                  
080214C0 7018     strb    r0,[r3]                                 
080214C2 8811     ldrh    r1,[r2]                                 
080214C4 2380     mov     r3,80h                                  
080214C6 005B     lsl     r3,r3,1h                                
080214C8 1C18     mov     r0,r3                                   
080214CA 4308     orr     r0,r1                                   
080214CC 8010     strh    r0,[r2]                                 
080214CE 4805     ldr     r0,=300080Ch                            
080214D0 8880     ldrh    r0,[r0,4h]                              
080214D2 2800     cmp     r0,0h                                   
080214D4 D00A     beq     80214ECh                                
080214D6 4904     ldr     r1,=0FFFFFCC0h                          
080214D8 E00A     b       80214F0h                                
080214DA 0000     lsl     r0,r0,0h                                
080214DC 0191     lsl     r1,r2,6h                                
080214DE 0000     lsl     r0,r0,0h                                
080214E0 0738     lsl     r0,r7,1Ch                               
080214E2 0300     lsl     r0,r0,0Ch                               
080214E4 080C     lsr     r4,r1,20h                               
080214E6 0300     lsl     r0,r0,0Ch                               
080214E8 FCC0     bl      lr+980h                                 
080214EA FFFF     bl      lr+0FFEh                                
080214EC 21D0     mov     r1,0D0h                                 
080214EE 0089     lsl     r1,r1,2h                                
080214F0 1C08     mov     r0,r1                                   
080214F2 8893     ldrh    r3,[r2,4h]                              
080214F4 18C0     add     r0,r0,r3                                
080214F6 8090     strh    r0,[r2,4h]                              
080214F8 2028     mov     r0,28h                                  
080214FA 2181     mov     r1,81h                                  
080214FC F033FF22 bl      8055344h                                
08021500 4802     ldr     r0,=193h                                
08021502 F7E1FA89 bl      8002A18h                                
08021506 BCF0     pop     r4-r7                                   
08021508 BC01     pop     r0                                      
0802150A 4700     bx      r0                                      
0802150C 0193     lsl     r3,r2,6h                                
0802150E 0000     lsl     r0,r0,0h                                
08021510 B5F0     push    r4-r7,r14                               
08021512 4647     mov     r7,r8                                   
08021514 B480     push    r7                                      
08021516 B083     add     sp,-0Ch                                 
08021518 4A2F     ldr     r2,=3000738h                            
0802151A 1C13     mov     r3,r2                                   
0802151C 332C     add     r3,2Ch                                  
0802151E 7818     ldrb    r0,[r3]                                 
08021520 3801     sub     r0,1h                                   
08021522 7018     strb    r0,[r3]                                 
08021524 0600     lsl     r0,r0,18h                               
08021526 0E07     lsr     r7,r0,18h                               
08021528 2F00     cmp     r7,0h                                   
0802152A D14F     bne     80215CCh                                
0802152C 1C11     mov     r1,r2                                   
0802152E 3124     add     r1,24h                                  
08021530 2023     mov     r0,23h                                  
08021532 7008     strb    r0,[r1]                                 
08021534 2032     mov     r0,32h                                  
08021536 7018     strb    r0,[r3]                                 
08021538 21C7     mov     r1,0C7h                                 
0802153A 0089     lsl     r1,r1,2h                                
0802153C 1C08     mov     r0,r1                                   
0802153E 88D1     ldrh    r1,[r2,6h]                              
08021540 1840     add     r0,r0,r1                                
08021542 8050     strh    r0,[r2,2h]                              
08021544 7FD0     ldrb    r0,[r2,1Fh]                             
08021546 4680     mov     r8,r0                                   
08021548 1C10     mov     r0,r2                                   
0802154A 3023     add     r0,23h                                  
0802154C 7806     ldrb    r6,[r0]                                 
0802154E 8854     ldrh    r4,[r2,2h]                              
08021550 8895     ldrh    r5,[r2,4h]                              
08021552 9400     str     r4,[sp]                                 
08021554 9501     str     r5,[sp,4h]                              
08021556 9702     str     r7,[sp,8h]                              
08021558 2009     mov     r0,9h                                   
0802155A 210B     mov     r1,0Bh                                  
0802155C 4642     mov     r2,r8                                   
0802155E 1C33     mov     r3,r6                                   
08021560 F7ECFE7A bl      800E258h                                
08021564 9400     str     r4,[sp]                                 
08021566 9501     str     r5,[sp,4h]                              
08021568 9702     str     r7,[sp,8h]                              
0802156A 2009     mov     r0,9h                                   
0802156C 210A     mov     r1,0Ah                                  
0802156E 4642     mov     r2,r8                                   
08021570 1C33     mov     r3,r6                                   
08021572 F7ECFE71 bl      800E258h                                
08021576 9400     str     r4,[sp]                                 
08021578 9501     str     r5,[sp,4h]                              
0802157A 9702     str     r7,[sp,8h]                              
0802157C 2009     mov     r0,9h                                   
0802157E 2109     mov     r1,9h                                   
08021580 4642     mov     r2,r8                                   
08021582 1C33     mov     r3,r6                                   
08021584 F7ECFE68 bl      800E258h                                
08021588 9400     str     r4,[sp]                                 
0802158A 9501     str     r5,[sp,4h]                              
0802158C 9702     str     r7,[sp,8h]                              
0802158E 2009     mov     r0,9h                                   
08021590 2108     mov     r1,8h                                   
08021592 4642     mov     r2,r8                                   
08021594 1C33     mov     r3,r6                                   
08021596 F7ECFE5F bl      800E258h                                
0802159A 9400     str     r4,[sp]                                 
0802159C 9501     str     r5,[sp,4h]                              
0802159E 9702     str     r7,[sp,8h]                              
080215A0 2009     mov     r0,9h                                   
080215A2 2107     mov     r1,7h                                   
080215A4 4642     mov     r2,r8                                   
080215A6 1C33     mov     r3,r6                                   
080215A8 F7ECFE56 bl      800E258h                                
080215AC 9400     str     r4,[sp]                                 
080215AE 9501     str     r5,[sp,4h]                              
080215B0 9702     str     r7,[sp,8h]                              
080215B2 2009     mov     r0,9h                                   
080215B4 2106     mov     r1,6h                                   
080215B6 4642     mov     r2,r8                                   
080215B8 1C33     mov     r3,r6                                   
080215BA F7ECFE4D bl      800E258h                                
080215BE 2028     mov     r0,28h                                  
080215C0 2181     mov     r1,81h                                  
080215C2 F033FEBF bl      8055344h                                
080215C6 4805     ldr     r0,=193h                                
080215C8 F7E1FA26 bl      8002A18h                                
080215CC B003     add     sp,0Ch                                  
080215CE BC08     pop     r3                                      
080215D0 4698     mov     r8,r3                                   
080215D2 BCF0     pop     r4-r7                                   
080215D4 BC01     pop     r0                                      
080215D6 4700     bx      r0                                      
080215D8 0738     lsl     r0,r7,1Ch                               
080215DA 0300     lsl     r0,r0,0Ch                               
080215DC 0193     lsl     r3,r2,6h                                
080215DE 0000     lsl     r0,r0,0h                                
080215E0 B5F0     push    r4-r7,r14                               
080215E2 480F     ldr     r0,=300080Ch                            
080215E4 8802     ldrh    r2,[r0]                                 
080215E6 1C17     mov     r7,r2                                   
080215E8 490E     ldr     r1,=3000738h                            
080215EA 888D     ldrh    r5,[r1,4h]                              
080215EC 1C2E     mov     r6,r5                                   
080215EE 8848     ldrh    r0,[r1,2h]                              
080215F0 3810     sub     r0,10h                                  
080215F2 8048     strh    r0,[r1,2h]                              
080215F4 1C08     mov     r0,r1                                   
080215F6 302C     add     r0,2Ch                                  
080215F8 7803     ldrb    r3,[r0]                                 
080215FA 2B0F     cmp     r3,0Fh                                  
080215FC D814     bhi     8021628h                                
080215FE 7804     ldrb    r4,[r0]                                 
08021600 1C16     mov     r6,r2                                   
08021602 3640     add     r6,40h                                  
08021604 0430     lsl     r0,r6,10h                               
08021606 0C00     lsr     r0,r0,10h                               
08021608 1C29     mov     r1,r5                                   
0802160A 1C22     mov     r2,r4                                   
0802160C F7FFFCB8 bl      8020F80h                                
08021610 2C08     cmp     r4,8h                                   
08021612 D11F     bne     8021654h                                
08021614 1C30     mov     r0,r6                                   
08021616 1C29     mov     r1,r5                                   
08021618 2236     mov     r2,36h                                  
0802161A F032FD67 bl      80540ECh                                
0802161E E019     b       8021654h                                
08021620 080C     lsr     r4,r1,20h                               
08021622 0300     lsl     r0,r0,0Ch                               
08021624 0738     lsl     r0,r7,1Ch                               
08021626 0300     lsl     r0,r0,0Ch                               
08021628 2032     mov     r0,32h                                  
0802162A 1AC0     sub     r0,r0,r3                                
0802162C 0600     lsl     r0,r0,18h                               
0802162E 0E04     lsr     r4,r0,18h                               
08021630 21C0     mov     r1,0C0h                                 
08021632 0049     lsl     r1,r1,1h                                
08021634 1878     add     r0,r7,r1                                
08021636 0400     lsl     r0,r0,10h                               
08021638 0C00     lsr     r0,r0,10h                               
0802163A 1C31     mov     r1,r6                                   
0802163C 1C22     mov     r2,r4                                   
0802163E F7FFFC9F bl      8020F80h                                
08021642 2C04     cmp     r4,4h                                   
08021644 D106     bne     8021654h                                
08021646 21E0     mov     r1,0E0h                                 
08021648 0049     lsl     r1,r1,1h                                
0802164A 1878     add     r0,r7,r1                                
0802164C 1C31     mov     r1,r6                                   
0802164E 2236     mov     r2,36h                                  
08021650 F032FD4C bl      80540ECh                                
08021654 4A0D     ldr     r2,=3000738h                            
08021656 1C13     mov     r3,r2                                   
08021658 332C     add     r3,2Ch                                  
0802165A 7818     ldrb    r0,[r3]                                 
0802165C 3801     sub     r0,1h                                   
0802165E 7018     strb    r0,[r3]                                 
08021660 0600     lsl     r0,r0,18h                               
08021662 2800     cmp     r0,0h                                   
08021664 D124     bne     80216B0h                                
08021666 8811     ldrh    r1,[r2]                                 
08021668 4809     ldr     r0,=0FEFFh                              
0802166A 4008     and     r0,r1                                   
0802166C 2104     mov     r1,4h                                   
0802166E 4308     orr     r0,r1                                   
08021670 8010     strh    r0,[r2]                                 
08021672 1C11     mov     r1,r2                                   
08021674 3124     add     r1,24h                                  
08021676 2024     mov     r0,24h                                  
08021678 7008     strb    r0,[r1]                                 
0802167A 203C     mov     r0,3Ch                                  
0802167C 7018     strb    r0,[r3]                                 
0802167E 4805     ldr     r0,=300080Ch                            
08021680 8880     ldrh    r0,[r0,4h]                              
08021682 2800     cmp     r0,0h                                   
08021684 D008     beq     8021698h                                
08021686 21D0     mov     r1,0D0h                                 
08021688 0049     lsl     r1,r1,1h                                
0802168A E006     b       802169Ah                                
0802168C 0738     lsl     r0,r7,1Ch                               
0802168E 0300     lsl     r0,r0,0Ch                               
08021690 FEFF     bl      lr+0DFEh                                
08021692 0000     lsl     r0,r0,0h                                
08021694 080C     lsr     r4,r1,20h                               
08021696 0300     lsl     r0,r0,0Ch                               
08021698 4907     ldr     r1,=0FFFFFE60h                          
0802169A 1C08     mov     r0,r1                                   
0802169C 8891     ldrh    r1,[r2,4h]                              
0802169E 1840     add     r0,r0,r1                                
080216A0 8090     strh    r0,[r2,4h]                              
080216A2 2028     mov     r0,28h                                  
080216A4 2181     mov     r1,81h                                  
080216A6 F033FE4D bl      8055344h                                
080216AA 4804     ldr     r0,=193h                                
080216AC F7E1F9B4 bl      8002A18h                                
080216B0 BCF0     pop     r4-r7                                   
080216B2 BC01     pop     r0                                      
080216B4 4700     bx      r0                                      
080216B6 0000     lsl     r0,r0,0h                                
080216B8 FE60     bl      lr+0CC0h                                
080216BA FFFF     bl      lr+0FFEh                                
080216BC 0193     lsl     r3,r2,6h                                
080216BE 0000     lsl     r0,r0,0h                                
080216C0 B5F0     push    r4-r7,r14                               
080216C2 4657     mov     r7,r10                                  
080216C4 464E     mov     r6,r9                                   
080216C6 4645     mov     r5,r8                                   
080216C8 B4E0     push    r5-r7                                   
080216CA B084     add     sp,-10h                                 
080216CC 4F38     ldr     r7,=3000738h                            
080216CE 1C3C     mov     r4,r7                                   
080216D0 342C     add     r4,2Ch                                  
080216D2 7821     ldrb    r1,[r4]                                 
080216D4 201F     mov     r0,1Fh                                  
080216D6 4008     and     r0,r1                                   
080216D8 2800     cmp     r0,0h                                   
080216DA D102     bne     80216E2h                                
080216DC 7820     ldrb    r0,[r4]                                 
080216DE F7FFFBC1 bl      8020E64h                                
080216E2 7820     ldrb    r0,[r4]                                 
080216E4 3801     sub     r0,1h                                   
080216E6 7020     strb    r0,[r4]                                 
080216E8 0600     lsl     r0,r0,18h                               
080216EA 0E00     lsr     r0,r0,18h                               
080216EC 4682     mov     r10,r0                                  
080216EE 2800     cmp     r0,0h                                   
080216F0 D167     bne     80217C2h                                
080216F2 1C39     mov     r1,r7                                   
080216F4 3124     add     r1,24h                                  
080216F6 2025     mov     r0,25h                                  
080216F8 7008     strb    r0,[r1]                                 
080216FA 88F8     ldrh    r0,[r7,6h]                              
080216FC 8078     strh    r0,[r7,2h]                              
080216FE 8839     ldrh    r1,[r7]                                 
08021700 482C     ldr     r0,=0FFFBh                              
08021702 4008     and     r0,r1                                   
08021704 8038     strh    r0,[r7]                                 
08021706 200B     mov     r0,0Bh                                  
08021708 7020     strb    r0,[r4]                                 
0802170A 7FF8     ldrb    r0,[r7,1Fh]                             
0802170C 9003     str     r0,[sp,0Ch]                             
0802170E 1C38     mov     r0,r7                                   
08021710 3023     add     r0,23h                                  
08021712 7800     ldrb    r0,[r0]                                 
08021714 4681     mov     r9,r0                                   
08021716 887E     ldrh    r6,[r7,2h]                              
08021718 88B8     ldrh    r0,[r7,4h]                              
0802171A 4680     mov     r8,r0                                   
0802171C 9600     str     r6,[sp]                                 
0802171E 9001     str     r0,[sp,4h]                              
08021720 4650     mov     r0,r10                                  
08021722 9002     str     r0,[sp,8h]                              
08021724 2009     mov     r0,9h                                   
08021726 210E     mov     r1,0Eh                                  
08021728 9A03     ldr     r2,[sp,0Ch]                             
0802172A 464B     mov     r3,r9                                   
0802172C F7ECFD94 bl      800E258h                                
08021730 1C05     mov     r5,r0                                   
08021732 062D     lsl     r5,r5,18h                               
08021734 0E2D     lsr     r5,r5,18h                               
08021736 9600     str     r6,[sp]                                 
08021738 4640     mov     r0,r8                                   
0802173A 9001     str     r0,[sp,4h]                              
0802173C 4650     mov     r0,r10                                  
0802173E 9002     str     r0,[sp,8h]                              
08021740 2009     mov     r0,9h                                   
08021742 210D     mov     r1,0Dh                                  
08021744 9A03     ldr     r2,[sp,0Ch]                             
08021746 464B     mov     r3,r9                                   
08021748 F7ECFD86 bl      800E258h                                
0802174C 1C04     mov     r4,r0                                   
0802174E 0624     lsl     r4,r4,18h                               
08021750 0E24     lsr     r4,r4,18h                               
08021752 9600     str     r6,[sp]                                 
08021754 4640     mov     r0,r8                                   
08021756 9001     str     r0,[sp,4h]                              
08021758 4650     mov     r0,r10                                  
0802175A 9002     str     r0,[sp,8h]                              
0802175C 2009     mov     r0,9h                                   
0802175E 210C     mov     r1,0Ch                                  
08021760 9A03     ldr     r2,[sp,0Ch]                             
08021762 464B     mov     r3,r9                                   
08021764 F7ECFD78 bl      800E258h                                
08021768 4A13     ldr     r2,=30001ACh                            
0802176A 00E1     lsl     r1,r4,3h                                
0802176C 1B09     sub     r1,r1,r4                                
0802176E 00C9     lsl     r1,r1,3h                                
08021770 1889     add     r1,r1,r2                                
08021772 312C     add     r1,2Ch                                  
08021774 7008     strb    r0,[r1]                                 
08021776 00E8     lsl     r0,r5,3h                                
08021778 1B40     sub     r0,r0,r5                                
0802177A 00C0     lsl     r0,r0,3h                                
0802177C 1880     add     r0,r0,r2                                
0802177E 302C     add     r0,2Ch                                  
08021780 7004     strb    r4,[r0]                                 
08021782 3E1C     sub     r6,1Ch                                  
08021784 9600     str     r6,[sp]                                 
08021786 2004     mov     r0,4h                                   
08021788 4240     neg     r0,r0                                   
0802178A 4480     add     r8,r0                                   
0802178C 4640     mov     r0,r8                                   
0802178E 9001     str     r0,[sp,4h]                              
08021790 4650     mov     r0,r10                                  
08021792 9002     str     r0,[sp,8h]                              
08021794 200A     mov     r0,0Ah                                  
08021796 2100     mov     r1,0h                                   
08021798 9A03     ldr     r2,[sp,0Ch]                             
0802179A 464B     mov     r3,r9                                   
0802179C F7ECFD5C bl      800E258h                                
080217A0 0600     lsl     r0,r0,18h                               
080217A2 0E02     lsr     r2,r0,18h                               
080217A4 2AFF     cmp     r2,0FFh                                 
080217A6 D109     bne     80217BCh                                
080217A8 4650     mov     r0,r10                                  
080217AA 8038     strh    r0,[r7]                                 
080217AC E009     b       80217C2h                                
080217AE 0000     lsl     r0,r0,0h                                
080217B0 0738     lsl     r0,r7,1Ch                               
080217B2 0300     lsl     r0,r0,0Ch                               
080217B4 FFFB     bl      lr+0FF6h                                
080217B6 0000     lsl     r0,r0,0h                                
080217B8 01AC     lsl     r4,r5,6h                                
080217BA 0300     lsl     r0,r0,0Ch                               
080217BC 1C38     mov     r0,r7                                   
080217BE 302F     add     r0,2Fh                                  
080217C0 7002     strb    r2,[r0]                                 
080217C2 B004     add     sp,10h                                  
080217C4 BC38     pop     r3-r5                                   
080217C6 4698     mov     r8,r3                                   
080217C8 46A1     mov     r9,r4                                   
080217CA 46AA     mov     r10,r5                                  
080217CC BCF0     pop     r4-r7                                   
080217CE BC01     pop     r0                                      
080217D0 4700     bx      r0                                      
080217D2 0000     lsl     r0,r0,0h                                
080217D4 B530     push    r4,r5,r14                               
080217D6 4C0B     ldr     r4,=3000738h                            
080217D8 1C20     mov     r0,r4                                   
080217DA 302F     add     r0,2Fh                                  
080217DC 7805     ldrb    r5,[r0]                                 
080217DE 4A0A     ldr     r2,=3000C77h                            
080217E0 7811     ldrb    r1,[r2]                                 
080217E2 201F     mov     r0,1Fh                                  
080217E4 4008     and     r0,r1                                   
080217E6 2800     cmp     r0,0h                                   
080217E8 D102     bne     80217F0h                                
080217EA 7810     ldrb    r0,[r2]                                 
080217EC F7FFFB3A bl      8020E64h                                
080217F0 8861     ldrh    r1,[r4,2h]                              
080217F2 88E0     ldrh    r0,[r4,6h]                              
080217F4 30A0     add     r0,0A0h                                 
080217F6 4281     cmp     r1,r0                                   
080217F8 DA08     bge     802180Ch                                
080217FA 1C08     mov     r0,r1                                   
080217FC 3008     add     r0,8h                                   
080217FE 8060     strh    r0,[r4,2h]                              
08021800 E032     b       8021868h                                
08021802 0000     lsl     r0,r0,0h                                
08021804 0738     lsl     r0,r7,1Ch                               
08021806 0300     lsl     r0,r0,0Ch                               
08021808 0C77     lsr     r7,r6,11h                               
0802180A 0300     lsl     r0,r0,0Ch                               
0802180C 1C22     mov     r2,r4                                   
0802180E 322C     add     r2,2Ch                                  
08021810 7810     ldrb    r0,[r2]                                 
08021812 3801     sub     r0,1h                                   
08021814 7010     strb    r0,[r2]                                 
08021816 0600     lsl     r0,r0,18h                               
08021818 2800     cmp     r0,0h                                   
0802181A D125     bne     8021868h                                
0802181C 1C20     mov     r0,r4                                   
0802181E 3024     add     r0,24h                                  
08021820 2126     mov     r1,26h                                  
08021822 7001     strb    r1,[r0]                                 
08021824 4802     ldr     r0,=300002Ch                            
08021826 7800     ldrb    r0,[r0]                                 
08021828 2800     cmp     r0,0h                                   
0802182A D103     bne     8021834h                                
0802182C 205A     mov     r0,5Ah                                  
0802182E E006     b       802183Eh                                
08021830 002C     lsl     r4,r5,0h                                
08021832 0300     lsl     r0,r0,0Ch                               
08021834 2802     cmp     r0,2h                                   
08021836 D101     bne     802183Ch                                
08021838 2022     mov     r0,22h                                  
0802183A E000     b       802183Eh                                
0802183C 203C     mov     r0,3Ch                                  
0802183E 7010     strb    r0,[r2]                                 
08021840 490B     ldr     r1,=3000738h                            
08021842 480C     ldr     r0,=82D7984h                            
08021844 6188     str     r0,[r1,18h]                             
08021846 2000     mov     r0,0h                                   
08021848 7708     strb    r0,[r1,1Ch]                             
0802184A 82C8     strh    r0,[r1,16h]                             
0802184C 8188     strh    r0,[r1,0Ch]                             
0802184E 480A     ldr     r0,=30001ACh                            
08021850 00E9     lsl     r1,r5,3h                                
08021852 1B49     sub     r1,r1,r5                                
08021854 00C9     lsl     r1,r1,3h                                
08021856 1809     add     r1,r1,r0                                
08021858 880A     ldrh    r2,[r1]                                 
0802185A 4808     ldr     r0,=7FFFh                               
0802185C 4010     and     r0,r2                                   
0802185E 8008     strh    r0,[r1]                                 
08021860 20CC     mov     r0,0CCh                                 
08021862 0040     lsl     r0,r0,1h                                
08021864 F7E1F8D8 bl      8002A18h                                
08021868 BC30     pop     r4,r5                                   
0802186A BC01     pop     r0                                      
0802186C 4700     bx      r0                                      
0802186E 0000     lsl     r0,r0,0h                                
08021870 0738     lsl     r0,r7,1Ch                               
08021872 0300     lsl     r0,r0,0Ch                               
08021874 7984     ldrb    r4,[r0,6h]                              
08021876 082D     lsr     r5,r5,20h                               
08021878 01AC     lsl     r4,r5,6h                                
0802187A 0300     lsl     r0,r0,0Ch                               
0802187C 7FFF     ldrb    r7,[r7,1Fh]                             
0802187E 0000     lsl     r0,r0,0h                                
08021880 B5F0     push    r4-r7,r14                               
08021882 4647     mov     r7,r8                                   
08021884 B480     push    r7                                      
08021886 4915     ldr     r1,=3000738h                            
08021888 1C08     mov     r0,r1                                   
0802188A 302F     add     r0,2Fh                                  
0802188C 7806     ldrb    r6,[r0]                                 
0802188E 4A14     ldr     r2,=30001ACh                            
08021890 00F0     lsl     r0,r6,3h                                
08021892 1B80     sub     r0,r0,r6                                
08021894 00C0     lsl     r0,r0,3h                                
08021896 1880     add     r0,r0,r2                                
08021898 8A80     ldrh    r0,[r0,14h]                             
0802189A 4680     mov     r8,r0                                   
0802189C 1C08     mov     r0,r1                                   
0802189E 302C     add     r0,2Ch                                  
080218A0 7800     ldrb    r0,[r0]                                 
080218A2 1C0D     mov     r5,r1                                   
080218A4 2800     cmp     r0,0h                                   
080218A6 D100     bne     80218AAh                                
080218A8 E0A8     b       80219FCh                                
080218AA 8829     ldrh    r1,[r5]                                 
080218AC 2080     mov     r0,80h                                  
080218AE 00C0     lsl     r0,r0,3h                                
080218B0 4008     and     r0,r1                                   
080218B2 2800     cmp     r0,0h                                   
080218B4 D000     beq     80218B8h                                
080218B6 E0A1     b       80219FCh                                
080218B8 1C30     mov     r0,r6                                   
080218BA F7FFFBB5 bl      8021028h                                
080218BE 0600     lsl     r0,r0,18h                               
080218C0 0E04     lsr     r4,r0,18h                               
080218C2 2C00     cmp     r4,0h                                   
080218C4 D000     beq     80218C8h                                
080218C6 E112     b       8021AEEh                                
080218C8 69A9     ldr     r1,[r5,18h]                             
080218CA 4806     ldr     r0,=82D79D4h                            
080218CC 4281     cmp     r1,r0                                   
080218CE D10D     bne     80218ECh                                
080218D0 F7EEF97A bl      800FBC8h                                
080218D4 2800     cmp     r0,0h                                   
080218D6 D014     beq     8021902h                                
080218D8 4803     ldr     r0,=82D7A84h                            
080218DA E00F     b       80218FCh                                
080218DC 0738     lsl     r0,r7,1Ch                               
080218DE 0300     lsl     r0,r0,0Ch                               
080218E0 01AC     lsl     r4,r5,6h                                
080218E2 0300     lsl     r0,r0,0Ch                               
080218E4 79D4     ldrb    r4,[r2,7h]                              
080218E6 082D     lsr     r5,r5,20h                               
080218E8 7A84     ldrb    r4,[r0,0Ah]                             
080218EA 082D     lsr     r5,r5,20h                               
080218EC 4817     ldr     r0,=82D7984h                            
080218EE 4281     cmp     r1,r0                                   
080218F0 D107     bne     8021902h                                
080218F2 F7EEF969 bl      800FBC8h                                
080218F6 2800     cmp     r0,0h                                   
080218F8 D003     beq     8021902h                                
080218FA 4815     ldr     r0,=82D7A5Ch                            
080218FC 61A8     str     r0,[r5,18h]                             
080218FE 772C     strb    r4,[r5,1Ch]                             
08021900 82EC     strh    r4,[r5,16h]                             
08021902 4C14     ldr     r4,=3000738h                            
08021904 1C27     mov     r7,r4                                   
08021906 372C     add     r7,2Ch                                  
08021908 7838     ldrb    r0,[r7]                                 
0802190A 3801     sub     r0,1h                                   
0802190C 2500     mov     r5,0h                                   
0802190E 7038     strb    r0,[r7]                                 
08021910 0600     lsl     r0,r0,18h                               
08021912 0E00     lsr     r0,r0,18h                               
08021914 2800     cmp     r0,0h                                   
08021916 D14B     bne     80219B0h                                
08021918 F7EDFFE2 bl      800F8E0h                                
0802191C 480E     ldr     r0,=82D79FCh                            
0802191E 61A0     str     r0,[r4,18h]                             
08021920 7725     strb    r5,[r4,1Ch]                             
08021922 2600     mov     r6,0h                                   
08021924 82E5     strh    r5,[r4,16h]                             
08021926 8821     ldrh    r1,[r4]                                 
08021928 480C     ldr     r0,=0FFDFh                              
0802192A 4008     and     r0,r1                                   
0802192C 8020     strh    r0,[r4]                                 
0802192E 480C     ldr     r0,=19Dh                                
08021930 F7E1F872 bl      8002A18h                                
08021934 1C20     mov     r0,r4                                   
08021936 302A     add     r0,2Ah                                  
08021938 7006     strb    r6,[r0]                                 
0802193A 4640     mov     r0,r8                                   
0802193C 283C     cmp     r0,3Ch                                  
0802193E D111     bne     8021964h                                
08021940 8820     ldrh    r0,[r4]                                 
08021942 2280     mov     r2,80h                                  
08021944 00D2     lsl     r2,r2,3h                                
08021946 1C11     mov     r1,r2                                   
08021948 E01C     b       8021984h                                
0802194A 0000     lsl     r0,r0,0h                                
0802194C 7984     ldrb    r4,[r0,6h]                              
0802194E 082D     lsr     r5,r5,20h                               
08021950 7A5C     ldrb    r4,[r3,9h]                              
08021952 082D     lsr     r5,r5,20h                               
08021954 0738     lsl     r0,r7,1Ch                               
08021956 0300     lsl     r0,r0,0Ch                               
08021958 79FC     ldrb    r4,[r7,7h]                              
0802195A 082D     lsr     r5,r5,20h                               
0802195C FFDF     bl      lr+0FBEh                                
0802195E 0000     lsl     r0,r0,0h                                
08021960 019D     lsl     r5,r3,6h                                
08021962 0000     lsl     r0,r0,0h                                
08021964 88A3     ldrh    r3,[r4,4h]                              
08021966 1C19     mov     r1,r3                                   
08021968 3960     sub     r1,60h                                  
0802196A 4809     ldr     r0,=30013D4h                            
0802196C 8A42     ldrh    r2,[r0,12h]                             
0802196E 1C05     mov     r5,r0                                   
08021970 4291     cmp     r1,r2                                   
08021972 DA0F     bge     8021994h                                
08021974 1C18     mov     r0,r3                                   
08021976 3060     add     r0,60h                                  
08021978 4290     cmp     r0,r2                                   
0802197A DD0B     ble     8021994h                                
0802197C 8820     ldrh    r0,[r4]                                 
0802197E 2380     mov     r3,80h                                  
08021980 00DB     lsl     r3,r3,3h                                
08021982 1C19     mov     r1,r3                                   
08021984 4308     orr     r0,r1                                   
08021986 8020     strh    r0,[r4]                                 
08021988 2008     mov     r0,8h                                   
0802198A 7038     strb    r0,[r7]                                 
0802198C E0AF     b       8021AEEh                                
0802198E 0000     lsl     r0,r0,0h                                
08021990 13D4     asr     r4,r2,0Fh                               
08021992 0300     lsl     r0,r0,0Ch                               
08021994 4905     ldr     r1,=3000738h                            
08021996 1C0A     mov     r2,r1                                   
08021998 322D     add     r2,2Dh                                  
0802199A 2000     mov     r0,0h                                   
0802199C 7010     strb    r0,[r2]                                 
0802199E 3201     add     r2,1h                                   
080219A0 2001     mov     r0,1h                                   
080219A2 7010     strb    r0,[r2]                                 
080219A4 8A68     ldrh    r0,[r5,12h]                             
080219A6 8248     strh    r0,[r1,12h]                             
080219A8 E05E     b       8021A68h                                
080219AA 0000     lsl     r0,r0,0h                                
080219AC 0738     lsl     r0,r7,1Ch                               
080219AE 0300     lsl     r0,r0,0Ch                               
080219B0 2817     cmp     r0,17h                                  
080219B2 D000     beq     80219B6h                                
080219B4 E09B     b       8021AEEh                                
080219B6 69A1     ldr     r1,[r4,18h]                             
080219B8 480C     ldr     r0,=82D7A5Ch                            
080219BA 4281     cmp     r1,r0                                   
080219BC D000     beq     80219C0h                                
080219BE E096     b       8021AEEh                                
080219C0 480B     ldr     r0,=82D79D4h                            
080219C2 61A0     str     r0,[r4,18h]                             
080219C4 7725     strb    r5,[r4,1Ch]                             
080219C6 82E5     strh    r5,[r4,16h]                             
080219C8 2040     mov     r0,40h                                  
080219CA 81A0     strh    r0,[r4,0Ch]                             
080219CC 4809     ldr     r0,=30001ACh                            
080219CE 00F1     lsl     r1,r6,3h                                
080219D0 1B89     sub     r1,r1,r6                                
080219D2 00C9     lsl     r1,r1,3h                                
080219D4 1809     add     r1,r1,r0                                
080219D6 880A     ldrh    r2,[r1]                                 
080219D8 2380     mov     r3,80h                                  
080219DA 021B     lsl     r3,r3,8h                                
080219DC 1C18     mov     r0,r3                                   
080219DE 4310     orr     r0,r2                                   
080219E0 8008     strh    r0,[r1]                                 
080219E2 4805     ldr     r0,=199h                                
080219E4 F7E1F818 bl      8002A18h                                
080219E8 E081     b       8021AEEh                                
080219EA 0000     lsl     r0,r0,0h                                
080219EC 7A5C     ldrb    r4,[r3,9h]                              
080219EE 082D     lsr     r5,r5,20h                               
080219F0 79D4     ldrb    r4,[r2,7h]                              
080219F2 082D     lsr     r5,r5,20h                               
080219F4 01AC     lsl     r4,r5,6h                                
080219F6 0300     lsl     r0,r0,0Ch                               
080219F8 0199     lsl     r1,r3,6h                                
080219FA 0000     lsl     r0,r0,0h                                
080219FC 1C2C     mov     r4,r5                                   
080219FE 69A1     ldr     r1,[r4,18h]                             
08021A00 4808     ldr     r0,=82D79FCh                            
08021A02 4281     cmp     r1,r0                                   
08021A04 D116     bne     8021A34h                                
08021A06 F7EEF8DF bl      800FBC8h                                
08021A0A 2800     cmp     r0,0h                                   
08021A0C D06F     beq     8021AEEh                                
08021A0E 8821     ldrh    r1,[r4]                                 
08021A10 2020     mov     r0,20h                                  
08021A12 4008     and     r0,r1                                   
08021A14 2800     cmp     r0,0h                                   
08021A16 D009     beq     8021A2Ch                                
08021A18 4803     ldr     r0,=82D7A44h                            
08021A1A 61A0     str     r0,[r4,18h]                             
08021A1C 2000     mov     r0,0h                                   
08021A1E 7720     strb    r0,[r4,1Ch]                             
08021A20 82E0     strh    r0,[r4,16h]                             
08021A22 E064     b       8021AEEh                                
08021A24 79FC     ldrb    r4,[r7,7h]                              
08021A26 082D     lsr     r5,r5,20h                               
08021A28 7A44     ldrb    r4,[r0,9h]                              
08021A2A 082D     lsr     r5,r5,20h                               
08021A2C 2020     mov     r0,20h                                  
08021A2E 4308     orr     r0,r1                                   
08021A30 8020     strh    r0,[r4]                                 
08021A32 E05C     b       8021AEEh                                
08021A34 8821     ldrh    r1,[r4]                                 
08021A36 2080     mov     r0,80h                                  
08021A38 00C0     lsl     r0,r0,3h                                
08021A3A 4008     and     r0,r1                                   
08021A3C 2800     cmp     r0,0h                                   
08021A3E D018     beq     8021A72h                                
08021A40 25FA     mov     r5,0FAh                                 
08021A42 006D     lsl     r5,r5,1h                                
08021A44 220C     mov     r2,0Ch                                  
08021A46 4640     mov     r0,r8                                   
08021A48 283C     cmp     r0,3Ch                                  
08021A4A D100     bne     8021A4Eh                                
08021A4C 2208     mov     r2,8h                                   
08021A4E 1C23     mov     r3,r4                                   
08021A50 332C     add     r3,2Ch                                  
08021A52 7819     ldrb    r1,[r3]                                 
08021A54 2900     cmp     r1,0h                                   
08021A56 D013     beq     8021A80h                                
08021A58 8860     ldrh    r0,[r4,2h]                              
08021A5A 1A80     sub     r0,r0,r2                                
08021A5C 8060     strh    r0,[r4,2h]                              
08021A5E 1E48     sub     r0,r1,1                                 
08021A60 7018     strb    r0,[r3]                                 
08021A62 0600     lsl     r0,r0,18h                               
08021A64 2800     cmp     r0,0h                                   
08021A66 D142     bne     8021AEEh                                
08021A68 2014     mov     r0,14h                                  
08021A6A 2181     mov     r1,81h                                  
08021A6C F033FC6A bl      8055344h                                
08021A70 E03D     b       8021AEEh                                
08021A72 8A69     ldrh    r1,[r5,12h]                             
08021A74 2014     mov     r0,14h                                  
08021A76 F7FFF98B bl      8020D90h                                
08021A7A 25E8     mov     r5,0E8h                                 
08021A7C 006D     lsl     r5,r5,1h                                
08021A7E 2208     mov     r2,8h                                   
08021A80 4B0A     ldr     r3,=3000738h                            
08021A82 8859     ldrh    r1,[r3,2h]                              
08021A84 88D8     ldrh    r0,[r3,6h]                              
08021A86 1940     add     r0,r0,r5                                
08021A88 4281     cmp     r1,r0                                   
08021A8A DA16     bge     8021ABAh                                
08021A8C 1850     add     r0,r2,r1                                
08021A8E 8058     strh    r0,[r3,2h]                              
08021A90 1C19     mov     r1,r3                                   
08021A92 312A     add     r1,2Ah                                  
08021A94 7808     ldrb    r0,[r1]                                 
08021A96 2800     cmp     r0,0h                                   
08021A98 D129     bne     8021AEEh                                
08021A9A 3001     add     r0,1h                                   
08021A9C 7008     strb    r0,[r1]                                 
08021A9E 2A08     cmp     r2,8h                                   
08021AA0 D906     bls     8021AB0h                                
08021AA2 20CA     mov     r0,0CAh                                 
08021AA4 0040     lsl     r0,r0,1h                                
08021AA6 F7E0FFB7 bl      8002A18h                                
08021AAA E020     b       8021AEEh                                
08021AAC 0738     lsl     r0,r7,1Ch                               
08021AAE 0300     lsl     r0,r0,0Ch                               
08021AB0 20CF     mov     r0,0CFh                                 
08021AB2 0040     lsl     r0,r0,1h                                
08021AB4 F7E0FFB0 bl      8002A18h                                
08021AB8 E019     b       8021AEEh                                
08021ABA 1C19     mov     r1,r3                                   
08021ABC 3124     add     r1,24h                                  
08021ABE 2200     mov     r2,0h                                   
08021AC0 2027     mov     r0,27h                                  
08021AC2 7008     strb    r0,[r1]                                 
08021AC4 3108     add     r1,8h                                   
08021AC6 201E     mov     r0,1Eh                                  
08021AC8 7008     strb    r0,[r1]                                 
08021ACA 480B     ldr     r0,=82D7984h                            
08021ACC 6198     str     r0,[r3,18h]                             
08021ACE 771A     strb    r2,[r3,1Ch]                             
08021AD0 82DA     strh    r2,[r3,16h]                             
08021AD2 819A     strh    r2,[r3,0Ch]                             
08021AD4 4809     ldr     r0,=30001ACh                            
08021AD6 00F1     lsl     r1,r6,3h                                
08021AD8 1B89     sub     r1,r1,r6                                
08021ADA 00C9     lsl     r1,r1,3h                                
08021ADC 1809     add     r1,r1,r0                                
08021ADE 880A     ldrh    r2,[r1]                                 
08021AE0 4807     ldr     r0,=7FFFh                               
08021AE2 4010     and     r0,r2                                   
08021AE4 8008     strh    r0,[r1]                                 
08021AE6 20CC     mov     r0,0CCh                                 
08021AE8 0040     lsl     r0,r0,1h                                
08021AEA F7E0FF95 bl      8002A18h                                
08021AEE BC08     pop     r3                                      
08021AF0 4698     mov     r8,r3                                   
08021AF2 BCF0     pop     r4-r7                                   
08021AF4 BC01     pop     r0                                      
08021AF6 4700     bx      r0                                      
08021AF8 7984     ldrb    r4,[r0,6h]                              
08021AFA 082D     lsr     r5,r5,20h                               
08021AFC 01AC     lsl     r4,r5,6h                                
08021AFE 0300     lsl     r0,r0,0Ch                               
08021B00 7FFF     ldrb    r7,[r7,1Fh]                             
08021B02 0000     lsl     r0,r0,0h                                
08021B04 B530     push    r4,r5,r14                               
08021B06 4C1C     ldr     r4,=3000738h                            
08021B08 1C20     mov     r0,r4                                   
08021B0A 302F     add     r0,2Fh                                  
08021B0C 7800     ldrb    r0,[r0]                                 
08021B0E 1C02     mov     r2,r0                                   
08021B10 491A     ldr     r1,=30001ACh                            
08021B12 00D0     lsl     r0,r2,3h                                
08021B14 1A80     sub     r0,r0,r2                                
08021B16 00C0     lsl     r0,r0,3h                                
08021B18 1840     add     r0,r0,r1                                
08021B1A 8A85     ldrh    r5,[r0,14h]                             
08021B1C 1C20     mov     r0,r4                                   
08021B1E 302C     add     r0,2Ch                                  
08021B20 7800     ldrb    r0,[r0]                                 
08021B22 2800     cmp     r0,0h                                   
08021B24 D042     beq     8021BACh                                
08021B26 69A1     ldr     r1,[r4,18h]                             
08021B28 4815     ldr     r0,=82D7984h                            
08021B2A 4281     cmp     r1,r0                                   
08021B2C D10C     bne     8021B48h                                
08021B2E F7EEF84B bl      800FBC8h                                
08021B32 2800     cmp     r0,0h                                   
08021B34 D008     beq     8021B48h                                
08021B36 4813     ldr     r0,=82D7A5Ch                            
08021B38 61A0     str     r0,[r4,18h]                             
08021B3A 2000     mov     r0,0h                                   
08021B3C 7720     strb    r0,[r4,1Ch]                             
08021B3E 82E0     strh    r0,[r4,16h]                             
08021B40 4811     ldr     r0,=0FF70h                              
08021B42 81E0     strh    r0,[r4,0Eh]                             
08021B44 2090     mov     r0,90h                                  
08021B46 8220     strh    r0,[r4,10h]                             
08021B48 4A0B     ldr     r2,=3000738h                            
08021B4A 1C11     mov     r1,r2                                   
08021B4C 312C     add     r1,2Ch                                  
08021B4E 7808     ldrb    r0,[r1]                                 
08021B50 3801     sub     r0,1h                                   
08021B52 7008     strb    r0,[r1]                                 
08021B54 0600     lsl     r0,r0,18h                               
08021B56 0E00     lsr     r0,r0,18h                               
08021B58 2818     cmp     r0,18h                                  
08021B5A D919     bls     8021B90h                                
08021B5C 8811     ldrh    r1,[r2]                                 
08021B5E 2080     mov     r0,80h                                  
08021B60 00C0     lsl     r0,r0,3h                                
08021B62 4008     and     r0,r1                                   
08021B64 2800     cmp     r0,0h                                   
08021B66 D000     beq     8021B6Ah                                
08021B68 E07E     b       8021C68h                                
08021B6A 4808     ldr     r0,=30013D4h                            
08021B6C 8A41     ldrh    r1,[r0,12h]                             
08021B6E 2010     mov     r0,10h                                  
08021B70 F7FFF90E bl      8020D90h                                
08021B74 E078     b       8021C68h                                
08021B76 0000     lsl     r0,r0,0h                                
08021B78 0738     lsl     r0,r7,1Ch                               
08021B7A 0300     lsl     r0,r0,0Ch                               
08021B7C 01AC     lsl     r4,r5,6h                                
08021B7E 0300     lsl     r0,r0,0Ch                               
08021B80 7984     ldrb    r4,[r0,6h]                              
08021B82 082D     lsr     r5,r5,20h                               
08021B84 7A5C     ldrb    r4,[r3,9h]                              
08021B86 082D     lsr     r5,r5,20h                               
08021B88 FF70     bl      lr+0EE0h                                
08021B8A 0000     lsl     r0,r0,0h                                
08021B8C 13D4     asr     r4,r2,0Fh                               
08021B8E 0300     lsl     r0,r0,0Ch                               
08021B90 2800     cmp     r0,0h                                   
08021B92 D169     bne     8021C68h                                
08021B94 8810     ldrh    r0,[r2]                                 
08021B96 4903     ldr     r1,=0FBFFh                              
08021B98 4001     and     r1,r0                                   
08021B9A 8011     strh    r1,[r2]                                 
08021B9C 4802     ldr     r0,=195h                                
08021B9E F7E0FF3B bl      8002A18h                                
08021BA2 E061     b       8021C68h                                
08021BA4 FBFF     bl      lr+7FEh                                 
08021BA6 0000     lsl     r0,r0,0h                                
08021BA8 0195     lsl     r5,r2,6h                                
08021BAA 0000     lsl     r0,r0,0h                                
08021BAC 8860     ldrh    r0,[r4,2h]                              
08021BAE 3808     sub     r0,8h                                   
08021BB0 8060     strh    r0,[r4,2h]                              
08021BB2 8861     ldrh    r1,[r4,2h]                              
08021BB4 88E0     ldrh    r0,[r4,6h]                              
08021BB6 30A0     add     r0,0A0h                                 
08021BB8 4281     cmp     r1,r0                                   
08021BBA DA55     bge     8021C68h                                
08021BBC 4812     ldr     r0,=0FFA0h                              
08021BBE 81E0     strh    r0,[r4,0Eh]                             
08021BC0 2060     mov     r0,60h                                  
08021BC2 8220     strh    r0,[r4,10h]                             
08021BC4 88E0     ldrh    r0,[r4,6h]                              
08021BC6 30A0     add     r0,0A0h                                 
08021BC8 8060     strh    r0,[r4,2h]                              
08021BCA 1C10     mov     r0,r2                                   
08021BCC F7FFFA2C bl      8021028h                                
08021BD0 0600     lsl     r0,r0,18h                               
08021BD2 2800     cmp     r0,0h                                   
08021BD4 D148     bne     8021C68h                                
08021BD6 2D3C     cmp     r5,3Ch                                  
08021BD8 D005     beq     8021BE6h                                
08021BDA 480C     ldr     r0,=300083Ch                            
08021BDC 7800     ldrb    r0,[r0]                                 
08021BDE 280A     cmp     r0,0Ah                                  
08021BE0 D801     bhi     8021BE6h                                
08021BE2 2D14     cmp     r5,14h                                  
08021BE4 D83A     bhi     8021C5Ch                                
08021BE6 480A     ldr     r0,=300080Ch                            
08021BE8 8880     ldrh    r0,[r0,4h]                              
08021BEA 2800     cmp     r0,0h                                   
08021BEC D018     beq     8021C20h                                
08021BEE 4A09     ldr     r2,=3000738h                            
08021BF0 8910     ldrh    r0,[r2,8h]                              
08021BF2 4909     ldr     r1,=0FFFFFE60h                          
08021BF4 1840     add     r0,r0,r1                                
08021BF6 4909     ldr     r1,=30013D4h                            
08021BF8 8A49     ldrh    r1,[r1,12h]                             
08021BFA 4288     cmp     r0,r1                                   
08021BFC DC22     bgt     8021C44h                                
08021BFE 1C11     mov     r1,r2                                   
08021C00 3124     add     r1,24h                                  
08021C02 2028     mov     r0,28h                                  
08021C04 E021     b       8021C4Ah                                
08021C06 0000     lsl     r0,r0,0h                                
08021C08 FFA0     bl      lr+0F40h                                
08021C0A 0000     lsl     r0,r0,0h                                
08021C0C 083C     lsr     r4,r7,20h                               
08021C0E 0300     lsl     r0,r0,0Ch                               
08021C10 080C     lsr     r4,r1,20h                               
08021C12 0300     lsl     r0,r0,0Ch                               
08021C14 0738     lsl     r0,r7,1Ch                               
08021C16 0300     lsl     r0,r0,0Ch                               
08021C18 FE60     bl      lr+0CC0h                                
08021C1A FFFF     bl      lr+0FFEh                                
08021C1C 13D4     asr     r4,r2,0Fh                               
08021C1E 0300     lsl     r0,r0,0Ch                               
08021C20 4A06     ldr     r2,=3000738h                            
08021C22 8910     ldrh    r0,[r2,8h]                              
08021C24 21D0     mov     r1,0D0h                                 
08021C26 0049     lsl     r1,r1,1h                                
08021C28 1840     add     r0,r0,r1                                
08021C2A 4905     ldr     r1,=30013D4h                            
08021C2C 8A49     ldrh    r1,[r1,12h]                             
08021C2E 4288     cmp     r0,r1                                   
08021C30 DD08     ble     8021C44h                                
08021C32 1C11     mov     r1,r2                                   
08021C34 3124     add     r1,24h                                  
08021C36 2028     mov     r0,28h                                  
08021C38 E007     b       8021C4Ah                                
08021C3A 0000     lsl     r0,r0,0h                                
08021C3C 0738     lsl     r0,r7,1Ch                               
08021C3E 0300     lsl     r0,r0,0Ch                               
08021C40 13D4     asr     r4,r2,0Fh                               
08021C42 0300     lsl     r0,r0,0Ch                               
08021C44 1C11     mov     r1,r2                                   
08021C46 3124     add     r1,24h                                  
08021C48 2029     mov     r0,29h                                  
08021C4A 7008     strb    r0,[r1]                                 
08021C4C 1C11     mov     r1,r2                                   
08021C4E 312C     add     r1,2Ch                                  
08021C50 20FF     mov     r0,0FFh                                 
08021C52 7008     strb    r0,[r1]                                 
08021C54 3902     sub     r1,2h                                   
08021C56 2000     mov     r0,0h                                   
08021C58 7008     strb    r0,[r1]                                 
08021C5A E005     b       8021C68h                                
08021C5C 1C21     mov     r1,r4                                   
08021C5E 3124     add     r1,24h                                  
08021C60 2026     mov     r0,26h                                  
08021C62 7008     strb    r0,[r1]                                 
08021C64 F7FFFA36 bl      80210D4h                                
08021C68 BC30     pop     r4,r5                                   
08021C6A BC01     pop     r0                                      
08021C6C 4700     bx      r0                                      
08021C6E 0000     lsl     r0,r0,0h                                
08021C70 B5F0     push    r4-r7,r14                               
08021C72 464F     mov     r7,r9                                   
08021C74 4646     mov     r6,r8                                   
08021C76 B4C0     push    r6,r7                                   
08021C78 4A23     ldr     r2,=3000738h                            
08021C7A 1C10     mov     r0,r2                                   
08021C7C 302F     add     r0,2Fh                                  
08021C7E 7806     ldrb    r6,[r0]                                 
08021C80 4922     ldr     r1,=30001ACh                            
08021C82 00F0     lsl     r0,r6,3h                                
08021C84 1B80     sub     r0,r0,r6                                
08021C86 00C0     lsl     r0,r0,3h                                
08021C88 1840     add     r0,r0,r1                                
08021C8A 8A83     ldrh    r3,[r0,14h]                             
08021C8C 1C11     mov     r1,r2                                   
08021C8E 312C     add     r1,2Ch                                  
08021C90 7808     ldrb    r0,[r1]                                 
08021C92 3801     sub     r0,1h                                   
08021C94 7008     strb    r0,[r1]                                 
08021C96 20E6     mov     r0,0E6h                                 
08021C98 4680     mov     r8,r0                                   
08021C9A 4691     mov     r9,r2                                   
08021C9C 2B14     cmp     r3,14h                                  
08021C9E D905     bls     8021CACh                                
08021CA0 211E     mov     r1,1Eh                                  
08021CA2 4688     mov     r8,r1                                   
08021CA4 2B28     cmp     r3,28h                                  
08021CA6 D801     bhi     8021CACh                                
08021CA8 23D2     mov     r3,0D2h                                 
08021CAA 4698     mov     r8,r3                                   
08021CAC 464C     mov     r4,r9                                   
08021CAE 1C25     mov     r5,r4                                   
08021CB0 352A     add     r5,2Ah                                  
08021CB2 7829     ldrb    r1,[r5]                                 
08021CB4 200F     mov     r0,0Fh                                  
08021CB6 4008     and     r0,r1                                   
08021CB8 2800     cmp     r0,0h                                   
08021CBA D103     bne     8021CC4h                                
08021CBC 20CB     mov     r0,0CBh                                 
08021CBE 0040     lsl     r0,r0,1h                                
08021CC0 F7E0FEAA bl      8002A18h                                
08021CC4 7828     ldrb    r0,[r5]                                 
08021CC6 3001     add     r0,1h                                   
08021CC8 2700     mov     r7,0h                                   
08021CCA 7028     strb    r0,[r5]                                 
08021CCC 1C20     mov     r0,r4                                   
08021CCE 302C     add     r0,2Ch                                  
08021CD0 7800     ldrb    r0,[r0]                                 
08021CD2 4540     cmp     r0,r8                                   
08021CD4 D23A     bcs     8021D4Ch                                
08021CD6 69A1     ldr     r1,[r4,18h]                             
08021CD8 480D     ldr     r0,=82D7A5Ch                            
08021CDA 4281     cmp     r1,r0                                   
08021CDC D11E     bne     8021D1Ch                                
08021CDE 480D     ldr     r0,=82D79D4h                            
08021CE0 61A0     str     r0,[r4,18h]                             
08021CE2 7727     strb    r7,[r4,1Ch]                             
08021CE4 82E7     strh    r7,[r4,16h]                             
08021CE6 2040     mov     r0,40h                                  
08021CE8 81A0     strh    r0,[r4,0Ch]                             
08021CEA 4808     ldr     r0,=30001ACh                            
08021CEC 00F1     lsl     r1,r6,3h                                
08021CEE 1B89     sub     r1,r1,r6                                
08021CF0 00C9     lsl     r1,r1,3h                                
08021CF2 1809     add     r1,r1,r0                                
08021CF4 880A     ldrh    r2,[r1]                                 
08021CF6 2380     mov     r3,80h                                  
08021CF8 021B     lsl     r3,r3,8h                                
08021CFA 1C18     mov     r0,r3                                   
08021CFC 4310     orr     r0,r2                                   
08021CFE 8008     strh    r0,[r1]                                 
08021D00 4805     ldr     r0,=199h                                
08021D02 F7E0FE89 bl      8002A18h                                
08021D06 E015     b       8021D34h                                
08021D08 0738     lsl     r0,r7,1Ch                               
08021D0A 0300     lsl     r0,r0,0Ch                               
08021D0C 01AC     lsl     r4,r5,6h                                
08021D0E 0300     lsl     r0,r0,0Ch                               
08021D10 7A5C     ldrb    r4,[r3,9h]                              
08021D12 082D     lsr     r5,r5,20h                               
08021D14 79D4     ldrb    r4,[r2,7h]                              
08021D16 082D     lsr     r5,r5,20h                               
08021D18 0199     lsl     r1,r3,6h                                
08021D1A 0000     lsl     r0,r0,0h                                
08021D1C 480E     ldr     r0,=82D79D4h                            
08021D1E 4281     cmp     r1,r0                                   
08021D20 D108     bne     8021D34h                                
08021D22 F7EDFF51 bl      800FBC8h                                
08021D26 2800     cmp     r0,0h                                   
08021D28 D004     beq     8021D34h                                
08021D2A 480C     ldr     r0,=82D7A84h                            
08021D2C 4649     mov     r1,r9                                   
08021D2E 6188     str     r0,[r1,18h]                             
08021D30 770F     strb    r7,[r1,1Ch]                             
08021D32 82CF     strh    r7,[r1,16h]                             
08021D34 490A     ldr     r1,=3000738h                            
08021D36 1C0A     mov     r2,r1                                   
08021D38 322C     add     r2,2Ch                                  
08021D3A 7810     ldrb    r0,[r2]                                 
08021D3C 2800     cmp     r0,0h                                   
08021D3E D105     bne     8021D4Ch                                
08021D40 1C08     mov     r0,r1                                   
08021D42 3024     add     r0,24h                                  
08021D44 212A     mov     r1,2Ah                                  
08021D46 7001     strb    r1,[r0]                                 
08021D48 203C     mov     r0,3Ch                                  
08021D4A 7010     strb    r0,[r2]                                 
08021D4C BC18     pop     r3,r4                                   
08021D4E 4698     mov     r8,r3                                   
08021D50 46A1     mov     r9,r4                                   
08021D52 BCF0     pop     r4-r7                                   
08021D54 BC01     pop     r0                                      
08021D56 4700     bx      r0                                      
08021D58 79D4     ldrb    r4,[r2,7h]                              
08021D5A 082D     lsr     r5,r5,20h                               
08021D5C 7A84     ldrb    r4,[r0,0Ah]                             
08021D5E 082D     lsr     r5,r5,20h                               
08021D60 0738     lsl     r0,r7,1Ch                               
08021D62 0300     lsl     r0,r0,0Ch                               
08021D64 B510     push    r4,r14                                  
08021D66 4C0F     ldr     r4,=3000738h                            
08021D68 69A1     ldr     r1,[r4,18h]                             
08021D6A 480F     ldr     r0,=82D79D4h                            
08021D6C 4281     cmp     r1,r0                                   
08021D6E D108     bne     8021D82h                                
08021D70 F7EDFF2A bl      800FBC8h                                
08021D74 2800     cmp     r0,0h                                   
08021D76 D004     beq     8021D82h                                
08021D78 480C     ldr     r0,=82D7A84h                            
08021D7A 61A0     str     r0,[r4,18h]                             
08021D7C 2000     mov     r0,0h                                   
08021D7E 7720     strb    r0,[r4,1Ch]                             
08021D80 82E0     strh    r0,[r4,16h]                             
08021D82 4A08     ldr     r2,=3000738h                            
08021D84 1C11     mov     r1,r2                                   
08021D86 312C     add     r1,2Ch                                  
08021D88 7808     ldrb    r0,[r1]                                 
08021D8A 3801     sub     r0,1h                                   
08021D8C 7008     strb    r0,[r1]                                 
08021D8E 0600     lsl     r0,r0,18h                               
08021D90 2800     cmp     r0,0h                                   
08021D92 D104     bne     8021D9Eh                                
08021D94 3908     sub     r1,8h                                   
08021D96 2026     mov     r0,26h                                  
08021D98 7008     strb    r0,[r1]                                 
08021D9A F7FFF99B bl      80210D4h                                
08021D9E BC10     pop     r4                                      
08021DA0 BC01     pop     r0                                      
08021DA2 4700     bx      r0                                      
08021DA4 0738     lsl     r0,r7,1Ch                               
08021DA6 0300     lsl     r0,r0,0Ch                               
08021DA8 79D4     ldrb    r4,[r2,7h]                              
08021DAA 082D     lsr     r5,r5,20h                               
08021DAC 7A84     ldrb    r4,[r0,0Ah]                             
08021DAE 082D     lsr     r5,r5,20h                               
08021DB0 B530     push    r4,r5,r14                               
08021DB2 4D19     ldr     r5,=3000738h                            
08021DB4 4819     ldr     r0,=82D7AACh                            
08021DB6 61A8     str     r0,[r5,18h]                             
08021DB8 2000     mov     r0,0h                                   
08021DBA 7728     strb    r0,[r5,1Ch]                             
08021DBC 2400     mov     r4,0h                                   
08021DBE 82E8     strh    r0,[r5,16h]                             
08021DC0 1C29     mov     r1,r5                                   
08021DC2 3124     add     r1,24h                                  
08021DC4 2067     mov     r0,67h                                  
08021DC6 7008     strb    r0,[r1]                                 
08021DC8 1C2A     mov     r2,r5                                   
08021DCA 322B     add     r2,2Bh                                  
08021DCC 7811     ldrb    r1,[r2]                                 
08021DCE 2070     mov     r0,70h                                  
08021DD0 4308     orr     r0,r1                                   
08021DD2 7010     strb    r0,[r2]                                 
08021DD4 2001     mov     r0,1h                                   
08021DD6 F7FEFF51 bl      8020C7Ch                                
08021DDA 2001     mov     r0,1h                                   
08021DDC F7FEFF90 bl      8020D00h                                
08021DE0 480F     ldr     r0,=3000100h                            
08021DE2 7004     strb    r4,[r0]                                 
08021DE4 2001     mov     r0,1h                                   
08021DE6 2119     mov     r1,19h                                  
08021DE8 F03EFD68 bl      80608BCh                                
08021DEC 2001     mov     r0,1h                                   
08021DEE 211A     mov     r1,1Ah                                  
08021DF0 F03EFD64 bl      80608BCh                                
08021DF4 7F68     ldrb    r0,[r5,1Dh]                             
08021DF6 2843     cmp     r0,43h                                  
08021DF8 D103     bne     8021E02h                                
08021DFA 2001     mov     r0,1h                                   
08021DFC 211B     mov     r1,1Bh                                  
08021DFE F03EFD5D bl      80608BCh                                
08021E02 4808     ldr     r0,=19Bh                                
08021E04 F7E0FE08 bl      8002A18h                                
08021E08 2032     mov     r0,32h                                  
08021E0A 2101     mov     r1,1h                                   
08021E0C 2200     mov     r2,0h                                   
08021E0E F7E1FE8F bl      8003B30h                                
08021E12 BC30     pop     r4,r5                                   
08021E14 BC01     pop     r0                                      
08021E16 4700     bx      r0                                      
08021E18 0738     lsl     r0,r7,1Ch                               
08021E1A 0300     lsl     r0,r0,0Ch                               
08021E1C 7AAC     ldrb    r4,[r5,0Ah]                             
08021E1E 082D     lsr     r5,r5,20h                               
08021E20 0100     lsl     r0,r0,4h                                
08021E22 0300     lsl     r0,r0,0Ch                               
08021E24 019B     lsl     r3,r3,6h                                
08021E26 0000     lsl     r0,r0,0h                                
08021E28 B500     push    r14                                     
08021E2A 4A07     ldr     r2,=3000738h                            
08021E2C 1C11     mov     r1,r2                                   
08021E2E 3126     add     r1,26h                                  
08021E30 2001     mov     r0,1h                                   
08021E32 7008     strb    r0,[r1]                                 
08021E34 8851     ldrh    r1,[r2,2h]                              
08021E36 88D0     ldrh    r0,[r2,6h]                              
08021E38 23E8     mov     r3,0E8h                                 
08021E3A 005B     lsl     r3,r3,1h                                
08021E3C 18C0     add     r0,r0,r3                                
08021E3E 4281     cmp     r1,r0                                   
08021E40 DA04     bge     8021E4Ch                                
08021E42 1D08     add     r0,r1,4                                 
08021E44 8050     strh    r0,[r2,2h]                              
08021E46 E013     b       8021E70h                                
08021E48 0738     lsl     r0,r7,1Ch                               
08021E4A 0300     lsl     r0,r0,0Ch                               
08021E4C 1C11     mov     r1,r2                                   
08021E4E 3124     add     r1,24h                                  
08021E50 2068     mov     r0,68h                                  
08021E52 7008     strb    r0,[r1]                                 
08021E54 3108     add     r1,8h                                   
08021E56 203C     mov     r0,3Ch                                  
08021E58 7008     strb    r0,[r1]                                 
08021E5A 1C13     mov     r3,r2                                   
08021E5C 332B     add     r3,2Bh                                  
08021E5E 7819     ldrb    r1,[r3]                                 
08021E60 2080     mov     r0,80h                                  
08021E62 4008     and     r0,r1                                   
08021E64 7018     strb    r0,[r3]                                 
08021E66 1C10     mov     r0,r2                                   
08021E68 3034     add     r0,34h                                  
08021E6A 7801     ldrb    r1,[r0]                                 
08021E6C 3814     sub     r0,14h                                  
08021E6E 7001     strb    r1,[r0]                                 
08021E70 BC01     pop     r0                                      
08021E72 4700     bx      r0                                      
08021E74 B500     push    r14                                     
08021E76 B081     add     sp,-4h                                  
08021E78 4A0B     ldr     r2,=3000738h                            
08021E7A 1C11     mov     r1,r2                                   
08021E7C 3126     add     r1,26h                                  
08021E7E 2001     mov     r0,1h                                   
08021E80 7008     strb    r0,[r1]                                 
08021E82 3106     add     r1,6h                                   
08021E84 7808     ldrb    r0,[r1]                                 
08021E86 3801     sub     r0,1h                                   
08021E88 7008     strb    r0,[r1]                                 
08021E8A 0600     lsl     r0,r0,18h                               
08021E8C 2800     cmp     r0,0h                                   
08021E8E D108     bne     8021EA2h                                
08021E90 8851     ldrh    r1,[r2,2h]                              
08021E92 8892     ldrh    r2,[r2,4h]                              
08021E94 3240     add     r2,40h                                  
08021E96 2022     mov     r0,22h                                  
08021E98 9000     str     r0,[sp]                                 
08021E9A 2000     mov     r0,0h                                   
08021E9C 2300     mov     r3,0h                                   
08021E9E F7EFF8F1 bl      8011084h                                
08021EA2 B001     add     sp,4h                                   
08021EA4 BC01     pop     r0                                      
08021EA6 4700     bx      r0                                      
08021EA8 0738     lsl     r0,r7,1Ch                               
08021EAA 0300     lsl     r0,r0,0Ch                               
08021EAC B510     push    r4,r14                                  
08021EAE 4C09     ldr     r4,=3000738h                            
08021EB0 69A1     ldr     r1,[r4,18h]                             
08021EB2 4809     ldr     r0,=82D79D4h                            
08021EB4 4281     cmp     r1,r0                                   
08021EB6 D002     beq     8021EBEh                                
08021EB8 4808     ldr     r0,=82D7A84h                            
08021EBA 4281     cmp     r1,r0                                   
08021EBC D112     bne     8021EE4h                                
08021EBE F7EDFE83 bl      800FBC8h                                
08021EC2 2800     cmp     r0,0h                                   
08021EC4 D01C     beq     8021F00h                                
08021EC6 4806     ldr     r0,=82D795Ch                            
08021EC8 61A0     str     r0,[r4,18h]                             
08021ECA 2000     mov     r0,0h                                   
08021ECC 7720     strb    r0,[r4,1Ch]                             
08021ECE 82E0     strh    r0,[r4,16h]                             
08021ED0 E016     b       8021F00h                                
08021ED2 0000     lsl     r0,r0,0h                                
08021ED4 0738     lsl     r0,r7,1Ch                               
08021ED6 0300     lsl     r0,r0,0Ch                               
08021ED8 79D4     ldrb    r4,[r2,7h]                              
08021EDA 082D     lsr     r5,r5,20h                               
08021EDC 7A84     ldrb    r4,[r0,0Ah]                             
08021EDE 082D     lsr     r5,r5,20h                               
08021EE0 795C     ldrb    r4,[r3,5h]                              
08021EE2 082D     lsr     r5,r5,20h                               
08021EE4 4808     ldr     r0,=82D795Ch                            
08021EE6 4281     cmp     r1,r0                                   
08021EE8 D10A     bne     8021F00h                                
08021EEA 1C21     mov     r1,r4                                   
08021EEC 3124     add     r1,24h                                  
08021EEE 2200     mov     r2,0h                                   
08021EF0 2043     mov     r0,43h                                  
08021EF2 7008     strb    r0,[r1]                                 
08021EF4 3108     add     r1,8h                                   
08021EF6 203C     mov     r0,3Ch                                  
08021EF8 7008     strb    r0,[r1]                                 
08021EFA 1C20     mov     r0,r4                                   
08021EFC 302A     add     r0,2Ah                                  
08021EFE 7002     strb    r2,[r0]                                 
08021F00 BC10     pop     r4                                      
08021F02 BC01     pop     r0                                      
08021F04 4700     bx      r0                                      
08021F06 0000     lsl     r0,r0,0h                                
08021F08 795C     ldrb    r4,[r3,5h]                              
08021F0A 082D     lsr     r5,r5,20h                               
08021F0C B5F0     push    r4-r7,r14                               
08021F0E 4657     mov     r7,r10                                  
08021F10 464E     mov     r6,r9                                   
08021F12 4645     mov     r5,r8                                   
08021F14 B4E0     push    r5-r7                                   
08021F16 B083     add     sp,-0Ch                                 
08021F18 4904     ldr     r1,=3000738h                            
08021F1A 884A     ldrh    r2,[r1,2h]                              
08021F1C 88C8     ldrh    r0,[r1,6h]                              
08021F1E 3840     sub     r0,40h                                  
08021F20 1C0F     mov     r7,r1                                   
08021F22 4282     cmp     r2,r0                                   
08021F24 DD04     ble     8021F30h                                
08021F26 1F10     sub     r0,r2,4                                 
08021F28 8078     strh    r0,[r7,2h]                              
08021F2A E0A6     b       802207Ah                                
08021F2C 0738     lsl     r0,r7,1Ch                               
08021F2E 0300     lsl     r0,r0,0Ch                               
08021F30 2300     mov     r3,0h                                   
08021F32 4C21     ldr     r4,=30001ACh                            
08021F34 00D8     lsl     r0,r3,3h                                
08021F36 1AC0     sub     r0,r0,r3                                
08021F38 00C0     lsl     r0,r0,3h                                
08021F3A 1902     add     r2,r0,r4                                
08021F3C 8811     ldrh    r1,[r2]                                 
08021F3E 2001     mov     r0,1h                                   
08021F40 4008     and     r0,r1                                   
08021F42 2800     cmp     r0,0h                                   
08021F44 D00D     beq     8021F62h                                
08021F46 1C10     mov     r0,r2                                   
08021F48 3032     add     r0,32h                                  
08021F4A 7801     ldrb    r1,[r0]                                 
08021F4C 2080     mov     r0,80h                                  
08021F4E 4008     and     r0,r1                                   
08021F50 2800     cmp     r0,0h                                   
08021F52 D106     bne     8021F62h                                
08021F54 7F50     ldrb    r0,[r2,1Dh]                             
08021F56 381A     sub     r0,1Ah                                  
08021F58 0600     lsl     r0,r0,18h                               
08021F5A 0E00     lsr     r0,r0,18h                               
08021F5C 2804     cmp     r0,4h                                   
08021F5E D800     bhi     8021F62h                                
08021F60 E08B     b       802207Ah                                
08021F62 1C58     add     r0,r3,1                                 
08021F64 0600     lsl     r0,r0,18h                               
08021F66 0E03     lsr     r3,r0,18h                               
08021F68 2B17     cmp     r3,17h                                  
08021F6A D9E3     bls     8021F34h                                
08021F6C 1C3C     mov     r4,r7                                   
08021F6E 342C     add     r4,2Ch                                  
08021F70 7820     ldrb    r0,[r4]                                 
08021F72 4682     mov     r10,r0                                  
08021F74 2800     cmp     r0,0h                                   
08021F76 D023     beq     8021FC0h                                
08021F78 1C02     mov     r2,r0                                   
08021F7A 4B10     ldr     r3,=300080Ch                            
08021F7C 8818     ldrh    r0,[r3]                                 
08021F7E 3820     sub     r0,20h                                  
08021F80 0400     lsl     r0,r0,10h                               
08021F82 0C00     lsr     r0,r0,10h                               
08021F84 25D0     mov     r5,0D0h                                 
08021F86 006D     lsl     r5,r5,1h                                
08021F88 1C29     mov     r1,r5                                   
08021F8A 885B     ldrh    r3,[r3,2h]                              
08021F8C 18C9     add     r1,r1,r3                                
08021F8E 0409     lsl     r1,r1,10h                               
08021F90 0C09     lsr     r1,r1,10h                               
08021F92 F7FEFFF5 bl      8020F80h                                
08021F96 7820     ldrb    r0,[r4]                                 
08021F98 3801     sub     r0,1h                                   
08021F9A 7020     strb    r0,[r4]                                 
08021F9C 0600     lsl     r0,r0,18h                               
08021F9E 0E03     lsr     r3,r0,18h                               
08021FA0 2B00     cmp     r3,0h                                   
08021FA2 D16A     bne     802207Ah                                
08021FA4 4A04     ldr     r2,=30001ACh                            
08021FA6 1C38     mov     r0,r7                                   
08021FA8 302F     add     r0,2Fh                                  
08021FAA 7801     ldrb    r1,[r0]                                 
08021FAC 00C8     lsl     r0,r1,3h                                
08021FAE 1A40     sub     r0,r0,r1                                
08021FB0 00C0     lsl     r0,r0,3h                                
08021FB2 1880     add     r0,r0,r2                                
08021FB4 8003     strh    r3,[r0]                                 
08021FB6 E060     b       802207Ah                                
08021FB8 01AC     lsl     r4,r5,6h                                
08021FBA 0300     lsl     r0,r0,0Ch                               
08021FBC 080C     lsr     r4,r1,20h                               
08021FBE 0300     lsl     r0,r0,0Ch                               
08021FC0 4923     ldr     r1,=300080Ch                            
08021FC2 22D0     mov     r2,0D0h                                 
08021FC4 0052     lsl     r2,r2,1h                                
08021FC6 1C10     mov     r0,r2                                   
08021FC8 8849     ldrh    r1,[r1,2h]                              
08021FCA 1840     add     r0,r0,r1                                
08021FCC 2500     mov     r5,0h                                   
08021FCE 46A9     mov     r9,r5                                   
08021FD0 80B8     strh    r0,[r7,4h]                              
08021FD2 1C39     mov     r1,r7                                   
08021FD4 3124     add     r1,24h                                  
08021FD6 2044     mov     r0,44h                                  
08021FD8 7008     strb    r0,[r1]                                 
08021FDA 7FF8     ldrb    r0,[r7,1Fh]                             
08021FDC 4680     mov     r8,r0                                   
08021FDE 1C38     mov     r0,r7                                   
08021FE0 3023     add     r0,23h                                  
08021FE2 7806     ldrb    r6,[r0]                                 
08021FE4 887C     ldrh    r4,[r7,2h]                              
08021FE6 88BD     ldrh    r5,[r7,4h]                              
08021FE8 9400     str     r4,[sp]                                 
08021FEA 9501     str     r5,[sp,4h]                              
08021FEC 4651     mov     r1,r10                                  
08021FEE 9102     str     r1,[sp,8h]                              
08021FF0 2009     mov     r0,9h                                   
08021FF2 2111     mov     r1,11h                                  
08021FF4 4642     mov     r2,r8                                   
08021FF6 1C33     mov     r3,r6                                   
08021FF8 F7ECF92E bl      800E258h                                
08021FFC 9400     str     r4,[sp]                                 
08021FFE 9501     str     r5,[sp,4h]                              
08022000 4652     mov     r2,r10                                  
08022002 9202     str     r2,[sp,8h]                              
08022004 2009     mov     r0,9h                                   
08022006 2110     mov     r1,10h                                  
08022008 4642     mov     r2,r8                                   
0802200A 1C33     mov     r3,r6                                   
0802200C F7ECF924 bl      800E258h                                
08022010 9400     str     r4,[sp]                                 
08022012 9501     str     r5,[sp,4h]                              
08022014 4655     mov     r5,r10                                  
08022016 9502     str     r5,[sp,8h]                              
08022018 2009     mov     r0,9h                                   
0802201A 210F     mov     r1,0Fh                                  
0802201C 4642     mov     r2,r8                                   
0802201E 1C33     mov     r3,r6                                   
08022020 F7ECF91A bl      800E258h                                
08022024 2001     mov     r0,1h                                   
08022026 F7FEFE29 bl      8020C7Ch                                
0802202A 2001     mov     r0,1h                                   
0802202C F7FEFE68 bl      8020D00h                                
08022030 4808     ldr     r0,=3000100h                            
08022032 4649     mov     r1,r9                                   
08022034 7001     strb    r1,[r0]                                 
08022036 7F78     ldrb    r0,[r7,1Dh]                             
08022038 2842     cmp     r0,42h                                  
0802203A D10D     bne     8022058h                                
0802203C 2001     mov     r0,1h                                   
0802203E 2119     mov     r1,19h                                  
08022040 F03EFC3C bl      80608BCh                                
08022044 2000     mov     r0,0h                                   
08022046 211A     mov     r1,1Ah                                  
08022048 F03EFC38 bl      80608BCh                                
0802204C E00C     b       8022068h                                
0802204E 0000     lsl     r0,r0,0h                                
08022050 080C     lsr     r4,r1,20h                               
08022052 0300     lsl     r0,r0,0Ch                               
08022054 0100     lsl     r0,r0,4h                                
08022056 0300     lsl     r0,r0,0Ch                               
08022058 2000     mov     r0,0h                                   
0802205A 2119     mov     r1,19h                                  
0802205C F03EFC2E bl      80608BCh                                
08022060 2001     mov     r0,1h                                   
08022062 211A     mov     r1,1Ah                                  
08022064 F03EFC2A bl      80608BCh                                
08022068 20C9     mov     r0,0C9h                                 
0802206A 0040     lsl     r0,r0,1h                                
0802206C F7E0FCD4 bl      8002A18h                                
08022070 2032     mov     r0,32h                                  
08022072 2101     mov     r1,1h                                   
08022074 2200     mov     r2,0h                                   
08022076 F7E1FD5B bl      8003B30h                                
0802207A B003     add     sp,0Ch                                  
0802207C BC38     pop     r3-r5                                   
0802207E 4698     mov     r8,r3                                   
08022080 46A1     mov     r9,r4                                   
08022082 46AA     mov     r10,r5                                  
08022084 BCF0     pop     r4-r7                                   
08022086 BC01     pop     r0                                      
08022088 4700     bx      r0                                      
0802208A 0000     lsl     r0,r0,0h                                
0802208C B500     push    r14                                     
0802208E 4A0E     ldr     r2,=3000C77h                            
08022090 7811     ldrb    r1,[r2]                                 
08022092 200F     mov     r0,0Fh                                  
08022094 4008     and     r0,r1                                   
08022096 2800     cmp     r0,0h                                   
08022098 D10A     bne     80220B0h                                
0802209A 201F     mov     r0,1Fh                                  
0802209C 4008     and     r0,r1                                   
0802209E 2800     cmp     r0,0h                                   
080220A0 D102     bne     80220A8h                                
080220A2 7810     ldrb    r0,[r2]                                 
080220A4 F7FEFEDE bl      8020E64h                                
080220A8 2014     mov     r0,14h                                  
080220AA 2181     mov     r1,81h                                  
080220AC F033F94A bl      8055344h                                
080220B0 4A06     ldr     r2,=3000738h                            
080220B2 8851     ldrh    r1,[r2,2h]                              
080220B4 88D0     ldrh    r0,[r2,6h]                              
080220B6 23B0     mov     r3,0B0h                                 
080220B8 009B     lsl     r3,r3,2h                                
080220BA 18C0     add     r0,r0,r3                                
080220BC 4281     cmp     r1,r0                                   
080220BE DA07     bge     80220D0h                                
080220C0 1C08     mov     r0,r1                                   
080220C2 3010     add     r0,10h                                  
080220C4 8050     strh    r0,[r2,2h]                              
080220C6 E00F     b       80220E8h                                
080220C8 0C77     lsr     r7,r6,11h                               
080220CA 0300     lsl     r0,r0,0Ch                               
080220CC 0738     lsl     r0,r7,1Ch                               
080220CE 0300     lsl     r0,r0,0Ch                               
080220D0 8811     ldrh    r1,[r2]                                 
080220D2 4B06     ldr     r3,=8004h                               
080220D4 1C18     mov     r0,r3                                   
080220D6 4308     orr     r0,r1                                   
080220D8 8010     strh    r0,[r2]                                 
080220DA 1C11     mov     r1,r2                                   
080220DC 3124     add     r1,24h                                  
080220DE 2045     mov     r0,45h                                  
080220E0 7008     strb    r0,[r1]                                 
080220E2 3109     add     r1,9h                                   
080220E4 20F0     mov     r0,0F0h                                 
080220E6 7008     strb    r0,[r1]                                 
080220E8 BC01     pop     r0                                      
080220EA 4700     bx      r0                                      
080220EC 8004     strh    r4,[r0]                                 
080220EE 0000     lsl     r0,r0,0h                                
080220F0 B500     push    r14                                     
080220F2 4811     ldr     r0,=3000738h                            
080220F4 3026     add     r0,26h                                  
080220F6 2101     mov     r1,1h                                   
080220F8 7001     strb    r1,[r0]                                 
080220FA 4A10     ldr     r2,=3000C77h                            
080220FC 7811     ldrb    r1,[r2]                                 
080220FE 200F     mov     r0,0Fh                                  
08022100 4008     and     r0,r1                                   
08022102 2800     cmp     r0,0h                                   
08022104 D10A     bne     802211Ch                                
08022106 201F     mov     r0,1Fh                                  
08022108 4008     and     r0,r1                                   
0802210A 2800     cmp     r0,0h                                   
0802210C D102     bne     8022114h                                
0802210E 7810     ldrb    r0,[r2]                                 
08022110 F7FEFEA8 bl      8020E64h                                
08022114 2014     mov     r0,14h                                  
08022116 2181     mov     r1,81h                                  
08022118 F033F914 bl      8055344h                                
0802211C 4A06     ldr     r2,=3000738h                            
0802211E 1C11     mov     r1,r2                                   
08022120 312D     add     r1,2Dh                                  
08022122 7808     ldrb    r0,[r1]                                 
08022124 3801     sub     r0,1h                                   
08022126 7008     strb    r0,[r1]                                 
08022128 0600     lsl     r0,r0,18h                               
0802212A 0E00     lsr     r0,r0,18h                               
0802212C 2800     cmp     r0,0h                                   
0802212E D100     bne     8022132h                                
08022130 8010     strh    r0,[r2]                                 
08022132 BC01     pop     r0                                      
08022134 4700     bx      r0                                      
08022136 0000     lsl     r0,r0,0h                                
08022138 0738     lsl     r0,r7,1Ch                               
0802213A 0300     lsl     r0,r0,0Ch                               
0802213C 0C77     lsr     r7,r6,11h                               
0802213E 0300     lsl     r0,r0,0Ch                               
08022140 B510     push    r4,r14                                  
08022142 480E     ldr     r0,=3000738h                            
08022144 4684     mov     r12,r0                                  
08022146 3033     add     r0,33h                                  
08022148 2300     mov     r3,0h                                   
0802214A 2201     mov     r2,1h                                   
0802214C 7002     strb    r2,[r0]                                 
0802214E 4664     mov     r4,r12                                  
08022150 8821     ldrh    r1,[r4]                                 
08022152 480B     ldr     r0,=0FFFBh                              
08022154 4008     and     r0,r1                                   
08022156 2100     mov     r1,0h                                   
08022158 8020     strh    r0,[r4]                                 
0802215A 3425     add     r4,25h                                  
0802215C 2004     mov     r0,4h                                   
0802215E 7020     strb    r0,[r4]                                 
08022160 4660     mov     r0,r12                                  
08022162 7701     strb    r1,[r0,1Ch]                             
08022164 82C3     strh    r3,[r0,16h]                             
08022166 8282     strh    r2,[r0,14h]                             
08022168 7F82     ldrb    r2,[r0,1Eh]                             
0802216A 4663     mov     r3,r12                                  
0802216C 2A13     cmp     r2,13h                                  
0802216E D83B     bhi     80221E8h                                
08022170 0090     lsl     r0,r2,2h                                
08022172 4904     ldr     r1,=8022188h                            
08022174 1840     add     r0,r0,r1                                
08022176 6800     ldr     r0,[r0]                                 
08022178 4687     mov     r15,r0                                  
0802217A 0000     lsl     r0,r0,0h                                
0802217C 0738     lsl     r0,r7,1Ch                               
0802217E 0300     lsl     r0,r0,0Ch                               
08022180 FFFB     bl      lr+0FF6h                                
08022182 0000     lsl     r0,r0,0h                                
08022184 2188     mov     r1,88h                                  
08022186 0802     lsr     r2,r0,20h                               
08022188 21E4     mov     r1,0E4h                                 
0802218A 0802     lsr     r2,r0,20h                               
0802218C 21D8     mov     r1,0D8h                                 
0802218E 0802     lsr     r2,r0,20h                               
08022190 21DC     mov     r1,0DCh                                 
08022192 0802     lsr     r2,r0,20h                               
08022194 21E0     mov     r1,0E0h                                 
08022196 0802     lsr     r2,r0,20h                               
08022198 21E4     mov     r1,0E4h                                 
0802219A 0802     lsr     r2,r0,20h                               
0802219C 21D8     mov     r1,0D8h                                 
0802219E 0802     lsr     r2,r0,20h                               
080221A0 21E8     mov     r1,0E8h                                 
080221A2 0802     lsr     r2,r0,20h                               
080221A4 21D8     mov     r1,0D8h                                 
080221A6 0802     lsr     r2,r0,20h                               
080221A8 21DC     mov     r1,0DCh                                 
080221AA 0802     lsr     r2,r0,20h                               
080221AC 21E0     mov     r1,0E0h                                 
080221AE 0802     lsr     r2,r0,20h                               
080221B0 21E4     mov     r1,0E4h                                 
080221B2 0802     lsr     r2,r0,20h                               
080221B4 21D8     mov     r1,0D8h                                 
080221B6 0802     lsr     r2,r0,20h                               
080221B8 21DC     mov     r1,0DCh                                 
080221BA 0802     lsr     r2,r0,20h                               
080221BC 21D8     mov     r1,0D8h                                 
080221BE 0802     lsr     r2,r0,20h                               
080221C0 21E4     mov     r1,0E4h                                 
080221C2 0802     lsr     r2,r0,20h                               
080221C4 21E0     mov     r1,0E0h                                 
080221C6 0802     lsr     r2,r0,20h                               
080221C8 21DC     mov     r1,0DCh                                 
080221CA 0802     lsr     r2,r0,20h                               
080221CC 21D8     mov     r1,0D8h                                 
080221CE 0802     lsr     r2,r0,20h                               
080221D0 21DC     mov     r1,0DCh                                 
080221D2 0802     lsr     r2,r0,20h                               
080221D4 21DC     mov     r1,0DCh                                 
080221D6 0802     lsr     r2,r0,20h                               
080221D8 2001     mov     r0,1h                                   
080221DA E004     b       80221E6h                                
080221DC 2002     mov     r0,2h                                   
080221DE E002     b       80221E6h                                
080221E0 2003     mov     r0,3h                                   
080221E2 E000     b       80221E6h                                
080221E4 2000     mov     r0,0h                                   
080221E6 82D8     strh    r0,[r3,16h]                             
080221E8 2A12     cmp     r2,12h                                  
080221EA D119     bne     8022220h                                
080221EC 1C18     mov     r0,r3                                   
080221EE 3027     add     r0,27h                                  
080221F0 2130     mov     r1,30h                                  
080221F2 7001     strb    r1,[r0]                                 
080221F4 3001     add     r0,1h                                   
080221F6 7001     strb    r1,[r0]                                 
080221F8 1C1C     mov     r4,r3                                   
080221FA 3429     add     r4,29h                                  
080221FC 201A     mov     r0,1Ah                                  
080221FE 7020     strb    r0,[r4]                                 
08022200 4804     ldr     r0,=0FFA0h                              
08022202 8158     strh    r0,[r3,0Ah]                             
08022204 2060     mov     r0,60h                                  
08022206 8198     strh    r0,[r3,0Ch]                             
08022208 4803     ldr     r0,=0FFD0h                              
0802220A 81D8     strh    r0,[r3,0Eh]                             
0802220C 8219     strh    r1,[r3,10h]                             
0802220E 4803     ldr     r0,=82D78E4h                            
08022210 E03D     b       802228Eh                                
08022212 0000     lsl     r0,r0,0h                                
08022214 FFA0     bl      lr+0F40h                                
08022216 0000     lsl     r0,r0,0h                                
08022218 FFD0     bl      lr+0FA0h                                
0802221A 0000     lsl     r0,r0,0h                                
0802221C 78E4     ldrb    r4,[r4,3h]                              
0802221E 082D     lsr     r5,r5,20h                               
08022220 2A00     cmp     r2,0h                                   
08022222 D003     beq     802222Ch                                
08022224 2A06     cmp     r2,6h                                   
08022226 D001     beq     802222Ch                                
08022228 2A0C     cmp     r2,0Ch                                  
0802222A D11D     bne     8022268h                                
0802222C 1C18     mov     r0,r3                                   
0802222E 3027     add     r0,27h                                  
08022230 2118     mov     r1,18h                                  
08022232 7001     strb    r1,[r0]                                 
08022234 3001     add     r0,1h                                   
08022236 7001     strb    r1,[r0]                                 
08022238 1C19     mov     r1,r3                                   
0802223A 3129     add     r1,29h                                  
0802223C 2020     mov     r0,20h                                  
0802223E 7008     strb    r0,[r1]                                 
08022240 4806     ldr     r0,=0FFC0h                              
08022242 8158     strh    r0,[r3,0Ah]                             
08022244 2040     mov     r0,40h                                  
08022246 8198     strh    r0,[r3,0Ch]                             
08022248 4805     ldr     r0,=0FFA0h                              
0802224A 81D8     strh    r0,[r3,0Eh]                             
0802224C 2060     mov     r0,60h                                  
0802224E 8218     strh    r0,[r3,10h]                             
08022250 4804     ldr     r0,=82D78BCh                            
08022252 6198     str     r0,[r3,18h]                             
08022254 3907     sub     r1,7h                                   
08022256 200B     mov     r0,0Bh                                  
08022258 7008     strb    r0,[r1]                                 
0802225A E019     b       8022290h                                
0802225C FFC0     bl      lr+0F80h                                
0802225E 0000     lsl     r0,r0,0h                                
08022260 FFA0     bl      lr+0F40h                                
08022262 0000     lsl     r0,r0,0h                                
08022264 78BC     ldrb    r4,[r7,2h]                              
08022266 082D     lsr     r5,r5,20h                               
08022268 1C18     mov     r0,r3                                   
0802226A 3027     add     r0,27h                                  
0802226C 2112     mov     r1,12h                                  
0802226E 7001     strb    r1,[r0]                                 
08022270 3001     add     r0,1h                                   
08022272 7001     strb    r1,[r0]                                 
08022274 1C19     mov     r1,r3                                   
08022276 3129     add     r1,29h                                  
08022278 2022     mov     r0,22h                                  
0802227A 7008     strb    r0,[r1]                                 
0802227C 4808     ldr     r0,=0FFC0h                              
0802227E 8158     strh    r0,[r3,0Ah]                             
08022280 2040     mov     r0,40h                                  
08022282 8198     strh    r0,[r3,0Ch]                             
08022284 4807     ldr     r0,=0FFA0h                              
08022286 81D8     strh    r0,[r3,0Eh]                             
08022288 2060     mov     r0,60h                                  
0802228A 8218     strh    r0,[r3,10h]                             
0802228C 4806     ldr     r0,=82D7894h                            
0802228E 6198     str     r0,[r3,18h]                             
08022290 2A05     cmp     r2,5h                                   
08022292 D80B     bhi     80222ACh                                
08022294 1C19     mov     r1,r3                                   
08022296 3124     add     r1,24h                                  
08022298 2008     mov     r0,8h                                   
0802229A 7008     strb    r0,[r1]                                 
0802229C E05B     b       8022356h                                
0802229E 0000     lsl     r0,r0,0h                                
080222A0 FFC0     bl      lr+0F80h                                
080222A2 0000     lsl     r0,r0,0h                                
080222A4 FFA0     bl      lr+0F40h                                
080222A6 0000     lsl     r0,r0,0h                                
080222A8 7894     ldrb    r4,[r2,2h]                              
080222AA 082D     lsr     r5,r5,20h                               
080222AC 1F90     sub     r0,r2,6                                 
080222AE 0600     lsl     r0,r0,18h                               
080222B0 0E00     lsr     r0,r0,18h                               
080222B2 2805     cmp     r0,5h                                   
080222B4 D809     bhi     80222CAh                                
080222B6 1C19     mov     r1,r3                                   
080222B8 3124     add     r1,24h                                  
080222BA 2022     mov     r0,22h                                  
080222BC 7008     strb    r0,[r1]                                 
080222BE 8819     ldrh    r1,[r3]                                 
080222C0 2280     mov     r2,80h                                  
080222C2 0052     lsl     r2,r2,1h                                
080222C4 1C10     mov     r0,r2                                   
080222C6 4308     orr     r0,r1                                   
080222C8 E044     b       8022354h                                
080222CA 1C10     mov     r0,r2                                   
080222CC 380C     sub     r0,0Ch                                  
080222CE 0600     lsl     r0,r0,18h                               
080222D0 0E00     lsr     r0,r0,18h                               
080222D2 2802     cmp     r0,2h                                   
080222D4 D80B     bhi     80222EEh                                
080222D6 1C19     mov     r1,r3                                   
080222D8 3124     add     r1,24h                                  
080222DA 2200     mov     r2,0h                                   
080222DC 2024     mov     r0,24h                                  
080222DE 7008     strb    r0,[r1]                                 
080222E0 1C18     mov     r0,r3                                   
080222E2 302D     add     r0,2Dh                                  
080222E4 7002     strb    r2,[r0]                                 
080222E6 310A     add     r1,0Ah                                  
080222E8 2001     mov     r0,1h                                   
080222EA 7008     strb    r0,[r1]                                 
080222EC E033     b       8022356h                                
080222EE 1C10     mov     r0,r2                                   
080222F0 380F     sub     r0,0Fh                                  
080222F2 0600     lsl     r0,r0,18h                               
080222F4 0E00     lsr     r0,r0,18h                               
080222F6 2802     cmp     r0,2h                                   
080222F8 D80C     bhi     8022314h                                
080222FA 1C19     mov     r1,r3                                   
080222FC 3124     add     r1,24h                                  
080222FE 204A     mov     r0,4Ah                                  
08022300 7008     strb    r0,[r1]                                 
08022302 3902     sub     r1,2h                                   
08022304 2003     mov     r0,3h                                   
08022306 7008     strb    r0,[r1]                                 
08022308 1C18     mov     r0,r3                                   
0802230A 3034     add     r0,34h                                  
0802230C 7801     ldrb    r1,[r0]                                 
0802230E 3814     sub     r0,14h                                  
08022310 7001     strb    r1,[r0]                                 
08022312 E020     b       8022356h                                
08022314 2A12     cmp     r2,12h                                  
08022316 D108     bne     802232Ah                                
08022318 1C19     mov     r1,r3                                   
0802231A 3124     add     r1,24h                                  
0802231C 200F     mov     r0,0Fh                                  
0802231E 7008     strb    r0,[r1]                                 
08022320 3902     sub     r1,2h                                   
08022322 2003     mov     r0,3h                                   
08022324 7008     strb    r0,[r1]                                 
08022326 310C     add     r1,0Ch                                  
08022328 E010     b       802234Ch                                
0802232A 2A13     cmp     r2,13h                                  
0802232C D111     bne     8022352h                                
0802232E 1C19     mov     r1,r3                                   
08022330 3124     add     r1,24h                                  
08022332 2011     mov     r0,11h                                  
08022334 7008     strb    r0,[r1]                                 
08022336 3902     sub     r1,2h                                   
08022338 2003     mov     r0,3h                                   
0802233A 7008     strb    r0,[r1]                                 
0802233C 8819     ldrh    r1,[r3]                                 
0802233E 2480     mov     r4,80h                                  
08022340 0064     lsl     r4,r4,1h                                
08022342 1C20     mov     r0,r4                                   
08022344 4308     orr     r0,r1                                   
08022346 8018     strh    r0,[r3]                                 
08022348 1C19     mov     r1,r3                                   
0802234A 312E     add     r1,2Eh                                  
0802234C 201C     mov     r0,1Ch                                  
0802234E 7008     strb    r0,[r1]                                 
08022350 E001     b       8022356h                                
08022352 2000     mov     r0,0h                                   
08022354 8018     strh    r0,[r3]                                 
08022356 BC10     pop     r4                                      
08022358 BC01     pop     r0                                      
0802235A 4700     bx      r0                                      
0802235C B570     push    r4-r6,r14                               
0802235E 4909     ldr     r1,=3000738h                            
08022360 1C08     mov     r0,r1                                   
08022362 3023     add     r0,23h                                  
08022364 7805     ldrb    r5,[r0]                                 
08022366 7F88     ldrb    r0,[r1,1Eh]                             
08022368 468C     mov     r12,r1                                  
0802236A 2800     cmp     r0,0h                                   
0802236C D10E     bne     802238Ch                                
0802236E 4906     ldr     r1,=30001ACh                            
08022370 00EA     lsl     r2,r5,3h                                
08022372 1B50     sub     r0,r2,r5                                
08022374 00C0     lsl     r0,r0,3h                                
08022376 1840     add     r0,r0,r1                                
08022378 8840     ldrh    r0,[r0,2h]                              
0802237A 38A8     sub     r0,0A8h                                 
0802237C 4663     mov     r3,r12                                  
0802237E 8058     strh    r0,[r3,2h]                              
08022380 E016     b       80223B0h                                
08022382 0000     lsl     r0,r0,0h                                
08022384 0738     lsl     r0,r7,1Ch                               
08022386 0300     lsl     r0,r0,0Ch                               
08022388 01AC     lsl     r4,r5,6h                                
0802238A 0300     lsl     r0,r0,0Ch                               
0802238C 4B15     ldr     r3,=30001ACh                            
0802238E 00EC     lsl     r4,r5,3h                                
08022390 1B60     sub     r0,r4,r5                                
08022392 00C0     lsl     r0,r0,3h                                
08022394 18C0     add     r0,r0,r3                                
08022396 8840     ldrh    r0,[r0,2h]                              
08022398 38A8     sub     r0,0A8h                                 
0802239A 4666     mov     r6,r12                                  
0802239C 7FB2     ldrb    r2,[r6,1Eh]                             
0802239E 2164     mov     r1,64h                                  
080223A0 1C16     mov     r6,r2                                   
080223A2 434E     mul     r6,r1                                   
080223A4 1C31     mov     r1,r6                                   
080223A6 1A40     sub     r0,r0,r1                                
080223A8 4661     mov     r1,r12                                  
080223AA 8048     strh    r0,[r1,2h]                              
080223AC 1C19     mov     r1,r3                                   
080223AE 1C22     mov     r2,r4                                   
080223B0 1B50     sub     r0,r2,r5                                
080223B2 00C0     lsl     r0,r0,3h                                
080223B4 1840     add     r0,r0,r1                                
080223B6 3024     add     r0,24h                                  
080223B8 7800     ldrb    r0,[r0]                                 
080223BA 2822     cmp     r0,22h                                  
080223BC D10F     bne     80223DEh                                
080223BE 4661     mov     r1,r12                                  
080223C0 3124     add     r1,24h                                  
080223C2 2009     mov     r0,9h                                   
080223C4 7008     strb    r0,[r1]                                 
080223C6 3108     add     r1,8h                                   
080223C8 2006     mov     r0,6h                                   
080223CA 7008     strb    r0,[r1]                                 
080223CC 4663     mov     r3,r12                                  
080223CE 7F98     ldrb    r0,[r3,1Eh]                             
080223D0 2800     cmp     r0,0h                                   
080223D2 D104     bne     80223DEh                                
080223D4 4804     ldr     r0,=82D7894h                            
080223D6 6198     str     r0,[r3,18h]                             
080223D8 390A     sub     r1,0Ah                                  
080223DA 2004     mov     r0,4h                                   
080223DC 7008     strb    r0,[r1]                                 
080223DE BC70     pop     r4-r6                                   
080223E0 BC01     pop     r0                                      
080223E2 4700     bx      r0                                      
080223E4 01AC     lsl     r4,r5,6h                                
080223E6 0300     lsl     r0,r0,0Ch                               
080223E8 7894     ldrb    r4,[r2,2h]                              
080223EA 082D     lsr     r5,r5,20h                               
080223EC B5F0     push    r4-r7,r14                               
080223EE 464F     mov     r7,r9                                   
080223F0 4646     mov     r6,r8                                   
080223F2 B4C0     push    r6,r7                                   
080223F4 B083     add     sp,-0Ch                                 
080223F6 4A2D     ldr     r2,=3000738h                            
080223F8 1C10     mov     r0,r2                                   
080223FA 3023     add     r0,23h                                  
080223FC 7806     ldrb    r6,[r0]                                 
080223FE 2710     mov     r7,10h                                  
08022400 482B     ldr     r0,=30001ACh                            
08022402 00F1     lsl     r1,r6,3h                                
08022404 1B89     sub     r1,r1,r6                                
08022406 00C9     lsl     r1,r1,3h                                
08022408 1809     add     r1,r1,r0                                
0802240A 3124     add     r1,24h                                  
0802240C 7809     ldrb    r1,[r1]                                 
0802240E 1C14     mov     r4,r2                                   
08022410 4681     mov     r9,r0                                   
08022412 2925     cmp     r1,25h                                  
08022414 D100     bne     8022418h                                
08022416 2708     mov     r7,8h                                   
08022418 8860     ldrh    r0,[r4,2h]                              
0802241A 1838     add     r0,r7,r0                                
0802241C 8060     strh    r0,[r4,2h]                              
0802241E 1C25     mov     r5,r4                                   
08022420 352C     add     r5,2Ch                                  
08022422 7828     ldrb    r0,[r5]                                 
08022424 3801     sub     r0,1h                                   
08022426 7028     strb    r0,[r5]                                 
08022428 0600     lsl     r0,r0,18h                               
0802242A 0E00     lsr     r0,r0,18h                               
0802242C 4680     mov     r8,r0                                   
0802242E 2800     cmp     r0,0h                                   
08022430 D113     bne     802245Ah                                
08022432 2064     mov     r0,64h                                  
08022434 1C39     mov     r1,r7                                   
08022436 F068FBFD bl      808AC34h                                
0802243A 7028     strb    r0,[r5]                                 
0802243C 7828     ldrb    r0,[r5]                                 
0802243E 1C39     mov     r1,r7                                   
08022440 4341     mul     r1,r0                                   
08022442 8860     ldrh    r0,[r4,2h]                              
08022444 1A40     sub     r0,r0,r1                                
08022446 8060     strh    r0,[r4,2h]                              
08022448 8AE0     ldrh    r0,[r4,16h]                             
0802244A 3001     add     r0,1h                                   
0802244C 82E0     strh    r0,[r4,16h]                             
0802244E 0400     lsl     r0,r0,10h                               
08022450 0C00     lsr     r0,r0,10h                               
08022452 2803     cmp     r0,3h                                   
08022454 D901     bls     802245Ah                                
08022456 4640     mov     r0,r8                                   
08022458 82E0     strh    r0,[r4,16h]                             
0802245A 00F0     lsl     r0,r6,3h                                
0802245C 1B80     sub     r0,r0,r6                                
0802245E 00C0     lsl     r0,r0,3h                                
08022460 4448     add     r0,r9                                   
08022462 3024     add     r0,24h                                  
08022464 7800     ldrb    r0,[r0]                                 
08022466 2826     cmp     r0,26h                                  
08022468 D119     bne     802249Eh                                
0802246A 7FA0     ldrb    r0,[r4,1Eh]                             
0802246C 0080     lsl     r0,r0,2h                                
0802246E 1C21     mov     r1,r4                                   
08022470 312E     add     r1,2Eh                                  
08022472 7008     strb    r0,[r1]                                 
08022474 390A     sub     r1,0Ah                                  
08022476 200F     mov     r0,0Fh                                  
08022478 7008     strb    r0,[r1]                                 
0802247A 7FA0     ldrb    r0,[r4,1Eh]                             
0802247C 2805     cmp     r0,5h                                   
0802247E D10E     bne     802249Eh                                
08022480 7FE2     ldrb    r2,[r4,1Fh]                             
08022482 1C20     mov     r0,r4                                   
08022484 3023     add     r0,23h                                  
08022486 7803     ldrb    r3,[r0]                                 
08022488 8860     ldrh    r0,[r4,2h]                              
0802248A 3864     sub     r0,64h                                  
0802248C 9000     str     r0,[sp]                                 
0802248E 88A0     ldrh    r0,[r4,4h]                              
08022490 9001     str     r0,[sp,4h]                              
08022492 2000     mov     r0,0h                                   
08022494 9002     str     r0,[sp,8h]                              
08022496 2009     mov     r0,9h                                   
08022498 2112     mov     r1,12h                                  
0802249A F7EBFEDD bl      800E258h                                
0802249E B003     add     sp,0Ch                                  
080224A0 BC18     pop     r3,r4                                   
080224A2 4698     mov     r8,r3                                   
080224A4 46A1     mov     r9,r4                                   
080224A6 BCF0     pop     r4-r7                                   
080224A8 BC01     pop     r0                                      
080224AA 4700     bx      r0                                      
080224AC 0738     lsl     r0,r7,1Ch                               
080224AE 0300     lsl     r0,r0,0Ch                               
080224B0 01AC     lsl     r4,r5,6h                                
080224B2 0300     lsl     r0,r0,0Ch                               
080224B4 B530     push    r4,r5,r14                               
080224B6 4909     ldr     r1,=3000738h                            
080224B8 1C08     mov     r0,r1                                   
080224BA 3023     add     r0,23h                                  
080224BC 7805     ldrb    r5,[r0]                                 
080224BE 7F88     ldrb    r0,[r1,1Eh]                             
080224C0 468C     mov     r12,r1                                  
080224C2 2806     cmp     r0,6h                                   
080224C4 D10E     bne     80224E4h                                
080224C6 4906     ldr     r1,=30001ACh                            
080224C8 00EA     lsl     r2,r5,3h                                
080224CA 1B50     sub     r0,r2,r5                                
080224CC 00C0     lsl     r0,r0,3h                                
080224CE 1840     add     r0,r0,r1                                
080224D0 8840     ldrh    r0,[r0,2h]                              
080224D2 30A8     add     r0,0A8h                                 
080224D4 4663     mov     r3,r12                                  
080224D6 8058     strh    r0,[r3,2h]                              
080224D8 E015     b       8022506h                                
080224DA 0000     lsl     r0,r0,0h                                
080224DC 0738     lsl     r0,r7,1Ch                               
080224DE 0300     lsl     r0,r0,0Ch                               
080224E0 01AC     lsl     r4,r5,6h                                
080224E2 0300     lsl     r0,r0,0Ch                               
080224E4 4B15     ldr     r3,=30001ACh                            
080224E6 00EC     lsl     r4,r5,3h                                
080224E8 1B60     sub     r0,r4,r5                                
080224EA 00C0     lsl     r0,r0,3h                                
080224EC 18C0     add     r0,r0,r3                                
080224EE 8842     ldrh    r2,[r0,2h]                              
080224F0 32A8     add     r2,0A8h                                 
080224F2 4661     mov     r1,r12                                  
080224F4 7F88     ldrb    r0,[r1,1Eh]                             
080224F6 3806     sub     r0,6h                                   
080224F8 2164     mov     r1,64h                                  
080224FA 4348     mul     r0,r1                                   
080224FC 1812     add     r2,r2,r0                                
080224FE 4660     mov     r0,r12                                  
08022500 8042     strh    r2,[r0,2h]                              
08022502 1C19     mov     r1,r3                                   
08022504 1C22     mov     r2,r4                                   
08022506 1B50     sub     r0,r2,r5                                
08022508 00C0     lsl     r0,r0,3h                                
0802250A 1840     add     r0,r0,r1                                
0802250C 3024     add     r0,24h                                  
0802250E 7800     ldrb    r0,[r0]                                 
08022510 2824     cmp     r0,24h                                  
08022512 D10F     bne     8022534h                                
08022514 4661     mov     r1,r12                                  
08022516 3124     add     r1,24h                                  
08022518 2023     mov     r0,23h                                  
0802251A 7008     strb    r0,[r1]                                 
0802251C 3108     add     r1,8h                                   
0802251E 2006     mov     r0,6h                                   
08022520 7008     strb    r0,[r1]                                 
08022522 4661     mov     r1,r12                                  
08022524 7F88     ldrb    r0,[r1,1Eh]                             
08022526 2806     cmp     r0,6h                                   
08022528 D104     bne     8022534h                                
0802252A 4805     ldr     r0,=82D7894h                            
0802252C 6188     str     r0,[r1,18h]                             
0802252E 3122     add     r1,22h                                  
08022530 2004     mov     r0,4h                                   
08022532 7008     strb    r0,[r1]                                 
08022534 BC30     pop     r4,r5                                   
08022536 BC01     pop     r0                                      
08022538 4700     bx      r0                                      
0802253A 0000     lsl     r0,r0,0h                                
0802253C 01AC     lsl     r4,r5,6h                                
0802253E 0300     lsl     r0,r0,0Ch                               
08022540 7894     ldrb    r4,[r2,2h]                              
08022542 082D     lsr     r5,r5,20h                               
08022544 B5F0     push    r4-r7,r14                               
08022546 464F     mov     r7,r9                                   
08022548 4646     mov     r6,r8                                   
0802254A B4C0     push    r6,r7                                   
0802254C B083     add     sp,-0Ch                                 
0802254E 4A2D     ldr     r2,=3000738h                            
08022550 1C10     mov     r0,r2                                   
08022552 3023     add     r0,23h                                  
08022554 7806     ldrb    r6,[r0]                                 
08022556 2710     mov     r7,10h                                  
08022558 482B     ldr     r0,=30001ACh                            
0802255A 00F1     lsl     r1,r6,3h                                
0802255C 1B89     sub     r1,r1,r6                                
0802255E 00C9     lsl     r1,r1,3h                                
08022560 1809     add     r1,r1,r0                                
08022562 3124     add     r1,24h                                  
08022564 7809     ldrb    r1,[r1]                                 
08022566 1C14     mov     r4,r2                                   
08022568 4681     mov     r9,r0                                   
0802256A 2925     cmp     r1,25h                                  
0802256C D100     bne     8022570h                                
0802256E 2708     mov     r7,8h                                   
08022570 8860     ldrh    r0,[r4,2h]                              
08022572 1BC0     sub     r0,r0,r7                                
08022574 8060     strh    r0,[r4,2h]                              
08022576 1C25     mov     r5,r4                                   
08022578 352C     add     r5,2Ch                                  
0802257A 7828     ldrb    r0,[r5]                                 
0802257C 3801     sub     r0,1h                                   
0802257E 7028     strb    r0,[r5]                                 
08022580 0600     lsl     r0,r0,18h                               
08022582 0E00     lsr     r0,r0,18h                               
08022584 4680     mov     r8,r0                                   
08022586 2800     cmp     r0,0h                                   
08022588 D112     bne     80225B0h                                
0802258A 2064     mov     r0,64h                                  
0802258C 1C39     mov     r1,r7                                   
0802258E F068FB51 bl      808AC34h                                
08022592 7028     strb    r0,[r5]                                 
08022594 7828     ldrb    r0,[r5]                                 
08022596 4378     mul     r0,r7                                   
08022598 8861     ldrh    r1,[r4,2h]                              
0802259A 1840     add     r0,r0,r1                                
0802259C 8060     strh    r0,[r4,2h]                              
0802259E 8AE0     ldrh    r0,[r4,16h]                             
080225A0 3001     add     r0,1h                                   
080225A2 82E0     strh    r0,[r4,16h]                             
080225A4 0400     lsl     r0,r0,10h                               
080225A6 0C00     lsr     r0,r0,10h                               
080225A8 2803     cmp     r0,3h                                   
080225AA D901     bls     80225B0h                                
080225AC 4640     mov     r0,r8                                   
080225AE 82E0     strh    r0,[r4,16h]                             
080225B0 00F0     lsl     r0,r6,3h                                
080225B2 1B80     sub     r0,r0,r6                                
080225B4 00C0     lsl     r0,r0,3h                                
080225B6 4448     add     r0,r9                                   
080225B8 3024     add     r0,24h                                  
080225BA 7800     ldrb    r0,[r0]                                 
080225BC 2826     cmp     r0,26h                                  
080225BE D11A     bne     80225F6h                                
080225C0 7FA0     ldrb    r0,[r4,1Eh]                             
080225C2 3806     sub     r0,6h                                   
080225C4 0080     lsl     r0,r0,2h                                
080225C6 1C21     mov     r1,r4                                   
080225C8 312E     add     r1,2Eh                                  
080225CA 7008     strb    r0,[r1]                                 
080225CC 390A     sub     r1,0Ah                                  
080225CE 2011     mov     r0,11h                                  
080225D0 7008     strb    r0,[r1]                                 
080225D2 7FA0     ldrb    r0,[r4,1Eh]                             
080225D4 280B     cmp     r0,0Bh                                  
080225D6 D10E     bne     80225F6h                                
080225D8 7FE2     ldrb    r2,[r4,1Fh]                             
080225DA 1C20     mov     r0,r4                                   
080225DC 3023     add     r0,23h                                  
080225DE 7803     ldrb    r3,[r0]                                 
080225E0 8860     ldrh    r0,[r4,2h]                              
080225E2 3064     add     r0,64h                                  
080225E4 9000     str     r0,[sp]                                 
080225E6 88A0     ldrh    r0,[r4,4h]                              
080225E8 9001     str     r0,[sp,4h]                              
080225EA 2000     mov     r0,0h                                   
080225EC 9002     str     r0,[sp,8h]                              
080225EE 2009     mov     r0,9h                                   
080225F0 2113     mov     r1,13h                                  
080225F2 F7EBFE31 bl      800E258h                                
080225F6 B003     add     sp,0Ch                                  
080225F8 BC18     pop     r3,r4                                   
080225FA 4698     mov     r8,r3                                   
080225FC 46A1     mov     r9,r4                                   
080225FE BCF0     pop     r4-r7                                   
08022600 BC01     pop     r0                                      
08022602 4700     bx      r0                                      
08022604 0738     lsl     r0,r7,1Ch                               
08022606 0300     lsl     r0,r0,0Ch                               
08022608 01AC     lsl     r4,r5,6h                                
0802260A 0300     lsl     r0,r0,0Ch                               
0802260C B5F0     push    r4-r7,r14                               
0802260E B083     add     sp,-0Ch                                 
08022610 4813     ldr     r0,=3000738h                            
08022612 4684     mov     r12,r0                                  
08022614 4665     mov     r5,r12                                  
08022616 3523     add     r5,23h                                  
08022618 7829     ldrb    r1,[r5]                                 
0802261A 4A12     ldr     r2,=30001ACh                            
0802261C 00C8     lsl     r0,r1,3h                                
0802261E 1A40     sub     r0,r0,r1                                
08022620 00C0     lsl     r0,r0,3h                                
08022622 1881     add     r1,r0,r2                                
08022624 1C08     mov     r0,r1                                   
08022626 302C     add     r0,2Ch                                  
08022628 7803     ldrb    r3,[r0]                                 
0802262A 4664     mov     r4,r12                                  
0802262C 2B00     cmp     r3,0h                                   
0802262E D06D     beq     802270Ch                                
08022630 3808     sub     r0,8h                                   
08022632 7800     ldrb    r0,[r0]                                 
08022634 2828     cmp     r0,28h                                  
08022636 D14F     bne     80226D8h                                
08022638 7F20     ldrb    r0,[r4,1Ch]                             
0802263A 3004     add     r0,4h                                   
0802263C 7720     strb    r0,[r4,1Ch]                             
0802263E 7FE6     ldrb    r6,[r4,1Fh]                             
08022640 782F     ldrb    r7,[r5]                                 
08022642 8860     ldrh    r0,[r4,2h]                              
08022644 3018     add     r0,18h                                  
08022646 0400     lsl     r0,r0,10h                               
08022648 0C02     lsr     r2,r0,10h                               
0802264A 4807     ldr     r0,=300080Ch                            
0802264C 8880     ldrh    r0,[r0,4h]                              
0802264E 2800     cmp     r0,0h                                   
08022650 D00C     beq     802266Ch                                
08022652 88A0     ldrh    r0,[r4,4h]                              
08022654 3860     sub     r0,60h                                  
08022656 0400     lsl     r0,r0,10h                               
08022658 0C01     lsr     r1,r0,10h                               
0802265A 2500     mov     r5,0h                                   
0802265C E00C     b       8022678h                                
0802265E 0000     lsl     r0,r0,0h                                
08022660 0738     lsl     r0,r7,1Ch                               
08022662 0300     lsl     r0,r0,0Ch                               
08022664 01AC     lsl     r4,r5,6h                                
08022666 0300     lsl     r0,r0,0Ch                               
08022668 080C     lsr     r4,r1,20h                               
0802266A 0300     lsl     r0,r0,0Ch                               
0802266C 4661     mov     r1,r12                                  
0802266E 8888     ldrh    r0,[r1,4h]                              
08022670 3060     add     r0,60h                                  
08022672 0400     lsl     r0,r0,10h                               
08022674 0C01     lsr     r1,r0,10h                               
08022676 2540     mov     r5,40h                                  
08022678 7FA0     ldrb    r0,[r4,1Eh]                             
0802267A 2801     cmp     r0,1h                                   
0802267C D107     bne     802268Eh                                
0802267E 2BF1     cmp     r3,0F1h                                 
08022680 D105     bne     802268Eh                                
08022682 9200     str     r2,[sp]                                 
08022684 9101     str     r1,[sp,4h]                              
08022686 9502     str     r5,[sp,8h]                              
08022688 200B     mov     r0,0Bh                                  
0802268A 2100     mov     r1,0h                                   
0802268C E01F     b       80226CEh                                
0802268E 7FA0     ldrb    r0,[r4,1Eh]                             
08022690 2802     cmp     r0,2h                                   
08022692 D107     bne     80226A4h                                
08022694 2BB5     cmp     r3,0B5h                                 
08022696 D105     bne     80226A4h                                
08022698 9200     str     r2,[sp]                                 
0802269A 9101     str     r1,[sp,4h]                              
0802269C 9502     str     r5,[sp,8h]                              
0802269E 200B     mov     r0,0Bh                                  
080226A0 2101     mov     r1,1h                                   
080226A2 E014     b       80226CEh                                
080226A4 7FA0     ldrb    r0,[r4,1Eh]                             
080226A6 2803     cmp     r0,3h                                   
080226A8 D107     bne     80226BAh                                
080226AA 2B65     cmp     r3,65h                                  
080226AC D105     bne     80226BAh                                
080226AE 9200     str     r2,[sp]                                 
080226B0 9101     str     r1,[sp,4h]                              
080226B2 9502     str     r5,[sp,8h]                              
080226B4 200B     mov     r0,0Bh                                  
080226B6 2102     mov     r1,2h                                   
080226B8 E009     b       80226CEh                                
080226BA 7FA0     ldrb    r0,[r4,1Eh]                             
080226BC 2804     cmp     r0,4h                                   
080226BE D143     bne     8022748h                                
080226C0 2B15     cmp     r3,15h                                  
080226C2 D141     bne     8022748h                                
080226C4 9200     str     r2,[sp]                                 
080226C6 9101     str     r1,[sp,4h]                              
080226C8 9502     str     r5,[sp,8h]                              
080226CA 200B     mov     r0,0Bh                                  
080226CC 2103     mov     r1,3h                                   
080226CE 1C32     mov     r2,r6                                   
080226D0 1C3B     mov     r3,r7                                   
080226D2 F7EBFDC1 bl      800E258h                                
080226D6 E037     b       8022748h                                
080226D8 4664     mov     r4,r12                                  
080226DA 342E     add     r4,2Eh                                  
080226DC 7822     ldrb    r2,[r4]                                 
080226DE 4B09     ldr     r3,=82D5BA0h                            
080226E0 0050     lsl     r0,r2,1h                                
080226E2 18C0     add     r0,r0,r3                                
080226E4 2500     mov     r5,0h                                   
080226E6 5F41     ldsh    r1,[r0,r5]                              
080226E8 4807     ldr     r0,=7FFFh                               
080226EA 4281     cmp     r1,r0                                   
080226EC D102     bne     80226F4h                                
080226EE 2000     mov     r0,0h                                   
080226F0 5E19     ldsh    r1,[r3,r0]                              
080226F2 2200     mov     r2,0h                                   
080226F4 1C50     add     r0,r2,1                                 
080226F6 7020     strb    r0,[r4]                                 
080226F8 4662     mov     r2,r12                                  
080226FA 8890     ldrh    r0,[r2,4h]                              
080226FC 1840     add     r0,r0,r1                                
080226FE 8090     strh    r0,[r2,4h]                              
08022700 E022     b       8022748h                                
08022702 0000     lsl     r0,r0,0h                                
08022704 5BA0     ldrh    r0,[r4,r6]                              
08022706 082D     lsr     r5,r5,20h                               
08022708 7FFF     ldrb    r7,[r7,1Fh]                             
0802270A 0000     lsl     r0,r0,0h                                
0802270C 1C08     mov     r0,r1                                   
0802270E 3024     add     r0,24h                                  
08022710 7800     ldrb    r0,[r0]                                 
08022712 2826     cmp     r0,26h                                  
08022714 D106     bne     8022724h                                
08022716 4661     mov     r1,r12                                  
08022718 3124     add     r1,24h                                  
0802271A 2033     mov     r0,33h                                  
0802271C 7008     strb    r0,[r1]                                 
0802271E 3108     add     r1,8h                                   
08022720 2019     mov     r0,19h                                  
08022722 E010     b       8022746h                                
08022724 2827     cmp     r0,27h                                  
08022726 D106     bne     8022736h                                
08022728 4661     mov     r1,r12                                  
0802272A 3124     add     r1,24h                                  
0802272C 2035     mov     r0,35h                                  
0802272E 7008     strb    r0,[r1]                                 
08022730 3108     add     r1,8h                                   
08022732 2019     mov     r0,19h                                  
08022734 E007     b       8022746h                                
08022736 2844     cmp     r0,44h                                  
08022738 D106     bne     8022748h                                
0802273A 4661     mov     r1,r12                                  
0802273C 3124     add     r1,24h                                  
0802273E 2046     mov     r0,46h                                  
08022740 7008     strb    r0,[r1]                                 
08022742 3108     add     r1,8h                                   
08022744 202E     mov     r0,2Eh                                  
08022746 7008     strb    r0,[r1]                                 
08022748 B003     add     sp,0Ch                                  
0802274A BCF0     pop     r4-r7                                   
0802274C BC01     pop     r0                                      
0802274E 4700     bx      r0                                      
08022750 B5F0     push    r4-r7,r14                               
08022752 B083     add     sp,-0Ch                                 
08022754 4811     ldr     r0,=3000738h                            
08022756 4684     mov     r12,r0                                  
08022758 4665     mov     r5,r12                                  
0802275A 3523     add     r5,23h                                  
0802275C 7829     ldrb    r1,[r5]                                 
0802275E 4A10     ldr     r2,=30001ACh                            
08022760 00C8     lsl     r0,r1,3h                                
08022762 1A40     sub     r0,r0,r1                                
08022764 00C0     lsl     r0,r0,3h                                
08022766 1881     add     r1,r0,r2                                
08022768 1C08     mov     r0,r1                                   
0802276A 302C     add     r0,2Ch                                  
0802276C 7803     ldrb    r3,[r0]                                 
0802276E 4664     mov     r4,r12                                  
08022770 2B00     cmp     r3,0h                                   
08022772 D069     beq     8022848h                                
08022774 3808     sub     r0,8h                                   
08022776 7800     ldrb    r0,[r0]                                 
08022778 2829     cmp     r0,29h                                  
0802277A D14B     bne     8022814h                                
0802277C 7F20     ldrb    r0,[r4,1Ch]                             
0802277E 3004     add     r0,4h                                   
08022780 7720     strb    r0,[r4,1Ch]                             
08022782 7FE6     ldrb    r6,[r4,1Fh]                             
08022784 782F     ldrb    r7,[r5]                                 
08022786 8862     ldrh    r2,[r4,2h]                              
08022788 4806     ldr     r0,=300080Ch                            
0802278A 8880     ldrh    r0,[r0,4h]                              
0802278C 2800     cmp     r0,0h                                   
0802278E D00B     beq     80227A8h                                
08022790 88A0     ldrh    r0,[r4,4h]                              
08022792 3060     add     r0,60h                                  
08022794 0400     lsl     r0,r0,10h                               
08022796 0C01     lsr     r1,r0,10h                               
08022798 2540     mov     r5,40h                                  
0802279A E00B     b       80227B4h                                
0802279C 0738     lsl     r0,r7,1Ch                               
0802279E 0300     lsl     r0,r0,0Ch                               
080227A0 01AC     lsl     r4,r5,6h                                
080227A2 0300     lsl     r0,r0,0Ch                               
080227A4 080C     lsr     r4,r1,20h                               
080227A6 0300     lsl     r0,r0,0Ch                               
080227A8 4661     mov     r1,r12                                  
080227AA 8888     ldrh    r0,[r1,4h]                              
080227AC 3860     sub     r0,60h                                  
080227AE 0400     lsl     r0,r0,10h                               
080227B0 0C01     lsr     r1,r0,10h                               
080227B2 2500     mov     r5,0h                                   
080227B4 7FA0     ldrb    r0,[r4,1Eh]                             
080227B6 280A     cmp     r0,0Ah                                  
080227B8 D107     bne     80227CAh                                
080227BA 2BF1     cmp     r3,0F1h                                 
080227BC D105     bne     80227CAh                                
080227BE 9200     str     r2,[sp]                                 
080227C0 9101     str     r1,[sp,4h]                              
080227C2 9502     str     r5,[sp,8h]                              
080227C4 200B     mov     r0,0Bh                                  
080227C6 2100     mov     r1,0h                                   
080227C8 E01F     b       802280Ah                                
080227CA 7FA0     ldrb    r0,[r4,1Eh]                             
080227CC 2809     cmp     r0,9h                                   
080227CE D107     bne     80227E0h                                
080227D0 2BB5     cmp     r3,0B5h                                 
080227D2 D105     bne     80227E0h                                
080227D4 9200     str     r2,[sp]                                 
080227D6 9101     str     r1,[sp,4h]                              
080227D8 9502     str     r5,[sp,8h]                              
080227DA 200B     mov     r0,0Bh                                  
080227DC 2101     mov     r1,1h                                   
080227DE E014     b       802280Ah                                
080227E0 7FA0     ldrb    r0,[r4,1Eh]                             
080227E2 2808     cmp     r0,8h                                   
080227E4 D107     bne     80227F6h                                
080227E6 2B65     cmp     r3,65h                                  
080227E8 D105     bne     80227F6h                                
080227EA 9200     str     r2,[sp]                                 
080227EC 9101     str     r1,[sp,4h]                              
080227EE 9502     str     r5,[sp,8h]                              
080227F0 200B     mov     r0,0Bh                                  
080227F2 2102     mov     r1,2h                                   
080227F4 E009     b       802280Ah                                
080227F6 7FA0     ldrb    r0,[r4,1Eh]                             
080227F8 2807     cmp     r0,7h                                   
080227FA D146     bne     802288Ah                                
080227FC 2B15     cmp     r3,15h                                  
080227FE D144     bne     802288Ah                                
08022800 9200     str     r2,[sp]                                 
08022802 9101     str     r1,[sp,4h]                              
08022804 9502     str     r5,[sp,8h]                              
08022806 200B     mov     r0,0Bh                                  
08022808 2103     mov     r1,3h                                   
0802280A 1C32     mov     r2,r6                                   
0802280C 1C3B     mov     r3,r7                                   
0802280E F7EBFD23 bl      800E258h                                
08022812 E03A     b       802288Ah                                
08022814 4664     mov     r4,r12                                  
08022816 342E     add     r4,2Eh                                  
08022818 7822     ldrb    r2,[r4]                                 
0802281A 4B09     ldr     r3,=82D5BA0h                            
0802281C 0050     lsl     r0,r2,1h                                
0802281E 18C0     add     r0,r0,r3                                
08022820 2500     mov     r5,0h                                   
08022822 5F41     ldsh    r1,[r0,r5]                              
08022824 4807     ldr     r0,=7FFFh                               
08022826 4281     cmp     r1,r0                                   
08022828 D102     bne     8022830h                                
0802282A 2000     mov     r0,0h                                   
0802282C 5E19     ldsh    r1,[r3,r0]                              
0802282E 2200     mov     r2,0h                                   
08022830 1C50     add     r0,r2,1                                 
08022832 7020     strb    r0,[r4]                                 
08022834 4662     mov     r2,r12                                  
08022836 8890     ldrh    r0,[r2,4h]                              
08022838 1840     add     r0,r0,r1                                
0802283A 8090     strh    r0,[r2,4h]                              
0802283C E025     b       802288Ah                                
0802283E 0000     lsl     r0,r0,0h                                
08022840 5BA0     ldrh    r0,[r4,r6]                              
08022842 082D     lsr     r5,r5,20h                               
08022844 7FFF     ldrb    r7,[r7,1Fh]                             
08022846 0000     lsl     r0,r0,0h                                
08022848 1C08     mov     r0,r1                                   
0802284A 3024     add     r0,24h                                  
0802284C 7800     ldrb    r0,[r0]                                 
0802284E 2826     cmp     r0,26h                                  
08022850 D106     bne     8022860h                                
08022852 4661     mov     r1,r12                                  
08022854 3124     add     r1,24h                                  
08022856 2035     mov     r0,35h                                  
08022858 7008     strb    r0,[r1]                                 
0802285A 3108     add     r1,8h                                   
0802285C 2019     mov     r0,19h                                  
0802285E E013     b       8022888h                                
08022860 2827     cmp     r0,27h                                  
08022862 D106     bne     8022872h                                
08022864 4661     mov     r1,r12                                  
08022866 3124     add     r1,24h                                  
08022868 2033     mov     r0,33h                                  
0802286A 7008     strb    r0,[r1]                                 
0802286C 3108     add     r1,8h                                   
0802286E 2019     mov     r0,19h                                  
08022870 E00A     b       8022888h                                
08022872 2844     cmp     r0,44h                                  
08022874 D109     bne     802288Ah                                
08022876 4661     mov     r1,r12                                  
08022878 3124     add     r1,24h                                  
0802287A 2042     mov     r0,42h                                  
0802287C 7008     strb    r0,[r1]                                 
0802287E 3108     add     r1,8h                                   
08022880 2006     mov     r0,6h                                   
08022882 7008     strb    r0,[r1]                                 
08022884 3101     add     r1,1h                                   
08022886 204C     mov     r0,4Ch                                  
08022888 7008     strb    r0,[r1]                                 
0802288A B003     add     sp,0Ch                                  
0802288C BCF0     pop     r4-r7                                   
0802288E BC01     pop     r0                                      
08022890 4700     bx      r0                                      
08022892 0000     lsl     r0,r0,0h                                
08022894 B530     push    r4,r5,r14                               
08022896 4910     ldr     r1,=3000738h                            
08022898 1C08     mov     r0,r1                                   
0802289A 3023     add     r0,23h                                  
0802289C 7802     ldrb    r2,[r0]                                 
0802289E 1C0C     mov     r4,r1                                   
080228A0 342C     add     r4,2Ch                                  
080228A2 7820     ldrb    r0,[r4]                                 
080228A4 1C0B     mov     r3,r1                                   
080228A6 2800     cmp     r0,0h                                   
080228A8 D004     beq     80228B4h                                
080228AA 3801     sub     r0,1h                                   
080228AC 7020     strb    r0,[r4]                                 
080228AE 8858     ldrh    r0,[r3,2h]                              
080228B0 3004     add     r0,4h                                   
080228B2 8058     strh    r0,[r3,2h]                              
080228B4 4809     ldr     r0,=30001ACh                            
080228B6 00D1     lsl     r1,r2,3h                                
080228B8 1A89     sub     r1,r1,r2                                
080228BA 00C9     lsl     r1,r1,3h                                
080228BC 1809     add     r1,r1,r0                                
080228BE 312C     add     r1,2Ch                                  
080228C0 7808     ldrb    r0,[r1]                                 
080228C2 2800     cmp     r0,0h                                   
080228C4 D010     beq     80228E8h                                
080228C6 7F98     ldrb    r0,[r3,1Eh]                             
080228C8 2805     cmp     r0,5h                                   
080228CA D901     bls     80228D0h                                
080228CC 2812     cmp     r0,12h                                  
080228CE D107     bne     80228E0h                                
080228D0 1C19     mov     r1,r3                                   
080228D2 3124     add     r1,24h                                  
080228D4 200F     mov     r0,0Fh                                  
080228D6 E006     b       80228E6h                                
080228D8 0738     lsl     r0,r7,1Ch                               
080228DA 0300     lsl     r0,r0,0Ch                               
080228DC 01AC     lsl     r4,r5,6h                                
080228DE 0300     lsl     r0,r0,0Ch                               
080228E0 1C19     mov     r1,r3                                   
080228E2 3124     add     r1,24h                                  
080228E4 2011     mov     r0,11h                                  
080228E6 7008     strb    r0,[r1]                                 
080228E8 202E     mov     r0,2Eh                                  
080228EA 18C0     add     r0,r0,r3                                
080228EC 4684     mov     r12,r0                                  
080228EE 7802     ldrb    r2,[r0]                                 
080228F0 4C09     ldr     r4,=82D5BA0h                            
080228F2 0050     lsl     r0,r2,1h                                
080228F4 1900     add     r0,r0,r4                                
080228F6 2500     mov     r5,0h                                   
080228F8 5F41     ldsh    r1,[r0,r5]                              
080228FA 4808     ldr     r0,=7FFFh                               
080228FC 4281     cmp     r1,r0                                   
080228FE D102     bne     8022906h                                
08022900 2000     mov     r0,0h                                   
08022902 5E21     ldsh    r1,[r4,r0]                              
08022904 2200     mov     r2,0h                                   
08022906 1C50     add     r0,r2,1                                 
08022908 4662     mov     r2,r12                                  
0802290A 7010     strb    r0,[r2]                                 
0802290C 8898     ldrh    r0,[r3,4h]                              
0802290E 1840     add     r0,r0,r1                                
08022910 8098     strh    r0,[r3,4h]                              
08022912 BC30     pop     r4,r5                                   
08022914 BC01     pop     r0                                      
08022916 4700     bx      r0                                      
08022918 5BA0     ldrh    r0,[r4,r6]                              
0802291A 082D     lsr     r5,r5,20h                               
0802291C 7FFF     ldrb    r7,[r7,1Fh]                             
0802291E 0000     lsl     r0,r0,0h                                
08022920 B530     push    r4,r5,r14                               
08022922 4910     ldr     r1,=3000738h                            
08022924 1C08     mov     r0,r1                                   
08022926 3023     add     r0,23h                                  
08022928 7802     ldrb    r2,[r0]                                 
0802292A 1C0C     mov     r4,r1                                   
0802292C 342C     add     r4,2Ch                                  
0802292E 7820     ldrb    r0,[r4]                                 
08022930 1C0B     mov     r3,r1                                   
08022932 2800     cmp     r0,0h                                   
08022934 D004     beq     8022940h                                
08022936 3801     sub     r0,1h                                   
08022938 7020     strb    r0,[r4]                                 
0802293A 8858     ldrh    r0,[r3,2h]                              
0802293C 3804     sub     r0,4h                                   
0802293E 8058     strh    r0,[r3,2h]                              
08022940 4809     ldr     r0,=30001ACh                            
08022942 00D1     lsl     r1,r2,3h                                
08022944 1A89     sub     r1,r1,r2                                
08022946 00C9     lsl     r1,r1,3h                                
08022948 1809     add     r1,r1,r0                                
0802294A 312C     add     r1,2Ch                                  
0802294C 7808     ldrb    r0,[r1]                                 
0802294E 2800     cmp     r0,0h                                   
08022950 D010     beq     8022974h                                
08022952 7F98     ldrb    r0,[r3,1Eh]                             
08022954 2805     cmp     r0,5h                                   
08022956 D901     bls     802295Ch                                
08022958 2812     cmp     r0,12h                                  
0802295A D107     bne     802296Ch                                
0802295C 1C19     mov     r1,r3                                   
0802295E 3124     add     r1,24h                                  
08022960 200F     mov     r0,0Fh                                  
08022962 E006     b       8022972h                                
08022964 0738     lsl     r0,r7,1Ch                               
08022966 0300     lsl     r0,r0,0Ch                               
08022968 01AC     lsl     r4,r5,6h                                
0802296A 0300     lsl     r0,r0,0Ch                               
0802296C 1C19     mov     r1,r3                                   
0802296E 3124     add     r1,24h                                  
08022970 2011     mov     r0,11h                                  
08022972 7008     strb    r0,[r1]                                 
08022974 202E     mov     r0,2Eh                                  
08022976 18C0     add     r0,r0,r3                                
08022978 4684     mov     r12,r0                                  
0802297A 7802     ldrb    r2,[r0]                                 
0802297C 4C09     ldr     r4,=82D5BA0h                            
0802297E 0050     lsl     r0,r2,1h                                
08022980 1900     add     r0,r0,r4                                
08022982 2500     mov     r5,0h                                   
08022984 5F41     ldsh    r1,[r0,r5]                              
08022986 4808     ldr     r0,=7FFFh                               
08022988 4281     cmp     r1,r0                                   
0802298A D102     bne     8022992h                                
0802298C 2000     mov     r0,0h                                   
0802298E 5E21     ldsh    r1,[r4,r0]                              
08022990 2200     mov     r2,0h                                   
08022992 1C50     add     r0,r2,1                                 
08022994 4662     mov     r2,r12                                  
08022996 7010     strb    r0,[r2]                                 
08022998 8898     ldrh    r0,[r3,4h]                              
0802299A 1840     add     r0,r0,r1                                
0802299C 8098     strh    r0,[r3,4h]                              
0802299E BC30     pop     r4,r5                                   
080229A0 BC01     pop     r0                                      
080229A2 4700     bx      r0                                      
080229A4 5BA0     ldrh    r0,[r4,r6]                              
080229A6 082D     lsr     r5,r5,20h                               
080229A8 7FFF     ldrb    r7,[r7,1Fh]                             
080229AA 0000     lsl     r0,r0,0h                                
080229AC B5F0     push    r4-r7,r14                               
080229AE 4809     ldr     r0,=3000738h                            
080229B0 1C01     mov     r1,r0                                   
080229B2 3123     add     r1,23h                                  
080229B4 780F     ldrb    r7,[r1]                                 
080229B6 7F81     ldrb    r1,[r0,1Eh]                             
080229B8 1C06     mov     r6,r0                                   
080229BA 290C     cmp     r1,0Ch                                  
080229BC D10E     bne     80229DCh                                
080229BE 4A06     ldr     r2,=30001ACh                            
080229C0 00FB     lsl     r3,r7,3h                                
080229C2 1BD9     sub     r1,r3,r7                                
080229C4 00C9     lsl     r1,r1,3h                                
080229C6 1889     add     r1,r1,r2                                
080229C8 8848     ldrh    r0,[r1,2h]                              
080229CA 38A8     sub     r0,0A8h                                 
080229CC 8070     strh    r0,[r6,2h]                              
080229CE 888D     ldrh    r5,[r1,4h]                              
080229D0 4694     mov     r12,r2                                  
080229D2 E01A     b       8022A0Ah                                
080229D4 0738     lsl     r0,r7,1Ch                               
080229D6 0300     lsl     r0,r0,0Ch                               
080229D8 01AC     lsl     r4,r5,6h                                
080229DA 0300     lsl     r0,r0,0Ch                               
080229DC 4B0D     ldr     r3,=30001ACh                            
080229DE 00FC     lsl     r4,r7,3h                                
080229E0 1BE0     sub     r0,r4,r7                                
080229E2 00C0     lsl     r0,r0,3h                                
080229E4 18C0     add     r0,r0,r3                                
080229E6 8842     ldrh    r2,[r0,2h]                              
080229E8 3AA8     sub     r2,0A8h                                 
080229EA 7FB0     ldrb    r0,[r6,1Eh]                             
080229EC 380C     sub     r0,0Ch                                  
080229EE 2164     mov     r1,64h                                  
080229F0 4348     mul     r0,r1                                   
080229F2 1A12     sub     r2,r2,r0                                
080229F4 8072     strh    r2,[r6,2h]                              
080229F6 1C30     mov     r0,r6                                   
080229F8 302C     add     r0,2Ch                                  
080229FA 7801     ldrb    r1,[r0]                                 
080229FC 00C8     lsl     r0,r1,3h                                
080229FE 1A40     sub     r0,r0,r1                                
08022A00 00C0     lsl     r0,r0,3h                                
08022A02 18C0     add     r0,r0,r3                                
08022A04 8885     ldrh    r5,[r0,4h]                              
08022A06 469C     mov     r12,r3                                  
08022A08 1C23     mov     r3,r4                                   
08022A0A 88B1     ldrh    r1,[r6,4h]                              
08022A0C 42A9     cmp     r1,r5                                   
08022A0E D903     bls     8022A18h                                
08022A10 1B48     sub     r0,r1,r5                                
08022A12 E002     b       8022A1Ah                                
08022A14 01AC     lsl     r4,r5,6h                                
08022A16 0300     lsl     r0,r0,0Ch                               
08022A18 1A68     sub     r0,r5,r1                                
08022A1A 0400     lsl     r0,r0,10h                               
08022A1C 0C00     lsr     r0,r0,10h                               
08022A1E 2802     cmp     r0,2h                                   
08022A20 D801     bhi     8022A26h                                
08022A22 2201     mov     r2,1h                                   
08022A24 E000     b       8022A28h                                
08022A26 0882     lsr     r2,r0,2h                                
08022A28 42A9     cmp     r1,r5                                   
08022A2A D202     bcs     8022A32h                                
08022A2C 88B0     ldrh    r0,[r6,4h]                              
08022A2E 1810     add     r0,r2,r0                                
08022A30 E003     b       8022A3Ah                                
08022A32 42A9     cmp     r1,r5                                   
08022A34 D902     bls     8022A3Ch                                
08022A36 88B0     ldrh    r0,[r6,4h]                              
08022A38 1A80     sub     r0,r0,r2                                
08022A3A 80B0     strh    r0,[r6,4h]                              
08022A3C 1BD8     sub     r0,r3,r7                                
08022A3E 00C0     lsl     r0,r0,3h                                
08022A40 4661     mov     r1,r12                                  
08022A42 1842     add     r2,r0,r1                                
08022A44 1C10     mov     r0,r2                                   
08022A46 3024     add     r0,24h                                  
08022A48 7800     ldrb    r0,[r0]                                 
08022A4A 2844     cmp     r0,44h                                  
08022A4C D105     bne     8022A5Ah                                
08022A4E 8890     ldrh    r0,[r2,4h]                              
08022A50 80B0     strh    r0,[r6,4h]                              
08022A52 1C31     mov     r1,r6                                   
08022A54 3124     add     r1,24h                                  
08022A56 204A     mov     r0,4Ah                                  
08022A58 7008     strb    r0,[r1]                                 
08022A5A BCF0     pop     r4-r7                                   
08022A5C BC01     pop     r0                                      
08022A5E 4700     bx      r0                                      
08022A60 B530     push    r4,r5,r14                               
08022A62 491E     ldr     r1,=3000738h                            
08022A64 884C     ldrh    r4,[r1,2h]                              
08022A66 1C20     mov     r0,r4                                   
08022A68 3810     sub     r0,10h                                  
08022A6A 8048     strh    r0,[r1,2h]                              
08022A6C 1C0D     mov     r5,r1                                   
08022A6E 352C     add     r5,2Ch                                  
08022A70 7828     ldrb    r0,[r5]                                 
08022A72 3801     sub     r0,1h                                   
08022A74 7028     strb    r0,[r5]                                 
08022A76 0600     lsl     r0,r0,18h                               
08022A78 0E03     lsr     r3,r0,18h                               
08022A7A 1C0A     mov     r2,r1                                   
08022A7C 2B00     cmp     r3,0h                                   
08022A7E D13B     bne     8022AF8h                                
08022A80 2006     mov     r0,6h                                   
08022A82 7028     strb    r0,[r5]                                 
08022A84 1C20     mov     r0,r4                                   
08022A86 3050     add     r0,50h                                  
08022A88 8050     strh    r0,[r2,2h]                              
08022A8A 8AD0     ldrh    r0,[r2,16h]                             
08022A8C 3001     add     r0,1h                                   
08022A8E 82D0     strh    r0,[r2,16h]                             
08022A90 0400     lsl     r0,r0,10h                               
08022A92 0C00     lsr     r0,r0,10h                               
08022A94 2803     cmp     r0,3h                                   
08022A96 D900     bls     8022A9Ah                                
08022A98 82D3     strh    r3,[r2,16h]                             
08022A9A 1C10     mov     r0,r2                                   
08022A9C 302D     add     r0,2Dh                                  
08022A9E 7803     ldrb    r3,[r0]                                 
08022AA0 2B00     cmp     r3,0h                                   
08022AA2 D12E     bne     8022B02h                                
08022AA4 7F90     ldrb    r0,[r2,1Eh]                             
08022AA6 2813     cmp     r0,13h                                  
08022AA8 D120     bne     8022AECh                                
08022AAA 1C11     mov     r1,r2                                   
08022AAC 3127     add     r1,27h                                  
08022AAE 2010     mov     r0,10h                                  
08022AB0 7008     strb    r0,[r1]                                 
08022AB2 3101     add     r1,1h                                   
08022AB4 2030     mov     r0,30h                                  
08022AB6 7008     strb    r0,[r1]                                 
08022AB8 3101     add     r1,1h                                   
08022ABA 2018     mov     r0,18h                                  
08022ABC 7008     strb    r0,[r1]                                 
08022ABE 4808     ldr     r0,=0FFD0h                              
08022AC0 8150     strh    r0,[r2,0Ah]                             
08022AC2 20A0     mov     r0,0A0h                                 
08022AC4 8190     strh    r0,[r2,0Ch]                             
08022AC6 4807     ldr     r0,=0FFC0h                              
08022AC8 81D0     strh    r0,[r2,0Eh]                             
08022ACA 2040     mov     r0,40h                                  
08022ACC 8210     strh    r0,[r2,10h]                             
08022ACE 4806     ldr     r0,=82D78E4h                            
08022AD0 6190     str     r0,[r2,18h]                             
08022AD2 2000     mov     r0,0h                                   
08022AD4 7710     strb    r0,[r2,1Ch]                             
08022AD6 82D3     strh    r3,[r2,16h]                             
08022AD8 2038     mov     r0,38h                                  
08022ADA E008     b       8022AEEh                                
08022ADC 0738     lsl     r0,r7,1Ch                               
08022ADE 0300     lsl     r0,r0,0Ch                               
08022AE0 FFD0     bl      lr+0FA0h                                
08022AE2 0000     lsl     r0,r0,0h                                
08022AE4 FFC0     bl      lr+0F80h                                
08022AE6 0000     lsl     r0,r0,0h                                
08022AE8 78E4     ldrb    r4,[r4,3h]                              
08022AEA 082D     lsr     r5,r5,20h                               
08022AEC 202E     mov     r0,2Eh                                  
08022AEE 7028     strb    r0,[r5]                                 
08022AF0 1C11     mov     r1,r2                                   
08022AF2 3124     add     r1,24h                                  
08022AF4 2043     mov     r0,43h                                  
08022AF6 7008     strb    r0,[r1]                                 
08022AF8 1C10     mov     r0,r2                                   
08022AFA 302D     add     r0,2Dh                                  
08022AFC 7800     ldrb    r0,[r0]                                 
08022AFE 2800     cmp     r0,0h                                   
08022B00 D004     beq     8022B0Ch                                
08022B02 1C11     mov     r1,r2                                   
08022B04 312D     add     r1,2Dh                                  
08022B06 7808     ldrb    r0,[r1]                                 
08022B08 3801     sub     r0,1h                                   
08022B0A 7008     strb    r0,[r1]                                 
08022B0C BC30     pop     r4,r5                                   
08022B0E BC01     pop     r0                                      
08022B10 4700     bx      r0                                      
08022B12 0000     lsl     r0,r0,0h                                
08022B14 B500     push    r14                                     
08022B16 4A08     ldr     r2,=3000738h                            
08022B18 8850     ldrh    r0,[r2,2h]                              
08022B1A 3810     sub     r0,10h                                  
08022B1C 8050     strh    r0,[r2,2h]                              
08022B1E 1C11     mov     r1,r2                                   
08022B20 312C     add     r1,2Ch                                  
08022B22 7808     ldrb    r0,[r1]                                 
08022B24 3801     sub     r0,1h                                   
08022B26 7008     strb    r0,[r1]                                 
08022B28 0600     lsl     r0,r0,18h                               
08022B2A 0E00     lsr     r0,r0,18h                               
08022B2C 2800     cmp     r0,0h                                   
08022B2E D100     bne     8022B32h                                
08022B30 8010     strh    r0,[r2]                                 
08022B32 BC01     pop     r0                                      
08022B34 4700     bx      r0                                      
08022B36 0000     lsl     r0,r0,0h                                
08022B38 0738     lsl     r0,r7,1Ch                               
08022B3A 0300     lsl     r0,r0,0Ch                               
08022B3C B500     push    r14                                     
08022B3E 4A08     ldr     r2,=3000738h                            
08022B40 8850     ldrh    r0,[r2,2h]                              
08022B42 3010     add     r0,10h                                  
08022B44 8050     strh    r0,[r2,2h]                              
08022B46 1C11     mov     r1,r2                                   
08022B48 312C     add     r1,2Ch                                  
08022B4A 7808     ldrb    r0,[r1]                                 
08022B4C 3801     sub     r0,1h                                   
08022B4E 7008     strb    r0,[r1]                                 
08022B50 0600     lsl     r0,r0,18h                               
08022B52 0E00     lsr     r0,r0,18h                               
08022B54 2800     cmp     r0,0h                                   
08022B56 D100     bne     8022B5Ah                                
08022B58 8010     strh    r0,[r2]                                 
08022B5A BC01     pop     r0                                      
08022B5C 4700     bx      r0                                      
08022B5E 0000     lsl     r0,r0,0h                                
08022B60 0738     lsl     r0,r7,1Ch                               
08022B62 0300     lsl     r0,r0,0Ch                               
08022B64 B530     push    r4,r5,r14                               
08022B66 4909     ldr     r1,=3000738h                            
08022B68 1C08     mov     r0,r1                                   
08022B6A 3023     add     r0,23h                                  
08022B6C 7805     ldrb    r5,[r0]                                 
08022B6E 7F88     ldrb    r0,[r1,1Eh]                             
08022B70 468C     mov     r12,r1                                  
08022B72 280C     cmp     r0,0Ch                                  
08022B74 D10E     bne     8022B94h                                
08022B76 4906     ldr     r1,=30001ACh                            
08022B78 00EA     lsl     r2,r5,3h                                
08022B7A 1B50     sub     r0,r2,r5                                
08022B7C 00C0     lsl     r0,r0,3h                                
08022B7E 1840     add     r0,r0,r1                                
08022B80 8840     ldrh    r0,[r0,2h]                              
08022B82 38A8     sub     r0,0A8h                                 
08022B84 4663     mov     r3,r12                                  
08022B86 8058     strh    r0,[r3,2h]                              
08022B88 E015     b       8022BB6h                                
08022B8A 0000     lsl     r0,r0,0h                                
08022B8C 0738     lsl     r0,r7,1Ch                               
08022B8E 0300     lsl     r0,r0,0Ch                               
08022B90 01AC     lsl     r4,r5,6h                                
08022B92 0300     lsl     r0,r0,0Ch                               
08022B94 4B15     ldr     r3,=30001ACh                            
08022B96 00EC     lsl     r4,r5,3h                                
08022B98 1B60     sub     r0,r4,r5                                
08022B9A 00C0     lsl     r0,r0,3h                                
08022B9C 18C0     add     r0,r0,r3                                
08022B9E 8842     ldrh    r2,[r0,2h]                              
08022BA0 3AA8     sub     r2,0A8h                                 
08022BA2 4661     mov     r1,r12                                  
08022BA4 7F88     ldrb    r0,[r1,1Eh]                             
08022BA6 380C     sub     r0,0Ch                                  
08022BA8 2164     mov     r1,64h                                  
08022BAA 4348     mul     r0,r1                                   
08022BAC 1A12     sub     r2,r2,r0                                
08022BAE 4660     mov     r0,r12                                  
08022BB0 8042     strh    r2,[r0,2h]                              
08022BB2 1C19     mov     r1,r3                                   
08022BB4 1C22     mov     r2,r4                                   
08022BB6 1B50     sub     r0,r2,r5                                
08022BB8 00C0     lsl     r0,r0,3h                                
08022BBA 1840     add     r0,r0,r1                                
08022BBC 3024     add     r0,24h                                  
08022BBE 7800     ldrb    r0,[r0]                                 
08022BC0 2845     cmp     r0,45h                                  
08022BC2 D10F     bne     8022BE4h                                
08022BC4 4661     mov     r1,r12                                  
08022BC6 3124     add     r1,24h                                  
08022BC8 204B     mov     r0,4Bh                                  
08022BCA 7008     strb    r0,[r1]                                 
08022BCC 3108     add     r1,8h                                   
08022BCE 2006     mov     r0,6h                                   
08022BD0 7008     strb    r0,[r1]                                 
08022BD2 3101     add     r1,1h                                   
08022BD4 2014     mov     r0,14h                                  
08022BD6 7008     strb    r0,[r1]                                 
08022BD8 4661     mov     r1,r12                                  
08022BDA 7F88     ldrb    r0,[r1,1Eh]                             
08022BDC 280C     cmp     r0,0Ch                                  
08022BDE D101     bne     8022BE4h                                
08022BE0 4803     ldr     r0,=82D7894h                            
08022BE2 6188     str     r0,[r1,18h]                             
08022BE4 BC30     pop     r4,r5                                   
08022BE6 BC01     pop     r0                                      
08022BE8 4700     bx      r0                                      
08022BEA 0000     lsl     r0,r0,0h                                
08022BEC 01AC     lsl     r4,r5,6h                                
08022BEE 0300     lsl     r0,r0,0Ch                               
08022BF0 7894     ldrb    r4,[r2,2h]                              
08022BF2 082D     lsr     r5,r5,20h                               
08022BF4 B530     push    r4,r5,r14                               
08022BF6 4A23     ldr     r2,=3000738h                            
08022BF8 8853     ldrh    r3,[r2,2h]                              
08022BFA 1C18     mov     r0,r3                                   
08022BFC 3010     add     r0,10h                                  
08022BFE 8050     strh    r0,[r2,2h]                              
08022C00 1C15     mov     r5,r2                                   
08022C02 352C     add     r5,2Ch                                  
08022C04 7828     ldrb    r0,[r5]                                 
08022C06 3801     sub     r0,1h                                   
08022C08 7028     strb    r0,[r5]                                 
08022C0A 24FF     mov     r4,0FFh                                 
08022C0C 0600     lsl     r0,r0,18h                               
08022C0E 0E01     lsr     r1,r0,18h                               
08022C10 2900     cmp     r1,0h                                   
08022C12 D134     bne     8022C7Eh                                
08022C14 2006     mov     r0,6h                                   
08022C16 7028     strb    r0,[r5]                                 
08022C18 1C18     mov     r0,r3                                   
08022C1A 3850     sub     r0,50h                                  
08022C1C 8050     strh    r0,[r2,2h]                              
08022C1E 8AD0     ldrh    r0,[r2,16h]                             
08022C20 3001     add     r0,1h                                   
08022C22 82D0     strh    r0,[r2,16h]                             
08022C24 0400     lsl     r0,r0,10h                               
08022C26 0C00     lsr     r0,r0,10h                               
08022C28 2803     cmp     r0,3h                                   
08022C2A D900     bls     8022C2Eh                                
08022C2C 82D1     strh    r1,[r2,16h]                             
08022C2E 1C11     mov     r1,r2                                   
08022C30 312D     add     r1,2Dh                                  
08022C32 7808     ldrb    r0,[r1]                                 
08022C34 3801     sub     r0,1h                                   
08022C36 7008     strb    r0,[r1]                                 
08022C38 1C23     mov     r3,r4                                   
08022C3A 4003     and     r3,r0                                   
08022C3C 2B00     cmp     r3,0h                                   
08022C3E D11E     bne     8022C7Eh                                
08022C40 7F90     ldrb    r0,[r2,1Eh]                             
08022C42 2811     cmp     r0,11h                                  
08022C44 D115     bne     8022C72h                                
08022C46 3906     sub     r1,6h                                   
08022C48 2010     mov     r0,10h                                  
08022C4A 7008     strb    r0,[r1]                                 
08022C4C 3101     add     r1,1h                                   
08022C4E 2030     mov     r0,30h                                  
08022C50 7008     strb    r0,[r1]                                 
08022C52 3101     add     r1,1h                                   
08022C54 2018     mov     r0,18h                                  
08022C56 7008     strb    r0,[r1]                                 
08022C58 480B     ldr     r0,=0FFD0h                              
08022C5A 8150     strh    r0,[r2,0Ah]                             
08022C5C 20A0     mov     r0,0A0h                                 
08022C5E 8190     strh    r0,[r2,0Ch]                             
08022C60 480A     ldr     r0,=0FFC0h                              
08022C62 81D0     strh    r0,[r2,0Eh]                             
08022C64 2040     mov     r0,40h                                  
08022C66 8210     strh    r0,[r2,10h]                             
08022C68 4809     ldr     r0,=82D78E4h                            
08022C6A 6190     str     r0,[r2,18h]                             
08022C6C 2000     mov     r0,0h                                   
08022C6E 7710     strb    r0,[r2,1Ch]                             
08022C70 82D3     strh    r3,[r2,16h]                             
08022C72 1C10     mov     r0,r2                                   
08022C74 3024     add     r0,24h                                  
08022C76 214C     mov     r1,4Ch                                  
08022C78 7001     strb    r1,[r0]                                 
08022C7A 202E     mov     r0,2Eh                                  
08022C7C 7028     strb    r0,[r5]                                 
08022C7E BC30     pop     r4,r5                                   
08022C80 BC01     pop     r0                                      
08022C82 4700     bx      r0                                      
08022C84 0738     lsl     r0,r7,1Ch                               
08022C86 0300     lsl     r0,r0,0Ch                               
08022C88 FFD0     bl      lr+0FA0h                                
08022C8A 0000     lsl     r0,r0,0h                                
08022C8C FFC0     bl      lr+0F80h                                
08022C8E 0000     lsl     r0,r0,0h                                
08022C90 78E4     ldrb    r4,[r4,3h]                              
08022C92 082D     lsr     r5,r5,20h                               
08022C94 B500     push    r14                                     
08022C96 4A08     ldr     r2,=3000738h                            
08022C98 8850     ldrh    r0,[r2,2h]                              
08022C9A 3010     add     r0,10h                                  
08022C9C 8050     strh    r0,[r2,2h]                              
08022C9E 1C11     mov     r1,r2                                   
08022CA0 312C     add     r1,2Ch                                  
08022CA2 7808     ldrb    r0,[r1]                                 
08022CA4 3801     sub     r0,1h                                   
08022CA6 7008     strb    r0,[r1]                                 
08022CA8 0600     lsl     r0,r0,18h                               
08022CAA 0E00     lsr     r0,r0,18h                               
08022CAC 2800     cmp     r0,0h                                   
08022CAE D100     bne     8022CB2h                                
08022CB0 8010     strh    r0,[r2]                                 
08022CB2 BC01     pop     r0                                      
08022CB4 4700     bx      r0                                      
08022CB6 0000     lsl     r0,r0,0h                                
08022CB8 0738     lsl     r0,r7,1Ch                               
08022CBA 0300     lsl     r0,r0,0Ch                               
08022CBC B500     push    r14                                     
08022CBE 2206     mov     r2,6h                                   
08022CC0 4904     ldr     r1,=3000738h                            
08022CC2 7F88     ldrb    r0,[r1,1Eh]                             
08022CC4 1C0B     mov     r3,r1                                   
08022CC6 2813     cmp     r0,13h                                  
08022CC8 D85E     bhi     8022D88h                                
08022CCA 0080     lsl     r0,r0,2h                                
08022CCC 4902     ldr     r1,=8022CDCh                            
08022CCE 1840     add     r0,r0,r1                                
08022CD0 6800     ldr     r0,[r0]                                 
08022CD2 4687     mov     r15,r0                                  
08022CD4 0738     lsl     r0,r7,1Ch                               
08022CD6 0300     lsl     r0,r0,0Ch                               
08022CD8 2CDC     cmp     r4,0DCh                                 
08022CDA 0802     lsr     r2,r0,20h                               
08022CDC 2D5A     cmp     r5,5Ah                                  
08022CDE 0802     lsr     r2,r0,20h                               
08022CE0 2D60     cmp     r5,60h                                  
08022CE2 0802     lsr     r2,r0,20h                               
08022CE4 2D68     cmp     r5,68h                                  
08022CE6 0802     lsr     r2,r0,20h                               
08022CE8 2D6E     cmp     r5,6Eh                                  
08022CEA 0802     lsr     r2,r0,20h                               
08022CEC 2D76     cmp     r5,76h                                  
08022CEE 0802     lsr     r2,r0,20h                               
08022CF0 2D7C     cmp     r5,7Ch                                  
08022CF2 0802     lsr     r2,r0,20h                               
08022CF4 2D34     cmp     r5,34h                                  
08022CF6 0802     lsr     r2,r0,20h                               
08022CF8 2D38     cmp     r5,38h                                  
08022CFA 0802     lsr     r2,r0,20h                               
08022CFC 2D3C     cmp     r5,3Ch                                  
08022CFE 0802     lsr     r2,r0,20h                               
08022D00 2D44     cmp     r5,44h                                  
08022D02 0802     lsr     r2,r0,20h                               
08022D04 2D4A     cmp     r5,4Ah                                  
08022D06 0802     lsr     r2,r0,20h                               
08022D08 2D4E     cmp     r5,4Eh                                  
08022D0A 0802     lsr     r2,r0,20h                               
08022D0C 2D88     cmp     r5,88h                                  
08022D0E 0802     lsr     r2,r0,20h                               
08022D10 2D2C     cmp     r5,2Ch                                  
08022D12 0802     lsr     r2,r0,20h                               
08022D14 2D30     cmp     r5,30h                                  
08022D16 0802     lsr     r2,r0,20h                               
08022D18 2D88     cmp     r5,88h                                  
08022D1A 0802     lsr     r2,r0,20h                               
08022D1C 2D88     cmp     r5,88h                                  
08022D1E 0802     lsr     r2,r0,20h                               
08022D20 2D88     cmp     r5,88h                                  
08022D22 0802     lsr     r2,r0,20h                               
08022D24 2D80     cmp     r5,80h                                  
08022D26 0802     lsr     r2,r0,20h                               
08022D28 2D52     cmp     r5,52h                                  
08022D2A 0802     lsr     r2,r0,20h                               
08022D2C 0650     lsl     r0,r2,19h                               
08022D2E E02A     b       8022D86h                                
08022D30 0050     lsl     r0,r2,1h                                
08022D32 E026     b       8022D82h                                
08022D34 0690     lsl     r0,r2,1Ah                               
08022D36 E026     b       8022D86h                                
08022D38 0090     lsl     r0,r2,2h                                
08022D3A E022     b       8022D82h                                
08022D3C 0050     lsl     r0,r2,1h                                
08022D3E 1880     add     r0,r0,r2                                
08022D40 0640     lsl     r0,r0,19h                               
08022D42 E020     b       8022D86h                                
08022D44 00D0     lsl     r0,r2,3h                                
08022D46 1A80     sub     r0,r0,r2                                
08022D48 E01C     b       8022D84h                                
08022D4A 06D0     lsl     r0,r2,1Bh                               
08022D4C E01B     b       8022D86h                                
08022D4E 00D0     lsl     r0,r2,3h                                
08022D50 E017     b       8022D82h                                
08022D52 0090     lsl     r0,r2,2h                                
08022D54 1880     add     r0,r0,r2                                
08022D56 0640     lsl     r0,r0,19h                               
08022D58 E015     b       8022D86h                                
08022D5A 200B     mov     r0,0Bh                                  
08022D5C 4350     mul     r0,r2                                   
08022D5E E011     b       8022D84h                                
08022D60 0050     lsl     r0,r2,1h                                
08022D62 1880     add     r0,r0,r2                                
08022D64 0680     lsl     r0,r0,1Ah                               
08022D66 E00E     b       8022D86h                                
08022D68 200D     mov     r0,0Dh                                  
08022D6A 4350     mul     r0,r2                                   
08022D6C E00A     b       8022D84h                                
08022D6E 00D0     lsl     r0,r2,3h                                
08022D70 1A80     sub     r0,r0,r2                                
08022D72 0640     lsl     r0,r0,19h                               
08022D74 E007     b       8022D86h                                
08022D76 0110     lsl     r0,r2,4h                                
08022D78 1A80     sub     r0,r0,r2                                
08022D7A E003     b       8022D84h                                
08022D7C 0710     lsl     r0,r2,1Ch                               
08022D7E E002     b       8022D86h                                
08022D80 0110     lsl     r0,r2,4h                                
08022D82 1880     add     r0,r0,r2                                
08022D84 0600     lsl     r0,r0,18h                               
08022D86 0E02     lsr     r2,r0,18h                               
08022D88 1C11     mov     r1,r2                                   
08022D8A 313C     add     r1,3Ch                                  
08022D8C 1C18     mov     r0,r3                                   
08022D8E 302C     add     r0,2Ch                                  
08022D90 7001     strb    r1,[r0]                                 
08022D92 1C19     mov     r1,r3                                   
08022D94 3124     add     r1,24h                                  
08022D96 2067     mov     r0,67h                                  
08022D98 7008     strb    r0,[r1]                                 
08022D9A 1C1A     mov     r2,r3                                   
08022D9C 322B     add     r2,2Bh                                  
08022D9E 7811     ldrb    r1,[r2]                                 
08022DA0 2080     mov     r0,80h                                  
08022DA2 4008     and     r0,r1                                   
08022DA4 7010     strb    r0,[r2]                                 
08022DA6 1C18     mov     r0,r3                                   
08022DA8 3034     add     r0,34h                                  
08022DAA 7801     ldrb    r1,[r0]                                 
08022DAC 3814     sub     r0,14h                                  
08022DAE 7001     strb    r1,[r0]                                 
08022DB0 BC01     pop     r0                                      
08022DB2 4700     bx      r0                                      
08022DB4 B5F0     push    r4-r7,r14                               
08022DB6 B081     add     sp,-4h                                  
08022DB8 490C     ldr     r1,=3000738h                            
08022DBA 1C08     mov     r0,r1                                   
08022DBC 3026     add     r0,26h                                  
08022DBE 2601     mov     r6,1h                                   
08022DC0 7006     strb    r6,[r0]                                 
08022DC2 888D     ldrh    r5,[r1,4h]                              
08022DC4 7F8B     ldrb    r3,[r1,1Eh]                             
08022DC6 1C1C     mov     r4,r3                                   
08022DC8 4809     ldr     r0,=300083Ch                            
08022DCA 7800     ldrb    r0,[r0]                                 
08022DCC 0640     lsl     r0,r0,19h                               
08022DCE 0E02     lsr     r2,r0,18h                               
08022DD0 1C0F     mov     r7,r1                                   
08022DD2 2B0B     cmp     r3,0Bh                                  
08022DD4 D903     bls     8022DDEh                                
08022DD6 1C10     mov     r0,r2                                   
08022DD8 3030     add     r0,30h                                  
08022DDA 0600     lsl     r0,r0,18h                               
08022DDC 0E02     lsr     r2,r0,18h                               
08022DDE 1C18     mov     r0,r3                                   
08022DE0 4030     and     r0,r6                                   
08022DE2 2800     cmp     r0,0h                                   
08022DE4 D006     beq     8022DF4h                                
08022DE6 18A8     add     r0,r5,r2                                
08022DE8 18C0     add     r0,r0,r3                                
08022DEA E005     b       8022DF8h                                
08022DEC 0738     lsl     r0,r7,1Ch                               
08022DEE 0300     lsl     r0,r0,0Ch                               
08022DF0 083C     lsr     r4,r7,20h                               
08022DF2 0300     lsl     r0,r0,0Ch                               
08022DF4 1910     add     r0,r2,r4                                
08022DF6 1A28     sub     r0,r5,r0                                
08022DF8 0400     lsl     r0,r0,10h                               
08022DFA 0C05     lsr     r5,r0,10h                               
08022DFC 1C3A     mov     r2,r7                                   
08022DFE 1C11     mov     r1,r2                                   
08022E00 312C     add     r1,2Ch                                  
08022E02 7808     ldrb    r0,[r1]                                 
08022E04 3801     sub     r0,1h                                   
08022E06 7008     strb    r0,[r1]                                 
08022E08 0600     lsl     r0,r0,18h                               
08022E0A 0E06     lsr     r6,r0,18h                               
08022E0C 2E00     cmp     r6,0h                                   
08022E0E D114     bne     8022E3Ah                                
08022E10 8854     ldrh    r4,[r2,2h]                              
08022E12 2021     mov     r0,21h                                  
08022E14 9000     str     r0,[sp]                                 
08022E16 2000     mov     r0,0h                                   
08022E18 1C21     mov     r1,r4                                   
08022E1A 1C2A     mov     r2,r5                                   
08022E1C 2300     mov     r3,0h                                   
08022E1E F7EEF931 bl      8011084h                                
08022E22 4808     ldr     r0,=300080Ch                            
08022E24 8801     ldrh    r1,[r0]                                 
08022E26 22E0     mov     r2,0E0h                                 
08022E28 0052     lsl     r2,r2,1h                                
08022E2A 1888     add     r0,r1,r2                                
08022E2C 4284     cmp     r4,r0                                   
08022E2E DC03     bgt     8022E38h                                
08022E30 1C08     mov     r0,r1                                   
08022E32 3080     add     r0,80h                                  
08022E34 4284     cmp     r4,r0                                   
08022E36 DA00     bge     8022E3Ah                                
08022E38 803E     strh    r6,[r7]                                 
08022E3A B001     add     sp,4h                                   
08022E3C BCF0     pop     r4-r7                                   
08022E3E BC01     pop     r0                                      
08022E40 4700     bx      r0                                      
08022E42 0000     lsl     r0,r0,0h                                
08022E44 080C     lsr     r4,r1,20h                               
08022E46 0300     lsl     r0,r0,0Ch                               
08022E48 B570     push    r4-r6,r14                               
08022E4A 4E29     ldr     r6,=3000738h                            
08022E4C 8830     ldrh    r0,[r6]                                 
08022E4E 2408     mov     r4,8h                                   
08022E50 2300     mov     r3,0h                                   
08022E52 2500     mov     r5,0h                                   
08022E54 1C21     mov     r1,r4                                   
08022E56 4301     orr     r1,r0                                   
08022E58 2080     mov     r0,80h                                  
08022E5A 0040     lsl     r0,r0,1h                                
08022E5C 8270     strh    r0,[r6,12h]                             
08022E5E 4825     ldr     r0,=0FFFBh                              
08022E60 4001     and     r1,r0                                   
08022E62 8031     strh    r1,[r6]                                 
08022E64 1C31     mov     r1,r6                                   
08022E66 3122     add     r1,22h                                  
08022E68 200B     mov     r0,0Bh                                  
08022E6A 7008     strb    r0,[r1]                                 
08022E6C 4A22     ldr     r2,=82B1BE4h                            
08022E6E 7F71     ldrb    r1,[r6,1Dh]                             
08022E70 00C8     lsl     r0,r1,3h                                
08022E72 1840     add     r0,r0,r1                                
08022E74 0040     lsl     r0,r0,1h                                
08022E76 1880     add     r0,r0,r2                                
08022E78 8800     ldrh    r0,[r0]                                 
08022E7A 82B0     strh    r0,[r6,14h]                             
08022E7C 1C30     mov     r0,r6                                   
08022E7E 3027     add     r0,27h                                  
08022E80 2110     mov     r1,10h                                  
08022E82 7001     strb    r1,[r0]                                 
08022E84 3001     add     r0,1h                                   
08022E86 7001     strb    r1,[r0]                                 
08022E88 3001     add     r0,1h                                   
08022E8A 7001     strb    r1,[r0]                                 
08022E8C 481B     ldr     r0,=0FFC0h                              
08022E8E 8170     strh    r0,[r6,0Ah]                             
08022E90 2030     mov     r0,30h                                  
08022E92 81B0     strh    r0,[r6,0Ch]                             
08022E94 481A     ldr     r0,=0FFD8h                              
08022E96 81F0     strh    r0,[r6,0Eh]                             
08022E98 2028     mov     r0,28h                                  
08022E9A 8230     strh    r0,[r6,10h]                             
08022E9C 4819     ldr     r0,=82D792Ch                            
08022E9E 61B0     str     r0,[r6,18h]                             
08022EA0 7733     strb    r3,[r6,1Ch]                             
08022EA2 82F5     strh    r5,[r6,16h]                             
08022EA4 1C31     mov     r1,r6                                   
08022EA6 3133     add     r1,33h                                  
08022EA8 2004     mov     r0,4h                                   
08022EAA 7008     strb    r0,[r1]                                 
08022EAC 1C30     mov     r0,r6                                   
08022EAE 3025     add     r0,25h                                  
08022EB0 7003     strb    r3,[r0]                                 
08022EB2 3801     sub     r0,1h                                   
08022EB4 7004     strb    r4,[r0]                                 
08022EB6 20E1     mov     r0,0E1h                                 
08022EB8 00C0     lsl     r0,r0,3h                                
08022EBA 80F0     strh    r0,[r6,6h]                              
08022EBC 2003     mov     r0,3h                                   
08022EBE 2119     mov     r1,19h                                  
08022EC0 F03DFCFC bl      80608BCh                                
08022EC4 2800     cmp     r0,0h                                   
08022EC6 D108     bne     8022EDAh                                
08022EC8 2003     mov     r0,3h                                   
08022ECA 211A     mov     r1,1Ah                                  
08022ECC F03DFCF6 bl      80608BCh                                
08022ED0 2800     cmp     r0,0h                                   
08022ED2 D102     bne     8022EDAh                                
08022ED4 88F0     ldrh    r0,[r6,6h]                              
08022ED6 0840     lsr     r0,r0,1h                                
08022ED8 80F0     strh    r0,[r6,6h]                              
08022EDA 4A05     ldr     r2,=3000738h                            
08022EDC 490A     ldr     r1,=30013D4h                            
08022EDE 8890     ldrh    r0,[r2,4h]                              
08022EE0 8A49     ldrh    r1,[r1,12h]                             
08022EE2 4288     cmp     r0,r1                                   
08022EE4 D912     bls     8022F0Ch                                
08022EE6 1C10     mov     r0,r2                                   
08022EE8 302A     add     r0,2Ah                                  
08022EEA 2180     mov     r1,80h                                  
08022EEC E011     b       8022F12h                                
08022EEE 0000     lsl     r0,r0,0h                                
08022EF0 0738     lsl     r0,r7,1Ch                               
08022EF2 0300     lsl     r0,r0,0Ch                               
08022EF4 FFFB     bl      lr+0FF6h                                
08022EF6 0000     lsl     r0,r0,0h                                
08022EF8 1BE4     sub     r4,r4,r7                                
08022EFA 082B     lsr     r3,r5,20h                               
08022EFC FFC0     bl      lr+0F80h                                
08022EFE 0000     lsl     r0,r0,0h                                
08022F00 FFD8     bl      lr+0FB0h                                
08022F02 0000     lsl     r0,r0,0h                                
08022F04 792C     ldrb    r4,[r5,4h]                              
08022F06 082D     lsr     r5,r5,20h                               
08022F08 13D4     asr     r4,r2,0Fh                               
08022F0A 0300     lsl     r0,r0,0Ch                               
08022F0C 1C10     mov     r0,r2                                   
08022F0E 302A     add     r0,2Ah                                  
08022F10 2100     mov     r1,0h                                   
08022F12 7001     strb    r1,[r0]                                 
08022F14 3002     add     r0,2h                                   
08022F16 7001     strb    r1,[r0]                                 
08022F18 1C11     mov     r1,r2                                   
08022F1A 312E     add     r1,2Eh                                  
08022F1C 2000     mov     r0,0h                                   
08022F1E 7008     strb    r0,[r1]                                 
08022F20 BC70     pop     r4-r6                                   
08022F22 BC01     pop     r0                                      
08022F24 4700     bx      r0                                      
08022F26 0000     lsl     r0,r0,0h                                
08022F28 4802     ldr     r0,=3000738h                            
08022F2A 3024     add     r0,24h                                  
08022F2C 2109     mov     r1,9h                                   
08022F2E 7001     strb    r1,[r0]                                 
08022F30 4770     bx      r14                                     
08022F32 0000     lsl     r0,r0,0h                                
08022F34 0738     lsl     r0,r7,1Ch                               
08022F36 0300     lsl     r0,r0,0Ch                               
08022F38 B5F0     push    r4-r7,r14                               
08022F3A 464F     mov     r7,r9                                   
08022F3C 4646     mov     r6,r8                                   
08022F3E B4C0     push    r6,r7                                   
08022F40 2702     mov     r7,2h                                   
08022F42 4A13     ldr     r2,=3000738h                            
08022F44 1C10     mov     r0,r2                                   
08022F46 3023     add     r0,23h                                  
08022F48 7800     ldrb    r0,[r0]                                 
08022F4A 4680     mov     r8,r0                                   
08022F4C 1C10     mov     r0,r2                                   
08022F4E 302C     add     r0,2Ch                                  
08022F50 7803     ldrb    r3,[r0]                                 
08022F52 4910     ldr     r1,=30013D4h                            
08022F54 8A88     ldrh    r0,[r1,14h]                             
08022F56 3848     sub     r0,48h                                  
08022F58 0400     lsl     r0,r0,10h                               
08022F5A 1406     asr     r6,r0,10h                               
08022F5C 2012     mov     r0,12h                                  
08022F5E 5E0C     ldsh    r4,[r1,r0]                              
08022F60 490D     ldr     r1,=30001ACh                            
08022F62 4689     mov     r9,r1                                   
08022F64 4641     mov     r1,r8                                   
08022F66 00C8     lsl     r0,r1,3h                                
08022F68 1A40     sub     r0,r0,r1                                
08022F6A 00C0     lsl     r0,r0,3h                                
08022F6C 4448     add     r0,r9                                   
08022F6E 2102     mov     r1,2h                                   
08022F70 5E45     ldsh    r5,[r0,r1]                              
08022F72 2104     mov     r1,4h                                   
08022F74 5E40     ldsh    r0,[r0,r1]                              
08022F76 4684     mov     r12,r0                                  
08022F78 42AE     cmp     r6,r5                                   
08022F7A DA15     bge     8022FA8h                                
08022F7C 3840     sub     r0,40h                                  
08022F7E 42A0     cmp     r0,r4                                   
08022F80 DA00     bge     8022F84h                                
08022F82 3080     add     r0,80h                                  
08022F84 4564     cmp     r4,r12                                  
08022F86 DD09     ble     8022F9Ch                                
08022F88 1BA8     sub     r0,r5,r6                                
08022F8A 21E0     mov     r1,0E0h                                 
08022F8C E019     b       8022FC2h                                
08022F8E 0000     lsl     r0,r0,0h                                
08022F90 0738     lsl     r0,r7,1Ch                               
08022F92 0300     lsl     r0,r0,0Ch                               
08022F94 13D4     asr     r4,r2,0Fh                               
08022F96 0300     lsl     r0,r0,0Ch                               
08022F98 01AC     lsl     r4,r5,6h                                
08022F9A 0300     lsl     r0,r0,0Ch                               
08022F9C 1BA8     sub     r0,r5,r6                                
08022F9E 21A0     mov     r1,0A0h                                 
08022FA0 283F     cmp     r0,3Fh                                  
08022FA2 DC16     bgt     8022FD2h                                
08022FA4 2180     mov     r1,80h                                  
08022FA6 E01F     b       8022FE8h                                
08022FA8 4660     mov     r0,r12                                  
08022FAA 3840     sub     r0,40h                                  
08022FAC 42A0     cmp     r0,r4                                   
08022FAE DA04     bge     8022FBAh                                
08022FB0 3080     add     r0,80h                                  
08022FB2 42A0     cmp     r0,r4                                   
08022FB4 DD01     ble     8022FBAh                                
08022FB6 2140     mov     r1,40h                                  
08022FB8 E016     b       8022FE8h                                
08022FBA 4564     cmp     r4,r12                                  
08022FBC DD04     ble     8022FC8h                                
08022FBE 1B70     sub     r0,r6,r5                                
08022FC0 2120     mov     r1,20h                                  
08022FC2 283F     cmp     r0,3Fh                                  
08022FC4 DC05     bgt     8022FD2h                                
08022FC6 E006     b       8022FD6h                                
08022FC8 1B70     sub     r0,r6,r5                                
08022FCA 2160     mov     r1,60h                                  
08022FCC 283F     cmp     r0,3Fh                                  
08022FCE DC00     bgt     8022FD2h                                
08022FD0 2180     mov     r1,80h                                  
08022FD2 2900     cmp     r1,0h                                   
08022FD4 D108     bne     8022FE8h                                
08022FD6 1E58     sub     r0,r3,1                                 
08022FD8 0400     lsl     r0,r0,10h                               
08022FDA 0C00     lsr     r0,r0,10h                               
08022FDC 287E     cmp     r0,7Eh                                  
08022FDE D95F     bls     80230A0h                                
08022FE0 2B7F     cmp     r3,7Fh                                  
08022FE2 DD60     ble     80230A6h                                
08022FE4 19D8     add     r0,r3,r7                                
08022FE6 E05C     b       80230A2h                                
08022FE8 2920     cmp     r1,20h                                  
08022FEA D10D     bne     8023008h                                
08022FEC 1C18     mov     r0,r3                                   
08022FEE 3821     sub     r0,21h                                  
08022FF0 0400     lsl     r0,r0,10h                               
08022FF2 0C00     lsr     r0,r0,10h                               
08022FF4 287E     cmp     r0,7Eh                                  
08022FF6 D953     bls     80230A0h                                
08022FF8 1C18     mov     r0,r3                                   
08022FFA 3820     sub     r0,20h                                  
08022FFC 0400     lsl     r0,r0,10h                               
08022FFE 0C00     lsr     r0,r0,10h                               
08023000 287F     cmp     r0,7Fh                                  
08023002 D950     bls     80230A6h                                
08023004 19D8     add     r0,r3,r7                                
08023006 E04C     b       80230A2h                                
08023008 2940     cmp     r1,40h                                  
0802300A D10D     bne     8023028h                                
0802300C 1C18     mov     r0,r3                                   
0802300E 3841     sub     r0,41h                                  
08023010 0400     lsl     r0,r0,10h                               
08023012 0C00     lsr     r0,r0,10h                               
08023014 287E     cmp     r0,7Eh                                  
08023016 D943     bls     80230A0h                                
08023018 1C18     mov     r0,r3                                   
0802301A 3840     sub     r0,40h                                  
0802301C 0400     lsl     r0,r0,10h                               
0802301E 0C00     lsr     r0,r0,10h                               
08023020 287F     cmp     r0,7Fh                                  
08023022 D940     bls     80230A6h                                
08023024 19D8     add     r0,r3,r7                                
08023026 E03C     b       80230A2h                                
08023028 2960     cmp     r1,60h                                  
0802302A D10D     bne     8023048h                                
0802302C 1C18     mov     r0,r3                                   
0802302E 3861     sub     r0,61h                                  
08023030 0400     lsl     r0,r0,10h                               
08023032 0C00     lsr     r0,r0,10h                               
08023034 287E     cmp     r0,7Eh                                  
08023036 D933     bls     80230A0h                                
08023038 1C18     mov     r0,r3                                   
0802303A 3860     sub     r0,60h                                  
0802303C 0400     lsl     r0,r0,10h                               
0802303E 0C00     lsr     r0,r0,10h                               
08023040 287F     cmp     r0,7Fh                                  
08023042 D930     bls     80230A6h                                
08023044 19D8     add     r0,r3,r7                                
08023046 E02C     b       80230A2h                                
08023048 2980     cmp     r1,80h                                  
0802304A D109     bne     8023060h                                
0802304C 1E58     sub     r0,r3,1                                 
0802304E 0400     lsl     r0,r0,10h                               
08023050 0C00     lsr     r0,r0,10h                               
08023052 287E     cmp     r0,7Eh                                  
08023054 D801     bhi     802305Ah                                
08023056 19D8     add     r0,r3,r7                                
08023058 E023     b       80230A2h                                
0802305A 2B80     cmp     r3,80h                                  
0802305C DD23     ble     80230A6h                                
0802305E E01F     b       80230A0h                                
08023060 29A0     cmp     r1,0A0h                                 
08023062 D107     bne     8023074h                                
08023064 1C18     mov     r0,r3                                   
08023066 3821     sub     r0,21h                                  
08023068 0400     lsl     r0,r0,10h                               
0802306A 0C00     lsr     r0,r0,10h                               
0802306C 287E     cmp     r0,7Eh                                  
0802306E D815     bhi     802309Ch                                
08023070 19D8     add     r0,r3,r7                                
08023072 E016     b       80230A2h                                
08023074 29C0     cmp     r1,0C0h                                 
08023076 D107     bne     8023088h                                
08023078 1C18     mov     r0,r3                                   
0802307A 3841     sub     r0,41h                                  
0802307C 0400     lsl     r0,r0,10h                               
0802307E 0C00     lsr     r0,r0,10h                               
08023080 287E     cmp     r0,7Eh                                  
08023082 D80B     bhi     802309Ch                                
08023084 19D8     add     r0,r3,r7                                
08023086 E00C     b       80230A2h                                
08023088 29E0     cmp     r1,0E0h                                 
0802308A D10C     bne     80230A6h                                
0802308C 1C18     mov     r0,r3                                   
0802308E 3861     sub     r0,61h                                  
08023090 0400     lsl     r0,r0,10h                               
08023092 0C00     lsr     r0,r0,10h                               
08023094 287E     cmp     r0,7Eh                                  
08023096 D801     bhi     802309Ch                                
08023098 19D8     add     r0,r3,r7                                
0802309A E002     b       80230A2h                                
0802309C 287F     cmp     r0,7Fh                                  
0802309E D902     bls     80230A6h                                
080230A0 1BD8     sub     r0,r3,r7                                
080230A2 0400     lsl     r0,r0,10h                               
080230A4 1403     asr     r3,r0,10h                               
080230A6 4640     mov     r0,r8                                   
080230A8 00C1     lsl     r1,r0,3h                                
080230AA 1A09     sub     r1,r1,r0                                
080230AC 00C9     lsl     r1,r1,3h                                
080230AE 4449     add     r1,r9                                   
080230B0 8848     ldrh    r0,[r1,2h]                              
080230B2 381C     sub     r0,1Ch                                  
080230B4 8050     strh    r0,[r2,2h]                              
080230B6 8888     ldrh    r0,[r1,4h]                              
080230B8 3804     sub     r0,4h                                   
080230BA 8090     strh    r0,[r2,4h]                              
080230BC 1C10     mov     r0,r2                                   
080230BE 302C     add     r0,2Ch                                  
080230C0 7003     strb    r3,[r0]                                 
080230C2 3802     sub     r0,2h                                   
080230C4 7003     strb    r3,[r0]                                 
080230C6 BC18     pop     r3,r4                                   
080230C8 4698     mov     r8,r3                                   
080230CA 46A1     mov     r9,r4                                   
080230CC BCF0     pop     r4-r7                                   
080230CE BC01     pop     r0                                      
080230D0 4700     bx      r0                                      
080230D2 0000     lsl     r0,r0,0h                                
080230D4 B510     push    r4,r14                                  
080230D6 4C0C     ldr     r4,=3000738h                            
080230D8 69A0     ldr     r0,[r4,18h]                             
080230DA 4A0C     ldr     r2,=82D792Ch                            
080230DC 4290     cmp     r0,r2                                   
080230DE D11B     bne     8023118h                                
080230E0 F7ECFD72 bl      800FBC8h                                
080230E4 2800     cmp     r0,0h                                   
080230E6 D025     beq     8023134h                                
080230E8 4809     ldr     r0,=300083Ch                            
080230EA 7801     ldrb    r1,[r0]                                 
080230EC 2909     cmp     r1,9h                                   
080230EE D821     bhi     8023134h                                
080230F0 4808     ldr     r0,=82D791Ch                            
080230F2 61A0     str     r0,[r4,18h]                             
080230F4 2000     mov     r0,0h                                   
080230F6 7720     strb    r0,[r4,1Ch]                             
080230F8 82E0     strh    r0,[r4,16h]                             
080230FA 1C08     mov     r0,r1                                   
080230FC 3008     add     r0,8h                                   
080230FE 0080     lsl     r0,r0,2h                                
08023100 1C21     mov     r1,r4                                   
08023102 312E     add     r1,2Eh                                  
08023104 7008     strb    r0,[r1]                                 
08023106 E015     b       8023134h                                
08023108 0738     lsl     r0,r7,1Ch                               
0802310A 0300     lsl     r0,r0,0Ch                               
0802310C 792C     ldrb    r4,[r5,4h]                              
0802310E 082D     lsr     r5,r5,20h                               
08023110 083C     lsr     r4,r7,20h                               
08023112 0300     lsl     r0,r0,0Ch                               
08023114 791C     ldrb    r4,[r3,4h]                              
08023116 082D     lsr     r5,r5,20h                               
08023118 1C21     mov     r1,r4                                   
0802311A 312E     add     r1,2Eh                                  
0802311C 7808     ldrb    r0,[r1]                                 
0802311E 2800     cmp     r0,0h                                   
08023120 D008     beq     8023134h                                
08023122 3801     sub     r0,1h                                   
08023124 7008     strb    r0,[r1]                                 
08023126 0600     lsl     r0,r0,18h                               
08023128 0E00     lsr     r0,r0,18h                               
0802312A 2800     cmp     r0,0h                                   
0802312C D102     bne     8023134h                                
0802312E 61A2     str     r2,[r4,18h]                             
08023130 7720     strb    r0,[r4,1Ch]                             
08023132 82E0     strh    r0,[r4,16h]                             
08023134 F7FFFF00 bl      8022F38h                                
08023138 2003     mov     r0,3h                                   
0802313A 2119     mov     r1,19h                                  
0802313C F03DFBBE bl      80608BCh                                
08023140 2800     cmp     r0,0h                                   
08023142 D109     bne     8023158h                                
08023144 2003     mov     r0,3h                                   
08023146 211A     mov     r1,1Ah                                  
08023148 F03DFBB8 bl      80608BCh                                
0802314C 2800     cmp     r0,0h                                   
0802314E D103     bne     8023158h                                
08023150 4806     ldr     r0,=3000738h                            
08023152 8A80     ldrh    r0,[r0,14h]                             
08023154 283C     cmp     r0,3Ch                                  
08023156 D005     beq     8023164h                                
08023158 4904     ldr     r1,=3000738h                            
0802315A 88C8     ldrh    r0,[r1,6h]                              
0802315C 2800     cmp     r0,0h                                   
0802315E D001     beq     8023164h                                
08023160 3801     sub     r0,1h                                   
08023162 80C8     strh    r0,[r1,6h]                              
08023164 BC10     pop     r4                                      
08023166 BC01     pop     r0                                      
08023168 4700     bx      r0                                      
0802316A 0000     lsl     r0,r0,0h                                
0802316C 0738     lsl     r0,r7,1Ch                               
0802316E 0300     lsl     r0,r0,0Ch                               
08023170 4B0A     ldr     r3,=3000738h                            
08023172 1C18     mov     r0,r3                                   
08023174 3023     add     r0,23h                                  
08023176 7801     ldrb    r1,[r0]                                 
08023178 4A09     ldr     r2,=30001ACh                            
0802317A 00C8     lsl     r0,r1,3h                                
0802317C 1A40     sub     r0,r0,r1                                
0802317E 00C0     lsl     r0,r0,3h                                
08023180 1880     add     r0,r0,r2                                
08023182 3024     add     r0,24h                                  
08023184 2200     mov     r2,0h                                   
08023186 2162     mov     r1,62h                                  
08023188 7001     strb    r1,[r0]                                 
0802318A 1C19     mov     r1,r3                                   
0802318C 3124     add     r1,24h                                  
0802318E 2067     mov     r0,67h                                  
08023190 7008     strb    r0,[r1]                                 
08023192 4804     ldr     r0,=82D791Ch                            
08023194 6198     str     r0,[r3,18h]                             
08023196 771A     strb    r2,[r3,1Ch]                             
08023198 82DA     strh    r2,[r3,16h]                             
0802319A 4770     bx      r14                                     
0802319C 0738     lsl     r0,r7,1Ch                               
0802319E 0300     lsl     r0,r0,0Ch                               
080231A0 01AC     lsl     r4,r5,6h                                
080231A2 0300     lsl     r0,r0,0Ch                               
080231A4 791C     ldrb    r4,[r3,4h]                              
080231A6 082D     lsr     r5,r5,20h                               
080231A8 B510     push    r4,r14                                  
080231AA 4B0F     ldr     r3,=3000738h                            
080231AC 1C18     mov     r0,r3                                   
080231AE 3023     add     r0,23h                                  
080231B0 7804     ldrb    r4,[r0]                                 
080231B2 490E     ldr     r1,=30001ACh                            
080231B4 00E0     lsl     r0,r4,3h                                
080231B6 1B00     sub     r0,r0,r4                                
080231B8 00C0     lsl     r0,r0,3h                                
080231BA 1842     add     r2,r0,r1                                
080231BC 8850     ldrh    r0,[r2,2h]                              
080231BE 3818     sub     r0,18h                                  
080231C0 8058     strh    r0,[r3,2h]                              
080231C2 8890     ldrh    r0,[r2,4h]                              
080231C4 3804     sub     r0,4h                                   
080231C6 8098     strh    r0,[r3,4h]                              
080231C8 1C10     mov     r0,r2                                   
080231CA 3024     add     r0,24h                                  
080231CC 7800     ldrb    r0,[r0]                                 
080231CE 2868     cmp     r0,68h                                  
080231D0 D10E     bne     80231F0h                                
080231D2 1C10     mov     r0,r2                                   
080231D4 302C     add     r0,2Ch                                  
080231D6 7800     ldrb    r0,[r0]                                 
080231D8 281E     cmp     r0,1Eh                                  
080231DA D809     bhi     80231F0h                                
080231DC 1C1A     mov     r2,r3                                   
080231DE 322A     add     r2,2Ah                                  
080231E0 7810     ldrb    r0,[r2]                                 
080231E2 3008     add     r0,8h                                   
080231E4 E008     b       80231F8h                                
080231E6 0000     lsl     r0,r0,0h                                
080231E8 0738     lsl     r0,r7,1Ch                               
080231EA 0300     lsl     r0,r0,0Ch                               
080231EC 01AC     lsl     r4,r5,6h                                
080231EE 0300     lsl     r0,r0,0Ch                               
080231F0 1C1A     mov     r2,r3                                   
080231F2 322A     add     r2,2Ah                                  
080231F4 7810     ldrb    r0,[r2]                                 
080231F6 3004     add     r0,4h                                   
080231F8 7010     strb    r0,[r2]                                 
080231FA 00E0     lsl     r0,r4,3h                                
080231FC 1B00     sub     r0,r0,r4                                
080231FE 00C0     lsl     r0,r0,3h                                
08023200 1841     add     r1,r0,r1                                
08023202 1C08     mov     r0,r1                                   
08023204 3024     add     r0,24h                                  
08023206 7802     ldrb    r2,[r0]                                 
08023208 2A68     cmp     r2,68h                                  
0802320A D10A     bne     8023222h                                
0802320C 3008     add     r0,8h                                   
0802320E 7800     ldrb    r0,[r0]                                 
08023210 2801     cmp     r0,1h                                   
08023212 D806     bhi     8023222h                                
08023214 1C18     mov     r0,r3                                   
08023216 3024     add     r0,24h                                  
08023218 7002     strb    r2,[r0]                                 
0802321A 1C19     mov     r1,r3                                   
0802321C 312C     add     r1,2Ch                                  
0802321E 2078     mov     r0,78h                                  
08023220 7008     strb    r0,[r1]                                 
08023222 BC10     pop     r4                                      
08023224 BC01     pop     r0                                      
08023226 4700     bx      r0                                      
08023228 B510     push    r4,r14                                  
0802322A 490E     ldr     r1,=3000738h                            
0802322C 1C0A     mov     r2,r1                                   
0802322E 322A     add     r2,2Ah                                  
08023230 7810     ldrb    r0,[r2]                                 
08023232 300C     add     r0,0Ch                                  
08023234 7010     strb    r0,[r2]                                 
08023236 1C08     mov     r0,r1                                   
08023238 302C     add     r0,2Ch                                  
0802323A 7800     ldrb    r0,[r0]                                 
0802323C 1C0B     mov     r3,r1                                   
0802323E 2863     cmp     r0,63h                                  
08023240 D802     bhi     8023248h                                
08023242 8858     ldrh    r0,[r3,2h]                              
08023244 3801     sub     r0,1h                                   
08023246 8058     strh    r0,[r3,2h]                              
08023248 4807     ldr     r0,=300080Ch                            
0802324A 22D0     mov     r2,0D0h                                 
0802324C 0052     lsl     r2,r2,1h                                
0802324E 1C11     mov     r1,r2                                   
08023250 8840     ldrh    r0,[r0,2h]                              
08023252 1809     add     r1,r1,r0                                
08023254 0409     lsl     r1,r1,10h                               
08023256 0C09     lsr     r1,r1,10h                               
08023258 889A     ldrh    r2,[r3,4h]                              
0802325A 1E88     sub     r0,r1,2                                 
0802325C 4282     cmp     r2,r0                                   
0802325E DA05     bge     802326Ch                                
08023260 1C90     add     r0,r2,2                                 
08023262 E007     b       8023274h                                
08023264 0738     lsl     r0,r7,1Ch                               
08023266 0300     lsl     r0,r0,0Ch                               
08023268 080C     lsr     r4,r1,20h                               
0802326A 0300     lsl     r0,r0,0Ch                               
0802326C 1C88     add     r0,r1,2                                 
0802326E 4282     cmp     r2,r0                                   
08023270 DD01     ble     8023276h                                
08023272 1E90     sub     r0,r2,2                                 
08023274 8098     strh    r0,[r3,4h]                              
08023276 1C1A     mov     r2,r3                                   
08023278 1C11     mov     r1,r2                                   
0802327A 312C     add     r1,2Ch                                  
0802327C 7808     ldrb    r0,[r1]                                 
0802327E 3801     sub     r0,1h                                   
08023280 7008     strb    r0,[r1]                                 
08023282 0600     lsl     r0,r0,18h                               
08023284 0E01     lsr     r1,r0,18h                               
08023286 1C0C     mov     r4,r1                                   
08023288 2003     mov     r0,3h                                   
0802328A 4008     and     r0,r1                                   
0802328C 2800     cmp     r0,0h                                   
0802328E D11D     bne     80232CCh                                
08023290 2004     mov     r0,4h                                   
08023292 4008     and     r0,r1                                   
08023294 2800     cmp     r0,0h                                   
08023296 D00A     beq     80232AEh                                
08023298 1C10     mov     r0,r2                                   
0802329A 3033     add     r0,33h                                  
0802329C 7800     ldrb    r0,[r0]                                 
0802329E 7FD1     ldrb    r1,[r2,1Fh]                             
080232A0 1840     add     r0,r0,r1                                
080232A2 210E     mov     r1,0Eh                                  
080232A4 1A09     sub     r1,r1,r0                                
080232A6 1C10     mov     r0,r2                                   
080232A8 3020     add     r0,20h                                  
080232AA 7001     strb    r1,[r0]                                 
080232AC E00E     b       80232CCh                                
080232AE 1C18     mov     r0,r3                                   
080232B0 3034     add     r0,34h                                  
080232B2 7801     ldrb    r1,[r0]                                 
080232B4 3814     sub     r0,14h                                  
080232B6 7001     strb    r1,[r0]                                 
080232B8 2C00     cmp     r4,0h                                   
080232BA D107     bne     80232CCh                                
080232BC 801C     strh    r4,[r3]                                 
080232BE 8858     ldrh    r0,[r3,2h]                              
080232C0 8899     ldrh    r1,[r3,4h]                              
080232C2 F7FDFEE7 bl      8021094h                                
080232C6 4803     ldr     r0,=221h                                
080232C8 F7DFFBA6 bl      8002A18h                                
080232CC BC10     pop     r4                                      
080232CE BC01     pop     r0                                      
080232D0 4700     bx      r0                                      
080232D2 0000     lsl     r0,r0,0h                                
080232D4 0221     lsl     r1,r4,8h                                
080232D6 0000     lsl     r0,r0,0h                                
080232D8 B570     push    r4-r6,r14                               
080232DA 4B27     ldr     r3,=3000738h                            
080232DC 8819     ldrh    r1,[r3]                                 
080232DE 2080     mov     r0,80h                                  
080232E0 2500     mov     r5,0h                                   
080232E2 2200     mov     r2,0h                                   
080232E4 1C04     mov     r4,r0                                   
080232E6 430C     orr     r4,r1                                   
080232E8 2080     mov     r0,80h                                  
080232EA 0040     lsl     r0,r0,1h                                
080232EC 8258     strh    r0,[r3,12h]                             
080232EE 1C1E     mov     r6,r3                                   
080232F0 362A     add     r6,2Ah                                  
080232F2 7035     strb    r5,[r6]                                 
080232F4 4821     ldr     r0,=0FFFBh                              
080232F6 4004     and     r4,r0                                   
080232F8 801C     strh    r4,[r3]                                 
080232FA 2032     mov     r0,32h                                  
080232FC 18C0     add     r0,r0,r3                                
080232FE 4684     mov     r12,r0                                  
08023300 7801     ldrb    r1,[r0]                                 
08023302 2004     mov     r0,4h                                   
08023304 4308     orr     r0,r1                                   
08023306 4661     mov     r1,r12                                  
08023308 7008     strb    r0,[r1]                                 
0802330A 1C18     mov     r0,r3                                   
0802330C 3027     add     r0,27h                                  
0802330E 2108     mov     r1,8h                                   
08023310 7001     strb    r1,[r0]                                 
08023312 3001     add     r0,1h                                   
08023314 7001     strb    r1,[r0]                                 
08023316 3001     add     r0,1h                                   
08023318 7001     strb    r1,[r0]                                 
0802331A 4819     ldr     r0,=0FFE4h                              
0802331C 8158     strh    r0,[r3,0Ah]                             
0802331E 201C     mov     r0,1Ch                                  
08023320 8198     strh    r0,[r3,0Ch]                             
08023322 4818     ldr     r0,=0FFE8h                              
08023324 81D8     strh    r0,[r3,0Eh]                             
08023326 2018     mov     r0,18h                                  
08023328 8218     strh    r0,[r3,10h]                             
0802332A 4817     ldr     r0,=82D790Ch                            
0802332C 6198     str     r0,[r3,18h]                             
0802332E 771D     strb    r5,[r3,1Ch]                             
08023330 82DA     strh    r2,[r3,16h]                             
08023332 1C19     mov     r1,r3                                   
08023334 312F     add     r1,2Fh                                  
08023336 2014     mov     r0,14h                                  
08023338 7008     strb    r0,[r1]                                 
0802333A 390B     sub     r1,0Bh                                  
0802333C 2009     mov     r0,9h                                   
0802333E 7008     strb    r0,[r1]                                 
08023340 3101     add     r1,1h                                   
08023342 2004     mov     r0,4h                                   
08023344 7008     strb    r0,[r1]                                 
08023346 3903     sub     r1,3h                                   
08023348 2003     mov     r0,3h                                   
0802334A 7008     strb    r0,[r1]                                 
0802334C 4A0F     ldr     r2,=82B1BE4h                            
0802334E 7F59     ldrb    r1,[r3,1Dh]                             
08023350 00C8     lsl     r0,r1,3h                                
08023352 1840     add     r0,r0,r1                                
08023354 0040     lsl     r0,r0,1h                                
08023356 1880     add     r0,r0,r2                                
08023358 8800     ldrh    r0,[r0]                                 
0802335A 8298     strh    r0,[r3,14h]                             
0802335C 2040     mov     r0,40h                                  
0802335E 4020     and     r0,r4                                   
08023360 1C1A     mov     r2,r3                                   
08023362 2800     cmp     r0,0h                                   
08023364 D014     beq     8023390h                                
08023366 2180     mov     r1,80h                                  
08023368 0089     lsl     r1,r1,2h                                
0802336A 1C08     mov     r0,r1                                   
0802336C 1C21     mov     r1,r4                                   
0802336E 4301     orr     r1,r0                                   
08023370 8011     strh    r1,[r2]                                 
08023372 2080     mov     r0,80h                                  
08023374 7030     strb    r0,[r6]                                 
08023376 E00F     b       8023398h                                
08023378 0738     lsl     r0,r7,1Ch                               
0802337A 0300     lsl     r0,r0,0Ch                               
0802337C FFFB     bl      lr+0FF6h                                
0802337E 0000     lsl     r0,r0,0h                                
08023380 FFE4     bl      lr+0FC8h                                
08023382 0000     lsl     r0,r0,0h                                
08023384 FFE8     bl      lr+0FD0h                                
08023386 0000     lsl     r0,r0,0h                                
08023388 790C     ldrb    r4,[r1,4h]                              
0802338A 082D     lsr     r5,r5,20h                               
0802338C 1BE4     sub     r4,r4,r7                                
0802338E 082B     lsr     r3,r5,20h                               
08023390 4806     ldr     r0,=0FDFFh                              
08023392 4020     and     r0,r4                                   
08023394 8010     strh    r0,[r2]                                 
08023396 7035     strb    r5,[r6]                                 
08023398 8810     ldrh    r0,[r2]                                 
0802339A 4905     ldr     r1,=0FFBFh                              
0802339C 4001     and     r1,r0                                   
0802339E 8011     strh    r1,[r2]                                 
080233A0 8850     ldrh    r0,[r2,2h]                              
080233A2 380C     sub     r0,0Ch                                  
080233A4 8050     strh    r0,[r2,2h]                              
080233A6 BC70     pop     r4-r6                                   
080233A8 BC01     pop     r0                                      
080233AA 4700     bx      r0                                      
080233AC FDFF     bl      lr+0BFEh                                
080233AE 0000     lsl     r0,r0,0h                                
080233B0 FFBF     bl      lr+0F7Eh                                
080233B2 0000     lsl     r0,r0,0h                                
080233B4 B530     push    r4,r5,r14                               
080233B6 4C0C     ldr     r4,=3000738h                            
080233B8 1C25     mov     r5,r4                                   
080233BA 352F     add     r5,2Fh                                  
080233BC 7828     ldrb    r0,[r5]                                 
080233BE 3801     sub     r0,1h                                   
080233C0 7028     strb    r0,[r5]                                 
080233C2 0600     lsl     r0,r0,18h                               
080233C4 2800     cmp     r0,0h                                   
080233C6 D106     bne     80233D6h                                
080233C8 1C20     mov     r0,r4                                   
080233CA 3024     add     r0,24h                                  
080233CC 2123     mov     r1,23h                                  
080233CE 7001     strb    r1,[r0]                                 
080233D0 4806     ldr     r0,=197h                                
080233D2 F7DFFB21 bl      8002A18h                                
080233D6 7828     ldrb    r0,[r5]                                 
080233D8 2101     mov     r1,1h                                   
080233DA 4008     and     r0,r1                                   
080233DC 2800     cmp     r0,0h                                   
080233DE D007     beq     80233F0h                                
080233E0 1C21     mov     r1,r4                                   
080233E2 3122     add     r1,22h                                  
080233E4 2005     mov     r0,5h                                   
080233E6 E006     b       80233F6h                                
080233E8 0738     lsl     r0,r7,1Ch                               
080233EA 0300     lsl     r0,r0,0Ch                               
080233EC 0197     lsl     r7,r2,6h                                
080233EE 0000     lsl     r0,r0,0h                                
080233F0 1C21     mov     r1,r4                                   
080233F2 3122     add     r1,22h                                  
080233F4 2003     mov     r0,3h                                   
080233F6 7008     strb    r0,[r1]                                 
080233F8 4A05     ldr     r2,=3000738h                            
080233FA 8811     ldrh    r1,[r2]                                 
080233FC 2080     mov     r0,80h                                  
080233FE 0080     lsl     r0,r0,2h                                
08023400 4008     and     r0,r1                                   
08023402 2800     cmp     r0,0h                                   
08023404 D006     beq     8023414h                                
08023406 1C11     mov     r1,r2                                   
08023408 312A     add     r1,2Ah                                  
0802340A 7808     ldrb    r0,[r1]                                 
0802340C 3020     add     r0,20h                                  
0802340E E005     b       802341Ch                                
08023410 0738     lsl     r0,r7,1Ch                               
08023412 0300     lsl     r0,r0,0Ch                               
08023414 1C11     mov     r1,r2                                   
08023416 312A     add     r1,2Ah                                  
08023418 7808     ldrb    r0,[r1]                                 
0802341A 3820     sub     r0,20h                                  
0802341C 7008     strb    r0,[r1]                                 
0802341E BC30     pop     r4,r5                                   
08023420 BC01     pop     r0                                      
08023422 4700     bx      r0                                      
08023424 B530     push    r4,r5,r14                               
08023426 490B     ldr     r1,=3000738h                            
08023428 202F     mov     r0,2Fh                                  
0802342A 1840     add     r0,r0,r1                                
0802342C 4684     mov     r12,r0                                  
0802342E 7802     ldrb    r2,[r0]                                 
08023430 4D09     ldr     r5,=82D5BE2h                            
08023432 0050     lsl     r0,r2,1h                                
08023434 1940     add     r0,r0,r5                                
08023436 2400     mov     r4,0h                                   
08023438 5F03     ldsh    r3,[r0,r4]                              
0802343A 4808     ldr     r0,=7FFFh                               
0802343C 1C0C     mov     r4,r1                                   
0802343E 4283     cmp     r3,r0                                   
08023440 D10E     bne     8023460h                                
08023442 1E50     sub     r0,r2,1                                 
08023444 0040     lsl     r0,r0,1h                                
08023446 1940     add     r0,r0,r5                                
08023448 2100     mov     r1,0h                                   
0802344A 5E40     ldsh    r0,[r0,r1]                              
0802344C 8861     ldrh    r1,[r4,2h]                              
0802344E 1840     add     r0,r0,r1                                
08023450 E00D     b       802346Eh                                
08023452 0000     lsl     r0,r0,0h                                
08023454 0738     lsl     r0,r7,1Ch                               
08023456 0300     lsl     r0,r0,0Ch                               
08023458 5BE2     ldrh    r2,[r4,r7]                              
0802345A 082D     lsr     r5,r5,20h                               
0802345C 7FFF     ldrb    r7,[r7,1Fh]                             
0802345E 0000     lsl     r0,r0,0h                                
08023460 1C50     add     r0,r2,1                                 
08023462 0600     lsl     r0,r0,18h                               
08023464 0E02     lsr     r2,r0,18h                               
08023466 4660     mov     r0,r12                                  
08023468 7002     strb    r2,[r0]                                 
0802346A 8860     ldrh    r0,[r4,2h]                              
0802346C 18C0     add     r0,r0,r3                                
0802346E 8060     strh    r0,[r4,2h]                              
08023470 2304     mov     r3,4h                                   
08023472 8821     ldrh    r1,[r4]                                 
08023474 2080     mov     r0,80h                                  
08023476 0080     lsl     r0,r0,2h                                
08023478 4008     and     r0,r1                                   
0802347A 2800     cmp     r0,0h                                   
0802347C D01E     beq     80234BCh                                
0802347E 2A23     cmp     r2,23h                                  
08023480 D903     bls     802348Ah                                
08023482 1C21     mov     r1,r4                                   
08023484 312A     add     r1,2Ah                                  
08023486 20B8     mov     r0,0B8h                                 
08023488 E014     b       80234B4h                                
0802348A 2A20     cmp     r2,20h                                  
0802348C D903     bls     8023496h                                
0802348E 1C21     mov     r1,r4                                   
08023490 312A     add     r1,2Ah                                  
08023492 20B0     mov     r0,0B0h                                 
08023494 E00E     b       80234B4h                                
08023496 2A1C     cmp     r2,1Ch                                  
08023498 D908     bls     80234ACh                                
0802349A 1C21     mov     r1,r4                                   
0802349C 312A     add     r1,2Ah                                  
0802349E 7808     ldrb    r0,[r1]                                 
080234A0 289F     cmp     r0,9Fh                                  
080234A2 D901     bls     80234A8h                                
080234A4 20A0     mov     r0,0A0h                                 
080234A6 E005     b       80234B4h                                
080234A8 3008     add     r0,8h                                   
080234AA E003     b       80234B4h                                
080234AC 1C21     mov     r1,r4                                   
080234AE 312A     add     r1,2Ah                                  
080234B0 7808     ldrb    r0,[r1]                                 
080234B2 3010     add     r0,10h                                  
080234B4 7008     strb    r0,[r1]                                 
080234B6 88A0     ldrh    r0,[r4,4h]                              
080234B8 1818     add     r0,r3,r0                                
080234BA E01D     b       80234F8h                                
080234BC 2A23     cmp     r2,23h                                  
080234BE D903     bls     80234C8h                                
080234C0 1C21     mov     r1,r4                                   
080234C2 312A     add     r1,2Ah                                  
080234C4 20C8     mov     r0,0C8h                                 
080234C6 E014     b       80234F2h                                
080234C8 2A20     cmp     r2,20h                                  
080234CA D903     bls     80234D4h                                
080234CC 1C21     mov     r1,r4                                   
080234CE 312A     add     r1,2Ah                                  
080234D0 20D0     mov     r0,0D0h                                 
080234D2 E00E     b       80234F2h                                
080234D4 2A1C     cmp     r2,1Ch                                  
080234D6 D908     bls     80234EAh                                
080234D8 1C21     mov     r1,r4                                   
080234DA 312A     add     r1,2Ah                                  
080234DC 7808     ldrb    r0,[r1]                                 
080234DE 28E0     cmp     r0,0E0h                                 
080234E0 D801     bhi     80234E6h                                
080234E2 20E0     mov     r0,0E0h                                 
080234E4 E005     b       80234F2h                                
080234E6 3808     sub     r0,8h                                   
080234E8 E003     b       80234F2h                                
080234EA 1C21     mov     r1,r4                                   
080234EC 312A     add     r1,2Ah                                  
080234EE 7808     ldrb    r0,[r1]                                 
080234F0 3810     sub     r0,10h                                  
080234F2 7008     strb    r0,[r1]                                 
080234F4 88A0     ldrh    r0,[r4,4h]                              
080234F6 1AC0     sub     r0,r0,r3                                
080234F8 80A0     strh    r0,[r4,4h]                              
080234FA 2A20     cmp     r2,20h                                  
080234FC D90A     bls     8023514h                                
080234FE 8860     ldrh    r0,[r4,2h]                              
08023500 3820     sub     r0,20h                                  
08023502 88A1     ldrh    r1,[r4,4h]                              
08023504 F7ECF8C0 bl      800F688h                                
08023508 4804     ldr     r0,=30007F1h                            
0802350A 7800     ldrb    r0,[r0]                                 
0802350C 2800     cmp     r0,0h                                   
0802350E D001     beq     8023514h                                
08023510 2000     mov     r0,0h                                   
08023512 8020     strh    r0,[r4]                                 
08023514 BC30     pop     r4,r5                                   
08023516 BC01     pop     r0                                      
08023518 4700     bx      r0                                      

////////////////////////////////////////////////////////////////////////////////////////////////////////
;蜈蚣主程序                                
08023520 B500     push    r14                                     
08023522 4805     ldr     r0,=3000738h                            
08023524 3024     add     r0,24h                                  
08023526 7800     ldrb    r0,[r0]       ;读取pose                            
08023528 2868     cmp     r0,68h                                  
0802352A D900     bls     @@PoseLess68                                
0802352C E111     b       @@end 

@@PoseLess68:                               
0802352E 0080     lsl     r0,r0,2h                                
08023530 4902     ldr     r1,=8023540h  ;PoseTable                            
08023532 1840     add     r0,r0,r1                                
08023534 6800     ldr     r0,[r0]                                 
08023536 4687     mov     r15,r0                                  

PoseTable:
    .word 80236e4h  ;00
	.word 8023752h .word 8023752h .word 8023752h .word 8023752h
	.word 8023752h .word 8023752h .word 8023752h
	.word 80236eah  ;08
	.word 80236f0h  ;09
	.word 8023752h .word 8023752h .word 8023752h .word 8023752h
	.word 8023752h .word 8023752h .word 8023752h .word 8023752h
	.word 8023752h .word 8023752h .word 8023752h .word 8023752h
	.word 8023752h .word 8023752h .word 8023752h .word 8023752h
	.word 8023752h .word 8023752h .word 8023752h .word 8023752h
	.word 8023752h .word 8023752h .word 8023752h .word 8023752h
	.word 80236f6h  ;22
	.word 80236fch  ;23
	.word 8023702h  ;24
	.word 8023708h  ;25
	.word 802370eh  ;26
	.word 8023714h  ;27
	.word 802371ah  ;28
	.word 802371ah  ;29
	.word 8023720h  ;2a
	.word 8023752h .word 8023752h .word 8023752h .word 8023752h
	.word 8023752h .word 8023752h .word 8023752h .word 8023752h
	.word 8023752h .word 8023752h .word 8023752h .word 8023752h
	.word 8023752h .word 8023752h .word 8023752h .word 8023752h
	.word 8023752h .word 8023752h .word 8023752h .word 8023752h
	.word 8023752h .word 8023752h .word 8023752h 
	.word 8023736h  ;42
	.word 802373ch  ;43
	.word 8023742h  ;44
	.word 8023748h  ;45
	.word 8023752h .word 8023752h .word 8023752h .word 8023752h
	.word 8023752h .word 8023752h .word 8023752h .word 8023752h
	.word 8023752h .word 8023752h .word 8023752h .word 8023752h
	.word 8023752h .word 8023752h .word 8023752h .word 8023752h
	.word 8023752h .word 8023752h .word 8023752h .word 8023752h
	.word 8023752h .word 8023752h .word 8023752h .word 8023752h
	.word 8023752h .word 8023752h
	.word 802374eh  ;60
	.word 8023752h  
	.word 8023726h  ;62
	.word 8023752h .word 8023752h .word 8023752h .word 8023752h
	.word 802372ah  ;67
	.word 8023730h  ;68
		
080236E4 F7FDFD2A bl      802113Ch   ;00                             
080236E8 E033     b       8023752h                                
080236EA F7FDFDBB bl      8021264h   ;08                             
080236EE E030     b       8023752h                                
080236F0 F7FDFE94 bl      802141Ch   ;09                             
080236F4 E02D     b       8023752h                                
080236F6 F7FDFF0B bl      8021510h   ;22                             
080236FA E02A     b       8023752h                                
080236FC F7FDFF70 bl      80215E0h   ;23                              
08023700 E027     b       8023752h                                
08023702 F7FDFFDD bl      80216C0h   ;24                             
08023706 E024     b       8023752h                                
08023708 F7FEF864 bl      80217D4h   ;25                             
0802370C E021     b       8023752h                                
0802370E F7FEF8B7 bl      8021880h   ;26                             
08023712 E01E     b       8023752h                                
08023714 F7FEF9F6 bl      8021B04h   ;27                             
08023718 E01B     b       8023752h                                
0802371A F7FEFAA9 bl      8021C70h   ;28 Or 29                           
0802371E E018     b       8023752h                                
08023720 F7FEFB20 bl      8021D64h   ;2A                             
08023724 E015     b       8023752h                                
08023726 F7FEFB43 bl      8021DB0h   ;62                             
0802372A F7FEFB7D bl      8021E28h   ;67                             
0802372E E010     b       8023752h                                
08023730 F7FEFBA0 bl      8021E74h   ;68                              
08023734 E00D     b       8023752h                                
08023736 F7FEFBB9 bl      8021EACh   ;42                             
0802373A E00A     b       8023752h                                
0802373C F7FEFBE6 bl      8021F0Ch   ;43                             
08023740 E007     b       8023752h                                
08023742 F7FEFCA3 bl      802208Ch   ;44                             
08023746 E004     b       8023752h                                
08023748 F7FEFCD2 bl      80220F0h   ;45                             
0802374C E001     b       8023752h                                
0802374E F7FDFCDF bl      8021110h   ;60

@@end:                                
08023752 BC01     pop     r0                                      
08023754 4700     bx      r0                                      


                               
08023758 B530     push    r4,r5,r14                               
0802375A 4B20     ldr     r3,=3000738h                            
0802375C 1C18     mov     r0,r3                                   
0802375E 3023     add     r0,23h                                  
08023760 7802     ldrb    r2,[r0]                                 
08023762 481F     ldr     r0,=30001ACh                            
08023764 00D1     lsl     r1,r2,3h                                
08023766 1A89     sub     r1,r1,r2                                
08023768 00C9     lsl     r1,r1,3h                                
0802376A 1809     add     r1,r1,r0                                
0802376C 1C0C     mov     r4,r1                                   
0802376E 3424     add     r4,24h                                  
08023770 7821     ldrb    r1,[r4]                                 
08023772 1C05     mov     r5,r0                                   
08023774 2961     cmp     r1,61h                                  
08023776 D90C     bls     8023792h                                
08023778 1C19     mov     r1,r3                                   
0802377A 3126     add     r1,26h                                  
0802377C 2001     mov     r0,1h                                   
0802377E 7008     strb    r0,[r1]                                 
08023780 7820     ldrb    r0,[r4]                                 
08023782 2868     cmp     r0,68h                                  
08023784 D105     bne     8023792h                                
08023786 3902     sub     r1,2h                                   
08023788 7808     ldrb    r0,[r1]                                 
0802378A 2861     cmp     r0,61h                                  
0802378C D801     bhi     8023792h                                
0802378E 2062     mov     r0,62h                                  
08023790 7008     strb    r0,[r1]                                 
08023792 00D0     lsl     r0,r2,3h                                
08023794 1A80     sub     r0,r0,r2                                
08023796 00C0     lsl     r0,r0,3h                                
08023798 1942     add     r2,r0,r5                                
0802379A 1C15     mov     r5,r2                                   
0802379C 3534     add     r5,34h                                  
0802379E 7829     ldrb    r1,[r5]                                 
080237A0 2902     cmp     r1,2h                                   
080237A2 D102     bne     80237AAh                                
080237A4 1C18     mov     r0,r3                                   
080237A6 3034     add     r0,34h                                  
080237A8 7001     strb    r1,[r0]                                 
080237AA 1C10     mov     r0,r2                                   
080237AC 3020     add     r0,20h                                  
080237AE 7804     ldrb    r4,[r0]                                 
080237B0 7FD1     ldrb    r1,[r2,1Fh]                             
080237B2 3013     add     r0,13h                                  
080237B4 7800     ldrb    r0,[r0]                                 
080237B6 1809     add     r1,r1,r0                                
080237B8 200E     mov     r0,0Eh                                  
080237BA 1A40     sub     r0,r0,r1                                
080237BC 4284     cmp     r4,r0                                   
080237BE D111     bne     80237E4h                                
080237C0 1C18     mov     r0,r3                                   
080237C2 3033     add     r0,33h                                  
080237C4 7800     ldrb    r0,[r0]                                 
080237C6 7FD9     ldrb    r1,[r3,1Fh]                             
080237C8 1840     add     r0,r0,r1                                
080237CA 210E     mov     r1,0Eh                                  
080237CC 1A09     sub     r1,r1,r0                                
080237CE 1C18     mov     r0,r3                                   
080237D0 3020     add     r0,20h                                  
080237D2 7001     strb    r1,[r0]                                 
080237D4 7F18     ldrb    r0,[r3,1Ch]                             
080237D6 3001     add     r0,1h                                   
080237D8 7718     strb    r0,[r3,1Ch]                             
080237DA E00B     b       80237F4h                                
080237DC 0738     lsl     r0,r7,1Ch                               
080237DE 0300     lsl     r0,r0,0Ch                               
080237E0 01AC     lsl     r4,r5,6h                                
080237E2 0300     lsl     r0,r0,0Ch                               
080237E4 782D     ldrb    r5,[r5]                                 
080237E6 42AC     cmp     r4,r5                                   
080237E8 D104     bne     80237F4h                                
080237EA 1C18     mov     r0,r3                                   
080237EC 3034     add     r0,34h                                  
080237EE 7801     ldrb    r1,[r0]                                 
080237F0 3814     sub     r0,14h                                  
080237F2 7001     strb    r1,[r0]                                 
080237F4 1C18     mov     r0,r3                                   
080237F6 3024     add     r0,24h                                  
080237F8 7800     ldrb    r0,[r0]                                 
080237FA 2867     cmp     r0,67h                                  
080237FC D900     bls     8023800h                                
080237FE E10B     b       8023A18h                                
08023800 0080     lsl     r0,r0,2h                                
08023802 4902     ldr     r1,=8023810h                            
08023804 1840     add     r0,r0,r1                                
08023806 6800     ldr     r0,[r0]                                 
08023808 4687     mov     r15,r0                                  
0802380A 0000     lsl     r0,r0,0h                                
0802380C 3810     sub     r0,10h                                  
0802380E 0802     lsr     r2,r0,20h                               
08023810 39B0     sub     r1,0B0h                                 
08023812 0802     lsr     r2,r0,20h                               
08023814 3A18     sub     r2,18h                                  
08023816 0802     lsr     r2,r0,20h                               
08023818 3A18     sub     r2,18h                                  
0802381A 0802     lsr     r2,r0,20h                               
0802381C 3A18     sub     r2,18h                                  
0802381E 0802     lsr     r2,r0,20h                               
08023820 3A18     sub     r2,18h                                  
08023822 0802     lsr     r2,r0,20h                               
08023824 3A18     sub     r2,18h                                  
08023826 0802     lsr     r2,r0,20h                               
08023828 3A18     sub     r2,18h                                  
0802382A 0802     lsr     r2,r0,20h                               
0802382C 3A18     sub     r2,18h                                  
0802382E 0802     lsr     r2,r0,20h                               
08023830 39B6     sub     r1,0B6h                                 
08023832 0802     lsr     r2,r0,20h                               
08023834 39BC     sub     r1,0BCh                                 
08023836 0802     lsr     r2,r0,20h                               
08023838 3A18     sub     r2,18h                                  
0802383A 0802     lsr     r2,r0,20h                               
0802383C 3A18     sub     r2,18h                                  
0802383E 0802     lsr     r2,r0,20h                               
08023840 3A18     sub     r2,18h                                  
08023842 0802     lsr     r2,r0,20h                               
08023844 3A18     sub     r2,18h                                  
08023846 0802     lsr     r2,r0,20h                               
08023848 3A18     sub     r2,18h                                  
0802384A 0802     lsr     r2,r0,20h                               
0802384C 39C2     sub     r1,0C2h                                 
0802384E 0802     lsr     r2,r0,20h                               
08023850 3A18     sub     r2,18h                                  
08023852 0802     lsr     r2,r0,20h                               
08023854 39D4     sub     r1,0D4h                                 
08023856 0802     lsr     r2,r0,20h                               
08023858 3A18     sub     r2,18h                                  
0802385A 0802     lsr     r2,r0,20h                               
0802385C 3A18     sub     r2,18h                                  
0802385E 0802     lsr     r2,r0,20h                               
08023860 3A18     sub     r2,18h                                  
08023862 0802     lsr     r2,r0,20h                               
08023864 3A18     sub     r2,18h                                  
08023866 0802     lsr     r2,r0,20h                               
08023868 3A18     sub     r2,18h                                  
0802386A 0802     lsr     r2,r0,20h                               
0802386C 3A18     sub     r2,18h                                  
0802386E 0802     lsr     r2,r0,20h                               
08023870 3A18     sub     r2,18h                                  
08023872 0802     lsr     r2,r0,20h                               
08023874 3A18     sub     r2,18h                                  
08023876 0802     lsr     r2,r0,20h                               
08023878 3A18     sub     r2,18h                                  
0802387A 0802     lsr     r2,r0,20h                               
0802387C 3A18     sub     r2,18h                                  
0802387E 0802     lsr     r2,r0,20h                               
08023880 3A18     sub     r2,18h                                  
08023882 0802     lsr     r2,r0,20h                               
08023884 3A18     sub     r2,18h                                  
08023886 0802     lsr     r2,r0,20h                               
08023888 3A18     sub     r2,18h                                  
0802388A 0802     lsr     r2,r0,20h                               
0802388C 3A18     sub     r2,18h                                  
0802388E 0802     lsr     r2,r0,20h                               
08023890 3A18     sub     r2,18h                                  
08023892 0802     lsr     r2,r0,20h                               
08023894 3A18     sub     r2,18h                                  
08023896 0802     lsr     r2,r0,20h                               
08023898 39C8     sub     r1,0C8h                                 
0802389A 0802     lsr     r2,r0,20h                               
0802389C 39CE     sub     r1,0CEh                                 
0802389E 0802     lsr     r2,r0,20h                               
080238A0 39E6     sub     r1,0E6h                                 
080238A2 0802     lsr     r2,r0,20h                               
080238A4 3A18     sub     r2,18h                                  
080238A6 0802     lsr     r2,r0,20h                               
080238A8 3A18     sub     r2,18h                                  
080238AA 0802     lsr     r2,r0,20h                               
080238AC 3A18     sub     r2,18h                                  
080238AE 0802     lsr     r2,r0,20h                               
080238B0 3A18     sub     r2,18h                                  
080238B2 0802     lsr     r2,r0,20h                               
080238B4 3A18     sub     r2,18h                                  
080238B6 0802     lsr     r2,r0,20h                               
080238B8 3A18     sub     r2,18h                                  
080238BA 0802     lsr     r2,r0,20h                               
080238BC 3A18     sub     r2,18h                                  
080238BE 0802     lsr     r2,r0,20h                               
080238C0 3A18     sub     r2,18h                                  
080238C2 0802     lsr     r2,r0,20h                               
080238C4 3A18     sub     r2,18h                                  
080238C6 0802     lsr     r2,r0,20h                               
080238C8 3A18     sub     r2,18h                                  
080238CA 0802     lsr     r2,r0,20h                               
080238CC 3A18     sub     r2,18h                                  
080238CE 0802     lsr     r2,r0,20h                               
080238D0 3A18     sub     r2,18h                                  
080238D2 0802     lsr     r2,r0,20h                               
080238D4 3A18     sub     r2,18h                                  
080238D6 0802     lsr     r2,r0,20h                               
080238D8 3A18     sub     r2,18h                                  
080238DA 0802     lsr     r2,r0,20h                               
080238DC 39DA     sub     r1,0DAh                                 
080238DE 0802     lsr     r2,r0,20h                               
080238E0 3A18     sub     r2,18h                                  
080238E2 0802     lsr     r2,r0,20h                               
080238E4 39E0     sub     r1,0E0h                                 
080238E6 0802     lsr     r2,r0,20h                               
080238E8 3A18     sub     r2,18h                                  
080238EA 0802     lsr     r2,r0,20h                               
080238EC 3A18     sub     r2,18h                                  
080238EE 0802     lsr     r2,r0,20h                               
080238F0 3A18     sub     r2,18h                                  
080238F2 0802     lsr     r2,r0,20h                               
080238F4 3A18     sub     r2,18h                                  
080238F6 0802     lsr     r2,r0,20h                               
080238F8 3A18     sub     r2,18h                                  
080238FA 0802     lsr     r2,r0,20h                               
080238FC 3A18     sub     r2,18h                                  
080238FE 0802     lsr     r2,r0,20h                               
08023900 3A18     sub     r2,18h                                  
08023902 0802     lsr     r2,r0,20h                               
08023904 3A18     sub     r2,18h                                  
08023906 0802     lsr     r2,r0,20h                               
08023908 3A18     sub     r2,18h                                  
0802390A 0802     lsr     r2,r0,20h                               
0802390C 3A18     sub     r2,18h                                  
0802390E 0802     lsr     r2,r0,20h                               
08023910 3A18     sub     r2,18h                                  
08023912 0802     lsr     r2,r0,20h                               
08023914 3A18     sub     r2,18h                                  
08023916 0802     lsr     r2,r0,20h                               
08023918 39F6     sub     r1,0F6h                                 
0802391A 0802     lsr     r2,r0,20h                               
0802391C 39FC     sub     r1,0FCh                                 
0802391E 0802     lsr     r2,r0,20h                               
08023920 3A18     sub     r2,18h                                  
08023922 0802     lsr     r2,r0,20h                               
08023924 3A18     sub     r2,18h                                  
08023926 0802     lsr     r2,r0,20h                               
08023928 3A02     sub     r2,2h                                   
0802392A 0802     lsr     r2,r0,20h                               
0802392C 3A18     sub     r2,18h                                  
0802392E 0802     lsr     r2,r0,20h                               
08023930 3A18     sub     r2,18h                                  
08023932 0802     lsr     r2,r0,20h                               
08023934 3A18     sub     r2,18h                                  
08023936 0802     lsr     r2,r0,20h                               
08023938 3A08     sub     r2,8h                                   
0802393A 0802     lsr     r2,r0,20h                               
0802393C 3A0E     sub     r2,0Eh                                  
0802393E 0802     lsr     r2,r0,20h                               
08023940 3A14     sub     r2,14h                                  
08023942 0802     lsr     r2,r0,20h                               
08023944 3A18     sub     r2,18h                                  
08023946 0802     lsr     r2,r0,20h                               
08023948 3A18     sub     r2,18h                                  
0802394A 0802     lsr     r2,r0,20h                               
0802394C 3A18     sub     r2,18h                                  
0802394E 0802     lsr     r2,r0,20h                               
08023950 3A18     sub     r2,18h                                  
08023952 0802     lsr     r2,r0,20h                               
08023954 3A18     sub     r2,18h                                  
08023956 0802     lsr     r2,r0,20h                               
08023958 3A18     sub     r2,18h                                  
0802395A 0802     lsr     r2,r0,20h                               
0802395C 3A18     sub     r2,18h                                  
0802395E 0802     lsr     r2,r0,20h                               
08023960 3A18     sub     r2,18h                                  
08023962 0802     lsr     r2,r0,20h                               
08023964 3A18     sub     r2,18h                                  
08023966 0802     lsr     r2,r0,20h                               
08023968 3A18     sub     r2,18h                                  
0802396A 0802     lsr     r2,r0,20h                               
0802396C 3A18     sub     r2,18h                                  
0802396E 0802     lsr     r2,r0,20h                               
08023970 3A18     sub     r2,18h                                  
08023972 0802     lsr     r2,r0,20h                               
08023974 3A18     sub     r2,18h                                  
08023976 0802     lsr     r2,r0,20h                               
08023978 3A18     sub     r2,18h                                  
0802397A 0802     lsr     r2,r0,20h                               
0802397C 3A18     sub     r2,18h                                  
0802397E 0802     lsr     r2,r0,20h                               
08023980 3A18     sub     r2,18h                                  
08023982 0802     lsr     r2,r0,20h                               
08023984 3A18     sub     r2,18h                                  
08023986 0802     lsr     r2,r0,20h                               
08023988 3A18     sub     r2,18h                                  
0802398A 0802     lsr     r2,r0,20h                               
0802398C 3A18     sub     r2,18h                                  
0802398E 0802     lsr     r2,r0,20h                               
08023990 3A18     sub     r2,18h                                  
08023992 0802     lsr     r2,r0,20h                               
08023994 3A18     sub     r2,18h                                  
08023996 0802     lsr     r2,r0,20h                               
08023998 39EC     sub     r1,0ECh                                 
0802399A 0802     lsr     r2,r0,20h                               
0802399C 3A18     sub     r2,18h                                  
0802399E 0802     lsr     r2,r0,20h                               
080239A0 3A18     sub     r2,18h                                  
080239A2 0802     lsr     r2,r0,20h                               
080239A4 3A18     sub     r2,18h                                  
080239A6 0802     lsr     r2,r0,20h                               
080239A8 3A18     sub     r2,18h                                  
080239AA 0802     lsr     r2,r0,20h                               
080239AC 39F0     sub     r1,0F0h                                 
080239AE 0802     lsr     r2,r0,20h                               
080239B0 F7FEFBC6 bl      8022140h                                
080239B4 E030     b       8023A18h                                
080239B6 F7FEFCD1 bl      802235Ch                                
080239BA E02D     b       8023A18h                                
080239BC F7FEFD16 bl      80223ECh                                
080239C0 E02A     b       8023A18h                                
080239C2 F7FEFE23 bl      802260Ch                                
080239C6 E027     b       8023A18h                                
080239C8 F7FEFD74 bl      80224B4h                                
080239CC E024     b       8023A18h                                
080239CE F7FEFDB9 bl      8022544h                                
080239D2 E021     b       8023A18h                                
080239D4 F7FEFEBC bl      8022750h                                
080239D8 E01E     b       8023A18h                                
080239DA F7FEFF5B bl      8022894h                                
080239DE E01B     b       8023A18h                                
080239E0 F7FEFF9E bl      8022920h                                
080239E4 E018     b       8023A18h                                
080239E6 F7FEFFE1 bl      80229ACh                                
080239EA E015     b       8023A18h                                
080239EC F7FFF966 bl      8022CBCh                                
080239F0 F7FFF9E0 bl      8022DB4h                                
080239F4 E010     b       8023A18h                                
080239F6 F7FFF833 bl      8022A60h                                
080239FA E00D     b       8023A18h                                
080239FC F7FFF88A bl      8022B14h                                
08023A00 E00A     b       8023A18h                                
08023A02 F7FFF89B bl      8022B3Ch                                
08023A06 E007     b       8023A18h                                
08023A08 F7FFF8AC bl      8022B64h                                
08023A0C E004     b       8023A18h                                
08023A0E F7FFF8F1 bl      8022BF4h                                
08023A12 E001     b       8023A18h                                
08023A14 F7FFF93E bl      8022C94h                                
08023A18 BC30     pop     r4,r5                                   
08023A1A BC01     pop     r0                                      
08023A1C 4700     bx      r0                                      
08023A1E 0000     lsl     r0,r0,0h                                
08023A20 B5F0     push    r4-r7,r14                               
08023A22 4B27     ldr     r3,=3000738h                            
08023A24 1C19     mov     r1,r3                                   
08023A26 3126     add     r1,26h                                  
08023A28 2700     mov     r7,0h                                   
08023A2A 2001     mov     r0,1h                                   
08023A2C 7008     strb    r0,[r1]                                 
08023A2E 1C18     mov     r0,r3                                   
08023A30 3024     add     r0,24h                                  
08023A32 7800     ldrb    r0,[r0]                                 
08023A34 2867     cmp     r0,67h                                  
08023A36 D831     bhi     8023A9Ch                                
08023A38 1C18     mov     r0,r3                                   
08023A3A 3023     add     r0,23h                                  
08023A3C 7802     ldrb    r2,[r0]                                 
08023A3E 3008     add     r0,8h                                   
08023A40 7805     ldrb    r5,[r0]                                 
08023A42 217F     mov     r1,7Fh                                  
08023A44 4029     and     r1,r5                                   
08023A46 2900     cmp     r1,0h                                   
08023A48 D028     beq     8023A9Ch                                
08023A4A 4E1E     ldr     r6,=30001ACh                            
08023A4C 00D0     lsl     r0,r2,3h                                
08023A4E 1A80     sub     r0,r0,r2                                
08023A50 00C4     lsl     r4,r0,3h                                
08023A52 19A2     add     r2,r4,r6                                
08023A54 1C10     mov     r0,r2                                   
08023A56 3024     add     r0,24h                                  
08023A58 7800     ldrb    r0,[r0]                                 
08023A5A 2861     cmp     r0,61h                                  
08023A5C D81E     bhi     8023A9Ch                                
08023A5E 1C10     mov     r0,r2                                   
08023A60 302B     add     r0,2Bh                                  
08023A62 7005     strb    r5,[r0]                                 
08023A64 2910     cmp     r1,10h                                  
08023A66 D119     bne     8023A9Ch                                
08023A68 1C30     mov     r0,r6                                   
08023A6A 3018     add     r0,18h                                  
08023A6C 1820     add     r0,r4,r0                                
08023A6E 4916     ldr     r1,=82D7A84h                            
08023A70 6001     str     r1,[r0]                                 
08023A72 7717     strb    r7,[r2,1Ch]                             
08023A74 82D7     strh    r7,[r2,16h]                             
08023A76 2040     mov     r0,40h                                  
08023A78 8190     strh    r0,[r2,0Ch]                             
08023A7A 8A98     ldrh    r0,[r3,14h]                             
08023A7C 2814     cmp     r0,14h                                  
08023A7E D803     bhi     8023A88h                                
08023A80 1C11     mov     r1,r2                                   
08023A82 3134     add     r1,34h                                  
08023A84 2002     mov     r0,2h                                   
08023A86 7008     strb    r0,[r1]                                 
08023A88 8818     ldrh    r0,[r3]                                 
08023A8A 2280     mov     r2,80h                                  
08023A8C 0212     lsl     r2,r2,8h                                
08023A8E 1C11     mov     r1,r2                                   
08023A90 4308     orr     r0,r1                                   
08023A92 8018     strh    r0,[r3]                                 
08023A94 20CD     mov     r0,0CDh                                 
08023A96 0040     lsl     r0,r0,1h                                
08023A98 F7DEFFBE bl      8002A18h                                
08023A9C 4808     ldr     r0,=3000738h                            
08023A9E 3024     add     r0,24h                                  
08023AA0 7800     ldrb    r0,[r0]                                 
08023AA2 2867     cmp     r0,67h                                  
08023AA4 D023     beq     8023AEEh                                
08023AA6 2867     cmp     r0,67h                                  
08023AA8 DC13     bgt     8023AD2h                                
08023AAA 2862     cmp     r0,62h                                  
08023AAC D01D     beq     8023AEAh                                
08023AAE 2862     cmp     r0,62h                                  
08023AB0 DC22     bgt     8023AF8h                                
08023AB2 2808     cmp     r0,8h                                   
08023AB4 D013     beq     8023ADEh                                
08023AB6 2808     cmp     r0,8h                                   
08023AB8 DC08     bgt     8023ACCh                                
08023ABA 2800     cmp     r0,0h                                   
08023ABC D00C     beq     8023AD8h                                
08023ABE E01B     b       8023AF8h                                
08023AC0 0738     lsl     r0,r7,1Ch                               
08023AC2 0300     lsl     r0,r0,0Ch                               
08023AC4 01AC     lsl     r4,r5,6h                                
08023AC6 0300     lsl     r0,r0,0Ch                               
08023AC8 7A84     ldrb    r4,[r0,0Ah]                             
08023ACA 082D     lsr     r5,r5,20h                               
08023ACC 2809     cmp     r0,9h                                   
08023ACE D009     beq     8023AE4h                                
08023AD0 E012     b       8023AF8h                                
08023AD2 2868     cmp     r0,68h                                  
08023AD4 D00E     beq     8023AF4h                                
08023AD6 E00F     b       8023AF8h                                
08023AD8 F7FFF9B6 bl      8022E48h                                
08023ADC E00C     b       8023AF8h                                
08023ADE F7FFFA23 bl      8022F28h                                
08023AE2 E009     b       8023AF8h                                
08023AE4 F7FFFAF6 bl      80230D4h                                
08023AE8 E006     b       8023AF8h                                
08023AEA F7FFFB41 bl      8023170h                                
08023AEE F7FFFB5B bl      80231A8h                                
08023AF2 E001     b       8023AF8h                                
08023AF4 F7FFFB98 bl      8023228h                                
08023AF8 BCF0     pop     r4-r7                                   
08023AFA BC01     pop     r0                                      
08023AFC 4700     bx      r0                                      
08023AFE 0000     lsl     r0,r0,0h                                
08023B00 B500     push    r14                                     
08023B02 B081     add     sp,-4h                                  
08023B04 4905     ldr     r1,=3000738h                            
08023B06 1C08     mov     r0,r1                                   
08023B08 3024     add     r0,24h                                  
08023B0A 7800     ldrb    r0,[r0]                                 
08023B0C 1C0A     mov     r2,r1                                   
08023B0E 2809     cmp     r0,9h                                   
08023B10 D00B     beq     8023B2Ah                                
08023B12 2809     cmp     r0,9h                                   
08023B14 DC04     bgt     8023B20h                                
08023B16 2800     cmp     r0,0h                                   
08023B18 D005     beq     8023B26h                                
08023B1A E00C     b       8023B36h                                
08023B1C 0738     lsl     r0,r7,1Ch                               
08023B1E 0300     lsl     r0,r0,0Ch                               
08023B20 2823     cmp     r0,23h                                  
08023B22 D005     beq     8023B30h                                
08023B24 E007     b       8023B36h                                
08023B26 F7FFFBD7 bl      80232D8h                                
08023B2A F7FFFC43 bl      80233B4h                                
08023B2E E00A     b       8023B46h                                
08023B30 F7FFFC78 bl      8023424h                                
08023B34 E007     b       8023B46h                                
08023B36 8851     ldrh    r1,[r2,2h]                              
08023B38 8892     ldrh    r2,[r2,4h]                              
08023B3A 2020     mov     r0,20h                                  
08023B3C 9000     str     r0,[sp]                                 
08023B3E 2000     mov     r0,0h                                   
08023B40 2301     mov     r3,1h                                   
08023B42 F7EDFA9F bl      8011084h                                
08023B46 B001     add     sp,4h                                   
08023B48 BC01     pop     r0                                      
08023B4A 4700     bx      r0                                      
08023B4C B510     push    r4,r14                                  
08023B4E 2400     mov     r4,0h                                   
08023B50 21A0     mov     r1,0A0h                                 
08023B52 0049     lsl     r1,r1,1h                                
08023B54 1C08     mov     r0,r1                                   
08023B56 F7ECF943 bl      800FDE0h                                
08023B5A 2800     cmp     r0,0h                                   
08023B5C D002     beq     8023B64h                                
08023B5E 2401     mov     r4,1h                                   
08023B60 F7EBFEBE bl      800F8E0h                                
08023B64 1C20     mov     r0,r4                                   
08023B66 BC10     pop     r4                                      
08023B68 BC02     pop     r1                                      
08023B6A 4708     bx      r1                                      
08023B6C B570     push    r4-r6,r14                               
08023B6E 4C09     ldr     r4,=3000738h                            
08023B70 7F66     ldrb    r6,[r4,1Dh]                             
08023B72 2E47     cmp     r6,47h                                  
08023B74 D11A     bne     8023BACh                                
08023B76 2003     mov     r0,3h                                   
08023B78 212B     mov     r1,2Bh                                  
08023B7A F03CFE9F bl      80608BCh                                
08023B7E 2800     cmp     r0,0h                                   
08023B80 D105     bne     8023B8Eh                                
08023B82 2003     mov     r0,3h                                   
08023B84 212A     mov     r1,2Ah                                  
08023B86 F03CFE99 bl      80608BCh                                
08023B8A 2800     cmp     r0,0h                                   
08023B8C D104     bne     8023B98h                                
08023B8E 2000     mov     r0,0h                                   
08023B90 8020     strh    r0,[r4]                                 
08023B92 E066     b       8023C62h                                
08023B94 0738     lsl     r0,r7,1Ch                               
08023B96 0300     lsl     r0,r0,0Ch                               
08023B98 4903     ldr     r1,=300007Bh                            
08023B9A 2001     mov     r0,1h                                   
08023B9C 7008     strb    r0,[r1]                                 
08023B9E 1C21     mov     r1,r4                                   
08023BA0 3124     add     r1,24h                                  
08023BA2 2011     mov     r0,11h                                  
08023BA4 E019     b       8023BDAh                                
08023BA6 0000     lsl     r0,r0,0h                                
08023BA8 007B     lsl     r3,r7,1h                                
08023BAA 0300     lsl     r0,r0,0Ch                               
08023BAC 8860     ldrh    r0,[r4,2h]                              
08023BAE 3844     sub     r0,44h                                  
08023BB0 88A1     ldrh    r1,[r4,4h]                              
08023BB2 F7EBFD69 bl      800F688h                                
08023BB6 4816     ldr     r0,=30007F1h                            
08023BB8 7801     ldrb    r1,[r0]                                 
08023BBA 20F0     mov     r0,0F0h                                 
08023BBC 4008     and     r0,r1                                   
08023BBE 2800     cmp     r0,0h                                   
08023BC0 D008     beq     8023BD4h                                
08023BC2 8820     ldrh    r0,[r4]                                 
08023BC4 2280     mov     r2,80h                                  
08023BC6 0052     lsl     r2,r2,1h                                
08023BC8 1C11     mov     r1,r2                                   
08023BCA 4301     orr     r1,r0                                   
08023BCC 8021     strh    r1,[r4]                                 
08023BCE 8860     ldrh    r0,[r4,2h]                              
08023BD0 3840     sub     r0,40h                                  
08023BD2 8060     strh    r0,[r4,2h]                              
08023BD4 1C21     mov     r1,r4                                   
08023BD6 3124     add     r1,24h                                  
08023BD8 200F     mov     r0,0Fh                                  
08023BDA 7008     strb    r0,[r1]                                 
08023BDC 4A0D     ldr     r2,=3000738h                            
08023BDE 1C10     mov     r0,r2                                   
08023BE0 302C     add     r0,2Ch                                  
08023BE2 2500     mov     r5,0h                                   
08023BE4 7005     strb    r5,[r0]                                 
08023BE6 8811     ldrh    r1,[r2]                                 
08023BE8 2080     mov     r0,80h                                  
08023BEA 0040     lsl     r0,r0,1h                                
08023BEC 4008     and     r0,r1                                   
08023BEE 0400     lsl     r0,r0,10h                               
08023BF0 0C04     lsr     r4,r0,10h                               
08023BF2 1C13     mov     r3,r2                                   
08023BF4 2C00     cmp     r4,0h                                   
08023BF6 D00F     beq     8023C18h                                
08023BF8 1C19     mov     r1,r3                                   
08023BFA 3127     add     r1,27h                                  
08023BFC 2008     mov     r0,8h                                   
08023BFE 7008     strb    r0,[r1]                                 
08023C00 3101     add     r1,1h                                   
08023C02 2028     mov     r0,28h                                  
08023C04 7008     strb    r0,[r1]                                 
08023C06 815D     strh    r5,[r3,0Ah]                             
08023C08 2058     mov     r0,58h                                  
08023C0A 8198     strh    r0,[r3,0Ch]                             
08023C0C E00E     b       8023C2Ch                                
08023C0E 0000     lsl     r0,r0,0h                                
08023C10 07F1     lsl     r1,r6,1Fh                               
08023C12 0300     lsl     r0,r0,0Ch                               
08023C14 0738     lsl     r0,r7,1Ch                               
08023C16 0300     lsl     r0,r0,0Ch                               
08023C18 1C19     mov     r1,r3                                   
08023C1A 3127     add     r1,27h                                  
08023C1C 2028     mov     r0,28h                                  
08023C1E 7008     strb    r0,[r1]                                 
08023C20 3101     add     r1,1h                                   
08023C22 2008     mov     r0,8h                                   
08023C24 7008     strb    r0,[r1]                                 
08023C26 4810     ldr     r0,=0FFA8h                              
08023C28 8158     strh    r0,[r3,0Ah]                             
08023C2A 819C     strh    r4,[r3,0Ch]                             
08023C2C 1C19     mov     r1,r3                                   
08023C2E 3129     add     r1,29h                                  
08023C30 2200     mov     r2,0h                                   
08023C32 2018     mov     r0,18h                                  
08023C34 7008     strb    r0,[r1]                                 
08023C36 2100     mov     r1,0h                                   
08023C38 480C     ldr     r0,=0FFC0h                              
08023C3A 81D8     strh    r0,[r3,0Eh]                             
08023C3C 2040     mov     r0,40h                                  
08023C3E 8218     strh    r0,[r3,10h]                             
08023C40 480B     ldr     r0,=82D82DCh                            
08023C42 6198     str     r0,[r3,18h]                             
08023C44 7719     strb    r1,[r3,1Ch]                             
08023C46 82DA     strh    r2,[r3,16h]                             
08023C48 1C19     mov     r1,r3                                   
08023C4A 3125     add     r1,25h                                  
08023C4C 2004     mov     r0,4h                                   
08023C4E 7008     strb    r0,[r1]                                 
08023C50 4908     ldr     r1,=82B0D68h                            
08023C52 00F0     lsl     r0,r6,3h                                
08023C54 1980     add     r0,r0,r6                                
08023C56 0040     lsl     r0,r0,1h                                
08023C58 1840     add     r0,r0,r1                                
08023C5A 8800     ldrh    r0,[r0]                                 
08023C5C 8298     strh    r0,[r3,14h]                             
08023C5E F7EBFDF1 bl      800F844h                                
08023C62 BC70     pop     r4-r6                                   
08023C64 BC01     pop     r0                                      
08023C66 4700     bx      r0                                      
08023C68 FFA8     bl      lr+0F50h                                
08023C6A 0000     lsl     r0,r0,0h                                
08023C6C FFC0     bl      lr+0F80h                                
08023C6E 0000     lsl     r0,r0,0h                                
08023C70 82DC     strh    r4,[r3,16h]                             
08023C72 082D     lsr     r5,r5,20h                               
08023C74 0D68     lsr     r0,r5,15h                               
08023C76 082B     lsr     r3,r5,20h                               
08023C78 4905     ldr     r1,=3000738h                            
08023C7A 1C0B     mov     r3,r1                                   
08023C7C 3324     add     r3,24h                                  
08023C7E 2200     mov     r2,0h                                   
08023C80 2009     mov     r0,9h                                   
08023C82 7018     strb    r0,[r3]                                 
08023C84 770A     strb    r2,[r1,1Ch]                             
08023C86 82CA     strh    r2,[r1,16h]                             
08023C88 4802     ldr     r0,=82D8364h                            
08023C8A 6188     str     r0,[r1,18h]                             
08023C8C 4770     bx      r14                                     
08023C8E 0000     lsl     r0,r0,0h                                
08023C90 0738     lsl     r0,r7,1Ch                               
08023C92 0300     lsl     r0,r0,0Ch                               
08023C94 8364     strh    r4,[r4,1Ah]                             
08023C96 082D     lsr     r5,r5,20h                               
08023C98 B510     push    r4,r14                                  
08023C9A 4B0D     ldr     r3,=3000738h                            
08023C9C 1C19     mov     r1,r3                                   
08023C9E 3124     add     r1,24h                                  
08023CA0 2200     mov     r2,0h                                   
08023CA2 2023     mov     r0,23h                                  
08023CA4 7008     strb    r0,[r1]                                 
08023CA6 771A     strb    r2,[r3,1Ch]                             
08023CA8 2400     mov     r4,0h                                   
08023CAA 82DA     strh    r2,[r3,16h]                             
08023CAC 1C18     mov     r0,r3                                   
08023CAE 302F     add     r0,2Fh                                  
08023CB0 7004     strb    r4,[r0]                                 
08023CB2 4808     ldr     r0,=82D8384h                            
08023CB4 6198     str     r0,[r3,18h]                             
08023CB6 4808     ldr     r0,=300083Ch                            
08023CB8 7801     ldrb    r1,[r0]                                 
08023CBA 2201     mov     r2,1h                                   
08023CBC 1C10     mov     r0,r2                                   
08023CBE 4008     and     r0,r1                                   
08023CC0 1C19     mov     r1,r3                                   
08023CC2 2800     cmp     r0,0h                                   
08023CC4 D00A     beq     8023CDCh                                
08023CC6 1C08     mov     r0,r1                                   
08023CC8 302E     add     r0,2Eh                                  
08023CCA 7002     strb    r2,[r0]                                 
08023CCC E009     b       8023CE2h                                
08023CCE 0000     lsl     r0,r0,0h                                
08023CD0 0738     lsl     r0,r7,1Ch                               
08023CD2 0300     lsl     r0,r0,0Ch                               
08023CD4 8384     strh    r4,[r0,1Ch]                             
08023CD6 082D     lsr     r5,r5,20h                               
08023CD8 083C     lsr     r4,r7,20h                               
08023CDA 0300     lsl     r0,r0,0Ch                               
08023CDC 1C08     mov     r0,r1                                   
08023CDE 302E     add     r0,2Eh                                  
08023CE0 7004     strb    r4,[r0]                                 
08023CE2 8809     ldrh    r1,[r1]                                 
08023CE4 2002     mov     r0,2h                                   
08023CE6 4008     and     r0,r1                                   
08023CE8 2800     cmp     r0,0h                                   
08023CEA D003     beq     8023CF4h                                
08023CEC 20AD     mov     r0,0ADh                                 
08023CEE 0040     lsl     r0,r0,1h                                
08023CF0 F7DEFF16 bl      8002B20h                                
08023CF4 BC10     pop     r4                                      
08023CF6 BC01     pop     r0                                      
08023CF8 4700     bx      r0                                      
08023CFA 0000     lsl     r0,r0,0h                                
08023CFC B500     push    r14                                     
08023CFE 490A     ldr     r1,=3000738h                            
08023D00 1C0B     mov     r3,r1                                   
08023D02 3324     add     r3,24h                                  
08023D04 2200     mov     r2,0h                                   
08023D06 2025     mov     r0,25h                                  
08023D08 7018     strb    r0,[r3]                                 
08023D0A 770A     strb    r2,[r1,1Ch]                             
08023D0C 82CA     strh    r2,[r1,16h]                             
08023D0E 4807     ldr     r0,=82D839Ch                            
08023D10 6188     str     r0,[r1,18h]                             
08023D12 8809     ldrh    r1,[r1]                                 
08023D14 2002     mov     r0,2h                                   
08023D16 4008     and     r0,r1                                   
08023D18 2800     cmp     r0,0h                                   
08023D1A D002     beq     8023D22h                                
08023D1C 4804     ldr     r0,=15Bh                                
08023D1E F7DEFEFF bl      8002B20h                                
08023D22 BC01     pop     r0                                      
08023D24 4700     bx      r0                                      
08023D26 0000     lsl     r0,r0,0h                                
08023D28 0738     lsl     r0,r7,1Ch                               
08023D2A 0300     lsl     r0,r0,0Ch                               
08023D2C 839C     strh    r4,[r3,1Ch]                             
08023D2E 082D     lsr     r5,r5,20h                               
08023D30 015B     lsl     r3,r3,5h                                
08023D32 0000     lsl     r0,r0,0h                                
08023D34 B500     push    r14                                     
08023D36 F7FFFF09 bl      8023B4Ch                                
08023D3A 0600     lsl     r0,r0,18h                               
08023D3C 0E03     lsr     r3,r0,18h                               
08023D3E 2B00     cmp     r3,0h                                   
08023D40 D002     beq     8023D48h                                
08023D42 F7FFFF99 bl      8023C78h                                
08023D46 E02A     b       8023D9Eh                                
08023D48 4A0C     ldr     r2,=3000738h                            
08023D4A 1C11     mov     r1,r2                                   
08023D4C 3124     add     r1,24h                                  
08023D4E 200F     mov     r0,0Fh                                  
08023D50 7008     strb    r0,[r1]                                 
08023D52 7713     strb    r3,[r2,1Ch]                             
08023D54 2100     mov     r1,0h                                   
08023D56 82D3     strh    r3,[r2,16h]                             
08023D58 1C10     mov     r0,r2                                   
08023D5A 302C     add     r0,2Ch                                  
08023D5C 7001     strb    r1,[r0]                                 
08023D5E 4808     ldr     r0,=300083Ch                            
08023D60 7801     ldrb    r1,[r0]                                 
08023D62 2003     mov     r0,3h                                   
08023D64 4008     and     r0,r1                                   
08023D66 1C13     mov     r3,r2                                   
08023D68 332D     add     r3,2Dh                                  
08023D6A 7018     strb    r0,[r3]                                 
08023D6C 0609     lsl     r1,r1,18h                               
08023D6E 0E09     lsr     r1,r1,18h                               
08023D70 2907     cmp     r1,7h                                   
08023D72 D909     bls     8023D88h                                
08023D74 4803     ldr     r0,=82D82DCh                            
08023D76 6190     str     r0,[r2,18h]                             
08023D78 E011     b       8023D9Eh                                
08023D7A 0000     lsl     r0,r0,0h                                
08023D7C 0738     lsl     r0,r7,1Ch                               
08023D7E 0300     lsl     r0,r0,0Ch                               
08023D80 083C     lsr     r4,r7,20h                               
08023D82 0300     lsl     r0,r0,0Ch                               
08023D84 82DC     strh    r4,[r3,16h]                             
08023D86 082D     lsr     r5,r5,20h                               
08023D88 4806     ldr     r0,=82D8304h                            
08023D8A 6190     str     r0,[r2,18h]                             
08023D8C 8811     ldrh    r1,[r2]                                 
08023D8E 2002     mov     r0,2h                                   
08023D90 4008     and     r0,r1                                   
08023D92 2800     cmp     r0,0h                                   
08023D94 D003     beq     8023D9Eh                                
08023D96 20AE     mov     r0,0AEh                                 
08023D98 0040     lsl     r0,r0,1h                                
08023D9A F7DEFEC1 bl      8002B20h                                
08023D9E BC01     pop     r0                                      
08023DA0 4700     bx      r0                                      
08023DA2 0000     lsl     r0,r0,0h                                
08023DA4 8304     strh    r4,[r0,18h]                             
08023DA6 082D     lsr     r5,r5,20h                               
08023DA8 4B06     ldr     r3,=3000738h                            
08023DAA 1C19     mov     r1,r3                                   
08023DAC 3124     add     r1,24h                                  
08023DAE 2200     mov     r2,0h                                   
08023DB0 201F     mov     r0,1Fh                                  
08023DB2 7008     strb    r0,[r1]                                 
08023DB4 771A     strb    r2,[r3,1Ch]                             
08023DB6 2000     mov     r0,0h                                   
08023DB8 82DA     strh    r2,[r3,16h]                             
08023DBA 310B     add     r1,0Bh                                  
08023DBC 7008     strb    r0,[r1]                                 
08023DBE 4802     ldr     r0,=82D8384h                            
08023DC0 6198     str     r0,[r3,18h]                             
08023DC2 4770     bx      r14                                     
08023DC4 0738     lsl     r0,r7,1Ch                               
08023DC6 0300     lsl     r0,r0,0Ch                               
08023DC8 8384     strh    r4,[r0,1Ch]                             
08023DCA 082D     lsr     r5,r5,20h                               
08023DCC B530     push    r4,r5,r14                               
08023DCE 4C0F     ldr     r4,=3000738h                            
08023DD0 8860     ldrh    r0,[r4,2h]                              
08023DD2 88A1     ldrh    r1,[r4,4h]                              
08023DD4 F7EBFCA4 bl      800F720h                                
08023DD8 2800     cmp     r0,0h                                   
08023DDA D11B     bne     8023E14h                                
08023DDC 8860     ldrh    r0,[r4,2h]                              
08023DDE 2210     mov     r2,10h                                  
08023DE0 5EA1     ldsh    r1,[r4,r2]                              
08023DE2 88A2     ldrh    r2,[r4,4h]                              
08023DE4 1889     add     r1,r1,r2                                
08023DE6 F7EBFC4F bl      800F688h                                
08023DEA 4D09     ldr     r5,=30007F1h                            
08023DEC 7828     ldrb    r0,[r5]                                 
08023DEE 2800     cmp     r0,0h                                   
08023DF0 D110     bne     8023E14h                                
08023DF2 8860     ldrh    r0,[r4,2h]                              
08023DF4 220E     mov     r2,0Eh                                  
08023DF6 5EA1     ldsh    r1,[r4,r2]                              
08023DF8 88A4     ldrh    r4,[r4,4h]                              
08023DFA 1909     add     r1,r1,r4                                
08023DFC F7EBFC44 bl      800F688h                                
08023E00 7828     ldrb    r0,[r5]                                 
08023E02 2800     cmp     r0,0h                                   
08023E04 D106     bne     8023E14h                                
08023E06 F7FFFFCF bl      8023DA8h                                
08023E0A E009     b       8023E20h                                
08023E0C 0738     lsl     r0,r7,1Ch                               
08023E0E 0300     lsl     r0,r0,0Ch                               
08023E10 07F1     lsl     r1,r6,1Fh                               
08023E12 0300     lsl     r0,r0,0Ch                               
08023E14 F7EBFED8 bl      800FBC8h                                
08023E18 2800     cmp     r0,0h                                   
08023E1A D001     beq     8023E20h                                
08023E1C F7FFFF3C bl      8023C98h                                
08023E20 BC30     pop     r4,r5                                   
08023E22 BC01     pop     r0                                      
08023E24 4700     bx      r0                                      
08023E26 0000     lsl     r0,r0,0h                                
08023E28 B500     push    r14                                     
08023E2A F7EBFECD bl      800FBC8h                                
08023E2E 2800     cmp     r0,0h                                   
08023E30 D001     beq     8023E36h                                
08023E32 F7FFFF31 bl      8023C98h                                
08023E36 BC01     pop     r0                                      
08023E38 4700     bx      r0                                      
08023E3A 0000     lsl     r0,r0,0h                                
08023E3C B570     push    r4-r6,r14                               
08023E3E 2600     mov     r6,0h                                   
08023E40 4A07     ldr     r2,=3000738h                            
08023E42 1C10     mov     r0,r2                                   
08023E44 302E     add     r0,2Eh                                  
08023E46 7800     ldrb    r0,[r0]                                 
08023E48 2800     cmp     r0,0h                                   
08023E4A D00D     beq     8023E68h                                
08023E4C 4905     ldr     r1,=82D7AE8h                            
08023E4E 1C10     mov     r0,r2                                   
08023E50 302F     add     r0,2Fh                                  
08023E52 7800     ldrb    r0,[r0]                                 
08023E54 0880     lsr     r0,r0,2h                                
08023E56 0040     lsl     r0,r0,1h                                
08023E58 1840     add     r0,r0,r1                                
08023E5A 2100     mov     r1,0h                                   
08023E5C 5E45     ldsh    r5,[r0,r1]                              
08023E5E E00C     b       8023E7Ah                                
08023E60 0738     lsl     r0,r7,1Ch                               
08023E62 0300     lsl     r0,r0,0Ch                               
08023E64 7AE8     ldrb    r0,[r5,0Bh]                             
08023E66 082D     lsr     r5,r5,20h                               
08023E68 4911     ldr     r1,=82D7AD4h                            
08023E6A 1C10     mov     r0,r2                                   
08023E6C 302F     add     r0,2Fh                                  
08023E6E 7800     ldrb    r0,[r0]                                 
08023E70 0880     lsr     r0,r0,2h                                
08023E72 0040     lsl     r0,r0,1h                                
08023E74 1840     add     r0,r0,r1                                
08023E76 2200     mov     r2,0h                                   
08023E78 5E85     ldsh    r5,[r0,r2]                              
08023E7A 4C0E     ldr     r4,=3000738h                            
08023E7C 8821     ldrh    r1,[r4]                                 
08023E7E 2080     mov     r0,80h                                  
08023E80 0080     lsl     r0,r0,2h                                
08023E82 4008     and     r0,r1                                   
08023E84 2800     cmp     r0,0h                                   
08023E86 D021     beq     8023ECCh                                
08023E88 8860     ldrh    r0,[r4,2h]                              
08023E8A 3810     sub     r0,10h                                  
08023E8C 2310     mov     r3,10h                                  
08023E8E 5EE1     ldsh    r1,[r4,r3]                              
08023E90 88A2     ldrh    r2,[r4,4h]                              
08023E92 1889     add     r1,r1,r2                                
08023E94 3104     add     r1,4h                                   
08023E96 F7EBFBF7 bl      800F688h                                
08023E9A 4807     ldr     r0,=30007F1h                            
08023E9C 7800     ldrb    r0,[r0]                                 
08023E9E 2811     cmp     r0,11h                                  
08023EA0 D10C     bne     8023EBCh                                
08023EA2 1C70     add     r0,r6,1                                 
08023EA4 0600     lsl     r0,r0,18h                               
08023EA6 0E06     lsr     r6,r0,18h                               
08023EA8 88A0     ldrh    r0,[r4,4h]                              
08023EAA 3806     sub     r0,6h                                   
08023EAC E02B     b       8023F06h                                
08023EAE 0000     lsl     r0,r0,0h                                
08023EB0 7AD4     ldrb    r4,[r2,0Bh]                             
08023EB2 082D     lsr     r5,r5,20h                               
08023EB4 0738     lsl     r0,r7,1Ch                               
08023EB6 0300     lsl     r0,r0,0Ch                               
08023EB8 07F1     lsl     r1,r6,1Fh                               
08023EBA 0300     lsl     r0,r0,0Ch                               
08023EBC 2D00     cmp     r5,0h                                   
08023EBE DD02     ble     8023EC6h                                
08023EC0 88A0     ldrh    r0,[r4,4h]                              
08023EC2 3004     add     r0,4h                                   
08023EC4 E01F     b       8023F06h                                
08023EC6 88A0     ldrh    r0,[r4,4h]                              
08023EC8 3005     add     r0,5h                                   
08023ECA E01C     b       8023F06h                                
08023ECC 8860     ldrh    r0,[r4,2h]                              
08023ECE 3810     sub     r0,10h                                  
08023ED0 230E     mov     r3,0Eh                                  
08023ED2 5EE1     ldsh    r1,[r4,r3]                              
08023ED4 88A2     ldrh    r2,[r4,4h]                              
08023ED6 1889     add     r1,r1,r2                                
08023ED8 3904     sub     r1,4h                                   
08023EDA F7EBFBD5 bl      800F688h                                
08023EDE 4805     ldr     r0,=30007F1h                            
08023EE0 7800     ldrb    r0,[r0]                                 
08023EE2 2811     cmp     r0,11h                                  
08023EE4 D108     bne     8023EF8h                                
08023EE6 1C70     add     r0,r6,1                                 
08023EE8 0600     lsl     r0,r0,18h                               
08023EEA 0E06     lsr     r6,r0,18h                               
08023EEC 88A0     ldrh    r0,[r4,4h]                              
08023EEE 3006     add     r0,6h                                   
08023EF0 E009     b       8023F06h                                
08023EF2 0000     lsl     r0,r0,0h                                
08023EF4 07F1     lsl     r1,r6,1Fh                               
08023EF6 0300     lsl     r0,r0,0Ch                               
08023EF8 2D00     cmp     r5,0h                                   
08023EFA DD02     ble     8023F02h                                
08023EFC 88A0     ldrh    r0,[r4,4h]                              
08023EFE 3804     sub     r0,4h                                   
08023F00 E001     b       8023F06h                                
08023F02 88A0     ldrh    r0,[r4,4h]                              
08023F04 3805     sub     r0,5h                                   
08023F06 80A0     strh    r0,[r4,4h]                              
08023F08 4C10     ldr     r4,=3000738h                            
08023F0A 8860     ldrh    r0,[r4,2h]                              
08023F0C 1940     add     r0,r0,r5                                
08023F0E 8060     strh    r0,[r4,2h]                              
08023F10 1C21     mov     r1,r4                                   
08023F12 312F     add     r1,2Fh                                  
08023F14 7808     ldrb    r0,[r1]                                 
08023F16 2826     cmp     r0,26h                                  
08023F18 D801     bhi     8023F1Eh                                
08023F1A 3001     add     r0,1h                                   
08023F1C 7008     strb    r0,[r1]                                 
08023F1E 2D00     cmp     r5,0h                                   
08023F20 DD3A     ble     8023F98h                                
08023F22 2E00     cmp     r6,0h                                   
08023F24 D005     beq     8023F32h                                
08023F26 8820     ldrh    r0,[r4]                                 
08023F28 2380     mov     r3,80h                                  
08023F2A 009B     lsl     r3,r3,2h                                
08023F2C 1C19     mov     r1,r3                                   
08023F2E 4048     eor     r0,r1                                   
08023F30 8020     strh    r0,[r4]                                 
08023F32 8860     ldrh    r0,[r4,2h]                              
08023F34 88A1     ldrh    r1,[r4,4h]                              
08023F36 F7EBFAA1 bl      800F47Ch                                
08023F3A 1C01     mov     r1,r0                                   
08023F3C 4D04     ldr     r5,=30007F0h                            
08023F3E 7828     ldrb    r0,[r5]                                 
08023F40 2800     cmp     r0,0h                                   
08023F42 D007     beq     8023F54h                                
08023F44 8061     strh    r1,[r4,2h]                              
08023F46 F7FFFED9 bl      8023CFCh                                
08023F4A E064     b       8024016h                                
08023F4C 0738     lsl     r0,r7,1Ch                               
08023F4E 0300     lsl     r0,r0,0Ch                               
08023F50 07F0     lsl     r0,r6,1Fh                               
08023F52 0300     lsl     r0,r0,0Ch                               
08023F54 2E00     cmp     r6,0h                                   
08023F56 D15E     bne     8024016h                                
08023F58 8860     ldrh    r0,[r4,2h]                              
08023F5A 2210     mov     r2,10h                                  
08023F5C 5EA1     ldsh    r1,[r4,r2]                              
08023F5E 88A3     ldrh    r3,[r4,4h]                              
08023F60 18C9     add     r1,r1,r3                                
08023F62 F7EBFA8B bl      800F47Ch                                
08023F66 1C01     mov     r1,r0                                   
08023F68 7828     ldrb    r0,[r5]                                 
08023F6A 2800     cmp     r0,0h                                   
08023F6C D10D     bne     8023F8Ah                                
08023F6E 8860     ldrh    r0,[r4,2h]                              
08023F70 220E     mov     r2,0Eh                                  
08023F72 5EA1     ldsh    r1,[r4,r2]                              
08023F74 88A4     ldrh    r4,[r4,4h]                              
08023F76 1909     add     r1,r1,r4                                
08023F78 F7EBFA80 bl      800F47Ch                                
08023F7C 1C01     mov     r1,r0                                   
08023F7E 7828     ldrb    r0,[r5]                                 
08023F80 2800     cmp     r0,0h                                   
08023F82 D000     beq     8023F86h                                
08023F84 2601     mov     r6,1h                                   
08023F86 2E00     cmp     r6,0h                                   
08023F88 D045     beq     8024016h                                
08023F8A 4802     ldr     r0,=3000738h                            
08023F8C 8041     strh    r1,[r0,2h]                              
08023F8E F7FFFEB5 bl      8023CFCh                                
08023F92 E040     b       8024016h                                
08023F94 0738     lsl     r0,r7,1Ch                               
08023F96 0300     lsl     r0,r0,0Ch                               
08023F98 8821     ldrh    r1,[r4]                                 
08023F9A 2080     mov     r0,80h                                  
08023F9C 0080     lsl     r0,r0,2h                                
08023F9E 4008     and     r0,r1                                   
08023FA0 2800     cmp     r0,0h                                   
08023FA2 D019     beq     8023FD8h                                
08023FA4 230A     mov     r3,0Ah                                  
08023FA6 5EE0     ldsh    r0,[r4,r3]                              
08023FA8 8861     ldrh    r1,[r4,2h]                              
08023FAA 1840     add     r0,r0,r1                                
08023FAC 2210     mov     r2,10h                                  
08023FAE 5EA1     ldsh    r1,[r4,r2]                              
08023FB0 88A3     ldrh    r3,[r4,4h]                              
08023FB2 18C9     add     r1,r1,r3                                
08023FB4 F7EBFB68 bl      800F688h                                
08023FB8 4806     ldr     r0,=30007F1h                            
08023FBA 7800     ldrb    r0,[r0]                                 
08023FBC 2811     cmp     r0,11h                                  
08023FBE D121     bne     8024004h                                
08023FC0 1C70     add     r0,r6,1                                 
08023FC2 0600     lsl     r0,r0,18h                               
08023FC4 0E06     lsr     r6,r0,18h                               
08023FC6 88A0     ldrh    r0,[r4,4h]                              
08023FC8 3806     sub     r0,6h                                   
08023FCA 80A0     strh    r0,[r4,4h]                              
08023FCC F7FFFEEC bl      8023DA8h                                
08023FD0 E018     b       8024004h                                
08023FD2 0000     lsl     r0,r0,0h                                
08023FD4 07F1     lsl     r1,r6,1Fh                               
08023FD6 0300     lsl     r0,r0,0Ch                               
08023FD8 210A     mov     r1,0Ah                                  
08023FDA 5E60     ldsh    r0,[r4,r1]                              
08023FDC 8862     ldrh    r2,[r4,2h]                              
08023FDE 1880     add     r0,r0,r2                                
08023FE0 230E     mov     r3,0Eh                                  
08023FE2 5EE1     ldsh    r1,[r4,r3]                              
08023FE4 88A2     ldrh    r2,[r4,4h]                              
08023FE6 1889     add     r1,r1,r2                                
08023FE8 F7EBFB4E bl      800F688h                                
08023FEC 480B     ldr     r0,=30007F1h                            
08023FEE 7800     ldrb    r0,[r0]                                 
08023FF0 2811     cmp     r0,11h                                  
08023FF2 D107     bne     8024004h                                
08023FF4 1C70     add     r0,r6,1                                 
08023FF6 0600     lsl     r0,r0,18h                               
08023FF8 0E06     lsr     r6,r0,18h                               
08023FFA 88A0     ldrh    r0,[r4,4h]                              
08023FFC 3006     add     r0,6h                                   
08023FFE 80A0     strh    r0,[r4,4h]                              
08024000 F7FFFED2 bl      8023DA8h                                
08024004 2E00     cmp     r6,0h                                   
08024006 D006     beq     8024016h                                
08024008 4805     ldr     r0,=3000738h                            
0802400A 8801     ldrh    r1,[r0]                                 
0802400C 2380     mov     r3,80h                                  
0802400E 009B     lsl     r3,r3,2h                                
08024010 1C1A     mov     r2,r3                                   
08024012 4051     eor     r1,r2                                   
08024014 8001     strh    r1,[r0]                                 
08024016 BC70     pop     r4-r6                                   
08024018 BC01     pop     r0                                      
0802401A 4700     bx      r0                                      
0802401C 07F1     lsl     r1,r6,1Fh                               
0802401E 0300     lsl     r0,r0,0Ch                               
08024020 0738     lsl     r0,r7,1Ch                               
08024022 0300     lsl     r0,r0,0Ch                               
08024024 B5F0     push    r4-r7,r14                               
08024026 2700     mov     r7,0h                                   
08024028 4A07     ldr     r2,=3000738h                            
0802402A 1C10     mov     r0,r2                                   
0802402C 302E     add     r0,2Eh                                  
0802402E 7800     ldrb    r0,[r0]                                 
08024030 2800     cmp     r0,0h                                   
08024032 D00D     beq     8024050h                                
08024034 4905     ldr     r1,=82D7AE8h                            
08024036 1C10     mov     r0,r2                                   
08024038 302F     add     r0,2Fh                                  
0802403A 7800     ldrb    r0,[r0]                                 
0802403C 0880     lsr     r0,r0,2h                                
0802403E 0040     lsl     r0,r0,1h                                
08024040 1840     add     r0,r0,r1                                
08024042 2100     mov     r1,0h                                   
08024044 5E45     ldsh    r5,[r0,r1]                              
08024046 E00C     b       8024062h                                
08024048 0738     lsl     r0,r7,1Ch                               
0802404A 0300     lsl     r0,r0,0Ch                               
0802404C 7AE8     ldrb    r0,[r5,0Bh]                             
0802404E 082D     lsr     r5,r5,20h                               
08024050 4911     ldr     r1,=82D7AD4h                            
08024052 1C10     mov     r0,r2                                   
08024054 302F     add     r0,2Fh                                  
08024056 7800     ldrb    r0,[r0]                                 
08024058 0880     lsr     r0,r0,2h                                
0802405A 0040     lsl     r0,r0,1h                                
0802405C 1840     add     r0,r0,r1                                
0802405E 2200     mov     r2,0h                                   
08024060 5E85     ldsh    r5,[r0,r2]                              
08024062 4C0E     ldr     r4,=3000738h                            
08024064 8821     ldrh    r1,[r4]                                 
08024066 2080     mov     r0,80h                                  
08024068 0080     lsl     r0,r0,2h                                
0802406A 4008     and     r0,r1                                   
0802406C 2800     cmp     r0,0h                                   
0802406E D021     beq     80240B4h                                
08024070 8860     ldrh    r0,[r4,2h]                              
08024072 3010     add     r0,10h                                  
08024074 2310     mov     r3,10h                                  
08024076 5EE1     ldsh    r1,[r4,r3]                              
08024078 88A2     ldrh    r2,[r4,4h]                              
0802407A 1889     add     r1,r1,r2                                
0802407C 3104     add     r1,4h                                   
0802407E F7EBFB03 bl      800F688h                                
08024082 4807     ldr     r0,=30007F1h                            
08024084 7800     ldrb    r0,[r0]                                 
08024086 2811     cmp     r0,11h                                  
08024088 D10C     bne     80240A4h                                
0802408A 1C78     add     r0,r7,1                                 
0802408C 0600     lsl     r0,r0,18h                               
0802408E 0E07     lsr     r7,r0,18h                               
08024090 88A0     ldrh    r0,[r4,4h]                              
08024092 3806     sub     r0,6h                                   
08024094 E02B     b       80240EEh                                
08024096 0000     lsl     r0,r0,0h                                
08024098 7AD4     ldrb    r4,[r2,0Bh]                             
0802409A 082D     lsr     r5,r5,20h                               
0802409C 0738     lsl     r0,r7,1Ch                               
0802409E 0300     lsl     r0,r0,0Ch                               
080240A0 07F1     lsl     r1,r6,1Fh                               
080240A2 0300     lsl     r0,r0,0Ch                               
080240A4 2D00     cmp     r5,0h                                   
080240A6 DD02     ble     80240AEh                                
080240A8 88A0     ldrh    r0,[r4,4h]                              
080240AA 3004     add     r0,4h                                   
080240AC E01F     b       80240EEh                                
080240AE 88A0     ldrh    r0,[r4,4h]                              
080240B0 3005     add     r0,5h                                   
080240B2 E01C     b       80240EEh                                
080240B4 8860     ldrh    r0,[r4,2h]                              
080240B6 3010     add     r0,10h                                  
080240B8 230E     mov     r3,0Eh                                  
080240BA 5EE1     ldsh    r1,[r4,r3]                              
080240BC 88A2     ldrh    r2,[r4,4h]                              
080240BE 1889     add     r1,r1,r2                                
080240C0 3904     sub     r1,4h                                   
080240C2 F7EBFAE1 bl      800F688h                                
080240C6 4805     ldr     r0,=30007F1h                            
080240C8 7800     ldrb    r0,[r0]                                 
080240CA 2811     cmp     r0,11h                                  
080240CC D108     bne     80240E0h                                
080240CE 1C78     add     r0,r7,1                                 
080240D0 0600     lsl     r0,r0,18h                               
080240D2 0E07     lsr     r7,r0,18h                               
080240D4 88A0     ldrh    r0,[r4,4h]                              
080240D6 3006     add     r0,6h                                   
080240D8 E009     b       80240EEh                                
080240DA 0000     lsl     r0,r0,0h                                
080240DC 07F1     lsl     r1,r6,1Fh                               
080240DE 0300     lsl     r0,r0,0Ch                               
080240E0 2D00     cmp     r5,0h                                   
080240E2 DD02     ble     80240EAh                                
080240E4 88A0     ldrh    r0,[r4,4h]                              
080240E6 3804     sub     r0,4h                                   
080240E8 E001     b       80240EEh                                
080240EA 88A0     ldrh    r0,[r4,4h]                              
080240EC 3805     sub     r0,5h                                   
080240EE 80A0     strh    r0,[r4,4h]                              
080240F0 4C14     ldr     r4,=3000738h                            
080240F2 8860     ldrh    r0,[r4,2h]                              
080240F4 1B40     sub     r0,r0,r5                                
080240F6 8060     strh    r0,[r4,2h]                              
080240F8 1C21     mov     r1,r4                                   
080240FA 312F     add     r1,2Fh                                  
080240FC 7808     ldrb    r0,[r1]                                 
080240FE 2826     cmp     r0,26h                                  
08024100 D801     bhi     8024106h                                
08024102 3001     add     r0,1h                                   
08024104 7008     strb    r0,[r1]                                 
08024106 2D00     cmp     r5,0h                                   
08024108 DA44     bge     8024194h                                
0802410A 8821     ldrh    r1,[r4]                                 
0802410C 2080     mov     r0,80h                                  
0802410E 0080     lsl     r0,r0,2h                                
08024110 4008     and     r0,r1                                   
08024112 2800     cmp     r0,0h                                   
08024114 D01A     beq     802414Ch                                
08024116 230C     mov     r3,0Ch                                  
08024118 5EE0     ldsh    r0,[r4,r3]                              
0802411A 8861     ldrh    r1,[r4,2h]                              
0802411C 1840     add     r0,r0,r1                                
0802411E 2210     mov     r2,10h                                  
08024120 5EA1     ldsh    r1,[r4,r2]                              
08024122 88A3     ldrh    r3,[r4,4h]                              
08024124 18C9     add     r1,r1,r3                                
08024126 F7EBFAAF bl      800F688h                                
0802412A 4807     ldr     r0,=30007F1h                            
0802412C 7800     ldrb    r0,[r0]                                 
0802412E 2811     cmp     r0,11h                                  
08024130 D122     bne     8024178h                                
08024132 1C78     add     r0,r7,1                                 
08024134 0600     lsl     r0,r0,18h                               
08024136 0E07     lsr     r7,r0,18h                               
08024138 88A0     ldrh    r0,[r4,4h]                              
0802413A 3806     sub     r0,6h                                   
0802413C 80A0     strh    r0,[r4,4h]                              
0802413E F7FFFE33 bl      8023DA8h                                
08024142 E019     b       8024178h                                
08024144 0738     lsl     r0,r7,1Ch                               
08024146 0300     lsl     r0,r0,0Ch                               
08024148 07F1     lsl     r1,r6,1Fh                               
0802414A 0300     lsl     r0,r0,0Ch                               
0802414C 210C     mov     r1,0Ch                                  
0802414E 5E60     ldsh    r0,[r4,r1]                              
08024150 8862     ldrh    r2,[r4,2h]                              
08024152 1880     add     r0,r0,r2                                
08024154 230E     mov     r3,0Eh                                  
08024156 5EE1     ldsh    r1,[r4,r3]                              
08024158 88A2     ldrh    r2,[r4,4h]                              
0802415A 1889     add     r1,r1,r2                                
0802415C F7EBFA94 bl      800F688h                                
08024160 480A     ldr     r0,=30007F1h                            
08024162 7800     ldrb    r0,[r0]                                 
08024164 2811     cmp     r0,11h                                  
08024166 D107     bne     8024178h                                
08024168 1C78     add     r0,r7,1                                 
0802416A 0600     lsl     r0,r0,18h                               
0802416C 0E07     lsr     r7,r0,18h                               
0802416E 88A0     ldrh    r0,[r4,4h]                              
08024170 3006     add     r0,6h                                   
08024172 80A0     strh    r0,[r4,4h]                              
08024174 F7FFFE18 bl      8023DA8h                                
08024178 2F00     cmp     r7,0h                                   
0802417A D04C     beq     8024216h                                
0802417C 4804     ldr     r0,=3000738h                            
0802417E 8801     ldrh    r1,[r0]                                 
08024180 2380     mov     r3,80h                                  
08024182 009B     lsl     r3,r3,2h                                
08024184 1C1A     mov     r2,r3                                   
08024186 4051     eor     r1,r2                                   
08024188 8001     strh    r1,[r0]                                 
0802418A E044     b       8024216h                                
0802418C 07F1     lsl     r1,r6,1Fh                               
0802418E 0300     lsl     r0,r0,0Ch                               
08024190 0738     lsl     r0,r7,1Ch                               
08024192 0300     lsl     r0,r0,0Ch                               
08024194 2F00     cmp     r7,0h                                   
08024196 D005     beq     80241A4h                                
08024198 8820     ldrh    r0,[r4]                                 
0802419A 2280     mov     r2,80h                                  
0802419C 0092     lsl     r2,r2,2h                                
0802419E 1C11     mov     r1,r2                                   
080241A0 4048     eor     r0,r1                                   
080241A2 8020     strh    r0,[r4]                                 
080241A4 8860     ldrh    r0,[r4,2h]                              
080241A6 88A1     ldrh    r1,[r4,4h]                              
080241A8 F7EBF968 bl      800F47Ch                                
080241AC 1C02     mov     r2,r0                                   
080241AE 4D06     ldr     r5,=30007F0h                            
080241B0 7829     ldrb    r1,[r5]                                 
080241B2 260F     mov     r6,0Fh                                  
080241B4 1C30     mov     r0,r6                                   
080241B6 4008     and     r0,r1                                   
080241B8 2800     cmp     r0,0h                                   
080241BA D007     beq     80241CCh                                
080241BC 1C10     mov     r0,r2                                   
080241BE 3040     add     r0,40h                                  
080241C0 8060     strh    r0,[r4,2h]                              
080241C2 F7FFFD9B bl      8023CFCh                                
080241C6 E026     b       8024216h                                
080241C8 07F0     lsl     r0,r6,1Fh                               
080241CA 0300     lsl     r0,r0,0Ch                               
080241CC 2F00     cmp     r7,0h                                   
080241CE D122     bne     8024216h                                
080241D0 8860     ldrh    r0,[r4,2h]                              
080241D2 2310     mov     r3,10h                                  
080241D4 5EE1     ldsh    r1,[r4,r3]                              
080241D6 88A2     ldrh    r2,[r4,4h]                              
080241D8 1889     add     r1,r1,r2                                
080241DA F7EBF94F bl      800F47Ch                                
080241DE 1C02     mov     r2,r0                                   
080241E0 7829     ldrb    r1,[r5]                                 
080241E2 1C30     mov     r0,r6                                   
080241E4 4008     and     r0,r1                                   
080241E6 2800     cmp     r0,0h                                   
080241E8 D10F     bne     802420Ah                                
080241EA 8860     ldrh    r0,[r4,2h]                              
080241EC 230E     mov     r3,0Eh                                  
080241EE 5EE1     ldsh    r1,[r4,r3]                              
080241F0 88A4     ldrh    r4,[r4,4h]                              
080241F2 1909     add     r1,r1,r4                                
080241F4 F7EBF942 bl      800F47Ch                                
080241F8 1C02     mov     r2,r0                                   
080241FA 7829     ldrb    r1,[r5]                                 
080241FC 1C30     mov     r0,r6                                   
080241FE 4008     and     r0,r1                                   
08024200 2800     cmp     r0,0h                                   
08024202 D000     beq     8024206h                                
08024204 2701     mov     r7,1h                                   
08024206 2F00     cmp     r7,0h                                   
08024208 D005     beq     8024216h                                
0802420A 4904     ldr     r1,=3000738h                            
0802420C 1C10     mov     r0,r2                                   
0802420E 3040     add     r0,40h                                  
08024210 8048     strh    r0,[r1,2h]                              
08024212 F7FFFD73 bl      8023CFCh                                
08024216 BCF0     pop     r4-r7                                   
08024218 BC01     pop     r0                                      
0802421A 4700     bx      r0                                      
0802421C 0738     lsl     r0,r7,1Ch                               
0802421E 0300     lsl     r0,r0,0Ch                               
08024220 B500     push    r14                                     
08024222 F7EBFCD1 bl      800FBC8h                                
08024226 2800     cmp     r0,0h                                   
08024228 D001     beq     802422Eh                                
0802422A F7FFFD83 bl      8023D34h                                
0802422E BC01     pop     r0                                      
08024230 4700     bx      r0                                      
08024232 0000     lsl     r0,r0,0h                                
08024234 B570     push    r4-r6,r14                               
08024236 2600     mov     r6,0h                                   
08024238 4C13     ldr     r4,=3000738h                            
0802423A 8860     ldrh    r0,[r4,2h]                              
0802423C 88A1     ldrh    r1,[r4,4h]                              
0802423E F7EBF91D bl      800F47Ch                                
08024242 1C01     mov     r1,r0                                   
08024244 4D11     ldr     r5,=30007F0h                            
08024246 7828     ldrb    r0,[r5]                                 
08024248 2800     cmp     r0,0h                                   
0802424A D118     bne     802427Eh                                
0802424C 8860     ldrh    r0,[r4,2h]                              
0802424E 2210     mov     r2,10h                                  
08024250 5EA1     ldsh    r1,[r4,r2]                              
08024252 88A2     ldrh    r2,[r4,4h]                              
08024254 1889     add     r1,r1,r2                                
08024256 F7EBF911 bl      800F47Ch                                
0802425A 1C01     mov     r1,r0                                   
0802425C 7828     ldrb    r0,[r5]                                 
0802425E 2800     cmp     r0,0h                                   
08024260 D10D     bne     802427Eh                                
08024262 8860     ldrh    r0,[r4,2h]                              
08024264 220E     mov     r2,0Eh                                  
08024266 5EA1     ldsh    r1,[r4,r2]                              
08024268 88A2     ldrh    r2,[r4,4h]                              
0802426A 1889     add     r1,r1,r2                                
0802426C F7EBF906 bl      800F47Ch                                
08024270 1C01     mov     r1,r0                                   
08024272 7828     ldrb    r0,[r5]                                 
08024274 2800     cmp     r0,0h                                   
08024276 D000     beq     802427Ah                                
08024278 2601     mov     r6,1h                                   
0802427A 2E00     cmp     r6,0h                                   
0802427C D008     beq     8024290h                                
0802427E 4802     ldr     r0,=3000738h                            
08024280 8041     strh    r1,[r0,2h]                              
08024282 F7FFFD3B bl      8023CFCh                                
08024286 E023     b       80242D0h                                
08024288 0738     lsl     r0,r7,1Ch                               
0802428A 0300     lsl     r0,r0,0Ch                               
0802428C 07F0     lsl     r0,r6,1Fh                               
0802428E 0300     lsl     r0,r0,0Ch                               
08024290 1C23     mov     r3,r4                                   
08024292 262F     mov     r6,2Fh                                  
08024294 18F6     add     r6,r6,r3                                
08024296 46B4     mov     r12,r6                                  
08024298 7831     ldrb    r1,[r6]                                 
0802429A 4D08     ldr     r5,=82B0D04h                            
0802429C 0048     lsl     r0,r1,1h                                
0802429E 1940     add     r0,r0,r5                                
080242A0 2600     mov     r6,0h                                   
080242A2 5F82     ldsh    r2,[r0,r6]                              
080242A4 4806     ldr     r0,=7FFFh                               
080242A6 4282     cmp     r2,r0                                   
080242A8 D10C     bne     80242C4h                                
080242AA 1E48     sub     r0,r1,1                                 
080242AC 0040     lsl     r0,r0,1h                                
080242AE 1940     add     r0,r0,r5                                
080242B0 2100     mov     r1,0h                                   
080242B2 5E40     ldsh    r0,[r0,r1]                              
080242B4 885A     ldrh    r2,[r3,2h]                              
080242B6 1880     add     r0,r0,r2                                
080242B8 8058     strh    r0,[r3,2h]                              
080242BA E009     b       80242D0h                                
080242BC 0D04     lsr     r4,r0,14h                               
080242BE 082B     lsr     r3,r5,20h                               
080242C0 7FFF     ldrb    r7,[r7,1Fh]                             
080242C2 0000     lsl     r0,r0,0h                                
080242C4 1C48     add     r0,r1,1                                 
080242C6 4666     mov     r6,r12                                  
080242C8 7030     strb    r0,[r6]                                 
080242CA 8860     ldrh    r0,[r4,2h]                              
080242CC 1880     add     r0,r0,r2                                
080242CE 8060     strh    r0,[r4,2h]                              
080242D0 BC70     pop     r4-r6                                   
080242D2 BC01     pop     r0                                      
080242D4 4700     bx      r0                                      
080242D6 0000     lsl     r0,r0,0h                                
080242D8 B570     push    r4-r6,r14                               
080242DA 2600     mov     r6,0h                                   
080242DC 4C14     ldr     r4,=3000738h                            
080242DE 8860     ldrh    r0,[r4,2h]                              
080242E0 88A1     ldrh    r1,[r4,4h]                              
080242E2 F7EBF8CB bl      800F47Ch                                
080242E6 1C02     mov     r2,r0                                   
080242E8 4D12     ldr     r5,=30007F0h                            
080242EA 7828     ldrb    r0,[r5]                                 
080242EC 2800     cmp     r0,0h                                   
080242EE D118     bne     8024322h                                
080242F0 8860     ldrh    r0,[r4,2h]                              
080242F2 2210     mov     r2,10h                                  
080242F4 5EA1     ldsh    r1,[r4,r2]                              
080242F6 88A2     ldrh    r2,[r4,4h]                              
080242F8 1889     add     r1,r1,r2                                
080242FA F7EBF8BF bl      800F47Ch                                
080242FE 1C02     mov     r2,r0                                   
08024300 7828     ldrb    r0,[r5]                                 
08024302 2800     cmp     r0,0h                                   
08024304 D10D     bne     8024322h                                
08024306 8860     ldrh    r0,[r4,2h]                              
08024308 220E     mov     r2,0Eh                                  
0802430A 5EA1     ldsh    r1,[r4,r2]                              
0802430C 88A2     ldrh    r2,[r4,4h]                              
0802430E 1889     add     r1,r1,r2                                
08024310 F7EBF8B4 bl      800F47Ch                                
08024314 1C02     mov     r2,r0                                   
08024316 7828     ldrb    r0,[r5]                                 
08024318 2800     cmp     r0,0h                                   
0802431A D000     beq     802431Eh                                
0802431C 2601     mov     r6,1h                                   
0802431E 2E00     cmp     r6,0h                                   
08024320 D00A     beq     8024338h                                
08024322 4903     ldr     r1,=3000738h                            
08024324 1C10     mov     r0,r2                                   
08024326 3040     add     r0,40h                                  
08024328 8048     strh    r0,[r1,2h]                              
0802432A F7FFFCE7 bl      8023CFCh                                
0802432E E023     b       8024378h                                
08024330 0738     lsl     r0,r7,1Ch                               
08024332 0300     lsl     r0,r0,0Ch                               
08024334 07F0     lsl     r0,r6,1Fh                               
08024336 0300     lsl     r0,r0,0Ch                               
08024338 1C23     mov     r3,r4                                   
0802433A 262F     mov     r6,2Fh                                  
0802433C 18F6     add     r6,r6,r3                                
0802433E 46B4     mov     r12,r6                                  
08024340 7831     ldrb    r1,[r6]                                 
08024342 4D08     ldr     r5,=82B0CE4h                            
08024344 0048     lsl     r0,r1,1h                                
08024346 1940     add     r0,r0,r5                                
08024348 2600     mov     r6,0h                                   
0802434A 5F82     ldsh    r2,[r0,r6]                              
0802434C 4806     ldr     r0,=7FFFh                               
0802434E 4282     cmp     r2,r0                                   
08024350 D10C     bne     802436Ch                                
08024352 1E48     sub     r0,r1,1                                 
08024354 0040     lsl     r0,r0,1h                                
08024356 1940     add     r0,r0,r5                                
08024358 2100     mov     r1,0h                                   
0802435A 5E40     ldsh    r0,[r0,r1]                              
0802435C 885A     ldrh    r2,[r3,2h]                              
0802435E 1880     add     r0,r0,r2                                
08024360 8058     strh    r0,[r3,2h]                              
08024362 E009     b       8024378h                                
08024364 0CE4     lsr     r4,r4,13h                               
08024366 082B     lsr     r3,r5,20h                               
08024368 7FFF     ldrb    r7,[r7,1Fh]                             
0802436A 0000     lsl     r0,r0,0h                                
0802436C 1C48     add     r0,r1,1                                 
0802436E 4666     mov     r6,r12                                  
08024370 7030     strb    r0,[r6]                                 
08024372 8860     ldrh    r0,[r4,2h]                              
08024374 1880     add     r0,r0,r2                                
08024376 8060     strh    r0,[r4,2h]                              
08024378 BC70     pop     r4-r6                                   
0802437A BC01     pop     r0                                      
0802437C 4700     bx      r0                                      
0802437E 0000     lsl     r0,r0,0h                                
08024380 B530     push    r4,r5,r14                               
08024382 F7FFFBE3 bl      8023B4Ch                                
08024386 0600     lsl     r0,r0,18h                               
08024388 2800     cmp     r0,0h                                   
0802438A D12D     bne     80243E8h                                
0802438C 4C0C     ldr     r4,=3000738h                            
0802438E 8860     ldrh    r0,[r4,2h]                              
08024390 2210     mov     r2,10h                                  
08024392 5EA1     ldsh    r1,[r4,r2]                              
08024394 88A2     ldrh    r2,[r4,4h]                              
08024396 1889     add     r1,r1,r2                                
08024398 F7EBF976 bl      800F688h                                
0802439C 4D09     ldr     r5,=30007F1h                            
0802439E 7828     ldrb    r0,[r5]                                 
080243A0 2800     cmp     r0,0h                                   
080243A2 D111     bne     80243C8h                                
080243A4 8860     ldrh    r0,[r4,2h]                              
080243A6 220E     mov     r2,0Eh                                  
080243A8 5EA1     ldsh    r1,[r4,r2]                              
080243AA 88A4     ldrh    r4,[r4,4h]                              
080243AC 1909     add     r1,r1,r4                                
080243AE F7EBF96B bl      800F688h                                
080243B2 7828     ldrb    r0,[r5]                                 
080243B4 2800     cmp     r0,0h                                   
080243B6 D107     bne     80243C8h                                
080243B8 F7FFFCF6 bl      8023DA8h                                
080243BC E027     b       802440Eh                                
080243BE 0000     lsl     r0,r0,0h                                
080243C0 0738     lsl     r0,r7,1Ch                               
080243C2 0300     lsl     r0,r0,0Ch                               
080243C4 07F1     lsl     r1,r6,1Fh                               
080243C6 0300     lsl     r0,r0,0Ch                               
080243C8 F7EBFBFE bl      800FBC8h                                
080243CC 2800     cmp     r0,0h                                   
080243CE D01E     beq     802440Eh                                
080243D0 4B07     ldr     r3,=3000738h                            
080243D2 1C18     mov     r0,r3                                   
080243D4 302C     add     r0,2Ch                                  
080243D6 7801     ldrb    r1,[r0]                                 
080243D8 1C4A     add     r2,r1,1                                 
080243DA 7002     strb    r2,[r0]                                 
080243DC 3001     add     r0,1h                                   
080243DE 0609     lsl     r1,r1,18h                               
080243E0 0E09     lsr     r1,r1,18h                               
080243E2 7800     ldrb    r0,[r0]                                 
080243E4 4281     cmp     r1,r0                                   
080243E6 D105     bne     80243F4h                                
080243E8 F7FFFC46 bl      8023C78h                                
080243EC E00F     b       802440Eh                                
080243EE 0000     lsl     r0,r0,0h                                
080243F0 0738     lsl     r0,r7,1Ch                               
080243F2 0300     lsl     r0,r0,0Ch                               
080243F4 6999     ldr     r1,[r3,18h]                             
080243F6 4807     ldr     r0,=82D8304h                            
080243F8 4281     cmp     r1,r0                                   
080243FA D108     bne     802440Eh                                
080243FC 8819     ldrh    r1,[r3]                                 
080243FE 2002     mov     r0,2h                                   
08024400 4008     and     r0,r1                                   
08024402 2800     cmp     r0,0h                                   
08024404 D003     beq     802440Eh                                
08024406 20AE     mov     r0,0AEh                                 
08024408 0040     lsl     r0,r0,1h                                
0802440A F7DEFB89 bl      8002B20h                                
0802440E BC30     pop     r4,r5                                   
08024410 BC01     pop     r0                                      
08024412 4700     bx      r0                                      
08024414 8304     strh    r4,[r0,18h]                             
08024416 082D     lsr     r5,r5,20h                               
08024418 B500     push    r14                                     
0802441A F7FFFB97 bl      8023B4Ch                                
0802441E 0600     lsl     r0,r0,18h                               
08024420 2800     cmp     r0,0h                                   
08024422 D10F     bne     8024444h                                
08024424 F7EBFBD0 bl      800FBC8h                                
08024428 2800     cmp     r0,0h                                   
0802442A D01E     beq     802446Ah                                
0802442C 4B07     ldr     r3,=3000738h                            
0802442E 1C18     mov     r0,r3                                   
08024430 302C     add     r0,2Ch                                  
08024432 7801     ldrb    r1,[r0]                                 
08024434 1C4A     add     r2,r1,1                                 
08024436 7002     strb    r2,[r0]                                 
08024438 3001     add     r0,1h                                   
0802443A 0609     lsl     r1,r1,18h                               
0802443C 0E09     lsr     r1,r1,18h                               
0802443E 7800     ldrb    r0,[r0]                                 
08024440 4281     cmp     r1,r0                                   
08024442 D105     bne     8024450h                                
08024444 F7FFFC18 bl      8023C78h                                
08024448 E00F     b       802446Ah                                
0802444A 0000     lsl     r0,r0,0h                                
0802444C 0738     lsl     r0,r7,1Ch                               
0802444E 0300     lsl     r0,r0,0Ch                               
08024450 6999     ldr     r1,[r3,18h]                             
08024452 4807     ldr     r0,=82D8304h                            
08024454 4281     cmp     r1,r0                                   
08024456 D108     bne     802446Ah                                
08024458 8819     ldrh    r1,[r3]                                 
0802445A 2002     mov     r0,2h                                   
0802445C 4008     and     r0,r1                                   
0802445E 2800     cmp     r0,0h                                   
08024460 D003     beq     802446Ah                                
08024462 20AE     mov     r0,0AEh                                 
08024464 0040     lsl     r0,r0,1h                                
08024466 F7DEFB5B bl      8002B20h                                
0802446A BC01     pop     r0                                      
0802446C 4700     bx      r0                                      
0802446E 0000     lsl     r0,r0,0h                                
08024470 8304     strh    r4,[r0,18h]                             
08024472 082D     lsr     r5,r5,20h                               
08024474 B510     push    r4,r14                                  
08024476 B081     add     sp,-4h                                  
08024478 4C04     ldr     r4,=3000738h                            
0802447A 8821     ldrh    r1,[r4]                                 
0802447C 2080     mov     r0,80h                                  
0802447E 0040     lsl     r0,r0,1h                                
08024480 4008     and     r0,r1                                   
08024482 2800     cmp     r0,0h                                   
08024484 D004     beq     8024490h                                
08024486 8860     ldrh    r0,[r4,2h]                              
08024488 3030     add     r0,30h                                  
0802448A E00C     b       80244A6h                                
0802448C 0738     lsl     r0,r7,1Ch                               
0802448E 0300     lsl     r0,r0,0Ch                               
08024490 2001     mov     r0,1h                                   
08024492 212B     mov     r1,2Bh                                  
08024494 F03CFA12 bl      80608BCh                                
08024498 490A     ldr     r1,=300007Bh                            
0802449A 2214     mov     r2,14h                                  
0802449C 4252     neg     r2,r2                                   
0802449E 1C10     mov     r0,r2                                   
080244A0 7008     strb    r0,[r1]                                 
080244A2 8860     ldrh    r0,[r4,2h]                              
080244A4 3830     sub     r0,30h                                  
080244A6 0400     lsl     r0,r0,10h                               
080244A8 0C01     lsr     r1,r0,10h                               
080244AA 4807     ldr     r0,=3000738h                            
080244AC 8882     ldrh    r2,[r0,4h]                              
080244AE 2022     mov     r0,22h                                  
080244B0 9000     str     r0,[sp]                                 
080244B2 2000     mov     r0,0h                                   
080244B4 2301     mov     r3,1h                                   
080244B6 F7ECFDE5 bl      8011084h                                
080244BA B001     add     sp,4h                                   
080244BC BC10     pop     r4                                      
080244BE BC01     pop     r0                                      
080244C0 4700     bx      r0                                      
080244C2 0000     lsl     r0,r0,0h                                
080244C4 007B     lsl     r3,r7,1h                                
080244C6 0300     lsl     r0,r0,0Ch                               
080244C8 0738     lsl     r0,r7,1Ch                               
080244CA 0300     lsl     r0,r0,0Ch                               
080244CC B530     push    r4,r5,r14                               
080244CE 4C2A     ldr     r4,=3000738h                            
080244D0 1C21     mov     r1,r4                                   
080244D2 3126     add     r1,26h                                  
080244D4 2001     mov     r0,1h                                   
080244D6 7008     strb    r0,[r1]                                 
080244D8 8821     ldrh    r1,[r4]                                 
080244DA 2280     mov     r2,80h                                  
080244DC 0212     lsl     r2,r2,8h                                
080244DE 1C10     mov     r0,r2                                   
080244E0 2500     mov     r5,0h                                   
080244E2 4308     orr     r0,r1                                   
080244E4 8020     strh    r0,[r4]                                 
080244E6 2102     mov     r1,2h                                   
080244E8 4008     and     r0,r1                                   
080244EA 2800     cmp     r0,0h                                   
080244EC D040     beq     8024570h                                
080244EE 20C0     mov     r0,0C0h                                 
080244F0 0080     lsl     r0,r0,2h                                
080244F2 21F0     mov     r1,0F0h                                 
080244F4 F7EBFC74 bl      800FDE0h                                
080244F8 2800     cmp     r0,0h                                   
080244FA D039     beq     8024570h                                
080244FC 1C21     mov     r1,r4                                   
080244FE 3124     add     r1,24h                                  
08024500 2033     mov     r0,33h                                  
08024502 7008     strb    r0,[r1]                                 
08024504 481D     ldr     r0,=82D8384h                            
08024506 61A0     str     r0,[r4,18h]                             
08024508 7725     strb    r5,[r4,1Ch]                             
0802450A 2000     mov     r0,0h                                   
0802450C 82E0     strh    r0,[r4,16h]                             
0802450E 1C20     mov     r0,r4                                   
08024510 302F     add     r0,2Fh                                  
08024512 7005     strb    r5,[r0]                                 
08024514 8821     ldrh    r1,[r4]                                 
08024516 481A     ldr     r0,=7FFFh                               
08024518 4008     and     r0,r1                                   
0802451A 8020     strh    r0,[r4]                                 
0802451C 200A     mov     r0,0Ah                                  
0802451E 2181     mov     r1,81h                                  
08024520 F030FF10 bl      8055344h                                
08024524 8865     ldrh    r5,[r4,2h]                              
08024526 88A4     ldrh    r4,[r4,4h]                              
08024528 1C2A     mov     r2,r5                                   
0802452A 3230     add     r2,30h                                  
0802452C 1C23     mov     r3,r4                                   
0802452E 3350     add     r3,50h                                  
08024530 2000     mov     r0,0h                                   
08024532 2105     mov     r1,5h                                   
08024534 F7EDFC88 bl      8011E48h                                
08024538 1C2A     mov     r2,r5                                   
0802453A 3210     add     r2,10h                                  
0802453C 1C23     mov     r3,r4                                   
0802453E 331A     add     r3,1Ah                                  
08024540 2000     mov     r0,0h                                   
08024542 2107     mov     r1,7h                                   
08024544 F7EDFC80 bl      8011E48h                                
08024548 1C2A     mov     r2,r5                                   
0802454A 3240     add     r2,40h                                  
0802454C 1C23     mov     r3,r4                                   
0802454E 3B5A     sub     r3,5Ah                                  
08024550 2000     mov     r0,0h                                   
08024552 2108     mov     r1,8h                                   
08024554 F7EDFC78 bl      8011E48h                                
08024558 1C2A     mov     r2,r5                                   
0802455A 3220     add     r2,20h                                  
0802455C 1C23     mov     r3,r4                                   
0802455E 3B10     sub     r3,10h                                  
08024560 2000     mov     r0,0h                                   
08024562 2106     mov     r1,6h                                   
08024564 F7EDFC70 bl      8011E48h                                
08024568 2088     mov     r0,88h                                  
0802456A 0080     lsl     r0,r0,2h                                
0802456C F7DEFA54 bl      8002A18h                                
08024570 BC30     pop     r4,r5                                   
08024572 BC01     pop     r0                                      
08024574 4700     bx      r0                                      
08024576 0000     lsl     r0,r0,0h                                
08024578 0738     lsl     r0,r7,1Ch                               
0802457A 0300     lsl     r0,r0,0Ch                               
0802457C 8384     strh    r4,[r0,1Ch]                             
0802457E 082D     lsr     r5,r5,20h                               
08024580 7FFF     ldrb    r7,[r7,1Fh]                             
08024582 0000     lsl     r0,r0,0h                                
08024584 B5F0     push    r4-r7,r14                               
08024586 4C2C     ldr     r4,=3000738h                            
08024588 8860     ldrh    r0,[r4,2h]                              
0802458A 88A1     ldrh    r1,[r4,4h]                              
0802458C F7EAFF76 bl      800F47Ch                                
08024590 1C02     mov     r2,r0                                   
08024592 482A     ldr     r0,=30007F0h                            
08024594 7800     ldrb    r0,[r0]                                 
08024596 2800     cmp     r0,0h                                   
08024598 D05C     beq     8024654h                                
0802459A 1C21     mov     r1,r4                                   
0802459C 312F     add     r1,2Fh                                  
0802459E 7808     ldrb    r0,[r1]                                 
080245A0 2800     cmp     r0,0h                                   
080245A2 D14F     bne     8024644h                                
080245A4 3001     add     r0,1h                                   
080245A6 7008     strb    r0,[r1]                                 
080245A8 8866     ldrh    r6,[r4,2h]                              
080245AA 88A7     ldrh    r7,[r4,4h]                              
080245AC 2501     mov     r5,1h                                   
080245AE 4C24     ldr     r4,=3000079h                            
080245B0 7025     strb    r5,[r4]                                 
080245B2 1C30     mov     r0,r6                                   
080245B4 1C39     mov     r1,r7                                   
080245B6 F033FC61 bl      8057E7Ch                                
080245BA 7025     strb    r5,[r4]                                 
080245BC 1C39     mov     r1,r7                                   
080245BE 3140     add     r1,40h                                  
080245C0 1C30     mov     r0,r6                                   
080245C2 F033FC5B bl      8057E7Ch                                
080245C6 7025     strb    r5,[r4]                                 
080245C8 1C39     mov     r1,r7                                   
080245CA 3940     sub     r1,40h                                  
080245CC 1C30     mov     r0,r6                                   
080245CE F033FC55 bl      8057E7Ch                                
080245D2 1C30     mov     r0,r6                                   
080245D4 3808     sub     r0,8h                                   
080245D6 1C39     mov     r1,r7                                   
080245D8 3134     add     r1,34h                                  
080245DA 2236     mov     r2,36h                                  
080245DC F02FFD86 bl      80540ECh                                
080245E0 1C30     mov     r0,r6                                   
080245E2 3008     add     r0,8h                                   
080245E4 1C39     mov     r1,r7                                   
080245E6 3934     sub     r1,34h                                  
080245E8 2235     mov     r2,35h                                  
080245EA F02FFD7F bl      80540ECh                                
080245EE 1C32     mov     r2,r6                                   
080245F0 3A40     sub     r2,40h                                  
080245F2 2000     mov     r0,0h                                   
080245F4 2111     mov     r1,11h                                  
080245F6 1C3B     mov     r3,r7                                   
080245F8 F7EDFC26 bl      8011E48h                                
080245FC 1C32     mov     r2,r6                                   
080245FE 3A20     sub     r2,20h                                  
08024600 1C3B     mov     r3,r7                                   
08024602 333E     add     r3,3Eh                                  
08024604 2000     mov     r0,0h                                   
08024606 2112     mov     r1,12h                                  
08024608 F7EDFC1E bl      8011E48h                                
0802460C 1C32     mov     r2,r6                                   
0802460E 3A28     sub     r2,28h                                  
08024610 1C3B     mov     r3,r7                                   
08024612 3B5C     sub     r3,5Ch                                  
08024614 2000     mov     r0,0h                                   
08024616 2113     mov     r1,13h                                  
08024618 F7EDFC16 bl      8011E48h                                
0802461C 3E48     sub     r6,48h                                  
0802461E 1C3B     mov     r3,r7                                   
08024620 331E     add     r3,1Eh                                  
08024622 2000     mov     r0,0h                                   
08024624 2104     mov     r1,4h                                   
08024626 1C32     mov     r2,r6                                   
08024628 F7EDFC0E bl      8011E48h                                
0802462C 209D     mov     r0,9Dh                                  
0802462E 0040     lsl     r0,r0,1h                                
08024630 F7DEF9F2 bl      8002A18h                                
08024634 E011     b       802465Ah                                
08024636 0000     lsl     r0,r0,0h                                
08024638 0738     lsl     r0,r7,1Ch                               
0802463A 0300     lsl     r0,r0,0Ch                               
0802463C 07F0     lsl     r0,r6,1Fh                               
0802463E 0300     lsl     r0,r0,0Ch                               
08024640 0079     lsl     r1,r7,1h                                
08024642 0300     lsl     r0,r0,0Ch                               
08024644 8062     strh    r2,[r4,2h]                              
08024646 200A     mov     r0,0Ah                                  
08024648 2181     mov     r1,81h                                  
0802464A F030FE7B bl      8055344h                                
0802464E F7FFFB55 bl      8023CFCh                                
08024652 E002     b       802465Ah                                
08024654 8860     ldrh    r0,[r4,2h]                              
08024656 3018     add     r0,18h                                  
08024658 8060     strh    r0,[r4,2h]                              
0802465A BCF0     pop     r4-r7                                   
0802465C BC01     pop     r0                                      
0802465E 4700     bx      r0                                      
08024660 B510     push    r4,r14                                  
08024662 490E     ldr     r1,=3000738h                            
08024664 1C0B     mov     r3,r1                                   
08024666 3332     add     r3,32h                                  
08024668 781A     ldrb    r2,[r3]                                 
0802466A 2402     mov     r4,2h                                   
0802466C 1C20     mov     r0,r4                                   
0802466E 4010     and     r0,r2                                   
08024670 2800     cmp     r0,0h                                   
08024672 D00A     beq     802468Ah                                
08024674 20FD     mov     r0,0FDh                                 
08024676 4010     and     r0,r2                                   
08024678 7018     strb    r0,[r3]                                 
0802467A 8809     ldrh    r1,[r1]                                 
0802467C 1C20     mov     r0,r4                                   
0802467E 4008     and     r0,r1                                   
08024680 2800     cmp     r0,0h                                   
08024682 D002     beq     802468Ah                                
08024684 4806     ldr     r0,=15Dh                                
08024686 F7DEFA4B bl      8002B20h                                
0802468A 4C04     ldr     r4,=3000738h                            
0802468C 1C20     mov     r0,r4                                   
0802468E 3030     add     r0,30h                                  
08024690 7800     ldrb    r0,[r0]                                 
08024692 2800     cmp     r0,0h                                   
08024694 D006     beq     80246A4h                                
08024696 F7EBFCA7 bl      800FFE8h                                
0802469A E0CC     b       8024836h                                
0802469C 0738     lsl     r0,r7,1Ch                               
0802469E 0300     lsl     r0,r0,0Ch                               
080246A0 015D     lsl     r5,r3,5h                                
080246A2 0000     lsl     r0,r0,0h                                
080246A4 F7ECFDEC bl      8011280h                                
080246A8 2800     cmp     r0,0h                                   
080246AA D000     beq     80246AEh                                
080246AC E0C3     b       8024836h                                
080246AE 1C20     mov     r0,r4                                   
080246B0 3024     add     r0,24h                                  
080246B2 7800     ldrb    r0,[r0]                                 
080246B4 2833     cmp     r0,33h                                  
080246B6 D900     bls     80246BAh                                
080246B8 E0BB     b       8024832h                                
080246BA 0080     lsl     r0,r0,2h                                
080246BC 4901     ldr     r1,=80246C8h                            
080246BE 1840     add     r0,r0,r1                                
080246C0 6800     ldr     r0,[r0]                                 
080246C2 4687     mov     r15,r0                                  
080246C4 46C8     mov     r8,r9                                   
080246C6 0802     lsr     r2,r0,20h                               
080246C8 4798     blx (ARMv5) r3                                  
080246CA 0802     lsr     r2,r0,20h                               
080246CC 4832     ldr     r0,=0F9E8F7FFh                          
080246CE 0802     lsr     r2,r0,20h                               
080246D0 4832     ldr     r0,=0F7FFE04Bh                          
080246D2 0802     lsr     r2,r0,20h                               
080246D4 4832     ldr     r0,=0E048FE95h                          
080246D6 0802     lsr     r2,r0,20h                               
080246D8 4832     ldr     r0,=0FEEEF7FFh                          
080246DA 0802     lsr     r2,r0,20h                               
080246DC 4832     ldr     r0,=0F7FFE045h                          
080246DE 0802     lsr     r2,r0,20h                               
080246E0 4832     ldr     r0,=4805FA65h                           
080246E2 0802     lsr     r2,r0,20h                               
080246E4 4832     ldr     r0,=20808801h                           
080246E6 0802     lsr     r2,r0,20h                               
080246E8 47AA     blx (ARMv5) r10 ???,r5                          
080246EA 0802     lsr     r2,r0,20h                               
080246EC 47AE     blx (ARMv5) r14 ???,r5                          
080246EE 0802     lsr     r2,r0,20h                               
080246F0 4832     ldr     r0,=0FB34F7FFh                          
080246F2 0802     lsr     r2,r0,20h                               
080246F4 4832     ldr     r0,=0E039h                              
080246F6 0802     lsr     r2,r0,20h                               
080246F8 4832     ldr     r0,=3000738h                            
080246FA 0802     lsr     r2,r0,20h                               
080246FC 4832     ldr     r0,=0FB00F7FFh                          
080246FE 0802     lsr     r2,r0,20h                               
08024700 4832     ldr     r0,=4805E033h                           
08024702 0802     lsr     r2,r0,20h                               
08024704 47F4     blx (ARMv5) r12 ???,r14                         
08024706 0802     lsr     r2,r0,20h                               
08024708 4832     ldr     r0,=40080040h                           
0802470A 0802     lsr     r2,r0,20h                               
0802470C 479E     blx (ARMv5) r14 ???,r3                          
0802470E 0802     lsr     r2,r0,20h                               
08024710 4832     ldr     r0,=0FC22F7FFh                          
08024712 0802     lsr     r2,r0,20h                               
08024714 4832     ldr     r0,=0E029h                              
08024716 0802     lsr     r2,r0,20h                               
08024718 4832     ldr     r0,=3000738h                            
0802471A 0802     lsr     r2,r0,20h                               
0802471C 4832     ldr     r0,=0FB28F7FFh                          
0802471E 0802     lsr     r2,r0,20h                               
08024720 4832     ldr     r0,=0F7FFE023h                          
08024722 0802     lsr     r2,r0,20h                               
08024724 4832     ldr     r0,=0E020FD17h                          
08024726 0802     lsr     r2,r0,20h                               
08024728 4832     ldr     r0,=88014804h                           
0802472A 0802     lsr     r2,r0,20h                               
0802472C 4832     ldr     r0,=402080h                             
0802472E 0802     lsr     r2,r0,20h                               
08024730 4832     ldr     r0,=28004008h                           
08024732 0802     lsr     r2,r0,20h                               
08024734 4832     ldr     r0,=0F7FFD004h                          
08024736 0802     lsr     r2,r0,20h                               
08024738 4832     ldr     r0,=0E016FE09h                          
0802473A 0802     lsr     r2,r0,20h                               
0802473C 4832     ldr     r0,=3000738h                            
0802473E 0802     lsr     r2,r0,20h                               
08024740 4832     ldr     r0,=0FDB8F7FFh                          
08024742 0802     lsr     r2,r0,20h                               
08024744 4812     ldr     r0,=8024832h                            
08024746 0802     lsr     r2,r0,20h                               
08024748 4832     ldr     r0,=20808801h                           
0802474A 0802     lsr     r2,r0,20h                               
0802474C 4832     ldr     r0,=40080040h                           
0802474E 0802     lsr     r2,r0,20h                               
08024750 4832     ldr     r0,=0D0052800h                          
08024752 0802     lsr     r2,r0,20h                               
08024754 47CE     blx (ARMv5) r14 ???,r9                          
08024756 0802     lsr     r2,r0,20h                               
08024758 4832     ldr     r0,=0E007h                              
0802475A 0802     lsr     r2,r0,20h                               
0802475C 47EE     blx (ARMv5) r14 ???,r13                         
0802475E 0802     lsr     r2,r0,20h                               
08024760 4832     ldr     r0,=0FD02F7FFh                          
08024762 0802     lsr     r2,r0,20h                               
08024764 4832     ldr     r0,=0F7FFE001h                          
08024766 0802     lsr     r2,r0,20h                               
08024768 4832     ldr     r0,=0BC10FE1Fh                          
0802476A 0802     lsr     r2,r0,20h                               
0802476C 4832     ldr     r0,=4700BC01h                           
0802476E 0802     lsr     r2,r0,20h                               
08024770 4832     ldr     r0,=4C15B510h                           
08024772 0802     lsr     r2,r0,20h                               
08024774 4832     ldr     r0,=30271C20h                           
08024776 0802     lsr     r2,r0,20h                               
08024778 4832     ldr     r0,=21102300h                           
0802477A 0802     lsr     r2,r0,20h                               
0802477C 4832     ldr     r0,=30017001h                           
0802477E 0802     lsr     r2,r0,20h                               
08024780 4832     ldr     r0,=30017001h                           
08024782 0802     lsr     r2,r0,20h                               
08024784 4832     ldr     r0,=22007001h                           
08024786 0802     lsr     r2,r0,20h                               
08024788 4832     ldr     r0,=81614910h                           
0802478A 0802     lsr     r2,r0,20h                               
0802478C 4832     ldr     r0,=81A02020h                           
0802478E 0802     lsr     r2,r0,20h                               
08024790 4832     ldr     r0,=822081E1h                           
08024792 0802     lsr     r2,r0,20h                               
08024794 47A4     blx (ARMv5) r12 ???,r4                          
08024796 0802     lsr     r2,r0,20h                               
08024798 F7FFF9E8 bl      8023B6Ch                                
0802479C E04B     b       8024836h                                
0802479E F7FFFE95 bl      80244CCh                                
080247A2 E048     b       8024836h                                
080247A4 F7FFFEEE bl      8024584h                                
080247A8 E045     b       8024836h                                
080247AA F7FFFA65 bl      8023C78h                                
080247AE 4805     ldr     r0,=3000738h                            
080247B0 8801     ldrh    r1,[r0]                                 
080247B2 2080     mov     r0,80h                                  
080247B4 0040     lsl     r0,r0,1h                                
080247B6 4008     and     r0,r1                                   
080247B8 2800     cmp     r0,0h                                   
080247BA D005     beq     80247C8h                                
080247BC F7FFFB34 bl      8023E28h                                
080247C0 E039     b       8024836h                                
080247C2 0000     lsl     r0,r0,0h                                
080247C4 0738     lsl     r0,r7,1Ch                               
080247C6 0300     lsl     r0,r0,0Ch                               
080247C8 F7FFFB00 bl      8023DCCh                                
080247CC E033     b       8024836h                                
080247CE 4805     ldr     r0,=3000738h                            
080247D0 8801     ldrh    r1,[r0]                                 
080247D2 2080     mov     r0,80h                                  
080247D4 0040     lsl     r0,r0,1h                                
080247D6 4008     and     r0,r1                                   
080247D8 2800     cmp     r0,0h                                   
080247DA D005     beq     80247E8h                                
080247DC F7FFFC22 bl      8024024h                                
080247E0 E029     b       8024836h                                
080247E2 0000     lsl     r0,r0,0h                                
080247E4 0738     lsl     r0,r7,1Ch                               
080247E6 0300     lsl     r0,r0,0Ch                               
080247E8 F7FFFB28 bl      8023E3Ch                                
080247EC E023     b       8024836h                                
080247EE F7FFFD17 bl      8024220h                                
080247F2 E020     b       8024836h                                
080247F4 4804     ldr     r0,=3000738h                            
080247F6 8801     ldrh    r1,[r0]                                 
080247F8 2080     mov     r0,80h                                  
080247FA 0040     lsl     r0,r0,1h                                
080247FC 4008     and     r0,r1                                   
080247FE 2800     cmp     r0,0h                                   
08024800 D004     beq     802480Ch                                
08024802 F7FFFE09 bl      8024418h                                
08024806 E016     b       8024836h                                
08024808 0738     lsl     r0,r7,1Ch                               
0802480A 0300     lsl     r0,r0,0Ch                               
0802480C F7FFFDB8 bl      8024380h                                
08024810 E011     b       8024836h                                
08024812 4805     ldr     r0,=3000738h                            
08024814 8801     ldrh    r1,[r0]                                 
08024816 2080     mov     r0,80h                                  
08024818 0040     lsl     r0,r0,1h                                
0802481A 4008     and     r0,r1                                   
0802481C 2800     cmp     r0,0h                                   
0802481E D005     beq     802482Ch                                
08024820 F7FFFD5A bl      80242D8h                                
08024824 E007     b       8024836h                                
08024826 0000     lsl     r0,r0,0h                                
08024828 0738     lsl     r0,r7,1Ch                               
0802482A 0300     lsl     r0,r0,0Ch                               
0802482C F7FFFD02 bl      8024234h                                
08024830 E001     b       8024836h                                
08024832 F7FFFE1F bl      8024474h                                
08024836 BC10     pop     r4                                      
08024838 BC01     pop     r0                                      
0802483A 4700     bx      r0                                      
0802483C B510     push    r4,r14                                  
0802483E 4C15     ldr     r4,=3000738h                            
08024840 1C20     mov     r0,r4                                   
08024842 3027     add     r0,27h                                  
08024844 2300     mov     r3,0h                                   
08024846 2110     mov     r1,10h                                  
08024848 7001     strb    r1,[r0]                                 
0802484A 3001     add     r0,1h                                   
0802484C 7001     strb    r1,[r0]                                 
0802484E 3001     add     r0,1h                                   
08024850 7001     strb    r1,[r0]                                 
08024852 2200     mov     r2,0h                                   
08024854 4910     ldr     r1,=0FFE0h                              
08024856 8161     strh    r1,[r4,0Ah]                             
08024858 2020     mov     r0,20h                                  
0802485A 81A0     strh    r0,[r4,0Ch]                             
0802485C 81E1     strh    r1,[r4,0Eh]                             
0802485E 8220     strh    r0,[r4,10h]                             
08024860 480E     ldr     r0,=82D88ACh                            
08024862 61A0     str     r0,[r4,18h]                             
08024864 7722     strb    r2,[r4,1Ch]                             
08024866 82E3     strh    r3,[r4,16h]                             
08024868 4A0D     ldr     r2,=82B0D68h                            
0802486A 7F61     ldrb    r1,[r4,1Dh]                             
0802486C 00C8     lsl     r0,r1,3h                                
0802486E 1840     add     r0,r0,r1                                
08024870 0040     lsl     r0,r0,1h                                
08024872 1880     add     r0,r0,r2                                
08024874 8800     ldrh    r0,[r0]                                 
08024876 82A0     strh    r0,[r4,14h]                             
08024878 1C21     mov     r1,r4                                   
0802487A 3125     add     r1,25h                                  
0802487C 2004     mov     r0,4h                                   
0802487E 7008     strb    r0,[r1]                                 
08024880 F7EBF816 bl      800F8B0h                                
08024884 1C21     mov     r1,r4                                   
08024886 3124     add     r1,24h                                  
08024888 2009     mov     r0,9h                                   
0802488A 7008     strb    r0,[r1]                                 
0802488C BC10     pop     r4                                      
0802488E BC01     pop     r0                                      
08024890 4700     bx      r0                                      
08024892 0000     lsl     r0,r0,0h                                
08024894 0738     lsl     r0,r7,1Ch                               
08024896 0300     lsl     r0,r0,0Ch                               
08024898 FFE0     bl      lr+0FC0h                                
0802489A 0000     lsl     r0,r0,0h                                
0802489C 88AC     ldrh    r4,[r5,4h]                              
0802489E 082D     lsr     r5,r5,20h                               
080248A0 0D68     lsr     r0,r5,15h                               
080248A2 082B     lsr     r3,r5,20h                               
080248A4 B570     push    r4-r6,r14                               
080248A6 2602     mov     r6,2h                                   
080248A8 4C0A     ldr     r4,=3000738h                            
080248AA 8821     ldrh    r1,[r4]                                 
080248AC 2040     mov     r0,40h                                  
080248AE 4008     and     r0,r1                                   
080248B0 2800     cmp     r0,0h                                   
080248B2 D019     beq     80248E8h                                
080248B4 8860     ldrh    r0,[r4,2h]                              
080248B6 2210     mov     r2,10h                                  
080248B8 5EA1     ldsh    r1,[r4,r2]                              
080248BA 88A2     ldrh    r2,[r4,4h]                              
080248BC 1889     add     r1,r1,r2                                
080248BE F7EAFEE3 bl      800F688h                                
080248C2 4805     ldr     r0,=30007F1h                            
080248C4 7800     ldrb    r0,[r0]                                 
080248C6 2800     cmp     r0,0h                                   
080248C8 D108     bne     80248DCh                                
080248CA 88A0     ldrh    r0,[r4,4h]                              
080248CC 3004     add     r0,4h                                   
080248CE 80A0     strh    r0,[r4,4h]                              
080248D0 E020     b       8024914h                                
080248D2 0000     lsl     r0,r0,0h                                
080248D4 0738     lsl     r0,r7,1Ch                               
080248D6 0300     lsl     r0,r0,0Ch                               
080248D8 07F1     lsl     r1,r6,1Fh                               
080248DA 0300     lsl     r0,r0,0Ch                               
080248DC 8821     ldrh    r1,[r4]                                 
080248DE 4801     ldr     r0,=0FFBFh                              
080248E0 4008     and     r0,r1                                   
080248E2 E016     b       8024912h                                
080248E4 FFBF     bl      lr+0F7Eh                                
080248E6 0000     lsl     r0,r0,0h                                
080248E8 8860     ldrh    r0,[r4,2h]                              
080248EA 220E     mov     r2,0Eh                                  
080248EC 5EA1     ldsh    r1,[r4,r2]                              
080248EE 88A2     ldrh    r2,[r4,4h]                              
080248F0 1889     add     r1,r1,r2                                
080248F2 F7EAFEC9 bl      800F688h                                
080248F6 4804     ldr     r0,=30007F1h                            
080248F8 7800     ldrb    r0,[r0]                                 
080248FA 2800     cmp     r0,0h                                   
080248FC D106     bne     802490Ch                                
080248FE 88A0     ldrh    r0,[r4,4h]                              
08024900 3804     sub     r0,4h                                   
08024902 80A0     strh    r0,[r4,4h]                              
08024904 E006     b       8024914h                                
08024906 0000     lsl     r0,r0,0h                                
08024908 07F1     lsl     r1,r6,1Fh                               
0802490A 0300     lsl     r0,r0,0Ch                               
0802490C 8820     ldrh    r0,[r4]                                 
0802490E 2140     mov     r1,40h                                  
08024910 4308     orr     r0,r1                                   
08024912 8020     strh    r0,[r4]                                 
08024914 4C0B     ldr     r4,=3000738h                            
08024916 8821     ldrh    r1,[r4]                                 
08024918 2580     mov     r5,80h                                  
0802491A 00ED     lsl     r5,r5,3h                                
0802491C 1C28     mov     r0,r5                                   
0802491E 4008     and     r0,r1                                   
08024920 2800     cmp     r0,0h                                   
08024922 D019     beq     8024958h                                
08024924 210A     mov     r1,0Ah                                  
08024926 5E60     ldsh    r0,[r4,r1]                              
08024928 8862     ldrh    r2,[r4,2h]                              
0802492A 1880     add     r0,r0,r2                                
0802492C 88A1     ldrh    r1,[r4,4h]                              
0802492E F7EAFEAB bl      800F688h                                
08024932 4805     ldr     r0,=30007F1h                            
08024934 7800     ldrb    r0,[r0]                                 
08024936 2800     cmp     r0,0h                                   
08024938 D108     bne     802494Ch                                
0802493A 8860     ldrh    r0,[r4,2h]                              
0802493C 1B80     sub     r0,r0,r6                                
0802493E 8060     strh    r0,[r4,2h]                              
08024940 E020     b       8024984h                                
08024942 0000     lsl     r0,r0,0h                                
08024944 0738     lsl     r0,r7,1Ch                               
08024946 0300     lsl     r0,r0,0Ch                               
08024948 07F1     lsl     r1,r6,1Fh                               
0802494A 0300     lsl     r0,r0,0Ch                               
0802494C 8821     ldrh    r1,[r4]                                 
0802494E 4801     ldr     r0,=0FBFFh                              
08024950 4008     and     r0,r1                                   
08024952 E016     b       8024982h                                
08024954 FBFF     bl      lr+7FEh                                 
08024956 0000     lsl     r0,r0,0h                                
08024958 210C     mov     r1,0Ch                                  
0802495A 5E60     ldsh    r0,[r4,r1]                              
0802495C 8862     ldrh    r2,[r4,2h]                              
0802495E 1880     add     r0,r0,r2                                
08024960 88A1     ldrh    r1,[r4,4h]                              
08024962 F7EAFE91 bl      800F688h                                
08024966 4804     ldr     r0,=30007F1h                            
08024968 7800     ldrb    r0,[r0]                                 
0802496A 2800     cmp     r0,0h                                   
0802496C D106     bne     802497Ch                                
0802496E 8860     ldrh    r0,[r4,2h]                              
08024970 1830     add     r0,r6,r0                                
08024972 8060     strh    r0,[r4,2h]                              
08024974 E006     b       8024984h                                
08024976 0000     lsl     r0,r0,0h                                
08024978 07F1     lsl     r1,r6,1Fh                               
0802497A 0300     lsl     r0,r0,0Ch                               
0802497C 8821     ldrh    r1,[r4]                                 
0802497E 1C28     mov     r0,r5                                   
08024980 4308     orr     r0,r1                                   
08024982 8020     strh    r0,[r4]                                 
08024984 BC70     pop     r4-r6                                   
08024986 BC01     pop     r0                                      
08024988 4700     bx      r0                                      
0802498A 0000     lsl     r0,r0,0h                                
0802498C B510     push    r4,r14                                  
0802498E B081     add     sp,-4h                                  
08024990 490E     ldr     r1,=3000738h                            
08024992 1C0B     mov     r3,r1                                   
08024994 3332     add     r3,32h                                  
08024996 781A     ldrb    r2,[r3]                                 
08024998 2402     mov     r4,2h                                   
0802499A 1C20     mov     r0,r4                                   
0802499C 4010     and     r0,r2                                   
0802499E 2800     cmp     r0,0h                                   
080249A0 D00A     beq     80249B8h                                
080249A2 20FD     mov     r0,0FDh                                 
080249A4 4010     and     r0,r2                                   
080249A6 7018     strb    r0,[r3]                                 
080249A8 8809     ldrh    r1,[r1]                                 
080249AA 1C20     mov     r0,r4                                   
080249AC 4008     and     r0,r1                                   
080249AE 2800     cmp     r0,0h                                   
080249B0 D002     beq     80249B8h                                
080249B2 4807     ldr     r0,=177h                                
080249B4 F7DEF8B4 bl      8002B20h                                
080249B8 4C04     ldr     r4,=3000738h                            
080249BA 1C20     mov     r0,r4                                   
080249BC 3030     add     r0,30h                                  
080249BE 7800     ldrb    r0,[r0]                                 
080249C0 2800     cmp     r0,0h                                   
080249C2 D007     beq     80249D4h                                
080249C4 F7EBFB10 bl      800FFE8h                                
080249C8 E01D     b       8024A06h                                
080249CA 0000     lsl     r0,r0,0h                                
080249CC 0738     lsl     r0,r7,1Ch                               
080249CE 0300     lsl     r0,r0,0Ch                               
080249D0 0177     lsl     r7,r6,5h                                
080249D2 0000     lsl     r0,r0,0h                                
080249D4 F7ECFC54 bl      8011280h                                
080249D8 2800     cmp     r0,0h                                   
080249DA D114     bne     8024A06h                                
080249DC 1C20     mov     r0,r4                                   
080249DE 3024     add     r0,24h                                  
080249E0 7800     ldrb    r0,[r0]                                 
080249E2 2800     cmp     r0,0h                                   
080249E4 D00A     beq     80249FCh                                
080249E6 2809     cmp     r0,9h                                   
080249E8 D00B     beq     8024A02h                                
080249EA 8861     ldrh    r1,[r4,2h]                              
080249EC 88A2     ldrh    r2,[r4,4h]                              
080249EE 2020     mov     r0,20h                                  
080249F0 9000     str     r0,[sp]                                 
080249F2 2000     mov     r0,0h                                   
080249F4 2301     mov     r3,1h                                   
080249F6 F7ECFB45 bl      8011084h                                
080249FA E004     b       8024A06h                                
080249FC F7FFFF1E bl      802483Ch                                
08024A00 E001     b       8024A06h                                
08024A02 F7FFFF4F bl      80248A4h                                
08024A06 B001     add     sp,4h                                   
08024A08 BC10     pop     r4                                      
08024A0A BC01     pop     r0                                      
08024A0C 4700     bx      r0                                      
08024A0E 0000     lsl     r0,r0,0h                                
08024A10 B530     push    r4,r5,r14                               
08024A12 4809     ldr     r0,=3000738h                            
08024A14 8844     ldrh    r4,[r0,2h]                              
08024A16 8885     ldrh    r5,[r0,4h]                              
08024A18 1C20     mov     r0,r4                                   
08024A1A 3820     sub     r0,20h                                  
08024A1C 1C29     mov     r1,r5                                   
08024A1E 2235     mov     r2,35h                                  
08024A20 F02FFB64 bl      80540ECh                                
08024A24 3460     add     r4,60h                                  
08024A26 1C20     mov     r0,r4                                   
08024A28 1C29     mov     r1,r5                                   
08024A2A 2236     mov     r2,36h                                  
08024A2C F02FFB5E bl      80540ECh                                
08024A30 BC30     pop     r4,r5                                   
08024A32 BC01     pop     r0                                      
08024A34 4700     bx      r0                                      
08024A36 0000     lsl     r0,r0,0h                                
08024A38 0738     lsl     r0,r7,1Ch                               
08024A3A 0300     lsl     r0,r0,0Ch                               
08024A3C B5F0     push    r4-r7,r14                               
08024A3E 4647     mov     r7,r8                                   
08024A40 B480     push    r7                                      
08024A42 B083     add     sp,-0Ch                                 
08024A44 2003     mov     r0,3h                                   
08024A46 212C     mov     r1,2Ch                                  
08024A48 F03BFF38 bl      80608BCh                                
08024A4C 1C07     mov     r7,r0                                   
08024A4E 2F00     cmp     r7,0h                                   
08024A50 D006     beq     8024A60h                                
08024A52 4902     ldr     r1,=3000738h                            
08024A54 2000     mov     r0,0h                                   
08024A56 8008     strh    r0,[r1]                                 
08024A58 E071     b       8024B3Eh                                
08024A5A 0000     lsl     r0,r0,0h                                
08024A5C 0738     lsl     r0,r7,1Ch                               
08024A5E 0300     lsl     r0,r0,0Ch                               
08024A60 483A     ldr     r0,=3000738h                            
08024A62 4684     mov     r12,r0                                  
08024A64 3027     add     r0,27h                                  
08024A66 2128     mov     r1,28h                                  
08024A68 7001     strb    r1,[r0]                                 
08024A6A 4660     mov     r0,r12                                  
08024A6C 3028     add     r0,28h                                  
08024A6E 7001     strb    r1,[r0]                                 
08024A70 4661     mov     r1,r12                                  
08024A72 3129     add     r1,29h                                  
08024A74 2014     mov     r0,14h                                  
08024A76 7008     strb    r0,[r1]                                 
08024A78 2300     mov     r3,0h                                   
08024A7A 4835     ldr     r0,=0FF80h                              
08024A7C 4661     mov     r1,r12                                  
08024A7E 8148     strh    r0,[r1,0Ah]                             
08024A80 2080     mov     r0,80h                                  
08024A82 8188     strh    r0,[r1,0Ch]                             
08024A84 4833     ldr     r0,=0FFD0h                              
08024A86 81C8     strh    r0,[r1,0Eh]                             
08024A88 2030     mov     r0,30h                                  
08024A8A 8208     strh    r0,[r1,10h]                             
08024A8C 3125     add     r1,25h                                  
08024A8E 200B     mov     r0,0Bh                                  
08024A90 7008     strb    r0,[r1]                                 
08024A92 310E     add     r1,0Eh                                  
08024A94 2001     mov     r0,1h                                   
08024A96 7008     strb    r0,[r1]                                 
08024A98 482F     ldr     r0,=82DA8ECh                            
08024A9A 4661     mov     r1,r12                                  
08024A9C 6188     str     r0,[r1,18h]                             
08024A9E 770B     strb    r3,[r1,1Ch]                             
08024AA0 82CF     strh    r7,[r1,16h]                             
08024AA2 3122     add     r1,22h                                  
08024AA4 2005     mov     r0,5h                                   
08024AA6 7008     strb    r0,[r1]                                 
08024AA8 4A2C     ldr     r2,=82B0D68h                            
08024AAA 4660     mov     r0,r12                                  
08024AAC 7F41     ldrb    r1,[r0,1Dh]                             
08024AAE 00C8     lsl     r0,r1,3h                                
08024AB0 1840     add     r0,r0,r1                                
08024AB2 0040     lsl     r0,r0,1h                                
08024AB4 1880     add     r0,r0,r2                                
08024AB6 8800     ldrh    r0,[r0]                                 
08024AB8 4661     mov     r1,r12                                  
08024ABA 8288     strh    r0,[r1,14h]                             
08024ABC 3124     add     r1,24h                                  
08024ABE 2009     mov     r0,9h                                   
08024AC0 7008     strb    r0,[r1]                                 
08024AC2 4660     mov     r0,r12                                  
08024AC4 302C     add     r0,2Ch                                  
08024AC6 7003     strb    r3,[r0]                                 
08024AC8 4660     mov     r0,r12                                  
08024ACA 8845     ldrh    r5,[r0,2h]                              
08024ACC 8884     ldrh    r4,[r0,4h]                              
08024ACE 7FC1     ldrb    r1,[r0,1Fh]                             
08024AD0 4688     mov     r8,r1                                   
08024AD2 7F86     ldrb    r6,[r0,1Eh]                             
08024AD4 3023     add     r0,23h                                  
08024AD6 7803     ldrb    r3,[r0]                                 
08024AD8 9500     str     r5,[sp]                                 
08024ADA 9401     str     r4,[sp,4h]                              
08024ADC 9702     str     r7,[sp,8h]                              
08024ADE 2011     mov     r0,11h                                  
08024AE0 1C31     mov     r1,r6                                   
08024AE2 4642     mov     r2,r8                                   
08024AE4 F7E9FBB8 bl      800E258h                                
08024AE8 1C2B     mov     r3,r5                                   
08024AEA 3340     add     r3,40h                                  
08024AEC 1C20     mov     r0,r4                                   
08024AEE 381F     sub     r0,1Fh                                  
08024AF0 9000     str     r0,[sp]                                 
08024AF2 9701     str     r7,[sp,4h]                              
08024AF4 204A     mov     r0,4Ah                                  
08024AF6 1C31     mov     r1,r6                                   
08024AF8 4642     mov     r2,r8                                   
08024AFA F7E9FC0F bl      800E31Ch                                
08024AFE 1C2B     mov     r3,r5                                   
08024B00 3320     add     r3,20h                                  
08024B02 1C20     mov     r0,r4                                   
08024B04 3010     add     r0,10h                                  
08024B06 9000     str     r0,[sp]                                 
08024B08 9701     str     r7,[sp,4h]                              
08024B0A 204A     mov     r0,4Ah                                  
08024B0C 1C31     mov     r1,r6                                   
08024B0E 4642     mov     r2,r8                                   
08024B10 F7E9FC04 bl      800E31Ch                                
08024B14 1C2B     mov     r3,r5                                   
08024B16 3B48     sub     r3,48h                                  
08024B18 1C20     mov     r0,r4                                   
08024B1A 3810     sub     r0,10h                                  
08024B1C 9000     str     r0,[sp]                                 
08024B1E 9701     str     r7,[sp,4h]                              
08024B20 204A     mov     r0,4Ah                                  
08024B22 1C31     mov     r1,r6                                   
08024B24 4642     mov     r2,r8                                   
08024B26 F7E9FBF9 bl      800E31Ch                                
08024B2A 3D60     sub     r5,60h                                  
08024B2C 341F     add     r4,1Fh                                  
08024B2E 9400     str     r4,[sp]                                 
08024B30 9701     str     r7,[sp,4h]                              
08024B32 204A     mov     r0,4Ah                                  
08024B34 1C31     mov     r1,r6                                   
08024B36 4642     mov     r2,r8                                   
08024B38 1C2B     mov     r3,r5                                   
08024B3A F7E9FBEF bl      800E31Ch                                
08024B3E B003     add     sp,0Ch                                  
08024B40 BC08     pop     r3                                      
08024B42 4698     mov     r8,r3                                   
08024B44 BCF0     pop     r4-r7                                   
08024B46 BC01     pop     r0                                      
08024B48 4700     bx      r0                                      
08024B4A 0000     lsl     r0,r0,0h                                
08024B4C 0738     lsl     r0,r7,1Ch                               
08024B4E 0300     lsl     r0,r0,0Ch                               
08024B50 FF80     bl      lr+0F00h                                
08024B52 0000     lsl     r0,r0,0h                                
08024B54 FFD0     bl      lr+0FA0h                                
08024B56 0000     lsl     r0,r0,0h                                
08024B58 A8EC     add     r0,sp,3B0h                              
08024B5A 082D     lsr     r5,r5,20h                               
08024B5C 0D68     lsr     r0,r5,15h                               
08024B5E 082B     lsr     r3,r5,20h                               
08024B60 B5F0     push    r4-r7,r14                               
08024B62 2400     mov     r4,0h                                   
08024B64 2012     mov     r0,12h                                  
08024B66 4684     mov     r12,r0                                  
08024B68 4810     ldr     r0,=3000738h                            
08024B6A 7F85     ldrb    r5,[r0,1Eh]                             
08024B6C 4A10     ldr     r2,=30001ACh                            
08024B6E 21A8     mov     r1,0A8h                                 
08024B70 00C9     lsl     r1,r1,3h                                
08024B72 1850     add     r0,r2,r1                                
08024B74 4282     cmp     r2,r0                                   
08024B76 D215     bcs     8024BA4h                                
08024B78 2701     mov     r7,1h                                   
08024B7A 1C13     mov     r3,r2                                   
08024B7C 331E     add     r3,1Eh                                  
08024B7E 1C06     mov     r6,r0                                   
08024B80 8811     ldrh    r1,[r2]                                 
08024B82 1C38     mov     r0,r7                                   
08024B84 4008     and     r0,r1                                   
08024B86 2800     cmp     r0,0h                                   
08024B88 D008     beq     8024B9Ch                                
08024B8A 79D8     ldrb    r0,[r3,7h]                              
08024B8C 4560     cmp     r0,r12                                  
08024B8E D105     bne     8024B9Ch                                
08024B90 7818     ldrb    r0,[r3]                                 
08024B92 42A8     cmp     r0,r5                                   
08024B94 D102     bne     8024B9Ch                                
08024B96 1C60     add     r0,r4,1                                 
08024B98 0600     lsl     r0,r0,18h                               
08024B9A 0E04     lsr     r4,r0,18h                               
08024B9C 3338     add     r3,38h                                  
08024B9E 3238     add     r2,38h                                  
08024BA0 42B2     cmp     r2,r6                                   
08024BA2 D3ED     bcc     8024B80h                                
08024BA4 1C20     mov     r0,r4                                   
08024BA6 BCF0     pop     r4-r7                                   
08024BA8 BC02     pop     r1                                      
08024BAA 4708     bx      r1                                      
08024BAC 0738     lsl     r0,r7,1Ch                               
08024BAE 0300     lsl     r0,r0,0Ch                               
08024BB0 01AC     lsl     r4,r5,6h                                
08024BB2 0300     lsl     r0,r0,0Ch                               
08024BB4 B500     push    r14                                     
08024BB6 B082     add     sp,-8h                                  
08024BB8 F7FFFFD2 bl      8024B60h                                
08024BBC 0600     lsl     r0,r0,18h                               
08024BBE 0E00     lsr     r0,r0,18h                               
08024BC0 2803     cmp     r0,3h                                   
08024BC2 D80A     bhi     8024BDAh                                
08024BC4 4816     ldr     r0,=3000738h                            
08024BC6 7F81     ldrb    r1,[r0,1Eh]                             
08024BC8 7FC2     ldrb    r2,[r0,1Fh]                             
08024BCA 8843     ldrh    r3,[r0,2h]                              
08024BCC 8880     ldrh    r0,[r0,4h]                              
08024BCE 9000     str     r0,[sp]                                 
08024BD0 2000     mov     r0,0h                                   
08024BD2 9001     str     r0,[sp,4h]                              
08024BD4 204A     mov     r0,4Ah                                  
08024BD6 F7E9FBA1 bl      800E31Ch                                
08024BDA 4B11     ldr     r3,=3000738h                            
08024BDC 4A11     ldr     r2,=82B0D68h                            
08024BDE 7F59     ldrb    r1,[r3,1Dh]                             
08024BE0 00C8     lsl     r0,r1,3h                                
08024BE2 1840     add     r0,r0,r1                                
08024BE4 0040     lsl     r0,r0,1h                                
08024BE6 1880     add     r0,r0,r2                                
08024BE8 8800     ldrh    r0,[r0]                                 
08024BEA 8A99     ldrh    r1,[r3,14h]                             
08024BEC 0840     lsr     r0,r0,1h                                
08024BEE 4281     cmp     r1,r0                                   
08024BF0 D212     bcs     8024C18h                                
08024BF2 1C1A     mov     r2,r3                                   
08024BF4 3233     add     r2,33h                                  
08024BF6 2100     mov     r1,0h                                   
08024BF8 2002     mov     r0,2h                                   
08024BFA 7010     strb    r0,[r2]                                 
08024BFC 480A     ldr     r0,=82DA9A4h                            
08024BFE 6198     str     r0,[r3,18h]                             
08024C00 7719     strb    r1,[r3,1Ch]                             
08024C02 82D9     strh    r1,[r3,16h]                             
08024C04 1C19     mov     r1,r3                                   
08024C06 3124     add     r1,24h                                  
08024C08 2023     mov     r0,23h                                  
08024C0A 7008     strb    r0,[r1]                                 
08024C0C 20B0     mov     r0,0B0h                                 
08024C0E 0040     lsl     r0,r0,1h                                
08024C10 F7DDFF86 bl      8002B20h                                
08024C14 F7FFFEFC bl      8024A10h                                
08024C18 B002     add     sp,8h                                   
08024C1A BC01     pop     r0                                      
08024C1C 4700     bx      r0                                      
08024C1E 0000     lsl     r0,r0,0h                                
08024C20 0738     lsl     r0,r7,1Ch                               
08024C22 0300     lsl     r0,r0,0Ch                               
08024C24 0D68     lsr     r0,r5,15h                               
08024C26 082B     lsr     r3,r5,20h                               
08024C28 A9A4     add     r1,sp,290h                              
08024C2A 082D     lsr     r5,r5,20h                               
08024C2C B500     push    r14                                     
08024C2E B082     add     sp,-8h                                  
08024C30 F7FFFF96 bl      8024B60h                                
08024C34 0600     lsl     r0,r0,18h                               
08024C36 0E00     lsr     r0,r0,18h                               
08024C38 2803     cmp     r0,3h                                   
08024C3A D80A     bhi     8024C52h                                
08024C3C 4816     ldr     r0,=3000738h                            
08024C3E 7F81     ldrb    r1,[r0,1Eh]                             
08024C40 7FC2     ldrb    r2,[r0,1Fh]                             
08024C42 8843     ldrh    r3,[r0,2h]                              
08024C44 8880     ldrh    r0,[r0,4h]                              
08024C46 9000     str     r0,[sp]                                 
08024C48 2000     mov     r0,0h                                   
08024C4A 9001     str     r0,[sp,4h]                              
08024C4C 204A     mov     r0,4Ah                                  
08024C4E F7E9FB65 bl      800E31Ch                                
08024C52 4B11     ldr     r3,=3000738h                            
08024C54 4A11     ldr     r2,=82B0D68h                            
08024C56 7F59     ldrb    r1,[r3,1Dh]                             
08024C58 00C8     lsl     r0,r1,3h                                
08024C5A 1840     add     r0,r0,r1                                
08024C5C 0040     lsl     r0,r0,1h                                
08024C5E 1880     add     r0,r0,r2                                
08024C60 8800     ldrh    r0,[r0]                                 
08024C62 8A99     ldrh    r1,[r3,14h]                             
08024C64 0880     lsr     r0,r0,2h                                
08024C66 4281     cmp     r1,r0                                   
08024C68 D212     bcs     8024C90h                                
08024C6A 1C1A     mov     r2,r3                                   
08024C6C 3233     add     r2,33h                                  
08024C6E 2100     mov     r1,0h                                   
08024C70 2003     mov     r0,3h                                   
08024C72 7010     strb    r0,[r2]                                 
08024C74 480A     ldr     r0,=82DAA04h                            
08024C76 6198     str     r0,[r3,18h]                             
08024C78 7719     strb    r1,[r3,1Ch]                             
08024C7A 82D9     strh    r1,[r3,16h]                             
08024C7C 1C19     mov     r1,r3                                   
08024C7E 3124     add     r1,24h                                  
08024C80 2025     mov     r0,25h                                  
08024C82 7008     strb    r0,[r1]                                 
08024C84 20B0     mov     r0,0B0h                                 
08024C86 0040     lsl     r0,r0,1h                                
08024C88 F7DDFF4A bl      8002B20h                                
08024C8C F7FFFEC0 bl      8024A10h                                
08024C90 B002     add     sp,8h                                   
08024C92 BC01     pop     r0                                      
08024C94 4700     bx      r0                                      
08024C96 0000     lsl     r0,r0,0h                                
08024C98 0738     lsl     r0,r7,1Ch                               
08024C9A 0300     lsl     r0,r0,0Ch                               
08024C9C 0D68     lsr     r0,r5,15h                               
08024C9E 082B     lsr     r3,r5,20h                               
08024CA0 AA04     add     r2,sp,10h                               
08024CA2 082D     lsr     r5,r5,20h                               
08024CA4 B500     push    r14                                     
08024CA6 B082     add     sp,-8h                                  
08024CA8 F7FFFF5A bl      8024B60h                                
08024CAC 0600     lsl     r0,r0,18h                               
08024CAE 0E00     lsr     r0,r0,18h                               
08024CB0 2803     cmp     r0,3h                                   
08024CB2 D80A     bhi     8024CCAh                                
08024CB4 4806     ldr     r0,=3000738h                            
08024CB6 7F81     ldrb    r1,[r0,1Eh]                             
08024CB8 7FC2     ldrb    r2,[r0,1Fh]                             
08024CBA 8843     ldrh    r3,[r0,2h]                              
08024CBC 8880     ldrh    r0,[r0,4h]                              
08024CBE 9000     str     r0,[sp]                                 
08024CC0 2000     mov     r0,0h                                   
08024CC2 9001     str     r0,[sp,4h]                              
08024CC4 204A     mov     r0,4Ah                                  
08024CC6 F7E9FB29 bl      800E31Ch                                
08024CCA B002     add     sp,8h                                   
08024CCC BC01     pop     r0                                      
08024CCE 4700     bx      r0                                      
08024CD0 0738     lsl     r0,r7,1Ch                               
08024CD2 0300     lsl     r0,r0,0Ch                               
08024CD4 B5F0     push    r4-r7,r14                               
08024CD6 4647     mov     r7,r8                                   
08024CD8 B480     push    r7                                      
08024CDA B081     add     sp,-4h                                  
08024CDC 2200     mov     r2,0h                                   
08024CDE 254B     mov     r5,4Bh                                  
08024CE0 4B30     ldr     r3,=30001ACh                            
08024CE2 21A8     mov     r1,0A8h                                 
08024CE4 00C9     lsl     r1,r1,3h                                
08024CE6 1858     add     r0,r3,r1                                
08024CE8 4283     cmp     r3,r0                                   
08024CEA D218     bcs     8024D1Eh                                
08024CEC 1C04     mov     r4,r0                                   
08024CEE 8819     ldrh    r1,[r3]                                 
08024CF0 2001     mov     r0,1h                                   
08024CF2 4008     and     r0,r1                                   
08024CF4 2800     cmp     r0,0h                                   
08024CF6 D00F     beq     8024D18h                                
08024CF8 1C18     mov     r0,r3                                   
08024CFA 3032     add     r0,32h                                  
08024CFC 7801     ldrb    r1,[r0]                                 
08024CFE 2080     mov     r0,80h                                  
08024D00 4008     and     r0,r1                                   
08024D02 2800     cmp     r0,0h                                   
08024D04 D108     bne     8024D18h                                
08024D06 7F58     ldrb    r0,[r3,1Dh]                             
08024D08 42A8     cmp     r0,r5                                   
08024D0A D105     bne     8024D18h                                
08024D0C 8A98     ldrh    r0,[r3,14h]                             
08024D0E 2800     cmp     r0,0h                                   
08024D10 D002     beq     8024D18h                                
08024D12 1C50     add     r0,r2,1                                 
08024D14 0600     lsl     r0,r0,18h                               
08024D16 0E02     lsr     r2,r0,18h                               
08024D18 3338     add     r3,38h                                  
08024D1A 42A3     cmp     r3,r4                                   
08024D1C D3E7     bcc     8024CEEh                                
08024D1E 2A00     cmp     r2,0h                                   
08024D20 D103     bne     8024D2Ah                                
08024D22 2001     mov     r0,1h                                   
08024D24 212C     mov     r1,2Ch                                  
08024D26 F03BFDC9 bl      80608BCh                                
08024D2A 2209     mov     r2,9h                                   
08024D2C 4694     mov     r12,r2                                  
08024D2E 481E     ldr     r0,=3000738h                            
08024D30 7F85     ldrb    r5,[r0,1Eh]                             
08024D32 2712     mov     r7,12h                                  
08024D34 4B1B     ldr     r3,=30001ACh                            
08024D36 22A8     mov     r2,0A8h                                 
08024D38 00D2     lsl     r2,r2,3h                                
08024D3A 1899     add     r1,r3,r2                                
08024D3C 1C04     mov     r4,r0                                   
08024D3E 428B     cmp     r3,r1                                   
08024D40 D21A     bcs     8024D78h                                
08024D42 1C0E     mov     r6,r1                                   
08024D44 1C1A     mov     r2,r3                                   
08024D46 321E     add     r2,1Eh                                  
08024D48 8819     ldrh    r1,[r3]                                 
08024D4A 2001     mov     r0,1h                                   
08024D4C 4008     and     r0,r1                                   
08024D4E 2800     cmp     r0,0h                                   
08024D50 D00E     beq     8024D70h                                
08024D52 79D0     ldrb    r0,[r2,7h]                              
08024D54 42B8     cmp     r0,r7                                   
08024D56 D10B     bne     8024D70h                                
08024D58 7810     ldrb    r0,[r2]                                 
08024D5A 42A8     cmp     r0,r5                                   
08024D5C D108     bne     8024D70h                                
08024D5E 7990     ldrb    r0,[r2,6h]                              
08024D60 4560     cmp     r0,r12                                  
08024D62 D105     bne     8024D70h                                
08024D64 2025     mov     r0,25h                                  
08024D66 7190     strb    r0,[r2,6h]                              
08024D68 7D10     ldrb    r0,[r2,14h]                             
08024D6A 2104     mov     r1,4h                                   
08024D6C 4308     orr     r0,r1                                   
08024D6E 7510     strb    r0,[r2,14h]                             
08024D70 3238     add     r2,38h                                  
08024D72 3338     add     r3,38h                                  
08024D74 42B3     cmp     r3,r6                                   
08024D76 D3E7     bcc     8024D48h                                
08024D78 1C23     mov     r3,r4                                   
08024D7A 1C19     mov     r1,r3                                   
08024D7C 3124     add     r1,24h                                  
08024D7E 7808     ldrb    r0,[r1]                                 
08024D80 2862     cmp     r0,62h                                  
08024D82 D804     bhi     8024D8Eh                                
08024D84 1C18     mov     r0,r3                                   
08024D86 302C     add     r0,2Ch                                  
08024D88 7802     ldrb    r2,[r0]                                 
08024D8A 2A00     cmp     r2,0h                                   
08024D8C D00E     beq     8024DACh                                
08024D8E 8859     ldrh    r1,[r3,2h]                              
08024D90 3148     add     r1,48h                                  
08024D92 889A     ldrh    r2,[r3,4h]                              
08024D94 2022     mov     r0,22h                                  
08024D96 9000     str     r0,[sp]                                 
08024D98 2000     mov     r0,0h                                   
08024D9A 2301     mov     r3,1h                                   
08024D9C F7ECF972 bl      8011084h                                
08024DA0 E013     b       8024DCAh                                
08024DA2 0000     lsl     r0,r0,0h                                
08024DA4 01AC     lsl     r4,r5,6h                                
08024DA6 0300     lsl     r0,r0,0Ch                               
08024DA8 0738     lsl     r0,r7,1Ch                               
08024DAA 0300     lsl     r0,r0,0Ch                               
08024DAC 2067     mov     r0,67h                                  
08024DAE 7008     strb    r0,[r1]                                 
08024DB0 4809     ldr     r0,=82DAA6Ch                            
08024DB2 61A0     str     r0,[r4,18h]                             
08024DB4 7722     strb    r2,[r4,1Ch]                             
08024DB6 2100     mov     r1,0h                                   
08024DB8 82E2     strh    r2,[r4,16h]                             
08024DBA 1C20     mov     r0,r4                                   
08024DBC 3025     add     r0,25h                                  
08024DBE 7001     strb    r1,[r0]                                 
08024DC0 4806     ldr     r0,=161h                                
08024DC2 F7DDFEAD bl      8002B20h                                
08024DC6 F7FFFE23 bl      8024A10h                                
08024DCA B001     add     sp,4h                                   
08024DCC BC08     pop     r3                                      
08024DCE 4698     mov     r8,r3                                   
08024DD0 BCF0     pop     r4-r7                                   
08024DD2 BC01     pop     r0                                      
08024DD4 4700     bx      r0                                      
08024DD6 0000     lsl     r0,r0,0h                                
08024DD8 AA6C     add     r2,sp,1B0h                              
08024DDA 082D     lsr     r5,r5,20h                               
08024DDC 0161     lsl     r1,r4,5h                                
08024DDE 0000     lsl     r0,r0,0h                                
08024DE0 4802     ldr     r0,=3000738h                            
08024DE2 3026     add     r0,26h                                  
08024DE4 2101     mov     r1,1h                                   
08024DE6 7001     strb    r1,[r0]                                 
08024DE8 4770     bx      r14                                     
08024DEA 0000     lsl     r0,r0,0h                                
08024DEC 0738     lsl     r0,r7,1Ch                               
08024DEE 0300     lsl     r0,r0,0Ch                               
08024DF0 B510     push    r4,r14                                  
08024DF2 4814     ldr     r0,=3000738h                            
08024DF4 4684     mov     r12,r0                                  
08024DF6 8801     ldrh    r1,[r0]                                 
08024DF8 4813     ldr     r0,=0FFFBh                              
08024DFA 4008     and     r0,r1                                   
08024DFC 2200     mov     r2,0h                                   
08024DFE 2300     mov     r3,0h                                   
08024E00 4661     mov     r1,r12                                  
08024E02 8008     strh    r0,[r1]                                 
08024E04 4660     mov     r0,r12                                  
08024E06 3025     add     r0,25h                                  
08024E08 7002     strb    r2,[r0]                                 
08024E0A 3002     add     r0,2h                                   
08024E0C 7002     strb    r2,[r0]                                 
08024E0E 3128     add     r1,28h                                  
08024E10 2020     mov     r0,20h                                  
08024E12 7008     strb    r0,[r1]                                 
08024E14 3101     add     r1,1h                                   
08024E16 2014     mov     r0,14h                                  
08024E18 7008     strb    r0,[r1]                                 
08024E1A 490C     ldr     r1,=0FFFCh                              
08024E1C 4664     mov     r4,r12                                  
08024E1E 8161     strh    r1,[r4,0Ah]                             
08024E20 2004     mov     r0,4h                                   
08024E22 81A0     strh    r0,[r4,0Ch]                             
08024E24 81E1     strh    r1,[r4,0Eh]                             
08024E26 8220     strh    r0,[r4,10h]                             
08024E28 4661     mov     r1,r12                                  
08024E2A 3124     add     r1,24h                                  
08024E2C 2009     mov     r0,9h                                   
08024E2E 7008     strb    r0,[r1]                                 
08024E30 4807     ldr     r0,=82DA984h                            
08024E32 61A0     str     r0,[r4,18h]                             
08024E34 7722     strb    r2,[r4,1Ch]                             
08024E36 82E3     strh    r3,[r4,16h]                             
08024E38 310F     add     r1,0Fh                                  
08024E3A 2001     mov     r0,1h                                   
08024E3C 7008     strb    r0,[r1]                                 
08024E3E BC10     pop     r4                                      
08024E40 BC01     pop     r0                                      
08024E42 4700     bx      r0                                      
08024E44 0738     lsl     r0,r7,1Ch                               
08024E46 0300     lsl     r0,r0,0Ch                               
08024E48 FFFB     bl      lr+0FF6h                                
08024E4A 0000     lsl     r0,r0,0h                                
08024E4C FFFC     bl      lr+0FF8h                                
08024E4E 0000     lsl     r0,r0,0h                                
08024E50 A984     add     r1,sp,210h                              
08024E52 082D     lsr     r5,r5,20h                               
08024E54 4A06     ldr     r2,=3000738h                            
08024E56 1C10     mov     r0,r2                                   
08024E58 3023     add     r0,23h                                  
08024E5A 7801     ldrb    r1,[r0]                                 
08024E5C 4B05     ldr     r3,=30001ACh                            
08024E5E 00C8     lsl     r0,r1,3h                                
08024E60 1A40     sub     r0,r0,r1                                
08024E62 00C0     lsl     r0,r0,3h                                
08024E64 18C0     add     r0,r0,r3                                
08024E66 8841     ldrh    r1,[r0,2h]                              
08024E68 8051     strh    r1,[r2,2h]                              
08024E6A 8880     ldrh    r0,[r0,4h]                              
08024E6C 8090     strh    r0,[r2,4h]                              
08024E6E 4770     bx      r14                                     
08024E70 0738     lsl     r0,r7,1Ch                               
08024E72 0300     lsl     r0,r0,0Ch                               
08024E74 01AC     lsl     r4,r5,6h                                
08024E76 0300     lsl     r0,r0,0Ch                               
08024E78 B530     push    r4,r5,r14                               
08024E7A 1C04     mov     r4,r0                                   
08024E7C 2003     mov     r0,3h                                   
08024E7E 212C     mov     r1,2Ch                                  
08024E80 F03BFD1C bl      80608BCh                                
08024E84 1C02     mov     r2,r0                                   
08024E86 2A00     cmp     r2,0h                                   
08024E88 D001     beq     8024E8Eh                                
08024E8A 2000     mov     r0,0h                                   
08024E8C E097     b       8024FBEh                                
08024E8E 8821     ldrh    r1,[r4]                                 
08024E90 481C     ldr     r0,=0FFFBh                              
08024E92 4008     and     r0,r1                                   
08024E94 2500     mov     r5,0h                                   
08024E96 8020     strh    r0,[r4]                                 
08024E98 1C20     mov     r0,r4                                   
08024E9A 3027     add     r0,27h                                  
08024E9C 2108     mov     r1,8h                                   
08024E9E 7001     strb    r1,[r0]                                 
08024EA0 3001     add     r0,1h                                   
08024EA2 7001     strb    r1,[r0]                                 
08024EA4 3001     add     r0,1h                                   
08024EA6 210C     mov     r1,0Ch                                  
08024EA8 7001     strb    r1,[r0]                                 
08024EAA 4817     ldr     r0,=0FFF4h                              
08024EAC 8160     strh    r0,[r4,0Ah]                             
08024EAE 81A1     strh    r1,[r4,0Ch]                             
08024EB0 3814     sub     r0,14h                                  
08024EB2 81E0     strh    r0,[r4,0Eh]                             
08024EB4 2320     mov     r3,20h                                  
08024EB6 8223     strh    r3,[r4,10h]                             
08024EB8 7725     strb    r5,[r4,1Ch]                             
08024EBA 82E2     strh    r2,[r4,16h]                             
08024EBC 1C21     mov     r1,r4                                   
08024EBE 3125     add     r1,25h                                  
08024EC0 2012     mov     r0,12h                                  
08024EC2 7008     strb    r0,[r1]                                 
08024EC4 4A11     ldr     r2,=82B0D68h                            
08024EC6 7F61     ldrb    r1,[r4,1Dh]                             
08024EC8 00C8     lsl     r0,r1,3h                                
08024ECA 1840     add     r0,r0,r1                                
08024ECC 0040     lsl     r0,r0,1h                                
08024ECE 1880     add     r0,r0,r2                                
08024ED0 8800     ldrh    r0,[r0]                                 
08024ED2 82A0     strh    r0,[r4,14h]                             
08024ED4 7FA0     ldrb    r0,[r4,1Eh]                             
08024ED6 2888     cmp     r0,88h                                  
08024ED8 D031     beq     8024F3Eh                                
08024EDA 480D     ldr     r0,=82DA88Ch                            
08024EDC 61A0     str     r0,[r4,18h]                             
08024EDE 1C21     mov     r1,r4                                   
08024EE0 3124     add     r1,24h                                  
08024EE2 2009     mov     r0,9h                                   
08024EE4 7008     strb    r0,[r1]                                 
08024EE6 480B     ldr     r0,=300083Ch                            
08024EE8 7801     ldrb    r1,[r0]                                 
08024EEA 0088     lsl     r0,r1,2h                                
08024EEC 1C22     mov     r2,r4                                   
08024EEE 322F     add     r2,2Fh                                  
08024EF0 7010     strb    r0,[r2]                                 
08024EF2 2001     mov     r0,1h                                   
08024EF4 4008     and     r0,r1                                   
08024EF6 2800     cmp     r0,0h                                   
08024EF8 D00E     beq     8024F18h                                
08024EFA 1C21     mov     r1,r4                                   
08024EFC 312E     add     r1,2Eh                                  
08024EFE 2014     mov     r0,14h                                  
08024F00 E00D     b       8024F1Eh                                
08024F02 0000     lsl     r0,r0,0h                                
08024F04 FFFB     bl      lr+0FF6h                                
08024F06 0000     lsl     r0,r0,0h                                
08024F08 FFF4     bl      lr+0FE8h                                
08024F0A 0000     lsl     r0,r0,0h                                
08024F0C 0D68     lsr     r0,r5,15h                               
08024F0E 082B     lsr     r3,r5,20h                               
08024F10 A88C     add     r0,sp,230h                              
08024F12 082D     lsr     r5,r5,20h                               
08024F14 083C     lsr     r4,r7,20h                               
08024F16 0300     lsl     r0,r0,0Ch                               
08024F18 1C21     mov     r1,r4                                   
08024F1A 312E     add     r1,2Eh                                  
08024F1C 203C     mov     r0,3Ch                                  
08024F1E 7008     strb    r0,[r1]                                 
08024F20 88A1     ldrh    r1,[r4,4h]                              
08024F22 2001     mov     r0,1h                                   
08024F24 4008     and     r0,r1                                   
08024F26 2800     cmp     r0,0h                                   
08024F28 D004     beq     8024F34h                                
08024F2A 1C21     mov     r1,r4                                   
08024F2C 3122     add     r1,22h                                  
08024F2E 2003     mov     r0,3h                                   
08024F30 7008     strb    r0,[r1]                                 
08024F32 E045     b       8024FC0h                                
08024F34 1C21     mov     r1,r4                                   
08024F36 3122     add     r1,22h                                  
08024F38 2006     mov     r0,6h                                   
08024F3A 7008     strb    r0,[r1]                                 
08024F3C E040     b       8024FC0h                                
08024F3E 4817     ldr     r0,=82DA8BCh                            
08024F40 61A0     str     r0,[r4,18h]                             
08024F42 4817     ldr     r0,=3000088h                            
08024F44 7B02     ldrb    r2,[r0,0Ch]                             
08024F46 2103     mov     r1,3h                                   
08024F48 1C08     mov     r0,r1                                   
08024F4A 4010     and     r0,r2                                   
08024F4C 1C22     mov     r2,r4                                   
08024F4E 3221     add     r2,21h                                  
08024F50 7010     strb    r0,[r2]                                 
08024F52 1C20     mov     r0,r4                                   
08024F54 3022     add     r0,22h                                  
08024F56 7001     strb    r1,[r0]                                 
08024F58 300B     add     r0,0Bh                                  
08024F5A 7005     strb    r5,[r0]                                 
08024F5C 3001     add     r0,1h                                   
08024F5E 2201     mov     r2,1h                                   
08024F60 7002     strb    r2,[r0]                                 
08024F62 3802     sub     r0,2h                                   
08024F64 7005     strb    r5,[r0]                                 
08024F66 3003     add     r0,3h                                   
08024F68 7002     strb    r2,[r0]                                 
08024F6A 480E     ldr     r0,=300083Ch                            
08024F6C 7800     ldrb    r0,[r0]                                 
08024F6E 4001     and     r1,r0                                   
08024F70 8121     strh    r1,[r4,8h]                              
08024F72 1C21     mov     r1,r4                                   
08024F74 3124     add     r1,24h                                  
08024F76 2023     mov     r0,23h                                  
08024F78 7008     strb    r0,[r1]                                 
08024F7A 8263     strh    r3,[r4,12h]                             
08024F7C F7EAFCB0 bl      800F8E0h                                
08024F80 8862     ldrh    r2,[r4,2h]                              
08024F82 4909     ldr     r1,=30013D4h                            
08024F84 4809     ldr     r0,=3001588h                            
08024F86 3070     add     r0,70h                                  
08024F88 2300     mov     r3,0h                                   
08024F8A 5EC0     ldsh    r0,[r0,r3]                              
08024F8C 8A89     ldrh    r1,[r1,14h]                             
08024F8E 1840     add     r0,r0,r1                                
08024F90 4282     cmp     r2,r0                                   
08024F92 DD0F     ble     8024FB4h                                
08024F94 8821     ldrh    r1,[r4]                                 
08024F96 4806     ldr     r0,=0FBFFh                              
08024F98 4008     and     r0,r1                                   
08024F9A E010     b       8024FBEh                                
08024F9C A8BC     add     r0,sp,2F0h                              
08024F9E 082D     lsr     r5,r5,20h                               
08024FA0 0088     lsl     r0,r1,2h                                
08024FA2 0300     lsl     r0,r0,0Ch                               
08024FA4 083C     lsr     r4,r7,20h                               
08024FA6 0300     lsl     r0,r0,0Ch                               
08024FA8 13D4     asr     r4,r2,0Fh                               
08024FAA 0300     lsl     r0,r0,0Ch                               
08024FAC 1588     asr     r0,r1,16h                               
08024FAE 0300     lsl     r0,r0,0Ch                               
08024FB0 FBFF     bl      lr+7FEh                                 
08024FB2 0000     lsl     r0,r0,0h                                
08024FB4 8820     ldrh    r0,[r4]                                 
08024FB6 2280     mov     r2,80h                                  
08024FB8 00D2     lsl     r2,r2,3h                                
08024FBA 1C11     mov     r1,r2                                   
08024FBC 4308     orr     r0,r1                                   
08024FBE 8020     strh    r0,[r4]                                 
08024FC0 BC30     pop     r4,r5                                   
08024FC2 BC01     pop     r0                                      
08024FC4 4700     bx      r0                                      
08024FC6 0000     lsl     r0,r0,0h                                
08024FC8 B5F0     push    r4-r7,r14                               
08024FCA 1C04     mov     r4,r0                                   
08024FCC 1C23     mov     r3,r4                                   
08024FCE 332F     add     r3,2Fh                                  
08024FD0 781A     ldrb    r2,[r3]                                 
08024FD2 4D17     ldr     r5,=82D88E4h                            
08024FD4 0050     lsl     r0,r2,1h                                
08024FD6 1940     add     r0,r0,r5                                
08024FD8 2600     mov     r6,0h                                   
08024FDA 5F81     ldsh    r1,[r0,r6]                              
08024FDC 4E15     ldr     r6,=7FFFh                               
08024FDE 42B1     cmp     r1,r6                                   
08024FE0 D102     bne     8024FE8h                                
08024FE2 2700     mov     r7,0h                                   
08024FE4 5FE9     ldsh    r1,[r5,r7]                              
08024FE6 2200     mov     r2,0h                                   
08024FE8 1C50     add     r0,r2,1                                 
08024FEA 7018     strb    r0,[r3]                                 
08024FEC 8860     ldrh    r0,[r4,2h]                              
08024FEE 1840     add     r0,r0,r1                                
08024FF0 8060     strh    r0,[r4,2h]                              
08024FF2 1C23     mov     r3,r4                                   
08024FF4 332E     add     r3,2Eh                                  
08024FF6 781A     ldrb    r2,[r3]                                 
08024FF8 4D0F     ldr     r5,=82D8966h                            
08024FFA 0050     lsl     r0,r2,1h                                
08024FFC 1940     add     r0,r0,r5                                
08024FFE 2700     mov     r7,0h                                   
08025000 5FC1     ldsh    r1,[r0,r7]                              
08025002 42B1     cmp     r1,r6                                   
08025004 D102     bne     802500Ch                                
08025006 2000     mov     r0,0h                                   
08025008 5E29     ldsh    r1,[r5,r0]                              
0802500A 2200     mov     r2,0h                                   
0802500C 1C50     add     r0,r2,1                                 
0802500E 7018     strb    r0,[r3]                                 
08025010 88A0     ldrh    r0,[r4,4h]                              
08025012 1840     add     r0,r0,r1                                
08025014 80A0     strh    r0,[r4,4h]                              
08025016 7818     ldrb    r0,[r3]                                 
08025018 2801     cmp     r0,1h                                   
0802501A D001     beq     8025020h                                
0802501C 2829     cmp     r0,29h                                  
0802501E D10F     bne     8025040h                                
08025020 1C21     mov     r1,r4                                   
08025022 3122     add     r1,22h                                  
08025024 7808     ldrb    r0,[r1]                                 
08025026 2803     cmp     r0,3h                                   
08025028 D108     bne     802503Ch                                
0802502A 2006     mov     r0,6h                                   
0802502C E007     b       802503Eh                                
0802502E 0000     lsl     r0,r0,0h                                
08025030 88E4     ldrh    r4,[r4,6h]                              
08025032 082D     lsr     r5,r5,20h                               
08025034 7FFF     ldrb    r7,[r7,1Fh]                             
08025036 0000     lsl     r0,r0,0h                                
08025038 8966     ldrh    r6,[r4,0Ah]                             
0802503A 082D     lsr     r5,r5,20h                               
0802503C 2003     mov     r0,3h                                   
0802503E 7008     strb    r0,[r1]                                 
08025040 20A0     mov     r0,0A0h                                 
08025042 0040     lsl     r0,r0,1h                                
08025044 2188     mov     r1,88h                                  
08025046 0049     lsl     r1,r1,1h                                
08025048 F7EAFECA bl      800FDE0h                                
0802504C 2800     cmp     r0,0h                                   
0802504E D013     beq     8025078h                                
08025050 1C21     mov     r1,r4                                   
08025052 3124     add     r1,24h                                  
08025054 2200     mov     r2,0h                                   
08025056 2022     mov     r0,22h                                  
08025058 7008     strb    r0,[r1]                                 
0802505A 4809     ldr     r0,=82DA8BCh                            
0802505C 61A0     str     r0,[r4,18h]                             
0802505E 7722     strb    r2,[r4,1Ch]                             
08025060 82E2     strh    r2,[r4,16h]                             
08025062 4808     ldr     r0,=3000088h                            
08025064 7B01     ldrb    r1,[r0,0Ch]                             
08025066 2203     mov     r2,3h                                   
08025068 1C10     mov     r0,r2                                   
0802506A 4008     and     r0,r1                                   
0802506C 1C21     mov     r1,r4                                   
0802506E 3121     add     r1,21h                                  
08025070 7008     strb    r0,[r1]                                 
08025072 1C20     mov     r0,r4                                   
08025074 3022     add     r0,22h                                  
08025076 7002     strb    r2,[r0]                                 
08025078 BCF0     pop     r4-r7                                   
0802507A BC01     pop     r0                                      
0802507C 4700     bx      r0                                      
0802507E 0000     lsl     r0,r0,0h                                
08025080 A8BC     add     r0,sp,2F0h                              
08025082 082D     lsr     r5,r5,20h                               
08025084 0088     lsl     r0,r1,2h                                
08025086 0300     lsl     r0,r0,0Ch                               
08025088 B500     push    r14                                     
0802508A 1C01     mov     r1,r0                                   
0802508C 4806     ldr     r0,=300083Ch                            
0802508E 7800     ldrb    r0,[r0]                                 
08025090 0883     lsr     r3,r0,2h                                
08025092 1C1A     mov     r2,r3                                   
08025094 3208     add     r2,8h                                   
08025096 1C08     mov     r0,r1                                   
08025098 302E     add     r0,2Eh                                  
0802509A 7800     ldrb    r0,[r0]                                 
0802509C 2827     cmp     r0,27h                                  
0802509E D805     bhi     80250ACh                                
080250A0 8888     ldrh    r0,[r1,4h]                              
080250A2 1880     add     r0,r0,r2                                
080250A4 E004     b       80250B0h                                
080250A6 0000     lsl     r0,r0,0h                                
080250A8 083C     lsr     r4,r7,20h                               
080250AA 0300     lsl     r0,r0,0Ch                               
080250AC 8888     ldrh    r0,[r1,4h]                              
080250AE 1A80     sub     r0,r0,r2                                
080250B0 8088     strh    r0,[r1,4h]                              
080250B2 1D1A     add     r2,r3,4                                 
080250B4 1C08     mov     r0,r1                                   
080250B6 302F     add     r0,2Fh                                  
080250B8 7800     ldrb    r0,[r0]                                 
080250BA 281F     cmp     r0,1Fh                                  
080250BC D802     bhi     80250C4h                                
080250BE 8848     ldrh    r0,[r1,2h]                              
080250C0 1880     add     r0,r0,r2                                
080250C2 E001     b       80250C8h                                
080250C4 8848     ldrh    r0,[r1,2h]                              
080250C6 1A80     sub     r0,r0,r2                                
080250C8 8048     strh    r0,[r1,2h]                              
080250CA BC01     pop     r0                                      
080250CC 4700     bx      r0                                      
080250CE 0000     lsl     r0,r0,0h                                
080250D0 B510     push    r4,r14                                  
080250D2 1C04     mov     r4,r0                                   
080250D4 302D     add     r0,2Dh                                  
080250D6 2100     mov     r1,0h                                   
080250D8 7001     strb    r1,[r0]                                 
080250DA 3001     add     r0,1h                                   
080250DC 2201     mov     r2,1h                                   
080250DE 7002     strb    r2,[r0]                                 
080250E0 3802     sub     r0,2h                                   
080250E2 7001     strb    r1,[r0]                                 
080250E4 3003     add     r0,3h                                   
080250E6 7002     strb    r2,[r0]                                 
080250E8 8121     strh    r1,[r4,8h]                              
080250EA 1C21     mov     r1,r4                                   
080250EC 3124     add     r1,24h                                  
080250EE 2023     mov     r0,23h                                  
080250F0 7008     strb    r0,[r1]                                 
080250F2 2020     mov     r0,20h                                  
080250F4 8260     strh    r0,[r4,12h]                             
080250F6 F7EAFBF3 bl      800F8E0h                                
080250FA 8862     ldrh    r2,[r4,2h]                              
080250FC 4906     ldr     r1,=30013D4h                            
080250FE 4807     ldr     r0,=3001588h                            
08025100 3070     add     r0,70h                                  
08025102 2300     mov     r3,0h                                   
08025104 5EC0     ldsh    r0,[r0,r3]                              
08025106 8A89     ldrh    r1,[r1,14h]                             
08025108 1840     add     r0,r0,r1                                
0802510A 4282     cmp     r2,r0                                   
0802510C DD0A     ble     8025124h                                
0802510E 8821     ldrh    r1,[r4]                                 
08025110 4803     ldr     r0,=0FBFFh                              
08025112 4008     and     r0,r1                                   
08025114 E00B     b       802512Eh                                
08025116 0000     lsl     r0,r0,0h                                
08025118 13D4     asr     r4,r2,0Fh                               
0802511A 0300     lsl     r0,r0,0Ch                               
0802511C 1588     asr     r0,r1,16h                               
0802511E 0300     lsl     r0,r0,0Ch                               
08025120 FBFF     bl      lr+7FEh                                 
08025122 0000     lsl     r0,r0,0h                                
08025124 8820     ldrh    r0,[r4]                                 
08025126 2280     mov     r2,80h                                  
08025128 00D2     lsl     r2,r2,3h                                
0802512A 1C11     mov     r1,r2                                   
0802512C 4308     orr     r0,r1                                   
0802512E 8020     strh    r0,[r4]                                 
08025130 BC10     pop     r4                                      
08025132 BC01     pop     r0                                      
08025134 4700     bx      r0                                      
08025136 0000     lsl     r0,r0,0h                                
08025138 B5F0     push    r4-r7,r14                               
0802513A 4657     mov     r7,r10                                  
0802513C 464E     mov     r6,r9                                   
0802513E 4645     mov     r5,r8                                   
08025140 B4E0     push    r5-r7                                   
08025142 B082     add     sp,-8h                                  
08025144 4684     mov     r12,r0                                  
08025146 2000     mov     r0,0h                                   
08025148 9000     str     r0,[sp]                                 
0802514A 2518     mov     r5,18h                                  
0802514C 4662     mov     r2,r12                                  
0802514E 8851     ldrh    r1,[r2,2h]                              
08025150 1C08     mov     r0,r1                                   
08025152 3818     sub     r0,18h                                  
08025154 0400     lsl     r0,r0,10h                               
08025156 0C00     lsr     r0,r0,10h                               
08025158 9001     str     r0,[sp,4h]                              
0802515A 3118     add     r1,18h                                  
0802515C 0409     lsl     r1,r1,10h                               
0802515E 0C09     lsr     r1,r1,10h                               
08025160 468A     mov     r10,r1                                  
08025162 8891     ldrh    r1,[r2,4h]                              
08025164 1C08     mov     r0,r1                                   
08025166 3818     sub     r0,18h                                  
08025168 0400     lsl     r0,r0,10h                               
0802516A 0C00     lsr     r0,r0,10h                               
0802516C 4680     mov     r8,r0                                   
0802516E 3118     add     r1,18h                                  
08025170 0409     lsl     r1,r1,10h                               
08025172 0C0F     lsr     r7,r1,10h                               
08025174 4660     mov     r0,r12                                  
08025176 3023     add     r0,23h                                  
08025178 7800     ldrb    r0,[r0]                                 
0802517A 3001     add     r0,1h                                   
0802517C 0600     lsl     r0,r0,18h                               
0802517E 0E00     lsr     r0,r0,18h                               
08025180 00C1     lsl     r1,r0,3h                                
08025182 1A09     sub     r1,r1,r0                                
08025184 00C9     lsl     r1,r1,3h                                
08025186 4815     ldr     r0,=30001ACh                            
08025188 180A     add     r2,r1,r0                                
0802518A 21A8     mov     r1,0A8h                                 
0802518C 00C9     lsl     r1,r1,3h                                
0802518E 1840     add     r0,r0,r1                                
08025190 4913     ldr     r1,=30013D4h                            
08025192 4689     mov     r9,r1                                   
08025194 4282     cmp     r2,r0                                   
08025196 D234     bcs     8025202h                                
08025198 1C13     mov     r3,r2                                   
0802519A 3325     add     r3,25h                                  
0802519C 8811     ldrh    r1,[r2]                                 
0802519E 2001     mov     r0,1h                                   
080251A0 4008     and     r0,r1                                   
080251A2 2800     cmp     r0,0h                                   
080251A4 D028     beq     80251F8h                                
080251A6 7818     ldrb    r0,[r3]                                 
080251A8 2812     cmp     r0,12h                                  
080251AA D125     bne     80251F8h                                
080251AC 8856     ldrh    r6,[r2,2h]                              
080251AE 8894     ldrh    r4,[r2,4h]                              
080251B0 1B70     sub     r0,r6,r5                                
080251B2 4582     cmp     r10,r0                                  
080251B4 DD20     ble     80251F8h                                
080251B6 1970     add     r0,r6,r5                                
080251B8 9901     ldr     r1,[sp,4h]                              
080251BA 4281     cmp     r1,r0                                   
080251BC DA1C     bge     80251F8h                                
080251BE 1B60     sub     r0,r4,r5                                
080251C0 4287     cmp     r7,r0                                   
080251C2 DD19     ble     80251F8h                                
080251C4 1960     add     r0,r4,r5                                
080251C6 4580     cmp     r8,r0                                   
080251C8 DA16     bge     80251F8h                                
080251CA 7AD8     ldrb    r0,[r3,0Bh]                             
080251CC 2800     cmp     r0,0h                                   
080251CE D118     bne     8025202h                                
080251D0 4661     mov     r1,r12                                  
080251D2 8848     ldrh    r0,[r1,2h]                              
080251D4 42B0     cmp     r0,r6                                   
080251D6 D905     bls     80251E4h                                
080251D8 1F30     sub     r0,r6,4                                 
080251DA E004     b       80251E6h                                
080251DC 01AC     lsl     r4,r5,6h                                
080251DE 0300     lsl     r0,r0,0Ch                               
080251E0 13D4     asr     r4,r2,0Fh                               
080251E2 0300     lsl     r0,r0,0Ch                               
080251E4 1D30     add     r0,r6,4                                 
080251E6 8050     strh    r0,[r2,2h]                              
080251E8 4661     mov     r1,r12                                  
080251EA 8888     ldrh    r0,[r1,4h]                              
080251EC 42A0     cmp     r0,r4                                   
080251EE D827     bhi     8025240h                                
080251F0 8890     ldrh    r0,[r2,4h]                              
080251F2 3004     add     r0,4h                                   
080251F4 8090     strh    r0,[r2,4h]                              
080251F6 E004     b       8025202h                                
080251F8 3338     add     r3,38h                                  
080251FA 3238     add     r2,38h                                  
080251FC 480E     ldr     r0,=30006ECh                            
080251FE 4282     cmp     r2,r0                                   
08025200 D3CC     bcc     802519Ch                                
08025202 4662     mov     r2,r12                                  
08025204 7F90     ldrb    r0,[r2,1Eh]                             
08025206 2888     cmp     r0,88h                                  
08025208 D146     bne     8025298h                                
0802520A 2714     mov     r7,14h                                  
0802520C 490B     ldr     r1,=300083Ch                            
0802520E 7808     ldrb    r0,[r1]                                 
08025210 301E     add     r0,1Eh                                  
08025212 0600     lsl     r0,r0,18h                               
08025214 0E05     lsr     r5,r0,18h                               
08025216 7809     ldrb    r1,[r1]                                 
08025218 0089     lsl     r1,r1,2h                                
0802521A 31DC     add     r1,0DCh                                 
0802521C 464A     mov     r2,r9                                   
0802521E 8A90     ldrh    r0,[r2,14h]                             
08025220 1A40     sub     r0,r0,r1                                
08025222 0400     lsl     r0,r0,10h                               
08025224 0C06     lsr     r6,r0,10h                               
08025226 8A54     ldrh    r4,[r2,12h]                             
08025228 4661     mov     r1,r12                                  
0802522A 8908     ldrh    r0,[r1,8h]                              
0802522C 2801     cmp     r0,1h                                   
0802522E D00B     beq     8025248h                                
08025230 2803     cmp     r0,3h                                   
08025232 D01D     beq     8025270h                                
08025234 E066     b       8025304h                                
08025236 0000     lsl     r0,r0,0h                                
08025238 06EC     lsl     r4,r5,1Bh                               
0802523A 0300     lsl     r0,r0,0Ch                               
0802523C 083C     lsr     r4,r7,20h                               
0802523E 0300     lsl     r0,r0,0Ch                               
08025240 8890     ldrh    r0,[r2,4h]                              
08025242 3804     sub     r0,4h                                   
08025244 8090     strh    r0,[r2,4h]                              
08025246 E7DC     b       8025202h                                
08025248 1C30     mov     r0,r6                                   
0802524A 3880     sub     r0,80h                                  
0802524C 0400     lsl     r0,r0,10h                               
0802524E 0C06     lsr     r6,r0,10h                               
08025250 4662     mov     r2,r12                                  
08025252 8811     ldrh    r1,[r2]                                 
08025254 2080     mov     r0,80h                                  
08025256 0080     lsl     r0,r0,2h                                
08025258 4008     and     r0,r1                                   
0802525A 2800     cmp     r0,0h                                   
0802525C D003     beq     8025266h                                
0802525E 2180     mov     r1,80h                                  
08025260 0049     lsl     r1,r1,1h                                
08025262 1860     add     r0,r4,r1                                
08025264 E04C     b       8025300h                                
08025266 4A01     ldr     r2,=0FFFFFF00h                          
08025268 18A0     add     r0,r4,r2                                
0802526A E049     b       8025300h                                
0802526C FF00     bl      lr+0E00h                                
0802526E FFFF     bl      lr+0FFEh                                
08025270 1C30     mov     r0,r6                                   
08025272 3020     add     r0,20h                                  
08025274 0400     lsl     r0,r0,10h                               
08025276 0C06     lsr     r6,r0,10h                               
08025278 4660     mov     r0,r12                                  
0802527A 8801     ldrh    r1,[r0]                                 
0802527C 2080     mov     r0,80h                                  
0802527E 0080     lsl     r0,r0,2h                                
08025280 4008     and     r0,r1                                   
08025282 2800     cmp     r0,0h                                   
08025284 D004     beq     8025290h                                
08025286 4901     ldr     r1,=0FFFFFF00h                          
08025288 1860     add     r0,r4,r1                                
0802528A E039     b       8025300h                                
0802528C FF00     bl      lr+0E00h                                
0802528E FFFF     bl      lr+0FFEh                                
08025290 2280     mov     r2,80h                                  
08025292 0052     lsl     r2,r2,1h                                
08025294 18A0     add     r0,r4,r2                                
08025296 E033     b       8025300h                                
08025298 4809     ldr     r0,=3001588h                            
0802529A 3070     add     r0,70h                                  
0802529C 8800     ldrh    r0,[r0]                                 
0802529E 4649     mov     r1,r9                                   
080252A0 8A89     ldrh    r1,[r1,14h]                             
080252A2 1840     add     r0,r0,r1                                
080252A4 0400     lsl     r0,r0,10h                               
080252A6 0C06     lsr     r6,r0,10h                               
080252A8 464A     mov     r2,r9                                   
080252AA 8A54     ldrh    r4,[r2,12h]                             
080252AC 271E     mov     r7,1Eh                                  
080252AE 2528     mov     r5,28h                                  
080252B0 4661     mov     r1,r12                                  
080252B2 8908     ldrh    r0,[r1,8h]                              
080252B4 2801     cmp     r0,1h                                   
080252B6 D005     beq     80252C4h                                
080252B8 2803     cmp     r0,3h                                   
080252BA D011     beq     80252E0h                                
080252BC E022     b       8025304h                                
080252BE 0000     lsl     r0,r0,0h                                
080252C0 1588     asr     r0,r1,16h                               
080252C2 0300     lsl     r0,r0,0Ch                               
080252C4 1C30     mov     r0,r6                                   
080252C6 3820     sub     r0,20h                                  
080252C8 0400     lsl     r0,r0,10h                               
080252CA 0C06     lsr     r6,r0,10h                               
080252CC 4662     mov     r2,r12                                  
080252CE 8811     ldrh    r1,[r2]                                 
080252D0 2080     mov     r0,80h                                  
080252D2 0080     lsl     r0,r0,2h                                
080252D4 4008     and     r0,r1                                   
080252D6 2800     cmp     r0,0h                                   
080252D8 D110     bne     80252FCh                                
080252DA 1C20     mov     r0,r4                                   
080252DC 3830     sub     r0,30h                                  
080252DE E00F     b       8025300h                                
080252E0 1C30     mov     r0,r6                                   
080252E2 3020     add     r0,20h                                  
080252E4 0400     lsl     r0,r0,10h                               
080252E6 0C06     lsr     r6,r0,10h                               
080252E8 4660     mov     r0,r12                                  
080252EA 8801     ldrh    r1,[r0]                                 
080252EC 2080     mov     r0,80h                                  
080252EE 0080     lsl     r0,r0,2h                                
080252F0 4008     and     r0,r1                                   
080252F2 2800     cmp     r0,0h                                   
080252F4 D002     beq     80252FCh                                
080252F6 1C20     mov     r0,r4                                   
080252F8 3830     sub     r0,30h                                  
080252FA E001     b       8025300h                                
080252FC 1C20     mov     r0,r4                                   
080252FE 3030     add     r0,30h                                  
08025300 0400     lsl     r0,r0,10h                               
08025302 0C04     lsr     r4,r0,10h                               
08025304 4662     mov     r2,r12                                  
08025306 8811     ldrh    r1,[r2]                                 
08025308 2080     mov     r0,80h                                  
0802530A 0080     lsl     r0,r0,2h                                
0802530C 4008     and     r0,r1                                   
0802530E 0400     lsl     r0,r0,10h                               
08025310 0C03     lsr     r3,r0,10h                               
08025312 2B00     cmp     r3,0h                                   
08025314 D01E     beq     8025354h                                
08025316 322D     add     r2,2Dh                                  
08025318 7810     ldrb    r0,[r2]                                 
0802531A 2800     cmp     r0,0h                                   
0802531C D10E     bne     802533Ch                                
0802531E 4660     mov     r0,r12                                  
08025320 8881     ldrh    r1,[r0,4h]                              
08025322 1F20     sub     r0,r4,4                                 
08025324 4281     cmp     r1,r0                                   
08025326 DC1F     bgt     8025368h                                
08025328 4661     mov     r1,r12                                  
0802532A 312E     add     r1,2Eh                                  
0802532C 7808     ldrb    r0,[r1]                                 
0802532E 42A8     cmp     r0,r5                                   
08025330 D201     bcs     8025336h                                
08025332 3001     add     r0,1h                                   
08025334 7008     strb    r0,[r1]                                 
08025336 7808     ldrb    r0,[r1]                                 
08025338 0880     lsr     r0,r0,2h                                
0802533A E005     b       8025348h                                
0802533C 1E41     sub     r1,r0,1                                 
0802533E 7011     strb    r1,[r2]                                 
08025340 0608     lsl     r0,r1,18h                               
08025342 2800     cmp     r0,0h                                   
08025344 D041     beq     80253CAh                                
08025346 0E80     lsr     r0,r0,1Ah                               
08025348 4661     mov     r1,r12                                  
0802534A 8889     ldrh    r1,[r1,4h]                              
0802534C 1840     add     r0,r0,r1                                
0802534E 4662     mov     r2,r12                                  
08025350 8090     strh    r0,[r2,4h]                              
08025352 E03F     b       80253D4h                                
08025354 4662     mov     r2,r12                                  
08025356 322D     add     r2,2Dh                                  
08025358 7810     ldrb    r0,[r2]                                 
0802535A 2800     cmp     r0,0h                                   
0802535C D11B     bne     8025396h                                
0802535E 4660     mov     r0,r12                                  
08025360 8881     ldrh    r1,[r0,4h]                              
08025362 1D20     add     r0,r4,4                                 
08025364 4281     cmp     r1,r0                                   
08025366 DA04     bge     8025372h                                
08025368 4660     mov     r0,r12                                  
0802536A 302E     add     r0,2Eh                                  
0802536C 7800     ldrb    r0,[r0]                                 
0802536E 7010     strb    r0,[r2]                                 
08025370 E030     b       80253D4h                                
08025372 4661     mov     r1,r12                                  
08025374 312E     add     r1,2Eh                                  
08025376 7808     ldrb    r0,[r1]                                 
08025378 42A8     cmp     r0,r5                                   
0802537A D201     bcs     8025380h                                
0802537C 3001     add     r0,1h                                   
0802537E 7008     strb    r0,[r1]                                 
08025380 7808     ldrb    r0,[r1]                                 
08025382 0885     lsr     r5,r0,2h                                
08025384 4661     mov     r1,r12                                  
08025386 8888     ldrh    r0,[r1,4h]                              
08025388 1B41     sub     r1,r0,r5                                
0802538A 2080     mov     r0,80h                                  
0802538C 0200     lsl     r0,r0,8h                                
0802538E 4008     and     r0,r1                                   
08025390 2800     cmp     r0,0h                                   
08025392 D10E     bne     80253B2h                                
08025394 E016     b       80253C4h                                
08025396 1E41     sub     r1,r0,1                                 
08025398 7011     strb    r1,[r2]                                 
0802539A 0608     lsl     r0,r1,18h                               
0802539C 2800     cmp     r0,0h                                   
0802539E D014     beq     80253CAh                                
080253A0 0E85     lsr     r5,r0,1Ah                               
080253A2 4661     mov     r1,r12                                  
080253A4 8888     ldrh    r0,[r1,4h]                              
080253A6 1B41     sub     r1,r0,r5                                
080253A8 2080     mov     r0,80h                                  
080253AA 0200     lsl     r0,r0,8h                                
080253AC 4008     and     r0,r1                                   
080253AE 2800     cmp     r0,0h                                   
080253B0 D008     beq     80253C4h                                
080253B2 9800     ldr     r0,[sp]                                 
080253B4 3001     add     r0,1h                                   
080253B6 0600     lsl     r0,r0,18h                               
080253B8 0E00     lsr     r0,r0,18h                               
080253BA 9000     str     r0,[sp]                                 
080253BC 7013     strb    r3,[r2]                                 
080253BE 4662     mov     r2,r12                                  
080253C0 8093     strh    r3,[r2,4h]                              
080253C2 E007     b       80253D4h                                
080253C4 4660     mov     r0,r12                                  
080253C6 8081     strh    r1,[r0,4h]                              
080253C8 E004     b       80253D4h                                
080253CA 9800     ldr     r0,[sp]                                 
080253CC 3001     add     r0,1h                                   
080253CE 0600     lsl     r0,r0,18h                               
080253D0 0E00     lsr     r0,r0,18h                               
080253D2 9000     str     r0,[sp]                                 
080253D4 9900     ldr     r1,[sp]                                 
080253D6 2900     cmp     r1,0h                                   
080253D8 D014     beq     8025404h                                
080253DA 4662     mov     r2,r12                                  
080253DC 8810     ldrh    r0,[r2]                                 
080253DE 2280     mov     r2,80h                                  
080253E0 0092     lsl     r2,r2,2h                                
080253E2 1C11     mov     r1,r2                                   
080253E4 4048     eor     r0,r1                                   
080253E6 4661     mov     r1,r12                                  
080253E8 8008     strh    r0,[r1]                                 
080253EA 312E     add     r1,2Eh                                  
080253EC 2001     mov     r0,1h                                   
080253EE 7008     strb    r0,[r1]                                 
080253F0 4662     mov     r2,r12                                  
080253F2 8910     ldrh    r0,[r2,8h]                              
080253F4 3001     add     r0,1h                                   
080253F6 8110     strh    r0,[r2,8h]                              
080253F8 0400     lsl     r0,r0,10h                               
080253FA 0C00     lsr     r0,r0,10h                               
080253FC 2803     cmp     r0,3h                                   
080253FE D901     bls     8025404h                                
08025400 2000     mov     r0,0h                                   
08025402 8110     strh    r0,[r2,8h]                              
08025404 2000     mov     r0,0h                                   
08025406 9000     str     r0,[sp]                                 
08025408 4662     mov     r2,r12                                  
0802540A 8811     ldrh    r1,[r2]                                 
0802540C 2080     mov     r0,80h                                  
0802540E 00C0     lsl     r0,r0,3h                                
08025410 4008     and     r0,r1                                   
08025412 0400     lsl     r0,r0,10h                               
08025414 0C03     lsr     r3,r0,10h                               
08025416 2B00     cmp     r3,0h                                   
08025418 D023     beq     8025462h                                
0802541A 322C     add     r2,2Ch                                  
0802541C 7810     ldrb    r0,[r2]                                 
0802541E 2800     cmp     r0,0h                                   
08025420 D113     bne     802544Ah                                
08025422 4660     mov     r0,r12                                  
08025424 8841     ldrh    r1,[r0,2h]                              
08025426 1F30     sub     r0,r6,4                                 
08025428 4281     cmp     r1,r0                                   
0802542A DD04     ble     8025436h                                
0802542C 4660     mov     r0,r12                                  
0802542E 302F     add     r0,2Fh                                  
08025430 7800     ldrb    r0,[r0]                                 
08025432 7010     strb    r0,[r2]                                 
08025434 E055     b       80254E2h                                
08025436 4661     mov     r1,r12                                  
08025438 312F     add     r1,2Fh                                  
0802543A 7808     ldrb    r0,[r1]                                 
0802543C 42B8     cmp     r0,r7                                   
0802543E D201     bcs     8025444h                                
08025440 3001     add     r0,1h                                   
08025442 7008     strb    r0,[r1]                                 
08025444 7808     ldrb    r0,[r1]                                 
08025446 0880     lsr     r0,r0,2h                                
08025448 E005     b       8025456h                                
0802544A 1E41     sub     r1,r0,1                                 
0802544C 7011     strb    r1,[r2]                                 
0802544E 0608     lsl     r0,r1,18h                               
08025450 2800     cmp     r0,0h                                   
08025452 D049     beq     80254E8h                                
08025454 0E80     lsr     r0,r0,1Ah                               
08025456 4661     mov     r1,r12                                  
08025458 8849     ldrh    r1,[r1,2h]                              
0802545A 1840     add     r0,r0,r1                                
0802545C 4662     mov     r2,r12                                  
0802545E 8050     strh    r0,[r2,2h]                              
08025460 E03F     b       80254E2h                                
08025462 4664     mov     r4,r12                                  
08025464 342C     add     r4,2Ch                                  
08025466 7820     ldrb    r0,[r4]                                 
08025468 1C02     mov     r2,r0                                   
0802546A 2A00     cmp     r2,0h                                   
0802546C D120     bne     80254B0h                                
0802546E 4660     mov     r0,r12                                  
08025470 8841     ldrh    r1,[r0,2h]                              
08025472 1D30     add     r0,r6,4                                 
08025474 4281     cmp     r1,r0                                   
08025476 DA04     bge     8025482h                                
08025478 4660     mov     r0,r12                                  
0802547A 302F     add     r0,2Fh                                  
0802547C 7800     ldrb    r0,[r0]                                 
0802547E 7020     strb    r0,[r4]                                 
08025480 E02F     b       80254E2h                                
08025482 4661     mov     r1,r12                                  
08025484 312F     add     r1,2Fh                                  
08025486 7808     ldrb    r0,[r1]                                 
08025488 42B8     cmp     r0,r7                                   
0802548A D201     bcs     8025490h                                
0802548C 3001     add     r0,1h                                   
0802548E 7008     strb    r0,[r1]                                 
08025490 7808     ldrb    r0,[r1]                                 
08025492 0885     lsr     r5,r0,2h                                
08025494 4661     mov     r1,r12                                  
08025496 8848     ldrh    r0,[r1,2h]                              
08025498 1B41     sub     r1,r0,r5                                
0802549A 2080     mov     r0,80h                                  
0802549C 0200     lsl     r0,r0,8h                                
0802549E 4008     and     r0,r1                                   
080254A0 2800     cmp     r0,0h                                   
080254A2 D019     beq     80254D8h                                
080254A4 2001     mov     r0,1h                                   
080254A6 9000     str     r0,[sp]                                 
080254A8 7022     strb    r2,[r4]                                 
080254AA 4661     mov     r1,r12                                  
080254AC 804A     strh    r2,[r1,2h]                              
080254AE E018     b       80254E2h                                
080254B0 1E41     sub     r1,r0,1                                 
080254B2 7021     strb    r1,[r4]                                 
080254B4 0608     lsl     r0,r1,18h                               
080254B6 2800     cmp     r0,0h                                   
080254B8 D011     beq     80254DEh                                
080254BA 0E85     lsr     r5,r0,1Ah                               
080254BC 4661     mov     r1,r12                                  
080254BE 8848     ldrh    r0,[r1,2h]                              
080254C0 1B41     sub     r1,r0,r5                                
080254C2 2080     mov     r0,80h                                  
080254C4 0200     lsl     r0,r0,8h                                
080254C6 4008     and     r0,r1                                   
080254C8 2800     cmp     r0,0h                                   
080254CA D005     beq     80254D8h                                
080254CC 2201     mov     r2,1h                                   
080254CE 9200     str     r2,[sp]                                 
080254D0 7023     strb    r3,[r4]                                 
080254D2 4660     mov     r0,r12                                  
080254D4 8043     strh    r3,[r0,2h]                              
080254D6 E004     b       80254E2h                                
080254D8 4662     mov     r2,r12                                  
080254DA 8051     strh    r1,[r2,2h]                              
080254DC E001     b       80254E2h                                
080254DE 2001     mov     r0,1h                                   
080254E0 9000     str     r0,[sp]                                 
080254E2 9900     ldr     r1,[sp]                                 
080254E4 2900     cmp     r1,0h                                   
080254E6 D00A     beq     80254FEh                                
080254E8 4662     mov     r2,r12                                  
080254EA 8810     ldrh    r0,[r2]                                 
080254EC 2280     mov     r2,80h                                  
080254EE 00D2     lsl     r2,r2,3h                                
080254F0 1C11     mov     r1,r2                                   
080254F2 4048     eor     r0,r1                                   
080254F4 4661     mov     r1,r12                                  
080254F6 8008     strh    r0,[r1]                                 
080254F8 312F     add     r1,2Fh                                  
080254FA 2001     mov     r0,1h                                   
080254FC 7008     strb    r0,[r1]                                 
080254FE 4662     mov     r2,r12                                  
08025500 8A50     ldrh    r0,[r2,12h]                             
08025502 3801     sub     r0,1h                                   
08025504 8250     strh    r0,[r2,12h]                             
08025506 0400     lsl     r0,r0,10h                               
08025508 2800     cmp     r0,0h                                   
0802550A D10A     bne     8025522h                                
0802550C 2020     mov     r0,20h                                  
0802550E 8250     strh    r0,[r2,12h]                             
08025510 8811     ldrh    r1,[r2]                                 
08025512 2002     mov     r0,2h                                   
08025514 4008     and     r0,r1                                   
08025516 2800     cmp     r0,0h                                   
08025518 D003     beq     8025522h                                
0802551A 20AF     mov     r0,0AFh                                 
0802551C 0040     lsl     r0,r0,1h                                
0802551E F7DDFAFF bl      8002B20h                                
08025522 B002     add     sp,8h                                   
08025524 BC38     pop     r3-r5                                   
08025526 4698     mov     r8,r3                                   
08025528 46A1     mov     r9,r4                                   
0802552A 46AA     mov     r10,r5                                  
0802552C BCF0     pop     r4-r7                                   
0802552E BC01     pop     r0                                      
08025530 4700     bx      r0                                      
08025532 0000     lsl     r0,r0,0h                                
08025534 B530     push    r4,r5,r14                               
08025536 4C09     ldr     r4,=3000738h                            
08025538 1C25     mov     r5,r4                                   
0802553A 3530     add     r5,30h                                  
0802553C 7828     ldrb    r0,[r5]                                 
0802553E 2800     cmp     r0,0h                                   
08025540 D00E     beq     8025560h                                
08025542 F7EAFD51 bl      800FFE8h                                
08025546 1C20     mov     r0,r4                                   
08025548 3023     add     r0,23h                                  
0802554A 7801     ldrb    r1,[r0]                                 
0802554C 2011     mov     r0,11h                                  
0802554E F7EAFDD5 bl      80100FCh                                
08025552 7829     ldrb    r1,[r5]                                 
08025554 1C20     mov     r0,r4                                   
08025556 302C     add     r0,2Ch                                  
08025558 7001     strb    r1,[r0]                                 
0802555A E02A     b       80255B2h                                
0802555C 0738     lsl     r0,r7,1Ch                               
0802555E 0300     lsl     r0,r0,0Ch                               
08025560 F7EBFE8E bl      8011280h                                
08025564 2800     cmp     r0,0h                                   
08025566 D124     bne     80255B2h                                
08025568 1C20     mov     r0,r4                                   
0802556A 3024     add     r0,24h                                  
0802556C 7800     ldrb    r0,[r0]                                 
0802556E 2825     cmp     r0,25h                                  
08025570 D017     beq     80255A2h                                
08025572 2825     cmp     r0,25h                                  
08025574 DC09     bgt     802558Ah                                
08025576 2809     cmp     r0,9h                                   
08025578 D00D     beq     8025596h                                
0802557A 2809     cmp     r0,9h                                   
0802557C DC02     bgt     8025584h                                
0802557E 2800     cmp     r0,0h                                   
08025580 D006     beq     8025590h                                
08025582 E014     b       80255AEh                                
08025584 2823     cmp     r0,23h                                  
08025586 D009     beq     802559Ch                                
08025588 E011     b       80255AEh                                
0802558A 2867     cmp     r0,67h                                  
0802558C D00C     beq     80255A8h                                
0802558E E00E     b       80255AEh                                
08025590 F7FFFA54 bl      8024A3Ch                                
08025594 E00D     b       80255B2h                                
08025596 F7FFFB0D bl      8024BB4h                                
0802559A E00A     b       80255B2h                                
0802559C F7FFFB46 bl      8024C2Ch                                
080255A0 E007     b       80255B2h                                
080255A2 F7FFFB7F bl      8024CA4h                                
080255A6 E004     b       80255B2h                                
080255A8 F7FFFC1A bl      8024DE0h                                
080255AC E001     b       80255B2h                                
080255AE F7FFFB91 bl      8024CD4h                                
080255B2 BC30     pop     r4,r5                                   
080255B4 BC01     pop     r0                                      
080255B6 4700     bx      r0                                      
080255B8 B570     push    r4-r6,r14                               
080255BA 4A16     ldr     r2,=3000738h                            
080255BC 1C10     mov     r0,r2                                   
080255BE 3023     add     r0,23h                                  
080255C0 7804     ldrb    r4,[r0]                                 
080255C2 1C11     mov     r1,r2                                   
080255C4 3126     add     r1,26h                                  
080255C6 2500     mov     r5,0h                                   
080255C8 2001     mov     r0,1h                                   
080255CA 7008     strb    r0,[r1]                                 
080255CC 4912     ldr     r1,=30001ACh                            
080255CE 00E0     lsl     r0,r4,3h                                
080255D0 1B00     sub     r0,r0,r4                                
080255D2 00C0     lsl     r0,r0,3h                                
080255D4 1843     add     r3,r0,r1                                
080255D6 7F58     ldrb    r0,[r3,1Dh]                             
080255D8 4694     mov     r12,r2                                  
080255DA 1C0E     mov     r6,r1                                   
080255DC 284B     cmp     r0,4Bh                                  
080255DE D11F     bne     8025620h                                
080255E0 1C18     mov     r0,r3                                   
080255E2 3020     add     r0,20h                                  
080255E4 7801     ldrb    r1,[r0]                                 
080255E6 4660     mov     r0,r12                                  
080255E8 3020     add     r0,20h                                  
080255EA 7001     strb    r1,[r0]                                 
080255EC 4A0B     ldr     r2,=82B0D68h                            
080255EE 7F59     ldrb    r1,[r3,1Dh]                             
080255F0 00C8     lsl     r0,r1,3h                                
080255F2 1840     add     r0,r0,r1                                
080255F4 0040     lsl     r0,r0,1h                                
080255F6 1880     add     r0,r0,r2                                
080255F8 8800     ldrh    r0,[r0]                                 
080255FA 8A99     ldrh    r1,[r3,14h]                             
080255FC 0840     lsr     r0,r0,1h                                
080255FE 4281     cmp     r1,r0                                   
08025600 D211     bcs     8025626h                                
08025602 1C18     mov     r0,r3                                   
08025604 3030     add     r0,30h                                  
08025606 7800     ldrb    r0,[r0]                                 
08025608 2800     cmp     r0,0h                                   
0802560A D10C     bne     8025626h                                
0802560C 4660     mov     r0,r12                                  
0802560E 8005     strh    r5,[r0]                                 
08025610 E024     b       802565Ch                                
08025612 0000     lsl     r0,r0,0h                                
08025614 0738     lsl     r0,r7,1Ch                               
08025616 0300     lsl     r0,r0,0Ch                               
08025618 01AC     lsl     r4,r5,6h                                
0802561A 0300     lsl     r0,r0,0Ch                               
0802561C 0D68     lsr     r0,r5,15h                               
0802561E 082B     lsr     r3,r5,20h                               
08025620 4661     mov     r1,r12                                  
08025622 800D     strh    r5,[r1]                                 
08025624 E01A     b       802565Ch                                
08025626 00E0     lsl     r0,r4,3h                                
08025628 1B00     sub     r0,r0,r4                                
0802562A 00C0     lsl     r0,r0,3h                                
0802562C 1980     add     r0,r0,r6                                
0802562E 8800     ldrh    r0,[r0]                                 
08025630 2800     cmp     r0,0h                                   
08025632 D102     bne     802563Ah                                
08025634 4661     mov     r1,r12                                  
08025636 8008     strh    r0,[r1]                                 
08025638 E010     b       802565Ch                                
0802563A 4660     mov     r0,r12                                  
0802563C 3030     add     r0,30h                                  
0802563E 7800     ldrb    r0,[r0]                                 
08025640 2800     cmp     r0,0h                                   
08025642 D002     beq     802564Ah                                
08025644 F7EAFCD0 bl      800FFE8h                                
08025648 E008     b       802565Ch                                
0802564A 4660     mov     r0,r12                                  
0802564C 3024     add     r0,24h                                  
0802564E 7800     ldrb    r0,[r0]                                 
08025650 2800     cmp     r0,0h                                   
08025652 D101     bne     8025658h                                
08025654 F7FFFBCC bl      8024DF0h                                
08025658 F7FFFBFC bl      8024E54h                                
0802565C BC70     pop     r4-r6                                   
0802565E BC01     pop     r0                                      
08025660 4700     bx      r0                                      
08025662 0000     lsl     r0,r0,0h                                
08025664 B510     push    r4,r14                                  
08025666 B081     add     sp,-4h                                  
08025668 4C0D     ldr     r4,=3000738h                            
0802566A 1C22     mov     r2,r4                                   
0802566C 3232     add     r2,32h                                  
0802566E 7811     ldrb    r1,[r2]                                 
08025670 2302     mov     r3,2h                                   
08025672 1C18     mov     r0,r3                                   
08025674 4008     and     r0,r1                                   
08025676 2800     cmp     r0,0h                                   
08025678 D00A     beq     8025690h                                
0802567A 20FD     mov     r0,0FDh                                 
0802567C 4008     and     r0,r1                                   
0802567E 7010     strb    r0,[r2]                                 
08025680 8821     ldrh    r1,[r4]                                 
08025682 1C18     mov     r0,r3                                   
08025684 4008     and     r0,r1                                   
08025686 2800     cmp     r0,0h                                   
08025688 D002     beq     8025690h                                
0802568A 4806     ldr     r0,=15Fh                                
0802568C F7DDFA48 bl      8002B20h                                
08025690 1C20     mov     r0,r4                                   
08025692 3030     add     r0,30h                                  
08025694 7800     ldrb    r0,[r0]                                 
08025696 2800     cmp     r0,0h                                   
08025698 D006     beq     80256A8h                                
0802569A F7EAFCA5 bl      800FFE8h                                
0802569E E086     b       80257AEh                                
080256A0 0738     lsl     r0,r7,1Ch                               
080256A2 0300     lsl     r0,r0,0Ch                               
080256A4 015F     lsl     r7,r3,5h                                
080256A6 0000     lsl     r0,r0,0h                                
080256A8 1C20     mov     r0,r4                                   
080256AA 302B     add     r0,2Bh                                  
080256AC 7801     ldrb    r1,[r0]                                 
080256AE 207F     mov     r0,7Fh                                  
080256B0 4008     and     r0,r1                                   
080256B2 1C21     mov     r1,r4                                   
080256B4 3124     add     r1,24h                                  
080256B6 2809     cmp     r0,9h                                   
080256B8 D908     bls     80256CCh                                
080256BA 7808     ldrb    r0,[r1]                                 
080256BC 2861     cmp     r0,61h                                  
080256BE D805     bhi     80256CCh                                
080256C0 7F20     ldrb    r0,[r4,1Ch]                             
080256C2 2800     cmp     r0,0h                                   
080256C4 D073     beq     80257AEh                                
080256C6 3801     sub     r0,1h                                   
080256C8 7720     strb    r0,[r4,1Ch]                             
080256CA E070     b       80257AEh                                
080256CC 7808     ldrb    r0,[r1]                                 
080256CE 2825     cmp     r0,25h                                  
080256D0 D865     bhi     802579Eh                                
080256D2 0080     lsl     r0,r0,2h                                
080256D4 4901     ldr     r1,=80256E0h                            
080256D6 1840     add     r0,r0,r1                                
080256D8 6800     ldr     r0,[r0]                                 
080256DA 4687     mov     r15,r0                                  
080256DC 56E0     ldsb    r0,[r4,r3]                              
080256DE 0802     lsr     r2,r0,20h                               
080256E0 5778     ldsb    r0,[r7,r5]                              
080256E2 0802     lsr     r2,r0,20h                               
080256E4 579E     ldsb    r6,[r3,r6]                              
080256E6 0802     lsr     r2,r0,20h                               
080256E8 579E     ldsb    r6,[r3,r6]                              
080256EA 0802     lsr     r2,r0,20h                               
080256EC 579E     ldsb    r6,[r3,r6]                              
080256EE 0802     lsr     r2,r0,20h                               
080256F0 579E     ldsb    r6,[r3,r6]                              
080256F2 0802     lsr     r2,r0,20h                               
080256F4 579E     ldsb    r6,[r3,r6]                              
080256F6 0802     lsr     r2,r0,20h                               
080256F8 579E     ldsb    r6,[r3,r6]                              
080256FA 0802     lsr     r2,r0,20h                               
080256FC 579E     ldsb    r6,[r3,r6]                              
080256FE 0802     lsr     r2,r0,20h                               
08025700 579E     ldsb    r6,[r3,r6]                              
08025702 0802     lsr     r2,r0,20h                               
08025704 5780     ldsb    r0,[r0,r6]                              
08025706 0802     lsr     r2,r0,20h                               
08025708 579E     ldsb    r6,[r3,r6]                              
0802570A 0802     lsr     r2,r0,20h                               
0802570C 579E     ldsb    r6,[r3,r6]                              
0802570E 0802     lsr     r2,r0,20h                               
08025710 579E     ldsb    r6,[r3,r6]                              
08025712 0802     lsr     r2,r0,20h                               
08025714 579E     ldsb    r6,[r3,r6]                              
08025716 0802     lsr     r2,r0,20h                               
08025718 579E     ldsb    r6,[r3,r6]                              
0802571A 0802     lsr     r2,r0,20h                               
0802571C 579E     ldsb    r6,[r3,r6]                              
0802571E 0802     lsr     r2,r0,20h                               
08025720 579E     ldsb    r6,[r3,r6]                              
08025722 0802     lsr     r2,r0,20h                               
08025724 579E     ldsb    r6,[r3,r6]                              
08025726 0802     lsr     r2,r0,20h                               
08025728 579E     ldsb    r6,[r3,r6]                              
0802572A 0802     lsr     r2,r0,20h                               
0802572C 579E     ldsb    r6,[r3,r6]                              
0802572E 0802     lsr     r2,r0,20h                               
08025730 579E     ldsb    r6,[r3,r6]                              
08025732 0802     lsr     r2,r0,20h                               
08025734 579E     ldsb    r6,[r3,r6]                              
08025736 0802     lsr     r2,r0,20h                               
08025738 579E     ldsb    r6,[r3,r6]                              
0802573A 0802     lsr     r2,r0,20h                               
0802573C 579E     ldsb    r6,[r3,r6]                              
0802573E 0802     lsr     r2,r0,20h                               
08025740 579E     ldsb    r6,[r3,r6]                              
08025742 0802     lsr     r2,r0,20h                               
08025744 579E     ldsb    r6,[r3,r6]                              
08025746 0802     lsr     r2,r0,20h                               
08025748 579E     ldsb    r6,[r3,r6]                              
0802574A 0802     lsr     r2,r0,20h                               
0802574C 579E     ldsb    r6,[r3,r6]                              
0802574E 0802     lsr     r2,r0,20h                               
08025750 579E     ldsb    r6,[r3,r6]                              
08025752 0802     lsr     r2,r0,20h                               
08025754 579E     ldsb    r6,[r3,r6]                              
08025756 0802     lsr     r2,r0,20h                               
08025758 579E     ldsb    r6,[r3,r6]                              
0802575A 0802     lsr     r2,r0,20h                               
0802575C 579E     ldsb    r6,[r3,r6]                              
0802575E 0802     lsr     r2,r0,20h                               
08025760 579E     ldsb    r6,[r3,r6]                              
08025762 0802     lsr     r2,r0,20h                               
08025764 579E     ldsb    r6,[r3,r6]                              
08025766 0802     lsr     r2,r0,20h                               
08025768 5788     ldsb    r0,[r1,r6]                              
0802576A 0802     lsr     r2,r0,20h                               
0802576C 578E     ldsb    r6,[r1,r6]                              
0802576E 0802     lsr     r2,r0,20h                               
08025770 579E     ldsb    r6,[r3,r6]                              
08025772 0802     lsr     r2,r0,20h                               
08025774 5796     ldsb    r6,[r2,r6]                              
08025776 0802     lsr     r2,r0,20h                               
08025778 1C20     mov     r0,r4                                   
0802577A F7FFFB7D bl      8024E78h                                
0802577E E016     b       80257AEh                                
08025780 1C20     mov     r0,r4                                   
08025782 F7FFFC21 bl      8024FC8h                                
08025786 E012     b       80257AEh                                
08025788 1C20     mov     r0,r4                                   
0802578A F7FFFCA1 bl      80250D0h                                
0802578E 1C20     mov     r0,r4                                   
08025790 F7FFFCD2 bl      8025138h                                
08025794 E00B     b       80257AEh                                
08025796 1C20     mov     r0,r4                                   
08025798 F7FFFC76 bl      8025088h                                
0802579C E007     b       80257AEh                                
0802579E 8861     ldrh    r1,[r4,2h]                              
080257A0 88A2     ldrh    r2,[r4,4h]                              
080257A2 201F     mov     r0,1Fh                                  
080257A4 9000     str     r0,[sp]                                 
080257A6 2000     mov     r0,0h                                   
080257A8 2301     mov     r3,1h                                   
080257AA F7EBFC6B bl      8011084h                                
080257AE B001     add     sp,4h                                   
080257B0 BC10     pop     r4                                      
080257B2 BC01     pop     r0                                      
080257B4 4700     bx      r0                                      
080257B6 0000     lsl     r0,r0,0h                                
080257B8 B5F0     push    r4-r7,r14                               
080257BA B082     add     sp,-8h                                  
080257BC 2600     mov     r6,0h                                   
080257BE 4909     ldr     r1,=3000738h                            
080257C0 1C08     mov     r0,r1                                   
080257C2 3026     add     r0,26h                                  
080257C4 2501     mov     r5,1h                                   
080257C6 7005     strb    r5,[r0]                                 
080257C8 1C0F     mov     r7,r1                                   
080257CA 3724     add     r7,24h                                  
080257CC 7838     ldrb    r0,[r7]                                 
080257CE 1C0C     mov     r4,r1                                   
080257D0 2800     cmp     r0,0h                                   
080257D2 D170     bne     80258B6h                                
080257D4 2003     mov     r0,3h                                   
080257D6 212C     mov     r1,2Ch                                  
080257D8 F03BF870 bl      80608BCh                                
080257DC 2800     cmp     r0,0h                                   
080257DE D003     beq     80257E8h                                
080257E0 8026     strh    r6,[r4]                                 
080257E2 E0D3     b       802598Ch                                
080257E4 0738     lsl     r0,r7,1Ch                               
080257E6 0300     lsl     r0,r0,0Ch                               
080257E8 8821     ldrh    r1,[r4]                                 
080257EA 4A1B     ldr     r2,=8004h                               
080257EC 1C10     mov     r0,r2                                   
080257EE 2200     mov     r2,0h                                   
080257F0 4308     orr     r0,r1                                   
080257F2 8020     strh    r0,[r4]                                 
080257F4 4919     ldr     r1,=0FFFCh                              
080257F6 8161     strh    r1,[r4,0Ah]                             
080257F8 2004     mov     r0,4h                                   
080257FA 81A0     strh    r0,[r4,0Ch]                             
080257FC 81E1     strh    r1,[r4,0Eh]                             
080257FE 8220     strh    r0,[r4,10h]                             
08025800 1C20     mov     r0,r4                                   
08025802 3027     add     r0,27h                                  
08025804 7005     strb    r5,[r0]                                 
08025806 3001     add     r0,1h                                   
08025808 7005     strb    r5,[r0]                                 
0802580A 3001     add     r0,1h                                   
0802580C 7005     strb    r5,[r0]                                 
0802580E 3804     sub     r0,4h                                   
08025810 7002     strb    r2,[r0]                                 
08025812 4813     ldr     r0,=82DA88Ch                            
08025814 61A0     str     r0,[r4,18h]                             
08025816 82E6     strh    r6,[r4,16h]                             
08025818 7722     strb    r2,[r4,1Ch]                             
0802581A 2309     mov     r3,9h                                   
0802581C 703B     strb    r3,[r7]                                 
0802581E 4811     ldr     r0,=30013D4h                            
08025820 8A41     ldrh    r1,[r0,12h]                             
08025822 0889     lsr     r1,r1,2h                                
08025824 4810     ldr     r0,=30013B8h                            
08025826 8800     ldrh    r0,[r0]                                 
08025828 0880     lsr     r0,r0,2h                                
0802582A 1A09     sub     r1,r1,r0                                
0802582C 2978     cmp     r1,78h                                  
0802582E DD03     ble     8025838h                                
08025830 8820     ldrh    r0,[r4]                                 
08025832 2140     mov     r1,40h                                  
08025834 4308     orr     r0,r1                                   
08025836 8020     strh    r0,[r4]                                 
08025838 20F0     mov     r0,0F0h                                 
0802583A 80E0     strh    r0,[r4,6h]                              
0802583C 7F60     ldrb    r0,[r4,1Dh]                             
0802583E 2885     cmp     r0,85h                                  
08025840 D134     bne     80258ACh                                
08025842 480A     ldr     r0,=3001530h                            
08025844 88C1     ldrh    r1,[r0,6h]                              
08025846 480A     ldr     r0,=18Fh                                
08025848 4281     cmp     r1,r0                                   
0802584A D913     bls     8025874h                                
0802584C 1C21     mov     r1,r4                                   
0802584E 312E     add     r1,2Eh                                  
08025850 200F     mov     r0,0Fh                                  
08025852 7008     strb    r0,[r1]                                 
08025854 E09A     b       802598Ch                                
08025856 0000     lsl     r0,r0,0h                                
08025858 8004     strh    r4,[r0]                                 
0802585A 0000     lsl     r0,r0,0h                                
0802585C FFFC     bl      lr+0FF8h                                
0802585E 0000     lsl     r0,r0,0h                                
08025860 A88C     add     r0,sp,230h                              
08025862 082D     lsr     r5,r5,20h                               
08025864 13D4     asr     r4,r2,0Fh                               
08025866 0300     lsl     r0,r0,0Ch                               
08025868 13B8     asr     r0,r7,0Eh                               
0802586A 0300     lsl     r0,r0,0Ch                               
0802586C 1530     asr     r0,r6,14h                               
0802586E 0300     lsl     r0,r0,0Ch                               
08025870 018F     lsl     r7,r1,6h                                
08025872 0000     lsl     r0,r0,0h                                
08025874 4803     ldr     r0,=12Bh                                
08025876 4281     cmp     r1,r0                                   
08025878 D906     bls     8025888h                                
0802587A 1C21     mov     r1,r4                                   
0802587C 312E     add     r1,2Eh                                  
0802587E 200C     mov     r0,0Ch                                  
08025880 7008     strb    r0,[r1]                                 
08025882 E083     b       802598Ch                                
08025884 012B     lsl     r3,r5,4h                                
08025886 0000     lsl     r0,r0,0h                                
08025888 29C7     cmp     r1,0C7h                                 
0802588A D903     bls     8025894h                                
0802588C 1C20     mov     r0,r4                                   
0802588E 302E     add     r0,2Eh                                  
08025890 7003     strb    r3,[r0]                                 
08025892 E07B     b       802598Ch                                
08025894 2963     cmp     r1,63h                                  
08025896 D904     bls     80258A2h                                
08025898 1C21     mov     r1,r4                                   
0802589A 312E     add     r1,2Eh                                  
0802589C 2006     mov     r0,6h                                   
0802589E 7008     strb    r0,[r1]                                 
080258A0 E074     b       802598Ch                                
080258A2 1C21     mov     r1,r4                                   
080258A4 312E     add     r1,2Eh                                  
080258A6 2003     mov     r0,3h                                   
080258A8 7008     strb    r0,[r1]                                 
080258AA E06F     b       802598Ch                                
080258AC 1C21     mov     r1,r4                                   
080258AE 312E     add     r1,2Eh                                  
080258B0 2005     mov     r0,5h                                   
080258B2 7008     strb    r0,[r1]                                 
080258B4 E06A     b       802598Ch                                
080258B6 8821     ldrh    r1,[r4]                                 
080258B8 2080     mov     r0,80h                                  
080258BA 00C0     lsl     r0,r0,3h                                
080258BC 4008     and     r0,r1                                   
080258BE 2800     cmp     r0,0h                                   
080258C0 D005     beq     80258CEh                                
080258C2 88E0     ldrh    r0,[r4,6h]                              
080258C4 2800     cmp     r0,0h                                   
080258C6 D002     beq     80258CEh                                
080258C8 3801     sub     r0,1h                                   
080258CA 80E0     strh    r0,[r4,6h]                              
080258CC E05E     b       802598Ch                                
080258CE 2712     mov     r7,12h                                  
080258D0 4A13     ldr     r2,=30001ACh                            
080258D2 21A8     mov     r1,0A8h                                 
080258D4 00C9     lsl     r1,r1,3h                                
080258D6 1850     add     r0,r2,r1                                
080258D8 4282     cmp     r2,r0                                   
080258DA D211     bcs     8025900h                                
080258DC 2501     mov     r5,1h                                   
080258DE 1C03     mov     r3,r0                                   
080258E0 8811     ldrh    r1,[r2]                                 
080258E2 1C28     mov     r0,r5                                   
080258E4 4008     and     r0,r1                                   
080258E6 2800     cmp     r0,0h                                   
080258E8 D007     beq     80258FAh                                
080258EA 1C10     mov     r0,r2                                   
080258EC 3025     add     r0,25h                                  
080258EE 7800     ldrb    r0,[r0]                                 
080258F0 42B8     cmp     r0,r7                                   
080258F2 D102     bne     80258FAh                                
080258F4 1C70     add     r0,r6,1                                 
080258F6 0600     lsl     r0,r0,18h                               
080258F8 0E06     lsr     r6,r0,18h                               
080258FA 3238     add     r2,38h                                  
080258FC 429A     cmp     r2,r3                                   
080258FE D3EF     bcc     80258E0h                                
08025900 8821     ldrh    r1,[r4]                                 
08025902 2280     mov     r2,80h                                  
08025904 00D2     lsl     r2,r2,3h                                
08025906 1C10     mov     r0,r2                                   
08025908 4008     and     r0,r1                                   
0802590A 2800     cmp     r0,0h                                   
0802590C D10A     bne     8025924h                                
0802590E 1C20     mov     r0,r4                                   
08025910 302E     add     r0,2Eh                                  
08025912 7800     ldrb    r0,[r0]                                 
08025914 4286     cmp     r6,r0                                   
08025916 D309     bcc     802592Ch                                
08025918 1C10     mov     r0,r2                                   
0802591A 4308     orr     r0,r1                                   
0802591C 8020     strh    r0,[r4]                                 
0802591E E035     b       802598Ch                                
08025920 01AC     lsl     r4,r5,6h                                
08025922 0300     lsl     r0,r0,0Ch                               
08025924 2E13     cmp     r6,13h                                  
08025926 D831     bhi     802598Ch                                
08025928 20F0     mov     r0,0F0h                                 
0802592A 80E0     strh    r0,[r4,6h]                              
0802592C 8821     ldrh    r1,[r4]                                 
0802592E 2040     mov     r0,40h                                  
08025930 4008     and     r0,r1                                   
08025932 2800     cmp     r0,0h                                   
08025934 D00C     beq     8025950h                                
08025936 4804     ldr     r0,=30013D4h                            
08025938 4A04     ldr     r2,=300083Ch                            
0802593A 7811     ldrb    r1,[r2]                                 
0802593C 0149     lsl     r1,r1,5h                                
0802593E 8A40     ldrh    r0,[r0,12h]                             
08025940 1809     add     r1,r1,r0                                
08025942 0409     lsl     r1,r1,10h                               
08025944 0C0D     lsr     r5,r1,10h                               
08025946 E00B     b       8025960h                                
08025948 13D4     asr     r4,r2,0Fh                               
0802594A 0300     lsl     r0,r0,0Ch                               
0802594C 083C     lsr     r4,r7,20h                               
0802594E 0300     lsl     r0,r0,0Ch                               
08025950 4810     ldr     r0,=30013D4h                            
08025952 4A11     ldr     r2,=300083Ch                            
08025954 7811     ldrb    r1,[r2]                                 
08025956 0149     lsl     r1,r1,5h                                
08025958 8A40     ldrh    r0,[r0,12h]                             
0802595A 1A40     sub     r0,r0,r1                                
0802595C 0400     lsl     r0,r0,10h                               
0802595E 0C05     lsr     r5,r0,10h                               
08025960 2080     mov     r0,80h                                  
08025962 0200     lsl     r0,r0,8h                                
08025964 4028     and     r0,r5                                   
08025966 2800     cmp     r0,0h                                   
08025968 D000     beq     802596Ch                                
0802596A 2500     mov     r5,0h                                   
0802596C 490B     ldr     r1,=30013BAh                            
0802596E 7810     ldrb    r0,[r2]                                 
08025970 0040     lsl     r0,r0,1h                                
08025972 3010     add     r0,10h                                  
08025974 880B     ldrh    r3,[r1]                                 
08025976 1A1B     sub     r3,r3,r0                                
08025978 041B     lsl     r3,r3,10h                               
0802597A 0C1B     lsr     r3,r3,10h                               
0802597C 7FE2     ldrb    r2,[r4,1Fh]                             
0802597E 9500     str     r5,[sp]                                 
08025980 2000     mov     r0,0h                                   
08025982 9001     str     r0,[sp,4h]                              
08025984 204A     mov     r0,4Ah                                  
08025986 2188     mov     r1,88h                                  
08025988 F7E8FCC8 bl      800E31Ch                                
0802598C B002     add     sp,8h                                   
0802598E BCF0     pop     r4-r7                                   
08025990 BC01     pop     r0                                      
08025992 4700     bx      r0                                      
08025994 13D4     asr     r4,r2,0Fh                               
08025996 0300     lsl     r0,r0,0Ch                               
08025998 083C     lsr     r4,r7,20h                               
0802599A 0300     lsl     r0,r0,0Ch                               
0802599C 13BA     asr     r2,r7,0Eh                               
0802599E 0300     lsl     r0,r0,0Ch                               
080259A0 B510     push    r4,r14                                  
080259A2 1C03     mov     r3,r0                                   
080259A4 8898     ldrh    r0,[r3,4h]                              
080259A6 6819     ldr     r1,[r3]                                 
080259A8 00C0     lsl     r0,r0,3h                                
080259AA 1840     add     r0,r0,r1                                
080259AC 6804     ldr     r4,[r0]                                 
080259AE 4A15     ldr     r2,=3000738h                            
080259B0 7F91     ldrb    r1,[r2,1Eh]                             
080259B2 0048     lsl     r0,r1,1h                                
080259B4 1840     add     r0,r0,r1                                
080259B6 0040     lsl     r0,r0,1h                                
080259B8 1900     add     r0,r0,r4                                
080259BA 8800     ldrh    r0,[r0]                                 
080259BC 4912     ldr     r1,=875F5FCh                            
080259BE 0080     lsl     r0,r0,2h                                
080259C0 1840     add     r0,r0,r1                                
080259C2 6991     ldr     r1,[r2,18h]                             
080259C4 6800     ldr     r0,[r0]                                 
080259C6 4281     cmp     r1,r0                                   
080259C8 D003     beq     80259D2h                                
080259CA 6190     str     r0,[r2,18h]                             
080259CC 2000     mov     r0,0h                                   
080259CE 7710     strb    r0,[r2,1Ch]                             
080259D0 82D0     strh    r0,[r2,16h]                             
080259D2 7F91     ldrb    r1,[r2,1Eh]                             
080259D4 0048     lsl     r0,r1,1h                                
080259D6 1840     add     r0,r0,r1                                
080259D8 0040     lsl     r0,r0,1h                                
080259DA 1900     add     r0,r0,r4                                
080259DC 8840     ldrh    r0,[r0,2h]                              
080259DE 88D9     ldrh    r1,[r3,6h]                              
080259E0 1840     add     r0,r0,r1                                
080259E2 8050     strh    r0,[r2,2h]                              
080259E4 8811     ldrh    r1,[r2]                                 
080259E6 2040     mov     r0,40h                                  
080259E8 4008     and     r0,r1                                   
080259EA 7F91     ldrb    r1,[r2,1Eh]                             
080259EC 2800     cmp     r0,0h                                   
080259EE D00D     beq     8025A0Ch                                
080259F0 0048     lsl     r0,r1,1h                                
080259F2 1840     add     r0,r0,r1                                
080259F4 0040     lsl     r0,r0,1h                                
080259F6 1900     add     r0,r0,r4                                
080259F8 8919     ldrh    r1,[r3,8h]                              
080259FA 8880     ldrh    r0,[r0,4h]                              
080259FC 1A09     sub     r1,r1,r0                                
080259FE 8091     strh    r1,[r2,4h]                              
08025A00 E00C     b       8025A1Ch                                
08025A02 0000     lsl     r0,r0,0h                                
08025A04 0738     lsl     r0,r7,1Ch                               
08025A06 0300     lsl     r0,r0,0Ch                               
08025A08 F5FC     ????                                            
08025A0A 0875     lsr     r5,r6,1h                                
08025A0C 0048     lsl     r0,r1,1h                                
08025A0E 1840     add     r0,r0,r1                                
08025A10 0040     lsl     r0,r0,1h                                
08025A12 1900     add     r0,r0,r4                                
08025A14 8880     ldrh    r0,[r0,4h]                              
08025A16 891B     ldrh    r3,[r3,8h]                              
08025A18 18C0     add     r0,r0,r3                                
08025A1A 8090     strh    r0,[r2,4h]                              
08025A1C BC10     pop     r4                                      
08025A1E BC01     pop     r0                                      
08025A20 4700     bx      r0                                      
08025A22 0000     lsl     r0,r0,0h                                
08025A24 B500     push    r14                                     
08025A26 4914     ldr     r1,=3000738h                            
08025A28 1C08     mov     r0,r1                                   
08025A2A 302B     add     r0,2Bh                                  
08025A2C 7800     ldrb    r0,[r0]                                 
08025A2E 237F     mov     r3,7Fh                                  
08025A30 4003     and     r3,r0                                   
08025A32 1C0A     mov     r2,r1                                   
08025A34 2B00     cmp     r3,0h                                   
08025A36 D11C     bne     8025A72h                                
08025A38 312E     add     r1,2Eh                                  
08025A3A 7808     ldrb    r0,[r1]                                 
08025A3C 3001     add     r0,1h                                   
08025A3E 7008     strb    r0,[r1]                                 
08025A40 7808     ldrb    r0,[r1]                                 
08025A42 280A     cmp     r0,0Ah                                  
08025A44 D30A     bcc     8025A5Ch                                
08025A46 700B     strb    r3,[r1]                                 
08025A48 1C11     mov     r1,r2                                   
08025A4A 312F     add     r1,2Fh                                  
08025A4C 7808     ldrb    r0,[r1]                                 
08025A4E 3001     add     r0,1h                                   
08025A50 7008     strb    r0,[r1]                                 
08025A52 0600     lsl     r0,r0,18h                               
08025A54 0E00     lsr     r0,r0,18h                               
08025A56 2803     cmp     r0,3h                                   
08025A58 D900     bls     8025A5Ch                                
08025A5A 700B     strb    r3,[r1]                                 
08025A5C 4907     ldr     r1,=82DB248h                            
08025A5E 1C10     mov     r0,r2                                   
08025A60 302F     add     r0,2Fh                                  
08025A62 7800     ldrb    r0,[r0]                                 
08025A64 1840     add     r0,r0,r1                                
08025A66 7801     ldrb    r1,[r0]                                 
08025A68 1C10     mov     r0,r2                                   
08025A6A 3034     add     r0,34h                                  
08025A6C 7001     strb    r1,[r0]                                 
08025A6E 3814     sub     r0,14h                                  
08025A70 7001     strb    r1,[r0]                                 
08025A72 BC01     pop     r0                                      
08025A74 4700     bx      r0                                      
08025A76 0000     lsl     r0,r0,0h                                
08025A78 0738     lsl     r0,r7,1Ch                               
08025A7A 0300     lsl     r0,r0,0Ch                               
08025A7C B248     ????                                            
08025A7E 082D     lsr     r5,r5,20h                               
08025A80 B5F0     push    r4-r7,r14                               
08025A82 4647     mov     r7,r8                                   
08025A84 B480     push    r7                                      
08025A86 B083     add     sp,-0Ch                                 
08025A88 1C05     mov     r5,r0                                   
08025A8A 2003     mov     r0,3h                                   
08025A8C 2120     mov     r1,20h                                  
08025A8E F03AFF15 bl      80608BCh                                
08025A92 2800     cmp     r0,0h                                   
08025A94 D006     beq     8025AA4h                                
08025A96 4902     ldr     r1,=3000738h                            
08025A98 2000     mov     r0,0h                                   
08025A9A 8008     strh    r0,[r1]                                 
08025A9C E0AA     b       8025BF4h                                
08025A9E 0000     lsl     r0,r0,0h                                
08025AA0 0738     lsl     r0,r7,1Ch                               
08025AA2 0300     lsl     r0,r0,0Ch                               
08025AA4 4A11     ldr     r2,=3000738h                            
08025AA6 8850     ldrh    r0,[r2,2h]                              
08025AA8 3008     add     r0,8h                                   
08025AAA 2300     mov     r3,0h                                   
08025AAC 8050     strh    r0,[r2,2h]                              
08025AAE 80E8     strh    r0,[r5,6h]                              
08025AB0 8891     ldrh    r1,[r2,4h]                              
08025AB2 8129     strh    r1,[r5,8h]                              
08025AB4 88E8     ldrh    r0,[r5,6h]                              
08025AB6 4680     mov     r8,r0                                   
08025AB8 892F     ldrh    r7,[r5,8h]                              
08025ABA 8117     strh    r7,[r2,8h]                              
08025ABC 7F56     ldrb    r6,[r2,1Dh]                             
08025ABE 2E8B     cmp     r6,8Bh                                  
08025AC0 D11A     bne     8025AF8h                                
08025AC2 8810     ldrh    r0,[r2]                                 
08025AC4 2140     mov     r1,40h                                  
08025AC6 4308     orr     r0,r1                                   
08025AC8 8010     strh    r0,[r2]                                 
08025ACA 4809     ldr     r0,=0FF88h                              
08025ACC 81D0     strh    r0,[r2,0Eh]                             
08025ACE 2058     mov     r0,58h                                  
08025AD0 8210     strh    r0,[r2,10h]                             
08025AD2 1C11     mov     r1,r2                                   
08025AD4 3124     add     r1,24h                                  
08025AD6 2009     mov     r0,9h                                   
08025AD8 7008     strb    r0,[r1]                                 
08025ADA 4906     ldr     r1,=300007Bh                            
08025ADC 2001     mov     r0,1h                                   
08025ADE 7008     strb    r0,[r1]                                 
08025AE0 204F     mov     r0,4Fh                                  
08025AE2 2100     mov     r1,0h                                   
08025AE4 F7DDFF86 bl      80039F4h                                
08025AE8 E016     b       8025B18h                                
08025AEA 0000     lsl     r0,r0,0h                                
08025AEC 0738     lsl     r0,r7,1Ch                               
08025AEE 0300     lsl     r0,r0,0Ch                               
08025AF0 FF88     bl      lr+0F10h                                
08025AF2 0000     lsl     r0,r0,0h                                
08025AF4 007B     lsl     r3,r7,1h                                
08025AF6 0300     lsl     r0,r0,0Ch                               
08025AF8 4841     ldr     r0,=0FFA8h                              
08025AFA 81D0     strh    r0,[r2,0Eh]                             
08025AFC 2078     mov     r0,78h                                  
08025AFE 8210     strh    r0,[r2,10h]                             
08025B00 23B0     mov     r3,0B0h                                 
08025B02 009B     lsl     r3,r3,2h                                
08025B04 1C18     mov     r0,r3                                   
08025B06 1809     add     r1,r1,r0                                
08025B08 8129     strh    r1,[r5,8h]                              
08025B0A 1838     add     r0,r7,r0                                
08025B0C 0400     lsl     r0,r0,10h                               
08025B0E 0C07     lsr     r7,r0,10h                               
08025B10 1C11     mov     r1,r2                                   
08025B12 3124     add     r1,24h                                  
08025B14 200F     mov     r0,0Fh                                  
08025B16 7008     strb    r0,[r1]                                 
08025B18 4C3A     ldr     r4,=3000738h                            
08025B1A 1C20     mov     r0,r4                                   
08025B1C 3027     add     r0,27h                                  
08025B1E 2300     mov     r3,0h                                   
08025B20 2128     mov     r1,28h                                  
08025B22 7001     strb    r1,[r0]                                 
08025B24 3001     add     r0,1h                                   
08025B26 7001     strb    r1,[r0]                                 
08025B28 1C21     mov     r1,r4                                   
08025B2A 3129     add     r1,29h                                  
08025B2C 2018     mov     r0,18h                                  
08025B2E 7008     strb    r0,[r1]                                 
08025B30 2100     mov     r1,0h                                   
08025B32 4835     ldr     r0,=0FFD0h                              
08025B34 8160     strh    r0,[r4,0Ah]                             
08025B36 81A3     strh    r3,[r4,0Ch]                             
08025B38 1C20     mov     r0,r4                                   
08025B3A 302E     add     r0,2Eh                                  
08025B3C 7001     strb    r1,[r0]                                 
08025B3E 3001     add     r0,1h                                   
08025B40 7001     strb    r1,[r0]                                 
08025B42 3803     sub     r0,3h                                   
08025B44 7001     strb    r1,[r0]                                 
08025B46 3001     add     r0,1h                                   
08025B48 7001     strb    r1,[r0]                                 
08025B4A 80E3     strh    r3,[r4,6h]                              
08025B4C 3808     sub     r0,8h                                   
08025B4E 7001     strb    r1,[r0]                                 
08025B50 4A2E     ldr     r2,=82B0D68h                            
08025B52 00F0     lsl     r0,r6,3h                                
08025B54 1980     add     r0,r0,r6                                
08025B56 0040     lsl     r0,r0,1h                                
08025B58 1880     add     r0,r0,r2                                
08025B5A 8800     ldrh    r0,[r0]                                 
08025B5C 82A0     strh    r0,[r4,14h]                             
08025B5E 8168     strh    r0,[r5,0Ah]                             
08025B60 482B     ldr     r0,=82DB100h                            
08025B62 6028     str     r0,[r5]                                 
08025B64 7329     strb    r1,[r5,0Ch]                             
08025B66 80AB     strh    r3,[r5,4h]                              
08025B68 73A9     strb    r1,[r5,0Eh]                             
08025B6A 7369     strb    r1,[r5,0Dh]                             
08025B6C 1C21     mov     r1,r4                                   
08025B6E 3122     add     r1,22h                                  
08025B70 2006     mov     r0,6h                                   
08025B72 7008     strb    r0,[r1]                                 
08025B74 3111     add     r1,11h                                  
08025B76 2002     mov     r0,2h                                   
08025B78 7008     strb    r0,[r1]                                 
08025B7A 2005     mov     r0,5h                                   
08025B7C 77A0     strb    r0,[r4,1Eh]                             
08025B7E 7FE6     ldrb    r6,[r4,1Fh]                             
08025B80 1C20     mov     r0,r4                                   
08025B82 3023     add     r0,23h                                  
08025B84 7805     ldrb    r5,[r0]                                 
08025B86 8820     ldrh    r0,[r4]                                 
08025B88 2440     mov     r4,40h                                  
08025B8A 4004     and     r4,r0                                   
08025B8C 0424     lsl     r4,r4,10h                               
08025B8E 0C24     lsr     r4,r4,10h                               
08025B90 4640     mov     r0,r8                                   
08025B92 9000     str     r0,[sp]                                 
08025B94 9701     str     r7,[sp,4h]                              
08025B96 9402     str     r4,[sp,8h]                              
08025B98 2012     mov     r0,12h                                  
08025B9A 2100     mov     r1,0h                                   
08025B9C 1C32     mov     r2,r6                                   
08025B9E 1C2B     mov     r3,r5                                   
08025BA0 F7E8FB5A bl      800E258h                                
08025BA4 4643     mov     r3,r8                                   
08025BA6 9300     str     r3,[sp]                                 
08025BA8 9701     str     r7,[sp,4h]                              
08025BAA 9402     str     r4,[sp,8h]                              
08025BAC 2012     mov     r0,12h                                  
08025BAE 2101     mov     r1,1h                                   
08025BB0 1C32     mov     r2,r6                                   
08025BB2 1C2B     mov     r3,r5                                   
08025BB4 F7E8FB50 bl      800E258h                                
08025BB8 4640     mov     r0,r8                                   
08025BBA 9000     str     r0,[sp]                                 
08025BBC 9701     str     r7,[sp,4h]                              
08025BBE 9402     str     r4,[sp,8h]                              
08025BC0 2012     mov     r0,12h                                  
08025BC2 2102     mov     r1,2h                                   
08025BC4 1C32     mov     r2,r6                                   
08025BC6 1C2B     mov     r3,r5                                   
08025BC8 F7E8FB46 bl      800E258h                                
08025BCC 4643     mov     r3,r8                                   
08025BCE 9300     str     r3,[sp]                                 
08025BD0 9701     str     r7,[sp,4h]                              
08025BD2 9402     str     r4,[sp,8h]                              
08025BD4 2012     mov     r0,12h                                  
08025BD6 2103     mov     r1,3h                                   
08025BD8 1C32     mov     r2,r6                                   
08025BDA 1C2B     mov     r3,r5                                   
08025BDC F7E8FB3C bl      800E258h                                
08025BE0 4640     mov     r0,r8                                   
08025BE2 9000     str     r0,[sp]                                 
08025BE4 9701     str     r7,[sp,4h]                              
08025BE6 9402     str     r4,[sp,8h]                              
08025BE8 2012     mov     r0,12h                                  
08025BEA 2104     mov     r1,4h                                   
08025BEC 1C32     mov     r2,r6                                   
08025BEE 1C2B     mov     r3,r5                                   
08025BF0 F7E8FB32 bl      800E258h                                
08025BF4 B003     add     sp,0Ch                                  
08025BF6 BC08     pop     r3                                      
08025BF8 4698     mov     r8,r3                                   
08025BFA BCF0     pop     r4-r7                                   
08025BFC BC01     pop     r0                                      
08025BFE 4700     bx      r0                                      
08025C00 FFA8     bl      lr+0F50h                                
08025C02 0000     lsl     r0,r0,0h                                
08025C04 0738     lsl     r0,r7,1Ch                               
08025C06 0300     lsl     r0,r0,0Ch                               
08025C08 FFD0     bl      lr+0FA0h                                
08025C0A 0000     lsl     r0,r0,0h                                
08025C0C 0D68     lsr     r0,r5,15h                               
08025C0E 082B     lsr     r3,r5,20h                               
08025C10 B100     ????                                            
08025C12 082D     lsr     r5,r5,20h                               
08025C14 B510     push    r4,r14                                  
08025C16 1C04     mov     r4,r0                                   
08025C18 F7FFFF04 bl      8025A24h                                
08025C1C 4908     ldr     r1,=30013D4h                            
08025C1E 8920     ldrh    r0,[r4,8h]                              
08025C20 8A4A     ldrh    r2,[r1,12h]                             
08025C22 4290     cmp     r0,r2                                   
08025C24 D908     bls     8025C38h                                
08025C26 8A49     ldrh    r1,[r1,12h]                             
08025C28 1A40     sub     r0,r0,r1                                
08025C2A 4906     ldr     r1,=13Fh                                
08025C2C 4288     cmp     r0,r1                                   
08025C2E DC03     bgt     8025C38h                                
08025C30 4805     ldr     r0,=3000738h                            
08025C32 3024     add     r0,24h                                  
08025C34 2126     mov     r1,26h                                  
08025C36 7001     strb    r1,[r0]                                 
08025C38 BC10     pop     r4                                      
08025C3A BC01     pop     r0                                      
08025C3C 4700     bx      r0                                      
08025C3E 0000     lsl     r0,r0,0h                                
08025C40 13D4     asr     r4,r2,0Fh                               
08025C42 0300     lsl     r0,r0,0Ch                               
08025C44 013F     lsl     r7,r7,4h                                
08025C46 0000     lsl     r0,r0,0h                                
08025C48 0738     lsl     r0,r7,1Ch                               
08025C4A 0300     lsl     r0,r0,0Ch                               
08025C4C 4904     ldr     r1,=82DB100h                            
08025C4E 6001     str     r1,[r0]                                 
08025C50 2100     mov     r1,0h                                   
08025C52 7301     strb    r1,[r0,0Ch]                             
08025C54 8081     strh    r1,[r0,4h]                              
08025C56 4803     ldr     r0,=3000738h                            
08025C58 3024     add     r0,24h                                  
08025C5A 2109     mov     r1,9h                                   
08025C5C 7001     strb    r1,[r0]                                 
08025C5E 4770     bx      r14                                     
08025C60 B100     ????                                            
08025C62 082D     lsr     r5,r5,20h                               
08025C64 0738     lsl     r0,r7,1Ch                               
08025C66 0300     lsl     r0,r0,0Ch                               
08025C68 B500     push    r14                                     
08025C6A F7FFFEDB bl      8025A24h                                
08025C6E BC01     pop     r0                                      
08025C70 4700     bx      r0                                      
08025C72 0000     lsl     r0,r0,0h                                
08025C74 B500     push    r14                                     
08025C76 1C01     mov     r1,r0                                   
08025C78 6808     ldr     r0,[r1]                                 
08025C7A 4A06     ldr     r2,=82DB128h                            
08025C7C 4290     cmp     r0,r2                                   
08025C7E D003     beq     8025C88h                                
08025C80 600A     str     r2,[r1]                                 
08025C82 2000     mov     r0,0h                                   
08025C84 7308     strb    r0,[r1,0Ch]                             
08025C86 8088     strh    r0,[r1,4h]                              
08025C88 4803     ldr     r0,=3000738h                            
08025C8A 3024     add     r0,24h                                  
08025C8C 2123     mov     r1,23h                                  
08025C8E 7001     strb    r1,[r0]                                 
08025C90 BC01     pop     r0                                      
08025C92 4700     bx      r0                                      
08025C94 B128     ????                                            
08025C96 082D     lsr     r5,r5,20h                               
08025C98 0738     lsl     r0,r7,1Ch                               
08025C9A 0300     lsl     r0,r0,0Ch                               
08025C9C B510     push    r4,r14                                  
08025C9E 1C04     mov     r4,r0                                   
08025CA0 F7FFFEC0 bl      8025A24h                                
08025CA4 4A0C     ldr     r2,=3000738h                            
08025CA6 1C11     mov     r1,r2                                   
08025CA8 312C     add     r1,2Ch                                  
08025CAA 7808     ldrb    r0,[r1]                                 
08025CAC 3801     sub     r0,1h                                   
08025CAE 7008     strb    r0,[r1]                                 
08025CB0 0600     lsl     r0,r0,18h                               
08025CB2 0E00     lsr     r0,r0,18h                               
08025CB4 28FF     cmp     r0,0FFh                                 
08025CB6 D01E     beq     8025CF6h                                
08025CB8 8811     ldrh    r1,[r2]                                 
08025CBA 2040     mov     r0,40h                                  
08025CBC 4008     and     r0,r1                                   
08025CBE 2800     cmp     r0,0h                                   
08025CC0 D00E     beq     8025CE0h                                
08025CC2 8921     ldrh    r1,[r4,8h]                              
08025CC4 8910     ldrh    r0,[r2,8h]                              
08025CC6 4B05     ldr     r3,=0FFFFFEC0h                          
08025CC8 18C0     add     r0,r0,r3                                
08025CCA 4281     cmp     r1,r0                                   
08025CCC DB17     blt     8025CFEh                                
08025CCE 88D0     ldrh    r0,[r2,6h]                              
08025CD0 1A08     sub     r0,r1,r0                                
08025CD2 8120     strh    r0,[r4,8h]                              
08025CD4 E013     b       8025CFEh                                
08025CD6 0000     lsl     r0,r0,0h                                
08025CD8 0738     lsl     r0,r7,1Ch                               
08025CDA 0300     lsl     r0,r0,0Ch                               
08025CDC FEC0     bl      lr+0D80h                                
08025CDE FFFF     bl      lr+0FFEh                                
08025CE0 8921     ldrh    r1,[r4,8h]                              
08025CE2 8910     ldrh    r0,[r2,8h]                              
08025CE4 23B0     mov     r3,0B0h                                 
08025CE6 009B     lsl     r3,r3,2h                                
08025CE8 18C0     add     r0,r0,r3                                
08025CEA 4281     cmp     r1,r0                                   
08025CEC DC07     bgt     8025CFEh                                
08025CEE 88D0     ldrh    r0,[r2,6h]                              
08025CF0 1808     add     r0,r1,r0                                
08025CF2 8120     strh    r0,[r4,8h]                              
08025CF4 E003     b       8025CFEh                                
08025CF6 1C11     mov     r1,r2                                   
08025CF8 3124     add     r1,24h                                  
08025CFA 2024     mov     r0,24h                                  
08025CFC 7008     strb    r0,[r1]                                 
08025CFE BC10     pop     r4                                      
08025D00 BC01     pop     r0                                      
08025D02 4700     bx      r0                                      
08025D04 4904     ldr     r1,=82DB100h                            
08025D06 6001     str     r1,[r0]                                 
08025D08 2100     mov     r1,0h                                   
08025D0A 7301     strb    r1,[r0,0Ch]                             
08025D0C 8081     strh    r1,[r0,4h]                              
08025D0E 4803     ldr     r0,=3000738h                            
08025D10 3024     add     r0,24h                                  
08025D12 2125     mov     r1,25h                                  
08025D14 7001     strb    r1,[r0]                                 
08025D16 4770     bx      r14                                     
08025D18 B100     ????                                            
08025D1A 082D     lsr     r5,r5,20h                               
08025D1C 0738     lsl     r0,r7,1Ch                               
08025D1E 0300     lsl     r0,r0,0Ch                               
08025D20 B500     push    r14                                     
08025D22 F7FFFE7F bl      8025A24h                                
08025D26 4907     ldr     r1,=3000738h                            
08025D28 1C0A     mov     r2,r1                                   
08025D2A 322D     add     r2,2Dh                                  
08025D2C 7810     ldrb    r0,[r2]                                 
08025D2E 3801     sub     r0,1h                                   
08025D30 7010     strb    r0,[r2]                                 
08025D32 0600     lsl     r0,r0,18h                               
08025D34 0E00     lsr     r0,r0,18h                               
08025D36 28FF     cmp     r0,0FFh                                 
08025D38 D102     bne     8025D40h                                
08025D3A 3124     add     r1,24h                                  
08025D3C 2026     mov     r0,26h                                  
08025D3E 7008     strb    r0,[r1]                                 
08025D40 BC01     pop     r0                                      
08025D42 4700     bx      r0                                      
08025D44 0738     lsl     r0,r7,1Ch                               
08025D46 0300     lsl     r0,r0,0Ch                               
08025D48 B510     push    r4,r14                                  
08025D4A 490A     ldr     r1,=82DB1D0h                            
08025D4C 6001     str     r1,[r0]                                 
08025D4E 2100     mov     r1,0h                                   
08025D50 7301     strb    r1,[r0,0Ch]                             
08025D52 2400     mov     r4,0h                                   
08025D54 8081     strh    r1,[r0,4h]                              
08025D56 4A08     ldr     r2,=3000738h                            
08025D58 1C13     mov     r3,r2                                   
08025D5A 3324     add     r3,24h                                  
08025D5C 2127     mov     r1,27h                                  
08025D5E 7019     strb    r1,[r3]                                 
08025D60 322C     add     r2,2Ch                                  
08025D62 213C     mov     r1,3Ch                                  
08025D64 7011     strb    r1,[r2]                                 
08025D66 7344     strb    r4,[r0,0Dh]                             
08025D68 20AD     mov     r0,0ADh                                 
08025D6A F7DCFE55 bl      8002A18h                                
08025D6E BC10     pop     r4                                      
08025D70 BC01     pop     r0                                      
08025D72 4700     bx      r0                                      
08025D74 B1D0     ????                                            
08025D76 082D     lsr     r5,r5,20h                               
08025D78 0738     lsl     r0,r7,1Ch                               
08025D7A 0300     lsl     r0,r0,0Ch                               
08025D7C B510     push    r4,r14                                  
08025D7E 1C04     mov     r4,r0                                   
08025D80 F7FFFE50 bl      8025A24h                                
08025D84 1C20     mov     r0,r4                                   
08025D86 F7EAF811 bl      800FDACh                                
08025D8A 2800     cmp     r0,0h                                   
08025D8C D003     beq     8025D96h                                
08025D8E 4803     ldr     r0,=3000738h                            
08025D90 3024     add     r0,24h                                  
08025D92 2128     mov     r1,28h                                  
08025D94 7001     strb    r1,[r0]                                 
08025D96 BC10     pop     r4                                      
08025D98 BC01     pop     r0                                      
08025D9A 4700     bx      r0                                      
08025D9C 0738     lsl     r0,r7,1Ch                               
08025D9E 0300     lsl     r0,r0,0Ch                               
08025DA0 B500     push    r14                                     
08025DA2 4907     ldr     r1,=82DB0A0h                            
08025DA4 6001     str     r1,[r0]                                 
08025DA6 2100     mov     r1,0h                                   
08025DA8 7301     strb    r1,[r0,0Ch]                             
08025DAA 8081     strh    r1,[r0,4h]                              
08025DAC 4805     ldr     r0,=3000738h                            
08025DAE 3024     add     r0,24h                                  
08025DB0 2129     mov     r1,29h                                  
08025DB2 7001     strb    r1,[r0]                                 
08025DB4 20AE     mov     r0,0AEh                                 
08025DB6 F7DCFE2F bl      8002A18h                                
08025DBA BC01     pop     r0                                      
08025DBC 4700     bx      r0                                      
08025DBE 0000     lsl     r0,r0,0h                                
08025DC0 B0A0     add     sp,-80h                                 
08025DC2 082D     lsr     r5,r5,20h                               
08025DC4 0738     lsl     r0,r7,1Ch                               
08025DC6 0300     lsl     r0,r0,0Ch                               
08025DC8 B510     push    r4,r14                                  
08025DCA 1C04     mov     r4,r0                                   
08025DCC F7FFFE2A bl      8025A24h                                
08025DD0 4A0B     ldr     r2,=3000738h                            
08025DD2 8811     ldrh    r1,[r2]                                 
08025DD4 2040     mov     r0,40h                                  
08025DD6 4008     and     r0,r1                                   
08025DD8 2800     cmp     r0,0h                                   
08025DDA D013     beq     8025E04h                                
08025DDC 8920     ldrh    r0,[r4,8h]                              
08025DDE 3008     add     r0,8h                                   
08025DE0 8120     strh    r0,[r4,8h]                              
08025DE2 8911     ldrh    r1,[r2,8h]                              
08025DE4 0400     lsl     r0,r0,10h                               
08025DE6 0C00     lsr     r0,r0,10h                               
08025DE8 4288     cmp     r0,r1                                   
08025DEA D31C     bcc     8025E26h                                
08025DEC 8121     strh    r1,[r4,8h]                              
08025DEE 1C11     mov     r1,r2                                   
08025DF0 3124     add     r1,24h                                  
08025DF2 2008     mov     r0,8h                                   
08025DF4 7008     strb    r0,[r1]                                 
08025DF6 20AE     mov     r0,0AEh                                 
08025DF8 210A     mov     r1,0Ah                                  
08025DFA F7DCFF41 bl      8002C80h                                
08025DFE E012     b       8025E26h                                
08025E00 0738     lsl     r0,r7,1Ch                               
08025E02 0300     lsl     r0,r0,0Ch                               
08025E04 8920     ldrh    r0,[r4,8h]                              
08025E06 3808     sub     r0,8h                                   
08025E08 8120     strh    r0,[r4,8h]                              
08025E0A 8911     ldrh    r1,[r2,8h]                              
08025E0C 0400     lsl     r0,r0,10h                               
08025E0E 0C00     lsr     r0,r0,10h                               
08025E10 4288     cmp     r0,r1                                   
08025E12 D808     bhi     8025E26h                                
08025E14 8121     strh    r1,[r4,8h]                              
08025E16 1C11     mov     r1,r2                                   
08025E18 3124     add     r1,24h                                  
08025E1A 2008     mov     r0,8h                                   
08025E1C 7008     strb    r0,[r1]                                 
08025E1E 20AE     mov     r0,0AEh                                 
08025E20 210A     mov     r1,0Ah                                  
08025E22 F7DCFF2D bl      8002C80h                                
08025E26 BC10     pop     r4                                      
08025E28 BC01     pop     r0                                      
08025E2A 4700     bx      r0                                      
08025E2C B510     push    r4,r14                                  
08025E2E 490B     ldr     r1,=82DB220h                            
08025E30 6001     str     r1,[r0]                                 
08025E32 2100     mov     r1,0h                                   
08025E34 7301     strb    r1,[r0,0Ch]                             
08025E36 2400     mov     r4,0h                                   
08025E38 8081     strh    r1,[r0,4h]                              
08025E3A 4A09     ldr     r2,=3000738h                            
08025E3C 1C13     mov     r3,r2                                   
08025E3E 3324     add     r3,24h                                  
08025E40 2143     mov     r1,43h                                  
08025E42 7019     strb    r1,[r3]                                 
08025E44 322C     add     r2,2Ch                                  
08025E46 212F     mov     r1,2Fh                                  
08025E48 7011     strb    r1,[r2]                                 
08025E4A 7344     strb    r4,[r0,0Dh]                             
08025E4C 20AE     mov     r0,0AEh                                 
08025E4E 210A     mov     r1,0Ah                                  
08025E50 F7DCFF16 bl      8002C80h                                
08025E54 BC10     pop     r4                                      
08025E56 BC01     pop     r0                                      
08025E58 4700     bx      r0                                      
08025E5A 0000     lsl     r0,r0,0h                                
08025E5C B220     ????                                            
08025E5E 082D     lsr     r5,r5,20h                               
08025E60 0738     lsl     r0,r7,1Ch                               
08025E62 0300     lsl     r0,r0,0Ch                               
08025E64 B500     push    r14                                     
08025E66 4A07     ldr     r2,=3000738h                            
08025E68 1C11     mov     r1,r2                                   
08025E6A 312C     add     r1,2Ch                                  
08025E6C 7808     ldrb    r0,[r1]                                 
08025E6E 3801     sub     r0,1h                                   
08025E70 7008     strb    r0,[r1]                                 
08025E72 0600     lsl     r0,r0,18h                               
08025E74 2800     cmp     r0,0h                                   
08025E76 D102     bne     8025E7Eh                                
08025E78 3908     sub     r1,8h                                   
08025E7A 2028     mov     r0,28h                                  
08025E7C 7008     strb    r0,[r1]                                 
08025E7E BC01     pop     r0                                      
08025E80 4700     bx      r0                                      
08025E82 0000     lsl     r0,r0,0h                                
08025E84 0738     lsl     r0,r7,1Ch                               
08025E86 0300     lsl     r0,r0,0Ch                               
08025E88 B510     push    r4,r14                                  
08025E8A 4916     ldr     r1,=82DB188h                            
08025E8C 6001     str     r1,[r0]                                 
08025E8E 2100     mov     r1,0h                                   
08025E90 7301     strb    r1,[r0,0Ch]                             
08025E92 8081     strh    r1,[r0,4h]                              
08025E94 4C14     ldr     r4,=3000738h                            
08025E96 1C21     mov     r1,r4                                   
08025E98 3124     add     r1,24h                                  
08025E9A 2067     mov     r0,67h                                  
08025E9C 7008     strb    r0,[r1]                                 
08025E9E 3108     add     r1,8h                                   
08025EA0 2064     mov     r0,64h                                  
08025EA2 7008     strb    r0,[r1]                                 
08025EA4 1C22     mov     r2,r4                                   
08025EA6 322B     add     r2,2Bh                                  
08025EA8 7811     ldrb    r1,[r2]                                 
08025EAA 2080     mov     r0,80h                                  
08025EAC 4008     and     r0,r1                                   
08025EAE 2164     mov     r1,64h                                  
08025EB0 4308     orr     r0,r1                                   
08025EB2 7010     strb    r0,[r2]                                 
08025EB4 8821     ldrh    r1,[r4]                                 
08025EB6 2280     mov     r2,80h                                  
08025EB8 0212     lsl     r2,r2,8h                                
08025EBA 1C10     mov     r0,r2                                   
08025EBC 4308     orr     r0,r1                                   
08025EBE 8020     strh    r0,[r4]                                 
08025EC0 2001     mov     r0,1h                                   
08025EC2 82A0     strh    r0,[r4,14h]                             
08025EC4 20AE     mov     r0,0AEh                                 
08025EC6 210A     mov     r1,0Ah                                  
08025EC8 F7DCFEDA bl      8002C80h                                
08025ECC 20B0     mov     r0,0B0h                                 
08025ECE F7DCFDA3 bl      8002A18h                                
08025ED2 7F60     ldrb    r0,[r4,1Dh]                             
08025ED4 284D     cmp     r0,4Dh                                  
08025ED6 D102     bne     8025EDEh                                
08025ED8 200A     mov     r0,0Ah                                  
08025EDA F7DDFDDD bl      8003A98h                                
08025EDE BC10     pop     r4                                      
08025EE0 BC01     pop     r0                                      
08025EE2 4700     bx      r0                                      
08025EE4 B188     ????                                            
08025EE6 082D     lsr     r5,r5,20h                               
08025EE8 0738     lsl     r0,r7,1Ch                               
08025EEA 0300     lsl     r0,r0,0Ch                               
08025EEC B500     push    r14                                     
08025EEE 4908     ldr     r1,=3000738h                            
08025EF0 1C0A     mov     r2,r1                                   
08025EF2 322C     add     r2,2Ch                                  
08025EF4 7810     ldrb    r0,[r2]                                 
08025EF6 3801     sub     r0,1h                                   
08025EF8 7010     strb    r0,[r2]                                 
08025EFA 0600     lsl     r0,r0,18h                               
08025EFC 2800     cmp     r0,0h                                   
08025EFE D105     bne     8025F0Ch                                
08025F00 1C08     mov     r0,r1                                   
08025F02 3024     add     r0,24h                                  
08025F04 2168     mov     r1,68h                                  
08025F06 7001     strb    r1,[r0]                                 
08025F08 2002     mov     r0,2h                                   
08025F0A 7010     strb    r0,[r2]                                 
08025F0C BC01     pop     r0                                      
08025F0E 4700     bx      r0                                      
08025F10 0738     lsl     r0,r7,1Ch                               
08025F12 0300     lsl     r0,r0,0Ch                               
08025F14 B510     push    r4,r14                                  
08025F16 B081     add     sp,-4h                                  
08025F18 4C13     ldr     r4,=3000738h                            
08025F1A 1C21     mov     r1,r4                                   
08025F1C 312C     add     r1,2Ch                                  
08025F1E 7808     ldrb    r0,[r1]                                 
08025F20 3801     sub     r0,1h                                   
08025F22 7008     strb    r0,[r1]                                 
08025F24 0600     lsl     r0,r0,18h                               
08025F26 2800     cmp     r0,0h                                   
08025F28 D11A     bne     8025F60h                                
08025F2A 7F60     ldrb    r0,[r4,1Dh]                             
08025F2C 284D     cmp     r0,4Dh                                  
08025F2E D10C     bne     8025F4Ah                                
08025F30 2001     mov     r0,1h                                   
08025F32 2120     mov     r1,20h                                  
08025F34 F03AFCC2 bl      80608BCh                                
08025F38 490C     ldr     r1,=300007Bh                            
08025F3A 223C     mov     r2,3Ch                                  
08025F3C 4252     neg     r2,r2                                   
08025F3E 1C10     mov     r0,r2                                   
08025F40 7008     strb    r0,[r1]                                 
08025F42 200B     mov     r0,0Bh                                  
08025F44 2100     mov     r1,0h                                   
08025F46 F7DDFD55 bl      80039F4h                                
08025F4A 8861     ldrh    r1,[r4,2h]                              
08025F4C 3924     sub     r1,24h                                  
08025F4E 0409     lsl     r1,r1,10h                               
08025F50 0C09     lsr     r1,r1,10h                               
08025F52 88A2     ldrh    r2,[r4,4h]                              
08025F54 2022     mov     r0,22h                                  
08025F56 9000     str     r0,[sp]                                 
08025F58 2000     mov     r0,0h                                   
08025F5A 2300     mov     r3,0h                                   
08025F5C F7EBF892 bl      8011084h                                
08025F60 B001     add     sp,4h                                   


