

0808ACCC B530     push    r4,r5,r14                               
0808ACCE 1C0D     mov     r5,r1                                   
0808ACD0 1C04     mov     r4,r0                                   
0808ACD2 4B06     ldr     r3,=0h                                  
0808ACD4 4A04     ldr     r2,=41E00000h                           
0808ACD6 F000FEB9 bl      808BA4Ch                                
0808ACDA 2800     cmp     r0,0h                                   
0808ACDC DA08     bge     808ACF0h                                
0808ACDE 1C29     mov     r1,r5                                   
0808ACE0 1C20     mov     r0,r4                                   
0808ACE2 F000FF63 bl      808BBACh                                
0808ACE6 E00E     b       808AD06h                                
0808ACE8 0000     lsl     r0,r0,0h                                
0808ACEA 41E0     ror     r0,r4                                   
0808ACEC 0000     lsl     r0,r0,0h                                
0808ACEE 0000     lsl     r0,r0,0h                                
0808ACF0 4B06     ldr     r3,=0h                                  
0808ACF2 4A05     ldr     r2,=0C1E00000h                          
0808ACF4 1C29     mov     r1,r5                                   
0808ACF6 1C20     mov     r0,r4                                   
0808ACF8 F000FB54 bl      808B3A4h                                
0808ACFC F000FF56 bl      808BBACh                                
0808AD00 2180     mov     r1,80h                                  
0808AD02 0609     lsl     r1,r1,18h                               
0808AD04 1840     add     r0,r0,r1                                
0808AD06 BD30     pop     r4,r5,r15                               
0808AD08 0000     lsl     r0,r0,0h                                
0808AD0A C1E0     stmia   [r1]!,r5-r7                             
0808AD0C 0000     lsl     r0,r0,0h                                
0808AD0E 0000     lsl     r0,r0,0h                                
0808AD10 2301     mov     r3,1h                                   
0808AD12 2900     cmp     r1,0h                                   
0808AD14 D05E     beq     808ADD4h                                
0808AD16 D500     bpl     808AD1Ah                                
0808AD18 4249     neg     r1,r1                                   
0808AD1A B410     push    r4                                      
0808AD1C B401     push    r0                                      
0808AD1E 2800     cmp     r0,0h                                   
0808AD20 D500     bpl     808AD24h                                
0808AD22 4240     neg     r0,r0                                   
0808AD24 4288     cmp     r0,r1                                   
0808AD26 D34F     bcc     808ADC8h                                
0808AD28 2401     mov     r4,1h                                   
0808AD2A 0724     lsl     r4,r4,1Ch                               
0808AD2C 42A1     cmp     r1,r4                                   
0808AD2E D204     bcs     808AD3Ah                                
0808AD30 4281     cmp     r1,r0                                   
0808AD32 D202     bcs     808AD3Ah                                
0808AD34 0109     lsl     r1,r1,4h                                
0808AD36 011B     lsl     r3,r3,4h                                
0808AD38 E7F8     b       808AD2Ch                                
0808AD3A 00E4     lsl     r4,r4,3h                                
0808AD3C 42A1     cmp     r1,r4                                   
0808AD3E D204     bcs     808AD4Ah                                
0808AD40 4281     cmp     r1,r0                                   
0808AD42 D202     bcs     808AD4Ah                                
0808AD44 0049     lsl     r1,r1,1h                                
0808AD46 005B     lsl     r3,r3,1h                                
0808AD48 E7F8     b       808AD3Ch                                
0808AD4A 2200     mov     r2,0h                                   
0808AD4C 4288     cmp     r0,r1                                   
0808AD4E D300     bcc     808AD52h                                
0808AD50 1A40     sub     r0,r0,r1                                
0808AD52 084C     lsr     r4,r1,1h                                
0808AD54 42A0     cmp     r0,r4                                   
0808AD56 D305     bcc     808AD64h                                
0808AD58 1B00     sub     r0,r0,r4                                
0808AD5A 469C     mov     r12,r3                                  
0808AD5C 2401     mov     r4,1h                                   
0808AD5E 41E3     ror     r3,r4                                   
0808AD60 431A     orr     r2,r3                                   
0808AD62 4663     mov     r3,r12                                  
0808AD64 088C     lsr     r4,r1,2h                                
0808AD66 42A0     cmp     r0,r4                                   
0808AD68 D305     bcc     808AD76h                                
0808AD6A 1B00     sub     r0,r0,r4                                
0808AD6C 469C     mov     r12,r3                                  
0808AD6E 2402     mov     r4,2h                                   
0808AD70 41E3     ror     r3,r4                                   
0808AD72 431A     orr     r2,r3                                   
0808AD74 4663     mov     r3,r12                                  
0808AD76 08CC     lsr     r4,r1,3h                                
0808AD78 42A0     cmp     r0,r4                                   
0808AD7A D305     bcc     808AD88h                                
0808AD7C 1B00     sub     r0,r0,r4                                
0808AD7E 469C     mov     r12,r3                                  
0808AD80 2403     mov     r4,3h                                   
0808AD82 41E3     ror     r3,r4                                   
0808AD84 431A     orr     r2,r3                                   
0808AD86 4663     mov     r3,r12                                  
0808AD88 469C     mov     r12,r3                                  
0808AD8A 2800     cmp     r0,0h                                   
0808AD8C D003     beq     808AD96h                                
0808AD8E 091B     lsr     r3,r3,4h                                
0808AD90 D001     beq     808AD96h                                
0808AD92 0909     lsr     r1,r1,4h                                
0808AD94 E7D9     b       808AD4Ah                                
0808AD96 240E     mov     r4,0Eh                                  
0808AD98 0724     lsl     r4,r4,1Ch                               
0808AD9A 4022     and     r2,r4                                   
0808AD9C D014     beq     808ADC8h                                
0808AD9E 4663     mov     r3,r12                                  
0808ADA0 2403     mov     r4,3h                                   
0808ADA2 41E3     ror     r3,r4                                   
0808ADA4 421A     tst     r2,r3                                   
0808ADA6 D001     beq     808ADACh                                
0808ADA8 08CC     lsr     r4,r1,3h                                
0808ADAA 1900     add     r0,r0,r4                                
0808ADAC 4663     mov     r3,r12                                  
0808ADAE 2402     mov     r4,2h                                   
0808ADB0 41E3     ror     r3,r4                                   
0808ADB2 421A     tst     r2,r3                                   
0808ADB4 D001     beq     808ADBAh                                
0808ADB6 088C     lsr     r4,r1,2h                                
0808ADB8 1900     add     r0,r0,r4                                
0808ADBA 4663     mov     r3,r12                                  
0808ADBC 2401     mov     r4,1h                                   
0808ADBE 41E3     ror     r3,r4                                   
0808ADC0 421A     tst     r2,r3                                   
0808ADC2 D001     beq     808ADC8h                                
0808ADC4 084C     lsr     r4,r1,1h                                
0808ADC6 1900     add     r0,r0,r4                                
0808ADC8 BC10     pop     r4                                      
0808ADCA 2C00     cmp     r4,0h                                   
0808ADCC D500     bpl     808ADD0h                                
0808ADCE 4240     neg     r0,r0                                   
0808ADD0 BC10     pop     r4                                      
0808ADD2 46F7     mov     r15,r14                                 
0808ADD4 B500     push    r14                                     
0808ADD6 F7FFFF77 bl      808ACC8h                                
0808ADDA 2000     mov     r0,0h                                   
0808ADDC BD00     pop     r15                                     
0808ADDE 0000     lsl     r0,r0,0h                                
0808ADE0 2900     cmp     r1,0h                                   
0808ADE2 D034     beq     808AE4Eh                                
0808ADE4 2301     mov     r3,1h                                   
0808ADE6 2200     mov     r2,0h                                   
0808ADE8 B410     push    r4                                      
0808ADEA 4288     cmp     r0,r1                                   
0808ADEC D32C     bcc     808AE48h                                
0808ADEE 2401     mov     r4,1h                                   
0808ADF0 0724     lsl     r4,r4,1Ch                               
0808ADF2 42A1     cmp     r1,r4                                   
0808ADF4 D204     bcs     808AE00h                                
0808ADF6 4281     cmp     r1,r0                                   
0808ADF8 D202     bcs     808AE00h                                
0808ADFA 0109     lsl     r1,r1,4h                                
0808ADFC 011B     lsl     r3,r3,4h                                
0808ADFE E7F8     b       808ADF2h                                
0808AE00 00E4     lsl     r4,r4,3h                                
0808AE02 42A1     cmp     r1,r4                                   
0808AE04 D204     bcs     808AE10h                                
0808AE06 4281     cmp     r1,r0                                   
0808AE08 D202     bcs     808AE10h                                
0808AE0A 0049     lsl     r1,r1,1h                                
0808AE0C 005B     lsl     r3,r3,1h                                
0808AE0E E7F8     b       808AE02h                                
0808AE10 4288     cmp     r0,r1                                   
0808AE12 D301     bcc     808AE18h                                
0808AE14 1A40     sub     r0,r0,r1                                
0808AE16 431A     orr     r2,r3                                   
0808AE18 084C     lsr     r4,r1,1h                                
0808AE1A 42A0     cmp     r0,r4                                   
0808AE1C D302     bcc     808AE24h                                
0808AE1E 1B00     sub     r0,r0,r4                                
0808AE20 085C     lsr     r4,r3,1h                                
0808AE22 4322     orr     r2,r4                                   
0808AE24 088C     lsr     r4,r1,2h                                
0808AE26 42A0     cmp     r0,r4                                   
0808AE28 D302     bcc     808AE30h                                
0808AE2A 1B00     sub     r0,r0,r4                                
0808AE2C 089C     lsr     r4,r3,2h                                
0808AE2E 4322     orr     r2,r4                                   
0808AE30 08CC     lsr     r4,r1,3h                                
0808AE32 42A0     cmp     r0,r4                                   
0808AE34 D302     bcc     808AE3Ch                                
0808AE36 1B00     sub     r0,r0,r4                                
0808AE38 08DC     lsr     r4,r3,3h                                
0808AE3A 4322     orr     r2,r4                                   
0808AE3C 2800     cmp     r0,0h                                   
0808AE3E D003     beq     808AE48h                                
0808AE40 091B     lsr     r3,r3,4h                                
0808AE42 D001     beq     808AE48h                                
0808AE44 0909     lsr     r1,r1,4h                                
0808AE46 E7E3     b       808AE10h                                
0808AE48 1C10     mov     r0,r2                                   
0808AE4A BC10     pop     r4                                      
0808AE4C 46F7     mov     r15,r14                                 
0808AE4E B500     push    r14                                     
0808AE50 F7FFFF3A bl      808ACC8h                                
0808AE54 2000     mov     r0,0h                                   
0808AE56 BD00     pop     r15                                     
0808AE58 2900     cmp     r1,0h                                   
0808AE5A D058     beq     808AF0Eh                                
0808AE5C 2301     mov     r3,1h                                   
0808AE5E 4288     cmp     r0,r1                                   
0808AE60 D200     bcs     808AE64h                                
0808AE62 46F7     mov     r15,r14                                 
0808AE64 B410     push    r4                                      
0808AE66 2401     mov     r4,1h                                   
0808AE68 0724     lsl     r4,r4,1Ch                               
0808AE6A 42A1     cmp     r1,r4                                   
0808AE6C D204     bcs     808AE78h                                
0808AE6E 4281     cmp     r1,r0                                   
0808AE70 D202     bcs     808AE78h                                
0808AE72 0109     lsl     r1,r1,4h                                
0808AE74 011B     lsl     r3,r3,4h                                
0808AE76 E7F8     b       808AE6Ah                                
0808AE78 00E4     lsl     r4,r4,3h                                
0808AE7A 42A1     cmp     r1,r4                                   
0808AE7C D204     bcs     808AE88h                                
0808AE7E 4281     cmp     r1,r0                                   
0808AE80 D202     bcs     808AE88h                                
0808AE82 0049     lsl     r1,r1,1h                                
0808AE84 005B     lsl     r3,r3,1h                                
0808AE86 E7F8     b       808AE7Ah                                
0808AE88 2200     mov     r2,0h                                   
0808AE8A 4288     cmp     r0,r1                                   
0808AE8C D300     bcc     808AE90h                                
0808AE8E 1A40     sub     r0,r0,r1                                
0808AE90 084C     lsr     r4,r1,1h                                
0808AE92 42A0     cmp     r0,r4                                   
0808AE94 D305     bcc     808AEA2h                                
0808AE96 1B00     sub     r0,r0,r4                                
0808AE98 469C     mov     r12,r3                                  
0808AE9A 2401     mov     r4,1h                                   
0808AE9C 41E3     ror     r3,r4                                   
0808AE9E 431A     orr     r2,r3                                   
0808AEA0 4663     mov     r3,r12                                  
0808AEA2 088C     lsr     r4,r1,2h                                
0808AEA4 42A0     cmp     r0,r4                                   
0808AEA6 D305     bcc     808AEB4h                                
0808AEA8 1B00     sub     r0,r0,r4                                
0808AEAA 469C     mov     r12,r3                                  
0808AEAC 2402     mov     r4,2h                                   
0808AEAE 41E3     ror     r3,r4                                   
0808AEB0 431A     orr     r2,r3                                   
0808AEB2 4663     mov     r3,r12                                  
0808AEB4 08CC     lsr     r4,r1,3h                                
0808AEB6 42A0     cmp     r0,r4                                   
0808AEB8 D305     bcc     808AEC6h                                
0808AEBA 1B00     sub     r0,r0,r4                                
0808AEBC 469C     mov     r12,r3                                  
0808AEBE 2403     mov     r4,3h                                   
0808AEC0 41E3     ror     r3,r4                                   
0808AEC2 431A     orr     r2,r3                                   
0808AEC4 4663     mov     r3,r12                                  
0808AEC6 469C     mov     r12,r3                                  
0808AEC8 2800     cmp     r0,0h                                   
0808AECA D003     beq     808AED4h                                
0808AECC 091B     lsr     r3,r3,4h                                
0808AECE D001     beq     808AED4h                                
0808AED0 0909     lsr     r1,r1,4h                                
0808AED2 E7D9     b       808AE88h                                
0808AED4 240E     mov     r4,0Eh                                  
0808AED6 0724     lsl     r4,r4,1Ch                               
0808AED8 4022     and     r2,r4                                   
0808AEDA D101     bne     808AEE0h                                
0808AEDC BC10     pop     r4                                      
0808AEDE 46F7     mov     r15,r14                                 
0808AEE0 4663     mov     r3,r12                                  
0808AEE2 2403     mov     r4,3h                                   
0808AEE4 41E3     ror     r3,r4                                   
0808AEE6 421A     tst     r2,r3                                   
0808AEE8 D001     beq     808AEEEh                                
0808AEEA 08CC     lsr     r4,r1,3h                                
0808AEEC 1900     add     r0,r0,r4                                
0808AEEE 4663     mov     r3,r12                                  
0808AEF0 2402     mov     r4,2h                                   
0808AEF2 41E3     ror     r3,r4                                   
0808AEF4 421A     tst     r2,r3                                   
0808AEF6 D001     beq     808AEFCh                                
0808AEF8 088C     lsr     r4,r1,2h                                
0808AEFA 1900     add     r0,r0,r4                                
0808AEFC 4663     mov     r3,r12                                  
0808AEFE 2401     mov     r4,1h                                   
0808AF00 41E3     ror     r3,r4                                   
0808AF02 421A     tst     r2,r3                                   
0808AF04 D001     beq     808AF0Ah                                
0808AF06 084C     lsr     r4,r1,1h                                
0808AF08 1900     add     r0,r0,r4                                
0808AF0A BC10     pop     r4                                      
0808AF0C 46F7     mov     r15,r14                                 
0808AF0E B500     push    r14                                     
0808AF10 F7FFFEDA bl      808ACC8h                                
0808AF14 2000     mov     r0,0h                                   
0808AF16 BD00     pop     r15                                     
0808AF18 B5F0     push    r4-r7,r14                               
0808AF1A B082     add     sp,-8h                                  
0808AF1C 1C01     mov     r1,r0                                   
0808AF1E 68CC     ldr     r4,[r1,0Ch]                             
0808AF20 690D     ldr     r5,[r1,10h]                             
0808AF22 684F     ldr     r7,[r1,4h]                              
0808AF24 2600     mov     r6,0h                                   
0808AF26 2200     mov     r2,0h                                   
0808AF28 6808     ldr     r0,[r1]                                 
0808AF2A 2801     cmp     r0,1h                                   
0808AF2C D800     bhi     808AF30h                                
0808AF2E 2201     mov     r2,1h                                   
0808AF30 2A00     cmp     r2,0h                                   
0808AF32 D00D     beq     808AF50h                                
0808AF34 4E03     ldr     r6,=7FFh                                
0808AF36 4A04     ldr     r2,=0h                                  
0808AF38 4B04     ldr     r3,=80000h                              
0808AF3A 1C20     mov     r0,r4                                   
0808AF3C 1C29     mov     r1,r5                                   
0808AF3E 4319     orr     r1,r3                                   
0808AF40 E062     b       808B008h                                
0808AF42 0000     lsl     r0,r0,0h                                
0808AF44 07FF     lsl     r7,r7,1Fh                               
0808AF46 0000     lsl     r0,r0,0h                                
0808AF48 0000     lsl     r0,r0,0h                                
0808AF4A 0000     lsl     r0,r0,0h                                
0808AF4C 0000     lsl     r0,r0,0h                                
0808AF4E 0008     lsl     r0,r1,0h                                
0808AF50 2200     mov     r2,0h                                   
0808AF52 2804     cmp     r0,4h                                   
0808AF54 D100     bne     808AF58h                                
0808AF56 2201     mov     r2,1h                                   
0808AF58 2A00     cmp     r2,0h                                   
0808AF5A D123     bne     808AFA4h                                
0808AF5C 2200     mov     r2,0h                                   
0808AF5E 2802     cmp     r0,2h                                   
0808AF60 D100     bne     808AF64h                                
0808AF62 2201     mov     r2,1h                                   
0808AF64 2A00     cmp     r2,0h                                   
0808AF66 D002     beq     808AF6Eh                                
0808AF68 2400     mov     r4,0h                                   
0808AF6A 2500     mov     r5,0h                                   
0808AF6C E04E     b       808B00Ch                                
0808AF6E 1C28     mov     r0,r5                                   
0808AF70 4320     orr     r0,r4                                   
0808AF72 2800     cmp     r0,0h                                   
0808AF74 D04A     beq     808B00Ch                                
0808AF76 688A     ldr     r2,[r1,8h]                              
0808AF78 4804     ldr     r0,=0FFFFFC02h                          
0808AF7A 4282     cmp     r2,r0                                   
0808AF7C DA0F     bge     808AF9Eh                                
0808AF7E 1A82     sub     r2,r0,r2                                
0808AF80 2A38     cmp     r2,38h                                  
0808AF82 DD05     ble     808AF90h                                
0808AF84 2400     mov     r4,0h                                   
0808AF86 2500     mov     r5,0h                                   
0808AF88 E039     b       808AFFEh                                
0808AF8A 0000     lsl     r0,r0,0h                                
0808AF8C FC02     bl      lr+804h                                 
0808AF8E FFFF     bl      lr+0FFEh                                
0808AF90 1C29     mov     r1,r5                                   
0808AF92 1C20     mov     r0,r4                                   
0808AF94 F001FB34 bl      808C600h                                
0808AF98 1C0D     mov     r5,r1                                   
0808AF9A 1C04     mov     r4,r0                                   
0808AF9C E02F     b       808AFFEh                                
0808AF9E 4803     ldr     r0,=3FFh                                
0808AFA0 4282     cmp     r2,r0                                   
0808AFA2 DD07     ble     808AFB4h                                
0808AFA4 4E02     ldr     r6,=7FFh                                
0808AFA6 2400     mov     r4,0h                                   
0808AFA8 2500     mov     r5,0h                                   
0808AFAA E02F     b       808B00Ch                                
0808AFAC 03FF     lsl     r7,r7,0Fh                               
0808AFAE 0000     lsl     r0,r0,0h                                
0808AFB0 07FF     lsl     r7,r7,1Fh                               
0808AFB2 0000     lsl     r0,r0,0h                                
0808AFB4 4809     ldr     r0,=3FFh                                
0808AFB6 1816     add     r6,r2,r0                                
0808AFB8 20FF     mov     r0,0FFh                                 
0808AFBA 1C21     mov     r1,r4                                   
0808AFBC 4001     and     r1,r0                                   
0808AFBE 2200     mov     r2,0h                                   
0808AFC0 2980     cmp     r1,80h                                  
0808AFC2 D10D     bne     808AFE0h                                
0808AFC4 2A00     cmp     r2,0h                                   
0808AFC6 D10B     bne     808AFE0h                                
0808AFC8 3001     add     r0,1h                                   
0808AFCA 1C21     mov     r1,r4                                   
0808AFCC 4001     and     r1,r0                                   
0808AFCE 1C10     mov     r0,r2                                   
0808AFD0 4308     orr     r0,r1                                   
0808AFD2 2800     cmp     r0,0h                                   
0808AFD4 D008     beq     808AFE8h                                
0808AFD6 2080     mov     r0,80h                                  
0808AFD8 2100     mov     r1,0h                                   
0808AFDA E003     b       808AFE4h                                
0808AFDC 03FF     lsl     r7,r7,0Fh                               
0808AFDE 0000     lsl     r0,r0,0h                                
0808AFE0 207F     mov     r0,7Fh                                  
0808AFE2 2100     mov     r1,0h                                   
0808AFE4 1824     add     r4,r4,r0                                
0808AFE6 414D     adc     r5,r1                                   
0808AFE8 4818     ldr     r0,=1FFFFFFFh                           
0808AFEA 4285     cmp     r5,r0                                   
0808AFEC D907     bls     808AFFEh                                
0808AFEE 07EB     lsl     r3,r5,1Fh                               
0808AFF0 0862     lsr     r2,r4,1h                                
0808AFF2 1C18     mov     r0,r3                                   
0808AFF4 4310     orr     r0,r2                                   
0808AFF6 0869     lsr     r1,r5,1h                                
0808AFF8 1C0D     mov     r5,r1                                   
0808AFFA 1C04     mov     r4,r0                                   
0808AFFC 3601     add     r6,1h                                   
0808AFFE 062B     lsl     r3,r5,18h                               
0808B000 0A22     lsr     r2,r4,8h                                
0808B002 1C18     mov     r0,r3                                   
0808B004 4310     orr     r0,r2                                   
0808B006 0A29     lsr     r1,r5,8h                                
0808B008 1C0D     mov     r5,r1                                   
0808B00A 1C04     mov     r4,r0                                   
0808B00C 9400     str     r4,[sp]                                 
0808B00E 4A10     ldr     r2,=0FFFFFh                             
0808B010 402A     and     r2,r5                                   
0808B012 9801     ldr     r0,[sp,4h]                              
0808B014 490F     ldr     r1,=0FFF00000h                          
0808B016 4008     and     r0,r1                                   
0808B018 4310     orr     r0,r2                                   
0808B01A 9001     str     r0,[sp,4h]                              
0808B01C 466A     mov     r2,r13                                  
0808B01E 490E     ldr     r1,=7FFh                                
0808B020 1C08     mov     r0,r1                                   
0808B022 4006     and     r6,r0                                   
0808B024 0131     lsl     r1,r6,4h                                
0808B026 480D     ldr     r0,=0FFFF800Fh                          
0808B028 88D3     ldrh    r3,[r2,6h]                              
0808B02A 4018     and     r0,r3                                   
0808B02C 4308     orr     r0,r1                                   
0808B02E 80D0     strh    r0,[r2,6h]                              
0808B030 01F9     lsl     r1,r7,7h                                
0808B032 207F     mov     r0,7Fh                                  
0808B034 79D3     ldrb    r3,[r2,7h]                              
0808B036 4018     and     r0,r3                                   
0808B038 4308     orr     r0,r1                                   
0808B03A 71D0     strb    r0,[r2,7h]                              
0808B03C 9900     ldr     r1,[sp]                                 
0808B03E 9801     ldr     r0,[sp,4h]                              
0808B040 9000     str     r0,[sp]                                 
0808B042 9101     str     r1,[sp,4h]                              
0808B044 9800     ldr     r0,[sp]                                 
0808B046 9901     ldr     r1,[sp,4h]                              
0808B048 B002     add     sp,8h                                   
0808B04A BDF0     pop     r4-r7,r15                               
0808B04C FFFF     bl      lr+0FFEh                                
0808B04E 1FFF     sub     r7,r7,7                                 
0808B050 FFFF     bl      lr+0FFEh                                
0808B052 000F     lsl     r7,r1,0h                                
0808B054 0000     lsl     r0,r0,0h                                
0808B056 FFF0     bl      lr+0FE0h                                
0808B058 07FF     lsl     r7,r7,1Fh                               
0808B05A 0000     lsl     r0,r0,0h                                
0808B05C 800F     strh    r7,[r1]                                 
0808B05E FFFF     bl      lr+0FFEh                                
0808B060 B5F0     push    r4-r7,r14                               
0808B062 B082     add     sp,-8h                                  
0808B064 1C02     mov     r2,r0                                   
0808B066 1C0E     mov     r6,r1                                   
0808B068 6851     ldr     r1,[r2,4h]                              
0808B06A 9100     str     r1,[sp]                                 
0808B06C 6810     ldr     r0,[r2]                                 
0808B06E 9001     str     r0,[sp,4h]                              
0808B070 466A     mov     r2,r13                                  
0808B072 1C0C     mov     r4,r1                                   
0808B074 0300     lsl     r0,r0,0Ch                               
0808B076 0B05     lsr     r5,r0,0Ch                               
0808B078 88D3     ldrh    r3,[r2,6h]                              
0808B07A 0458     lsl     r0,r3,11h                               
0808B07C 0D43     lsr     r3,r0,15h                               
0808B07E 79D2     ldrb    r2,[r2,7h]                              
0808B080 09D0     lsr     r0,r2,7h                                
0808B082 6070     str     r0,[r6,4h]                              
0808B084 2B00     cmp     r3,0h                                   
0808B086 D125     bne     808B0D4h                                
0808B088 4329     orr     r1,r5                                   
0808B08A 2900     cmp     r1,0h                                   
0808B08C D102     bne     808B094h                                
0808B08E 2002     mov     r0,2h                                   
0808B090 6030     str     r0,[r6]                                 
0808B092 E049     b       808B128h                                
0808B094 480D     ldr     r0,=0FFFFFC02h                          
0808B096 60B0     str     r0,[r6,8h]                              
0808B098 0E23     lsr     r3,r4,18h                               
0808B09A 022A     lsl     r2,r5,8h                                
0808B09C 1C19     mov     r1,r3                                   
0808B09E 4311     orr     r1,r2                                   
0808B0A0 0220     lsl     r0,r4,8h                                
0808B0A2 1C0D     mov     r5,r1                                   
0808B0A4 1C04     mov     r4,r0                                   
0808B0A6 2003     mov     r0,3h                                   
0808B0A8 6030     str     r0,[r6]                                 
0808B0AA 4809     ldr     r0,=0FFFFFFFh                           
0808B0AC 4285     cmp     r5,r0                                   
0808B0AE D829     bhi     808B104h                                
0808B0B0 1C07     mov     r7,r0                                   
0808B0B2 0FE3     lsr     r3,r4,1Fh                               
0808B0B4 006A     lsl     r2,r5,1h                                
0808B0B6 1C19     mov     r1,r3                                   
0808B0B8 4311     orr     r1,r2                                   
0808B0BA 0060     lsl     r0,r4,1h                                
0808B0BC 1C0D     mov     r5,r1                                   
0808B0BE 1C04     mov     r4,r0                                   
0808B0C0 68B0     ldr     r0,[r6,8h]                              
0808B0C2 3801     sub     r0,1h                                   
0808B0C4 60B0     str     r0,[r6,8h]                              
0808B0C6 42BD     cmp     r5,r7                                   
0808B0C8 D9F3     bls     808B0B2h                                
0808B0CA E01B     b       808B104h                                
0808B0CC FC02     bl      lr+804h                                 
0808B0CE FFFF     bl      lr+0FFEh                                
0808B0D0 FFFF     bl      lr+0FFEh                                
0808B0D2 0FFF     lsr     r7,r7,1Fh                               
0808B0D4 4804     ldr     r0,=7FFh                                
0808B0D6 4283     cmp     r3,r0                                   
0808B0D8 D117     bne     808B10Ah                                
0808B0DA 4329     orr     r1,r5                                   
0808B0DC 2900     cmp     r1,0h                                   
0808B0DE D105     bne     808B0ECh                                
0808B0E0 2004     mov     r0,4h                                   
0808B0E2 6030     str     r0,[r6]                                 
0808B0E4 E020     b       808B128h                                
0808B0E6 0000     lsl     r0,r0,0h                                
0808B0E8 07FF     lsl     r7,r7,1Fh                               
0808B0EA 0000     lsl     r0,r0,0h                                
0808B0EC 2280     mov     r2,80h                                  
0808B0EE 0312     lsl     r2,r2,0Ch                               
0808B0F0 2000     mov     r0,0h                                   
0808B0F2 1C29     mov     r1,r5                                   
0808B0F4 4011     and     r1,r2                                   
0808B0F6 4301     orr     r1,r0                                   
0808B0F8 2900     cmp     r1,0h                                   
0808B0FA D002     beq     808B102h                                
0808B0FC 2001     mov     r0,1h                                   
0808B0FE 6030     str     r0,[r6]                                 
0808B100 E000     b       808B104h                                
0808B102 6031     str     r1,[r6]                                 
0808B104 60F4     str     r4,[r6,0Ch]                             
0808B106 6135     str     r5,[r6,10h]                             
0808B108 E00E     b       808B128h                                
0808B10A 4908     ldr     r1,=0FFFFFC01h                          
0808B10C 1858     add     r0,r3,r1                                
0808B10E 60B0     str     r0,[r6,8h]                              
0808B110 2003     mov     r0,3h                                   
0808B112 6030     str     r0,[r6]                                 
0808B114 0E23     lsr     r3,r4,18h                               
0808B116 022A     lsl     r2,r5,8h                                
0808B118 1C19     mov     r1,r3                                   
0808B11A 4311     orr     r1,r2                                   
0808B11C 0220     lsl     r0,r4,8h                                
0808B11E 4A04     ldr     r2,=0h                                  
0808B120 4B04     ldr     r3,=10000000h                           
0808B122 4319     orr     r1,r3                                   
0808B124 60F0     str     r0,[r6,0Ch]                             
0808B126 6131     str     r1,[r6,10h]                             
0808B128 B002     add     sp,8h                                   
0808B12A BDF0     pop     r4-r7,r15                               
0808B12C FC01     bl      lr+802h                                 
0808B12E FFFF     bl      lr+0FFEh                                
0808B130 0000     lsl     r0,r0,0h                                
0808B132 0000     lsl     r0,r0,0h                                
0808B134 0000     lsl     r0,r0,0h                                
0808B136 1000     asr     r0,r0,20h                               
0808B138 B5F0     push    r4-r7,r14                               
0808B13A 4657     mov     r7,r10                                  
0808B13C 464E     mov     r6,r9                                   
0808B13E 4645     mov     r5,r8                                   
0808B140 B4E0     push    r5-r7                                   
0808B142 B083     add     sp,-0Ch                                 
0808B144 1C03     mov     r3,r0                                   
0808B146 1C0C     mov     r4,r1                                   
0808B148 4692     mov     r10,r2                                  
0808B14A 2000     mov     r0,0h                                   
0808B14C 681A     ldr     r2,[r3]                                 
0808B14E 2A01     cmp     r2,1h                                   
0808B150 D800     bhi     808B154h                                
0808B152 2001     mov     r0,1h                                   
0808B154 2800     cmp     r0,0h                                   
0808B156 D001     beq     808B15Ch                                
0808B158 1C18     mov     r0,r3                                   
0808B15A E11B     b       808B394h                                
0808B15C 2100     mov     r1,0h                                   
0808B15E 6820     ldr     r0,[r4]                                 
0808B160 2801     cmp     r0,1h                                   
0808B162 D800     bhi     808B166h                                
0808B164 2101     mov     r1,1h                                   
0808B166 2900     cmp     r1,0h                                   
0808B168 D139     bne     808B1DEh                                
0808B16A 2100     mov     r1,0h                                   
0808B16C 2A04     cmp     r2,4h                                   
0808B16E D100     bne     808B172h                                
0808B170 2101     mov     r1,1h                                   
0808B172 2900     cmp     r1,0h                                   
0808B174 D00E     beq     808B194h                                
0808B176 2100     mov     r1,0h                                   
0808B178 2804     cmp     r0,4h                                   
0808B17A D100     bne     808B17Eh                                
0808B17C 2101     mov     r1,1h                                   
0808B17E 2900     cmp     r1,0h                                   
0808B180 D0EA     beq     808B158h                                
0808B182 6859     ldr     r1,[r3,4h]                              
0808B184 6860     ldr     r0,[r4,4h]                              
0808B186 4281     cmp     r1,r0                                   
0808B188 D0E6     beq     808B158h                                
0808B18A 4801     ldr     r0,=30058E0h                            
0808B18C E102     b       808B394h                                
0808B18E 0000     lsl     r0,r0,0h                                
0808B190 58E0     ldr     r0,[r4,r3]                              
0808B192 0300     lsl     r0,r0,0Ch                               
0808B194 2100     mov     r1,0h                                   
0808B196 2804     cmp     r0,4h                                   
0808B198 D100     bne     808B19Ch                                
0808B19A 2101     mov     r1,1h                                   
0808B19C 2900     cmp     r1,0h                                   
0808B19E D11E     bne     808B1DEh                                
0808B1A0 2100     mov     r1,0h                                   
0808B1A2 2802     cmp     r0,2h                                   
0808B1A4 D100     bne     808B1A8h                                
0808B1A6 2101     mov     r1,1h                                   
0808B1A8 2900     cmp     r1,0h                                   
0808B1AA D011     beq     808B1D0h                                
0808B1AC 2000     mov     r0,0h                                   
0808B1AE 2A02     cmp     r2,2h                                   
0808B1B0 D100     bne     808B1B4h                                
0808B1B2 2001     mov     r0,1h                                   
0808B1B4 2800     cmp     r0,0h                                   
0808B1B6 D0CF     beq     808B158h                                
0808B1B8 4651     mov     r1,r10                                  
0808B1BA 1C18     mov     r0,r3                                   
0808B1BC C864     ldmia   [r0]!,r2,r5,r6                          
0808B1BE C164     stmia   [r1]!,r2,r5,r6                          
0808B1C0 C824     ldmia   [r0]!,r2,r5                             
0808B1C2 C124     stmia   [r1]!,r2,r5                             
0808B1C4 6858     ldr     r0,[r3,4h]                              
0808B1C6 6861     ldr     r1,[r4,4h]                              
0808B1C8 4008     and     r0,r1                                   
0808B1CA 4656     mov     r6,r10                                  
0808B1CC 6070     str     r0,[r6,4h]                              
0808B1CE E0E0     b       808B392h                                
0808B1D0 2100     mov     r1,0h                                   
0808B1D2 6818     ldr     r0,[r3]                                 
0808B1D4 2802     cmp     r0,2h                                   
0808B1D6 D100     bne     808B1DAh                                
0808B1D8 2101     mov     r1,1h                                   
0808B1DA 2900     cmp     r1,0h                                   
0808B1DC D001     beq     808B1E2h                                
0808B1DE 1C20     mov     r0,r4                                   
0808B1E0 E0D8     b       808B394h                                
0808B1E2 6898     ldr     r0,[r3,8h]                              
0808B1E4 4681     mov     r9,r0                                   
0808B1E6 68A1     ldr     r1,[r4,8h]                              
0808B1E8 4688     mov     r8,r1                                   
0808B1EA 68DE     ldr     r6,[r3,0Ch]                             
0808B1EC 691F     ldr     r7,[r3,10h]                             
0808B1EE 68E0     ldr     r0,[r4,0Ch]                             
0808B1F0 6921     ldr     r1,[r4,10h]                             
0808B1F2 9000     str     r0,[sp]                                 
0808B1F4 9101     str     r1,[sp,4h]                              
0808B1F6 4649     mov     r1,r9                                   
0808B1F8 4642     mov     r2,r8                                   
0808B1FA 1A88     sub     r0,r1,r2                                
0808B1FC 2800     cmp     r0,0h                                   
0808B1FE DA00     bge     808B202h                                
0808B200 4240     neg     r0,r0                                   
0808B202 283F     cmp     r0,3Fh                                  
0808B204 DC3C     bgt     808B280h                                
0808B206 685B     ldr     r3,[r3,4h]                              
0808B208 469C     mov     r12,r3                                  
0808B20A 6864     ldr     r4,[r4,4h]                              
0808B20C 9402     str     r4,[sp,8h]                              
0808B20E 45C1     cmp     r9,r8                                   
0808B210 DD1C     ble     808B24Ch                                
0808B212 464B     mov     r3,r9                                   
0808B214 4644     mov     r4,r8                                   
0808B216 1B1B     sub     r3,r3,r4                                
0808B218 4698     mov     r8,r3                                   
0808B21A 2501     mov     r5,1h                                   
0808B21C 426D     neg     r5,r5                                   
0808B21E 44A8     add     r8,r5                                   
0808B220 9A00     ldr     r2,[sp]                                 
0808B222 2001     mov     r0,1h                                   
0808B224 4002     and     r2,r0                                   
0808B226 2300     mov     r3,0h                                   
0808B228 9901     ldr     r1,[sp,4h]                              
0808B22A 07CD     lsl     r5,r1,1Fh                               
0808B22C 9800     ldr     r0,[sp]                                 
0808B22E 0844     lsr     r4,r0,1h                                
0808B230 1C28     mov     r0,r5                                   
0808B232 4320     orr     r0,r4                                   
0808B234 1C0C     mov     r4,r1                                   
0808B236 0861     lsr     r1,r4,1h                                
0808B238 1C15     mov     r5,r2                                   
0808B23A 4305     orr     r5,r0                                   
0808B23C 9500     str     r5,[sp]                                 
0808B23E 1C1C     mov     r4,r3                                   
0808B240 430C     orr     r4,r1                                   
0808B242 9401     str     r4,[sp,4h]                              
0808B244 4645     mov     r5,r8                                   
0808B246 2D00     cmp     r5,0h                                   
0808B248 D1E7     bne     808B21Ah                                
0808B24A 46C8     mov     r8,r9                                   
0808B24C 45C8     cmp     r8,r9                                   
0808B24E DD25     ble     808B29Ch                                
0808B250 4640     mov     r0,r8                                   
0808B252 4649     mov     r1,r9                                   
0808B254 1A40     sub     r0,r0,r1                                
0808B256 4681     mov     r9,r0                                   
0808B258 2201     mov     r2,1h                                   
0808B25A 4252     neg     r2,r2                                   
0808B25C 4491     add     r9,r2                                   
0808B25E 2201     mov     r2,1h                                   
0808B260 4032     and     r2,r6                                   
0808B262 2300     mov     r3,0h                                   
0808B264 07FD     lsl     r5,r7,1Fh                               
0808B266 0874     lsr     r4,r6,1h                                
0808B268 1C28     mov     r0,r5                                   
0808B26A 4320     orr     r0,r4                                   
0808B26C 0879     lsr     r1,r7,1h                                
0808B26E 1C16     mov     r6,r2                                   
0808B270 4306     orr     r6,r0                                   
0808B272 1C1F     mov     r7,r3                                   
0808B274 430F     orr     r7,r1                                   
0808B276 464B     mov     r3,r9                                   
0808B278 2B00     cmp     r3,0h                                   
0808B27A D1ED     bne     808B258h                                
0808B27C 46C1     mov     r9,r8                                   
0808B27E E00D     b       808B29Ch                                
0808B280 45C1     cmp     r9,r8                                   
0808B282 DD04     ble     808B28Eh                                
0808B284 2000     mov     r0,0h                                   
0808B286 2100     mov     r1,0h                                   
0808B288 9000     str     r0,[sp]                                 
0808B28A 9101     str     r1,[sp,4h]                              
0808B28C E002     b       808B294h                                
0808B28E 46C1     mov     r9,r8                                   
0808B290 2600     mov     r6,0h                                   
0808B292 2700     mov     r7,0h                                   
0808B294 685B     ldr     r3,[r3,4h]                              
0808B296 469C     mov     r12,r3                                  
0808B298 6864     ldr     r4,[r4,4h]                              
0808B29A 9402     str     r4,[sp,8h]                              
0808B29C 9902     ldr     r1,[sp,8h]                              
0808B29E 458C     cmp     r12,r1                                  
0808B2A0 D050     beq     808B344h                                
0808B2A2 4662     mov     r2,r12                                  
0808B2A4 2A00     cmp     r2,0h                                   
0808B2A6 D00A     beq     808B2BEh                                
0808B2A8 1C39     mov     r1,r7                                   
0808B2AA 1C30     mov     r0,r6                                   
0808B2AC F001F9FA bl      808C6A4h                                
0808B2B0 1C0B     mov     r3,r1                                   
0808B2B2 1C02     mov     r2,r0                                   
0808B2B4 9C00     ldr     r4,[sp]                                 
0808B2B6 9D01     ldr     r5,[sp,4h]                              
0808B2B8 1912     add     r2,r2,r4                                
0808B2BA 416B     adc     r3,r5                                   
0808B2BC E005     b       808B2CAh                                
0808B2BE 1C3B     mov     r3,r7                                   
0808B2C0 1C32     mov     r2,r6                                   
0808B2C2 9800     ldr     r0,[sp]                                 
0808B2C4 9901     ldr     r1,[sp,4h]                              
0808B2C6 1A12     sub     r2,r2,r0                                
0808B2C8 418B     sbc     r3,r1                                   
0808B2CA 2B00     cmp     r3,0h                                   
0808B2CC DB08     blt     808B2E0h                                
0808B2CE 2000     mov     r0,0h                                   
0808B2D0 4651     mov     r1,r10                                  
0808B2D2 6048     str     r0,[r1,4h]                              
0808B2D4 464C     mov     r4,r9                                   
0808B2D6 608C     str     r4,[r1,8h]                              
0808B2D8 4655     mov     r5,r10                                  
0808B2DA 60EA     str     r2,[r5,0Ch]                             
0808B2DC 612B     str     r3,[r5,10h]                             
0808B2DE E00B     b       808B2F8h                                
0808B2E0 2001     mov     r0,1h                                   
0808B2E2 4656     mov     r6,r10                                  
0808B2E4 6070     str     r0,[r6,4h]                              
0808B2E6 4648     mov     r0,r9                                   
0808B2E8 60B0     str     r0,[r6,8h]                              
0808B2EA 1C19     mov     r1,r3                                   
0808B2EC 1C10     mov     r0,r2                                   
0808B2EE F001F9D9 bl      808C6A4h                                
0808B2F2 4652     mov     r2,r10                                  
0808B2F4 60D0     str     r0,[r2,0Ch]                             
0808B2F6 6111     str     r1,[r2,10h]                             
0808B2F8 4654     mov     r4,r10                                  
0808B2FA 68E2     ldr     r2,[r4,0Ch]                             
0808B2FC 6923     ldr     r3,[r4,10h]                             
0808B2FE 2001     mov     r0,1h                                   
0808B300 4240     neg     r0,r0                                   
0808B302 17C1     asr     r1,r0,1Fh                               
0808B304 1812     add     r2,r2,r0                                
0808B306 414B     adc     r3,r1                                   
0808B308 480D     ldr     r0,=0FFFFFFFh                           
0808B30A 4283     cmp     r3,r0                                   
0808B30C D826     bhi     808B35Ch                                
0808B30E 4283     cmp     r3,r0                                   
0808B310 D103     bne     808B31Ah                                
0808B312 2002     mov     r0,2h                                   
0808B314 4240     neg     r0,r0                                   
0808B316 4282     cmp     r2,r0                                   
0808B318 D820     bhi     808B35Ch                                
0808B31A 4655     mov     r5,r10                                  
0808B31C 68E8     ldr     r0,[r5,0Ch]                             
0808B31E 6929     ldr     r1,[r5,10h]                             
0808B320 0FC3     lsr     r3,r0,1Fh                               
0808B322 004A     lsl     r2,r1,1h                                
0808B324 1C19     mov     r1,r3                                   
0808B326 4311     orr     r1,r2                                   
0808B328 0040     lsl     r0,r0,1h                                
0808B32A 4656     mov     r6,r10                                  
0808B32C 60F0     str     r0,[r6,0Ch]                             
0808B32E 6131     str     r1,[r6,10h]                             
0808B330 68B2     ldr     r2,[r6,8h]                              
0808B332 3A01     sub     r2,1h                                   
0808B334 60B2     str     r2,[r6,8h]                              
0808B336 2201     mov     r2,1h                                   
0808B338 4252     neg     r2,r2                                   
0808B33A 17D3     asr     r3,r2,1Fh                               
0808B33C E7E2     b       808B304h                                
0808B33E 0000     lsl     r0,r0,0h                                
0808B340 FFFF     bl      lr+0FFEh                                
0808B342 0FFF     lsr     r7,r7,1Fh                               
0808B344 4660     mov     r0,r12                                  
0808B346 4651     mov     r1,r10                                  
0808B348 6048     str     r0,[r1,4h]                              
0808B34A 464A     mov     r2,r9                                   
0808B34C 608A     str     r2,[r1,8h]                              
0808B34E 9B00     ldr     r3,[sp]                                 
0808B350 9C01     ldr     r4,[sp,4h]                              
0808B352 18F6     add     r6,r6,r3                                
0808B354 4167     adc     r7,r4                                   
0808B356 4654     mov     r4,r10                                  
0808B358 60E6     str     r6,[r4,0Ch]                             
0808B35A 6127     str     r7,[r4,10h]                             
0808B35C 2003     mov     r0,3h                                   
0808B35E 4655     mov     r5,r10                                  
0808B360 6028     str     r0,[r5]                                 
0808B362 6929     ldr     r1,[r5,10h]                             
0808B364 480E     ldr     r0,=1FFFFFFFh                           
0808B366 4281     cmp     r1,r0                                   
0808B368 D913     bls     808B392h                                
0808B36A 68EC     ldr     r4,[r5,0Ch]                             
0808B36C 692D     ldr     r5,[r5,10h]                             
0808B36E 2201     mov     r2,1h                                   
0808B370 1C20     mov     r0,r4                                   
0808B372 4010     and     r0,r2                                   
0808B374 2100     mov     r1,0h                                   
0808B376 07EE     lsl     r6,r5,1Fh                               
0808B378 46B0     mov     r8,r6                                   
0808B37A 0866     lsr     r6,r4,1h                                
0808B37C 4642     mov     r2,r8                                   
0808B37E 4332     orr     r2,r6                                   
0808B380 086B     lsr     r3,r5,1h                                
0808B382 4310     orr     r0,r2                                   
0808B384 4319     orr     r1,r3                                   
0808B386 4652     mov     r2,r10                                  
0808B388 60D0     str     r0,[r2,0Ch]                             
0808B38A 6111     str     r1,[r2,10h]                             
0808B38C 6890     ldr     r0,[r2,8h]                              
0808B38E 3001     add     r0,1h                                   
0808B390 6090     str     r0,[r2,8h]                              
0808B392 4650     mov     r0,r10                                  
0808B394 B003     add     sp,0Ch                                  
0808B396 BC38     pop     r3-r5                                   
0808B398 4698     mov     r8,r3                                   
0808B39A 46A1     mov     r9,r4                                   
0808B39C 46AA     mov     r10,r5                                  
0808B39E BDF0     pop     r4-r7,r15                               
0808B3A0 FFFF     bl      lr+0FFEh                                
0808B3A2 1FFF     sub     r7,r7,7                                 
0808B3A4 B510     push    r4,r14                                  
0808B3A6 B093     add     sp,-4Ch                                 
0808B3A8 900F     str     r0,[sp,3Ch]                             
0808B3AA 9110     str     r1,[sp,40h]                             
0808B3AC 9211     str     r2,[sp,44h]                             
0808B3AE 9312     str     r3,[sp,48h]                             
0808B3B0 A80F     add     r0,sp,3Ch                               
0808B3B2 4669     mov     r1,r13                                  
0808B3B4 F7FFFE54 bl      808B060h                                
0808B3B8 A811     add     r0,sp,44h                               
0808B3BA AC05     add     r4,sp,14h                               
0808B3BC 1C21     mov     r1,r4                                   
0808B3BE F7FFFE4F bl      808B060h                                
0808B3C2 AA0A     add     r2,sp,28h                               
0808B3C4 4668     mov     r0,r13                                  
0808B3C6 1C21     mov     r1,r4                                   
0808B3C8 F7FFFEB6 bl      808B138h                                
0808B3CC F7FFFDA4 bl      808AF18h                                
0808B3D0 B013     add     sp,4Ch                                  
0808B3D2 BD10     pop     r4,r15                                  
0808B3D4 B510     push    r4,r14                                  
0808B3D6 B093     add     sp,-4Ch                                 
0808B3D8 900F     str     r0,[sp,3Ch]                             
0808B3DA 9110     str     r1,[sp,40h]                             
0808B3DC 9211     str     r2,[sp,44h]                             
0808B3DE 9312     str     r3,[sp,48h]                             
0808B3E0 A80F     add     r0,sp,3Ch                               
0808B3E2 4669     mov     r1,r13                                  
0808B3E4 F7FFFE3C bl      808B060h                                
0808B3E8 A811     add     r0,sp,44h                               
0808B3EA AC05     add     r4,sp,14h                               
0808B3EC 1C21     mov     r1,r4                                   
0808B3EE F7FFFE37 bl      808B060h                                
0808B3F2 6860     ldr     r0,[r4,4h]                              
0808B3F4 2101     mov     r1,1h                                   
0808B3F6 4048     eor     r0,r1                                   
0808B3F8 6060     str     r0,[r4,4h]                              
0808B3FA AA0A     add     r2,sp,28h                               
0808B3FC 4668     mov     r0,r13                                  
0808B3FE 1C21     mov     r1,r4                                   
0808B400 F7FFFE9A bl      808B138h                                
0808B404 F7FFFD88 bl      808AF18h                                
0808B408 B013     add     sp,4Ch                                  
0808B40A BD10     pop     r4,r15                                  
0808B40C B5F0     push    r4-r7,r14                               
0808B40E 4657     mov     r7,r10                                  
0808B410 464E     mov     r6,r9                                   
0808B412 4645     mov     r5,r8                                   
0808B414 B4E0     push    r5-r7                                   
0808B416 B09D     add     sp,-74h                                 
0808B418 900F     str     r0,[sp,3Ch]                             
0808B41A 9110     str     r1,[sp,40h]                             
0808B41C 9211     str     r2,[sp,44h]                             
0808B41E 9312     str     r3,[sp,48h]                             
0808B420 A80F     add     r0,sp,3Ch                               
0808B422 4669     mov     r1,r13                                  
0808B424 F7FFFE1C bl      808B060h                                
0808B428 A811     add     r0,sp,44h                               
0808B42A AC05     add     r4,sp,14h                               
0808B42C 1C21     mov     r1,r4                                   
0808B42E F7FFFE17 bl      808B060h                                
0808B432 46E8     mov     r8,r13                                  
0808B434 A80A     add     r0,sp,28h                               
0808B436 4682     mov     r10,r0                                  
0808B438 2000     mov     r0,0h                                   
0808B43A 9900     ldr     r1,[sp]                                 
0808B43C 2901     cmp     r1,1h                                   
0808B43E D800     bhi     808B442h                                
0808B440 2001     mov     r0,1h                                   
0808B442 2800     cmp     r0,0h                                   
0808B444 D12F     bne     808B4A6h                                
0808B446 2200     mov     r2,0h                                   
0808B448 9805     ldr     r0,[sp,14h]                             
0808B44A 2801     cmp     r0,1h                                   
0808B44C D800     bhi     808B450h                                
0808B44E 2201     mov     r2,1h                                   
0808B450 2A00     cmp     r2,0h                                   
0808B452 D001     beq     808B458h                                
0808B454 9801     ldr     r0,[sp,4h]                              
0808B456 E037     b       808B4C8h                                
0808B458 2200     mov     r2,0h                                   
0808B45A 2904     cmp     r1,4h                                   
0808B45C D100     bne     808B460h                                
0808B45E 2201     mov     r2,1h                                   
0808B460 2A00     cmp     r2,0h                                   
0808B462 D006     beq     808B472h                                
0808B464 2100     mov     r1,0h                                   
0808B466 2802     cmp     r0,2h                                   
0808B468 D100     bne     808B46Ch                                
0808B46A 2101     mov     r1,1h                                   
0808B46C 2900     cmp     r1,0h                                   
0808B46E D10C     bne     808B48Ah                                
0808B470 E019     b       808B4A6h                                
0808B472 2200     mov     r2,0h                                   
0808B474 2804     cmp     r0,4h                                   
0808B476 D100     bne     808B47Ah                                
0808B478 2201     mov     r2,1h                                   
0808B47A 2A00     cmp     r2,0h                                   
0808B47C D00D     beq     808B49Ah                                
0808B47E 2000     mov     r0,0h                                   
0808B480 2902     cmp     r1,2h                                   
0808B482 D100     bne     808B486h                                
0808B484 2001     mov     r0,1h                                   
0808B486 2800     cmp     r0,0h                                   
0808B488 D004     beq     808B494h                                
0808B48A 4801     ldr     r0,=30058E0h                            
0808B48C E101     b       808B692h                                
0808B48E 0000     lsl     r0,r0,0h                                
0808B490 58E0     ldr     r0,[r4,r3]                              
0808B492 0300     lsl     r0,r0,0Ch                               
0808B494 4641     mov     r1,r8                                   
0808B496 6848     ldr     r0,[r1,4h]                              
0808B498 E016     b       808B4C8h                                
0808B49A 2200     mov     r2,0h                                   
0808B49C 2902     cmp     r1,2h                                   
0808B49E D100     bne     808B4A2h                                
0808B4A0 2201     mov     r2,1h                                   
0808B4A2 2A00     cmp     r2,0h                                   
0808B4A4 D008     beq     808B4B8h                                
0808B4A6 9801     ldr     r0,[sp,4h]                              
0808B4A8 9906     ldr     r1,[sp,18h]                             
0808B4AA 4048     eor     r0,r1                                   
0808B4AC 4241     neg     r1,r0                                   
0808B4AE 4301     orr     r1,r0                                   
0808B4B0 0FC9     lsr     r1,r1,1Fh                               
0808B4B2 9101     str     r1,[sp,4h]                              
0808B4B4 4668     mov     r0,r13                                  
0808B4B6 E0EC     b       808B692h                                
0808B4B8 2100     mov     r1,0h                                   
0808B4BA 2802     cmp     r0,2h                                   
0808B4BC D100     bne     808B4C0h                                
0808B4BE 2101     mov     r1,1h                                   
0808B4C0 2900     cmp     r1,0h                                   
0808B4C2 D009     beq     808B4D8h                                
0808B4C4 4642     mov     r2,r8                                   
0808B4C6 6850     ldr     r0,[r2,4h]                              
0808B4C8 9906     ldr     r1,[sp,18h]                             
0808B4CA 4048     eor     r0,r1                                   
0808B4CC 4241     neg     r1,r0                                   
0808B4CE 4301     orr     r1,r0                                   
0808B4D0 0FC9     lsr     r1,r1,1Fh                               
0808B4D2 9106     str     r1,[sp,18h]                             
0808B4D4 1C20     mov     r0,r4                                   
0808B4D6 E0DC     b       808B692h                                
0808B4D8 4644     mov     r4,r8                                   
0808B4DA 68E0     ldr     r0,[r4,0Ch]                             
0808B4DC 6921     ldr     r1,[r4,10h]                             
0808B4DE 1C06     mov     r6,r0                                   
0808B4E0 2700     mov     r7,0h                                   
0808B4E2 9113     str     r1,[sp,4Ch]                             
0808B4E4 2500     mov     r5,0h                                   
0808B4E6 9514     str     r5,[sp,50h]                             
0808B4E8 9808     ldr     r0,[sp,20h]                             
0808B4EA 9909     ldr     r1,[sp,24h]                             
0808B4EC 1C04     mov     r4,r0                                   
0808B4EE 9115     str     r1,[sp,54h]                             
0808B4F0 2000     mov     r0,0h                                   
0808B4F2 9016     str     r0,[sp,58h]                             
0808B4F4 1C29     mov     r1,r5                                   
0808B4F6 1C20     mov     r0,r4                                   
0808B4F8 1C3B     mov     r3,r7                                   
0808B4FA 1C32     mov     r2,r6                                   
0808B4FC F001F89A bl      808C634h                                
0808B500 9017     str     r0,[sp,5Ch]                             
0808B502 9118     str     r1,[sp,60h]                             
0808B504 9815     ldr     r0,[sp,54h]                             
0808B506 9916     ldr     r1,[sp,58h]                             
0808B508 1C3B     mov     r3,r7                                   
0808B50A 1C32     mov     r2,r6                                   
0808B50C F001F892 bl      808C634h                                
0808B510 1C0F     mov     r7,r1                                   
0808B512 1C06     mov     r6,r0                                   
0808B514 1C29     mov     r1,r5                                   
0808B516 1C20     mov     r0,r4                                   
0808B518 9A13     ldr     r2,[sp,4Ch]                             
0808B51A 9B14     ldr     r3,[sp,50h]                             
0808B51C F001F88A bl      808C634h                                
0808B520 1C0D     mov     r5,r1                                   
0808B522 1C04     mov     r4,r0                                   
0808B524 9815     ldr     r0,[sp,54h]                             
0808B526 9916     ldr     r1,[sp,58h]                             
0808B528 9A13     ldr     r2,[sp,4Ch]                             
0808B52A 9B14     ldr     r3,[sp,50h]                             
0808B52C F001F882 bl      808C634h                                
0808B530 9019     str     r0,[sp,64h]                             
0808B532 911A     str     r1,[sp,68h]                             
0808B534 2100     mov     r1,0h                                   
0808B536 2200     mov     r2,0h                                   
0808B538 911B     str     r1,[sp,6Ch]                             
0808B53A 921C     str     r2,[sp,70h]                             
0808B53C 1C3B     mov     r3,r7                                   
0808B53E 1C32     mov     r2,r6                                   
0808B540 1912     add     r2,r2,r4                                
0808B542 416B     adc     r3,r5                                   
0808B544 429F     cmp     r7,r3                                   
0808B546 D803     bhi     808B550h                                
0808B548 429F     cmp     r7,r3                                   
0808B54A D105     bne     808B558h                                
0808B54C 4296     cmp     r6,r2                                   
0808B54E D903     bls     808B558h                                
0808B550 4D55     ldr     r5,=1h                                  
0808B552 4C54     ldr     r4,=0h                                  
0808B554 941B     str     r4,[sp,6Ch]                             
0808B556 951C     str     r5,[sp,70h]                             
0808B558 1C11     mov     r1,r2                                   
0808B55A 2600     mov     r6,0h                                   
0808B55C 1C0F     mov     r7,r1                                   
0808B55E 9817     ldr     r0,[sp,5Ch]                             
0808B560 9918     ldr     r1,[sp,60h]                             
0808B562 1836     add     r6,r6,r0                                
0808B564 414F     adc     r7,r1                                   
0808B566 42B9     cmp     r1,r7                                   
0808B568 D804     bhi     808B574h                                
0808B56A 9918     ldr     r1,[sp,60h]                             
0808B56C 42B9     cmp     r1,r7                                   
0808B56E D109     bne     808B584h                                
0808B570 42B0     cmp     r0,r6                                   
0808B572 D907     bls     808B584h                                
0808B574 2001     mov     r0,1h                                   
0808B576 2100     mov     r1,0h                                   
0808B578 9C1B     ldr     r4,[sp,6Ch]                             
0808B57A 9D1C     ldr     r5,[sp,70h]                             
0808B57C 1824     add     r4,r4,r0                                
0808B57E 414D     adc     r5,r1                                   
0808B580 941B     str     r4,[sp,6Ch]                             
0808B582 951C     str     r5,[sp,70h]                             
0808B584 1C18     mov     r0,r3                                   
0808B586 1C02     mov     r2,r0                                   
0808B588 2300     mov     r3,0h                                   
0808B58A 1C1D     mov     r5,r3                                   
0808B58C 1C14     mov     r4,r2                                   
0808B58E 9819     ldr     r0,[sp,64h]                             
0808B590 991A     ldr     r1,[sp,68h]                             
0808B592 1824     add     r4,r4,r0                                
0808B594 414D     adc     r5,r1                                   
0808B596 991B     ldr     r1,[sp,6Ch]                             
0808B598 9A1C     ldr     r2,[sp,70h]                             
0808B59A 1864     add     r4,r4,r1                                
0808B59C 4155     adc     r5,r2                                   
0808B59E 4640     mov     r0,r8                                   
0808B5A0 6882     ldr     r2,[r0,8h]                              
0808B5A2 9807     ldr     r0,[sp,1Ch]                             
0808B5A4 1812     add     r2,r2,r0                                
0808B5A6 920C     str     r2,[sp,30h]                             
0808B5A8 4640     mov     r0,r8                                   
0808B5AA 6841     ldr     r1,[r0,4h]                              
0808B5AC 9806     ldr     r0,[sp,18h]                             
0808B5AE 4041     eor     r1,r0                                   
0808B5B0 4248     neg     r0,r1                                   
0808B5B2 4308     orr     r0,r1                                   
0808B5B4 0FC0     lsr     r0,r0,1Fh                               
0808B5B6 900B     str     r0,[sp,2Ch]                             
0808B5B8 3204     add     r2,4h                                   
0808B5BA 920C     str     r2,[sp,30h]                             
0808B5BC 483B     ldr     r0,=1FFFFFFFh                           
0808B5BE 4285     cmp     r5,r0                                   
0808B5C0 D921     bls     808B606h                                
0808B5C2 2101     mov     r1,1h                                   
0808B5C4 4689     mov     r9,r1                                   
0808B5C6 4680     mov     r8,r0                                   
0808B5C8 4694     mov     r12,r2                                  
0808B5CA 2201     mov     r2,1h                                   
0808B5CC 4494     add     r12,r2                                  
0808B5CE 4648     mov     r0,r9                                   
0808B5D0 4020     and     r0,r4                                   
0808B5D2 2800     cmp     r0,0h                                   
0808B5D4 D00C     beq     808B5F0h                                
0808B5D6 07FB     lsl     r3,r7,1Fh                               
0808B5D8 0872     lsr     r2,r6,1h                                
0808B5DA 1C18     mov     r0,r3                                   
0808B5DC 4310     orr     r0,r2                                   
0808B5DE 0879     lsr     r1,r7,1h                                
0808B5E0 1C0F     mov     r7,r1                                   
0808B5E2 1C06     mov     r6,r0                                   
0808B5E4 1C30     mov     r0,r6                                   
0808B5E6 2180     mov     r1,80h                                  
0808B5E8 0609     lsl     r1,r1,18h                               
0808B5EA 4339     orr     r1,r7                                   
0808B5EC 1C0F     mov     r7,r1                                   
0808B5EE 1C06     mov     r6,r0                                   
0808B5F0 07EB     lsl     r3,r5,1Fh                               
0808B5F2 0862     lsr     r2,r4,1h                                
0808B5F4 1C18     mov     r0,r3                                   
0808B5F6 4310     orr     r0,r2                                   
0808B5F8 0869     lsr     r1,r5,1h                                
0808B5FA 1C0D     mov     r5,r1                                   
0808B5FC 1C04     mov     r4,r0                                   
0808B5FE 4545     cmp     r5,r8                                   
0808B600 D8E3     bhi     808B5CAh                                
0808B602 4660     mov     r0,r12                                  
0808B604 900C     str     r0,[sp,30h]                             
0808B606 482A     ldr     r0,=0FFFFFFFh                           
0808B608 4285     cmp     r5,r0                                   
0808B60A D825     bhi     808B658h                                
0808B60C 2180     mov     r1,80h                                  
0808B60E 0609     lsl     r1,r1,18h                               
0808B610 4689     mov     r9,r1                                   
0808B612 4680     mov     r8,r0                                   
0808B614 9A0C     ldr     r2,[sp,30h]                             
0808B616 4694     mov     r12,r2                                  
0808B618 2001     mov     r0,1h                                   
0808B61A 4240     neg     r0,r0                                   
0808B61C 4484     add     r12,r0                                  
0808B61E 0FE3     lsr     r3,r4,1Fh                               
0808B620 006A     lsl     r2,r5,1h                                
0808B622 1C19     mov     r1,r3                                   
0808B624 4311     orr     r1,r2                                   
0808B626 0060     lsl     r0,r4,1h                                
0808B628 1C0D     mov     r5,r1                                   
0808B62A 1C04     mov     r4,r0                                   
0808B62C 2000     mov     r0,0h                                   
0808B62E 4649     mov     r1,r9                                   
0808B630 4039     and     r1,r7                                   
0808B632 4308     orr     r0,r1                                   
0808B634 2800     cmp     r0,0h                                   
0808B636 D004     beq     808B642h                                
0808B638 2001     mov     r0,1h                                   
0808B63A 4320     orr     r0,r4                                   
0808B63C 1C29     mov     r1,r5                                   
0808B63E 1C0D     mov     r5,r1                                   
0808B640 1C04     mov     r4,r0                                   
0808B642 0FF3     lsr     r3,r6,1Fh                               
0808B644 007A     lsl     r2,r7,1h                                
0808B646 1C19     mov     r1,r3                                   
0808B648 4311     orr     r1,r2                                   
0808B64A 0070     lsl     r0,r6,1h                                
0808B64C 1C0F     mov     r7,r1                                   
0808B64E 1C06     mov     r6,r0                                   
0808B650 4545     cmp     r5,r8                                   
0808B652 D9E1     bls     808B618h                                
0808B654 4661     mov     r1,r12                                  
0808B656 910C     str     r1,[sp,30h]                             
0808B658 20FF     mov     r0,0FFh                                 
0808B65A 1C21     mov     r1,r4                                   
0808B65C 4001     and     r1,r0                                   
0808B65E 2200     mov     r2,0h                                   
0808B660 2980     cmp     r1,80h                                  
0808B662 D110     bne     808B686h                                
0808B664 2A00     cmp     r2,0h                                   
0808B666 D10E     bne     808B686h                                
0808B668 3001     add     r0,1h                                   
0808B66A 1C21     mov     r1,r4                                   
0808B66C 4001     and     r1,r0                                   
0808B66E 1C10     mov     r0,r2                                   
0808B670 4308     orr     r0,r1                                   
0808B672 2800     cmp     r0,0h                                   
0808B674 D103     bne     808B67Eh                                
0808B676 1C38     mov     r0,r7                                   
0808B678 4330     orr     r0,r6                                   
0808B67A 2800     cmp     r0,0h                                   
0808B67C D003     beq     808B686h                                
0808B67E 2080     mov     r0,80h                                  
0808B680 2100     mov     r1,0h                                   
0808B682 1824     add     r4,r4,r0                                
0808B684 414D     adc     r5,r1                                   
0808B686 940D     str     r4,[sp,34h]                             
0808B688 950E     str     r5,[sp,38h]                             
0808B68A 2003     mov     r0,3h                                   
0808B68C 4652     mov     r2,r10                                  
0808B68E 6010     str     r0,[r2]                                 
0808B690 A80A     add     r0,sp,28h                               
0808B692 F7FFFC41 bl      808AF18h                                
0808B696 B01D     add     sp,74h                                  
0808B698 BC38     pop     r3-r5                                   
0808B69A 4698     mov     r8,r3                                   
0808B69C 46A1     mov     r9,r4                                   
0808B69E 46AA     mov     r10,r5                                  
0808B6A0 BDF0     pop     r4-r7,r15                               
0808B6A2 0000     lsl     r0,r0,0h                                
0808B6A4 0000     lsl     r0,r0,0h                                
0808B6A6 0000     lsl     r0,r0,0h                                
0808B6A8 0001     lsl     r1,r0,0h                                
0808B6AA 0000     lsl     r0,r0,0h                                
0808B6AC FFFF     bl      lr+0FFEh                                
0808B6AE 1FFF     sub     r7,r7,7                                 
0808B6B0 FFFF     bl      lr+0FFEh                                
0808B6B2 0FFF     lsr     r7,r7,1Fh                               
0808B6B4 B5F0     push    r4-r7,r14                               
0808B6B6 B092     add     sp,-48h                                 
0808B6B8 900A     str     r0,[sp,28h]                             
0808B6BA 910B     str     r1,[sp,2Ch]                             
0808B6BC 920C     str     r2,[sp,30h]                             
0808B6BE 930D     str     r3,[sp,34h]                             
0808B6C0 A80A     add     r0,sp,28h                               
0808B6C2 4669     mov     r1,r13                                  
0808B6C4 F7FFFCCC bl      808B060h                                
0808B6C8 A80C     add     r0,sp,30h                               
0808B6CA AC05     add     r4,sp,14h                               
0808B6CC 1C21     mov     r1,r4                                   
0808B6CE F7FFFCC7 bl      808B060h                                
0808B6D2 46EC     mov     r12,r13                                 
0808B6D4 2000     mov     r0,0h                                   
0808B6D6 9B00     ldr     r3,[sp]                                 
0808B6D8 2B01     cmp     r3,1h                                   
0808B6DA D800     bhi     808B6DEh                                
0808B6DC 2001     mov     r0,1h                                   
0808B6DE 2800     cmp     r0,0h                                   
0808B6E0 D001     beq     808B6E6h                                
0808B6E2 4669     mov     r1,r13                                  
0808B6E4 E0A0     b       808B828h                                
0808B6E6 2000     mov     r0,0h                                   
0808B6E8 9A05     ldr     r2,[sp,14h]                             
0808B6EA 1C15     mov     r5,r2                                   
0808B6EC 2A01     cmp     r2,1h                                   
0808B6EE D800     bhi     808B6F2h                                
0808B6F0 2001     mov     r0,1h                                   
0808B6F2 2800     cmp     r0,0h                                   
0808B6F4 D001     beq     808B6FAh                                
0808B6F6 1C21     mov     r1,r4                                   
0808B6F8 E096     b       808B828h                                
0808B6FA 9801     ldr     r0,[sp,4h]                              
0808B6FC 9906     ldr     r1,[sp,18h]                             
0808B6FE 4048     eor     r0,r1                                   
0808B700 9001     str     r0,[sp,4h]                              
0808B702 2000     mov     r0,0h                                   
0808B704 2B04     cmp     r3,4h                                   
0808B706 D100     bne     808B70Ah                                
0808B708 2001     mov     r0,1h                                   
0808B70A 2800     cmp     r0,0h                                   
0808B70C D105     bne     808B71Ah                                
0808B70E 2400     mov     r4,0h                                   
0808B710 2B02     cmp     r3,2h                                   
0808B712 D100     bne     808B716h                                
0808B714 2401     mov     r4,1h                                   
0808B716 2C00     cmp     r4,0h                                   
0808B718 D008     beq     808B72Ch                                
0808B71A 4661     mov     r1,r12                                  
0808B71C 6808     ldr     r0,[r1]                                 
0808B71E 42A8     cmp     r0,r5                                   
0808B720 D000     beq     808B724h                                
0808B722 E081     b       808B828h                                
0808B724 4900     ldr     r1,=30058E0h                            
0808B726 E07F     b       808B828h                                
0808B728 58E0     ldr     r0,[r4,r3]                              
0808B72A 0300     lsl     r0,r0,0Ch                               
0808B72C 2000     mov     r0,0h                                   
0808B72E 2A04     cmp     r2,4h                                   
0808B730 D100     bne     808B734h                                
0808B732 2001     mov     r0,1h                                   
0808B734 2800     cmp     r0,0h                                   
0808B736 D006     beq     808B746h                                
0808B738 2000     mov     r0,0h                                   
0808B73A 2100     mov     r1,0h                                   
0808B73C 9003     str     r0,[sp,0Ch]                             
0808B73E 9104     str     r1,[sp,10h]                             
0808B740 9402     str     r4,[sp,8h]                              
0808B742 4669     mov     r1,r13                                  
0808B744 E070     b       808B828h                                
0808B746 2000     mov     r0,0h                                   
0808B748 2A02     cmp     r2,2h                                   
0808B74A D100     bne     808B74Eh                                
0808B74C 2001     mov     r0,1h                                   
0808B74E 2800     cmp     r0,0h                                   
0808B750 D003     beq     808B75Ah                                
0808B752 2004     mov     r0,4h                                   
0808B754 4662     mov     r2,r12                                  
0808B756 6010     str     r0,[r2]                                 
0808B758 E065     b       808B826h                                
0808B75A 4663     mov     r3,r12                                  
0808B75C 6899     ldr     r1,[r3,8h]                              
0808B75E 9807     ldr     r0,[sp,1Ch]                             
0808B760 1A0E     sub     r6,r1,r0                                
0808B762 609E     str     r6,[r3,8h]                              
0808B764 68DC     ldr     r4,[r3,0Ch]                             
0808B766 691D     ldr     r5,[r3,10h]                             
0808B768 9808     ldr     r0,[sp,20h]                             
0808B76A 9909     ldr     r1,[sp,24h]                             
0808B76C 900E     str     r0,[sp,38h]                             
0808B76E 910F     str     r1,[sp,3Ch]                             
0808B770 42A9     cmp     r1,r5                                   
0808B772 D804     bhi     808B77Eh                                
0808B774 990F     ldr     r1,[sp,3Ch]                             
0808B776 42A9     cmp     r1,r5                                   
0808B778 D10B     bne     808B792h                                
0808B77A 42A0     cmp     r0,r4                                   
0808B77C D909     bls     808B792h                                
0808B77E 0FE3     lsr     r3,r4,1Fh                               
0808B780 006A     lsl     r2,r5,1h                                
0808B782 1C19     mov     r1,r3                                   
0808B784 4311     orr     r1,r2                                   
0808B786 0060     lsl     r0,r4,1h                                
0808B788 1C0D     mov     r5,r1                                   
0808B78A 1C04     mov     r4,r0                                   
0808B78C 1E70     sub     r0,r6,1                                 
0808B78E 4662     mov     r2,r12                                  
0808B790 6090     str     r0,[r2,8h]                              
0808B792 4F29     ldr     r7,=10000000h                           
0808B794 4E27     ldr     r6,=0h                                  
0808B796 2000     mov     r0,0h                                   
0808B798 2100     mov     r1,0h                                   
0808B79A 9010     str     r0,[sp,40h]                             
0808B79C 9111     str     r1,[sp,44h]                             
0808B79E 990F     ldr     r1,[sp,3Ch]                             
0808B7A0 42A9     cmp     r1,r5                                   
0808B7A2 D80E     bhi     808B7C2h                                
0808B7A4 42A9     cmp     r1,r5                                   
0808B7A6 D102     bne     808B7AEh                                
0808B7A8 9A0E     ldr     r2,[sp,38h]                             
0808B7AA 42A2     cmp     r2,r4                                   
0808B7AC D809     bhi     808B7C2h                                
0808B7AE 9810     ldr     r0,[sp,40h]                             
0808B7B0 4330     orr     r0,r6                                   
0808B7B2 9911     ldr     r1,[sp,44h]                             
0808B7B4 4339     orr     r1,r7                                   
0808B7B6 9010     str     r0,[sp,40h]                             
0808B7B8 9111     str     r1,[sp,44h]                             
0808B7BA 980E     ldr     r0,[sp,38h]                             
0808B7BC 990F     ldr     r1,[sp,3Ch]                             
0808B7BE 1A24     sub     r4,r4,r0                                
0808B7C0 418D     sbc     r5,r1                                   
0808B7C2 07FB     lsl     r3,r7,1Fh                               
0808B7C4 0872     lsr     r2,r6,1h                                
0808B7C6 1C18     mov     r0,r3                                   
0808B7C8 4310     orr     r0,r2                                   
0808B7CA 0879     lsr     r1,r7,1h                                
0808B7CC 1C0F     mov     r7,r1                                   
0808B7CE 1C06     mov     r6,r0                                   
0808B7D0 0FE3     lsr     r3,r4,1Fh                               
0808B7D2 006A     lsl     r2,r5,1h                                
0808B7D4 1C19     mov     r1,r3                                   
0808B7D6 4311     orr     r1,r2                                   
0808B7D8 0060     lsl     r0,r4,1h                                
0808B7DA 1C0D     mov     r5,r1                                   
0808B7DC 1C04     mov     r4,r0                                   
0808B7DE 1C38     mov     r0,r7                                   
0808B7E0 4330     orr     r0,r6                                   
0808B7E2 2800     cmp     r0,0h                                   
0808B7E4 D1DB     bne     808B79Eh                                
0808B7E6 20FF     mov     r0,0FFh                                 
0808B7E8 9910     ldr     r1,[sp,40h]                             
0808B7EA 4001     and     r1,r0                                   
0808B7EC 2200     mov     r2,0h                                   
0808B7EE 2980     cmp     r1,80h                                  
0808B7F0 D114     bne     808B81Ch                                
0808B7F2 2A00     cmp     r2,0h                                   
0808B7F4 D112     bne     808B81Ch                                
0808B7F6 3001     add     r0,1h                                   
0808B7F8 9910     ldr     r1,[sp,40h]                             
0808B7FA 4001     and     r1,r0                                   
0808B7FC 1C10     mov     r0,r2                                   
0808B7FE 4308     orr     r0,r1                                   
0808B800 2800     cmp     r0,0h                                   
0808B802 D103     bne     808B80Ch                                
0808B804 1C28     mov     r0,r5                                   
0808B806 4320     orr     r0,r4                                   
0808B808 2800     cmp     r0,0h                                   
0808B80A D007     beq     808B81Ch                                
0808B80C 2080     mov     r0,80h                                  
0808B80E 2100     mov     r1,0h                                   
0808B810 9A10     ldr     r2,[sp,40h]                             
0808B812 9B11     ldr     r3,[sp,44h]                             
0808B814 1812     add     r2,r2,r0                                
0808B816 414B     adc     r3,r1                                   
0808B818 9210     str     r2,[sp,40h]                             
0808B81A 9311     str     r3,[sp,44h]                             
0808B81C 9810     ldr     r0,[sp,40h]                             
0808B81E 9911     ldr     r1,[sp,44h]                             
0808B820 4662     mov     r2,r12                                  
0808B822 60D0     str     r0,[r2,0Ch]                             
0808B824 6111     str     r1,[r2,10h]                             
0808B826 4661     mov     r1,r12                                  
0808B828 1C08     mov     r0,r1                                   
0808B82A F7FFFB75 bl      808AF18h                                
0808B82E B012     add     sp,48h                                  
0808B830 BDF0     pop     r4-r7,r15                               
0808B832 0000     lsl     r0,r0,0h                                
0808B834 0000     lsl     r0,r0,0h                                
0808B836 0000     lsl     r0,r0,0h                                
0808B838 0000     lsl     r0,r0,0h                                
0808B83A 1000     asr     r0,r0,20h                               
0808B83C B570     push    r4-r6,r14                               
0808B83E 1C05     mov     r5,r0                                   
0808B840 1C0E     mov     r6,r1                                   
0808B842 2000     mov     r0,0h                                   
0808B844 6829     ldr     r1,[r5]                                 
0808B846 2901     cmp     r1,1h                                   
0808B848 D800     bhi     808B84Ch                                
0808B84A 2001     mov     r0,1h                                   
0808B84C 2800     cmp     r0,0h                                   
0808B84E D106     bne     808B85Eh                                
0808B850 2000     mov     r0,0h                                   
0808B852 6832     ldr     r2,[r6]                                 
0808B854 2A01     cmp     r2,1h                                   
0808B856 D800     bhi     808B85Ah                                
0808B858 2001     mov     r0,1h                                   
0808B85A 2800     cmp     r0,0h                                   
0808B85C D001     beq     808B862h                                
0808B85E 2001     mov     r0,1h                                   
0808B860 E06A     b       808B938h                                
0808B862 2000     mov     r0,0h                                   
0808B864 2904     cmp     r1,4h                                   
0808B866 D100     bne     808B86Ah                                
0808B868 2001     mov     r0,1h                                   
0808B86A 2800     cmp     r0,0h                                   
0808B86C D009     beq     808B882h                                
0808B86E 2000     mov     r0,0h                                   
0808B870 2A04     cmp     r2,4h                                   
0808B872 D100     bne     808B876h                                
0808B874 2001     mov     r0,1h                                   
0808B876 2800     cmp     r0,0h                                   
0808B878 D003     beq     808B882h                                
0808B87A 6870     ldr     r0,[r6,4h]                              
0808B87C 6869     ldr     r1,[r5,4h]                              
0808B87E 1A40     sub     r0,r0,r1                                
0808B880 E05A     b       808B938h                                
0808B882 2100     mov     r1,0h                                   
0808B884 6828     ldr     r0,[r5]                                 
0808B886 2804     cmp     r0,4h                                   
0808B888 D100     bne     808B88Ch                                
0808B88A 2101     mov     r1,1h                                   
0808B88C 2900     cmp     r1,0h                                   
0808B88E D124     bne     808B8DAh                                
0808B890 2100     mov     r1,0h                                   
0808B892 2A04     cmp     r2,4h                                   
0808B894 D100     bne     808B898h                                
0808B896 2101     mov     r1,1h                                   
0808B898 2900     cmp     r1,0h                                   
0808B89A D006     beq     808B8AAh                                
0808B89C 6870     ldr     r0,[r6,4h]                              
0808B89E 2101     mov     r1,1h                                   
0808B8A0 4249     neg     r1,r1                                   
0808B8A2 2800     cmp     r0,0h                                   
0808B8A4 D01E     beq     808B8E4h                                
0808B8A6 2101     mov     r1,1h                                   
0808B8A8 E01C     b       808B8E4h                                
0808B8AA 2100     mov     r1,0h                                   
0808B8AC 2802     cmp     r0,2h                                   
0808B8AE D100     bne     808B8B2h                                
0808B8B0 2101     mov     r1,1h                                   
0808B8B2 2900     cmp     r1,0h                                   
0808B8B4 D005     beq     808B8C2h                                
0808B8B6 2100     mov     r1,0h                                   
0808B8B8 2A02     cmp     r2,2h                                   
0808B8BA D100     bne     808B8BEh                                
0808B8BC 2101     mov     r1,1h                                   
0808B8BE 2900     cmp     r1,0h                                   
0808B8C0 D139     bne     808B936h                                
0808B8C2 2100     mov     r1,0h                                   
0808B8C4 2802     cmp     r0,2h                                   
0808B8C6 D100     bne     808B8CAh                                
0808B8C8 2101     mov     r1,1h                                   
0808B8CA 2900     cmp     r1,0h                                   
0808B8CC D1E6     bne     808B89Ch                                
0808B8CE 2000     mov     r0,0h                                   
0808B8D0 2A02     cmp     r2,2h                                   
0808B8D2 D100     bne     808B8D6h                                
0808B8D4 2001     mov     r0,1h                                   
0808B8D6 2800     cmp     r0,0h                                   
0808B8D8 D006     beq     808B8E8h                                
0808B8DA 6868     ldr     r0,[r5,4h]                              
0808B8DC 2101     mov     r1,1h                                   
0808B8DE 2800     cmp     r0,0h                                   
0808B8E0 D000     beq     808B8E4h                                
0808B8E2 3902     sub     r1,2h                                   
0808B8E4 1C08     mov     r0,r1                                   
0808B8E6 E027     b       808B938h                                
0808B8E8 6870     ldr     r0,[r6,4h]                              
0808B8EA 686C     ldr     r4,[r5,4h]                              
0808B8EC 4284     cmp     r4,r0                                   
0808B8EE D004     beq     808B8FAh                                
0808B8F0 2001     mov     r0,1h                                   
0808B8F2 2C00     cmp     r4,0h                                   
0808B8F4 D020     beq     808B938h                                
0808B8F6 3802     sub     r0,2h                                   
0808B8F8 E01E     b       808B938h                                
0808B8FA 68A9     ldr     r1,[r5,8h]                              
0808B8FC 68B0     ldr     r0,[r6,8h]                              
0808B8FE 4281     cmp     r1,r0                                   
0808B900 DCF6     bgt     808B8F0h                                
0808B902 4281     cmp     r1,r0                                   
0808B904 DA05     bge     808B912h                                
0808B906 2001     mov     r0,1h                                   
0808B908 4240     neg     r0,r0                                   
0808B90A 2C00     cmp     r4,0h                                   
0808B90C D014     beq     808B938h                                
0808B90E 2001     mov     r0,1h                                   
0808B910 E012     b       808B938h                                
0808B912 692B     ldr     r3,[r5,10h]                             
0808B914 6932     ldr     r2,[r6,10h]                             
0808B916 4293     cmp     r3,r2                                   
0808B918 D8EA     bhi     808B8F0h                                
0808B91A 4293     cmp     r3,r2                                   
0808B91C D103     bne     808B926h                                
0808B91E 68E9     ldr     r1,[r5,0Ch]                             
0808B920 68F0     ldr     r0,[r6,0Ch]                             
0808B922 4281     cmp     r1,r0                                   
0808B924 D8E4     bhi     808B8F0h                                
0808B926 429A     cmp     r2,r3                                   
0808B928 D8ED     bhi     808B906h                                
0808B92A 429A     cmp     r2,r3                                   
0808B92C D103     bne     808B936h                                
0808B92E 68F1     ldr     r1,[r6,0Ch]                             
0808B930 68E8     ldr     r0,[r5,0Ch]                             
0808B932 4281     cmp     r1,r0                                   
0808B934 D8E7     bhi     808B906h                                
0808B936 2000     mov     r0,0h                                   
0808B938 BD70     pop     r4-r6,r15                               
0808B93A 0000     lsl     r0,r0,0h                                
0808B93C B510     push    r4,r14                                  
0808B93E B08E     add     sp,-38h                                 
0808B940 900A     str     r0,[sp,28h]                             
0808B942 910B     str     r1,[sp,2Ch]                             
0808B944 920C     str     r2,[sp,30h]                             
0808B946 930D     str     r3,[sp,34h]                             
0808B948 A80A     add     r0,sp,28h                               
0808B94A 4669     mov     r1,r13                                  
0808B94C F7FFFB88 bl      808B060h                                
0808B950 A80C     add     r0,sp,30h                               
0808B952 AC05     add     r4,sp,14h                               
0808B954 1C21     mov     r1,r4                                   
0808B956 F7FFFB83 bl      808B060h                                
0808B95A 4668     mov     r0,r13                                  
0808B95C 1C21     mov     r1,r4                                   
0808B95E F7FFFF6D bl      808B83Ch                                
0808B962 B00E     add     sp,38h                                  
0808B964 BD10     pop     r4,r15                                  
0808B966 0000     lsl     r0,r0,0h                                
0808B968 B510     push    r4,r14                                  
0808B96A B08E     add     sp,-38h                                 
0808B96C 900A     str     r0,[sp,28h]                             
0808B96E 910B     str     r1,[sp,2Ch]                             
0808B970 920C     str     r2,[sp,30h]                             
0808B972 930D     str     r3,[sp,34h]                             
0808B974 A80A     add     r0,sp,28h                               
0808B976 4669     mov     r1,r13                                  
0808B978 F7FFFB72 bl      808B060h                                
0808B97C A80C     add     r0,sp,30h                               
0808B97E AC05     add     r4,sp,14h                               
0808B980 1C21     mov     r1,r4                                   
0808B982 F7FFFB6D bl      808B060h                                
0808B986 2100     mov     r1,0h                                   
0808B988 9800     ldr     r0,[sp]                                 
0808B98A 2801     cmp     r0,1h                                   
0808B98C D800     bhi     808B990h                                
0808B98E 2101     mov     r1,1h                                   
0808B990 2900     cmp     r1,0h                                   
0808B992 D106     bne     808B9A2h                                
0808B994 2100     mov     r1,0h                                   
0808B996 9805     ldr     r0,[sp,14h]                             
0808B998 2801     cmp     r0,1h                                   
0808B99A D800     bhi     808B99Eh                                
0808B99C 2101     mov     r1,1h                                   
0808B99E 2900     cmp     r1,0h                                   
0808B9A0 D001     beq     808B9A6h                                
0808B9A2 2001     mov     r0,1h                                   
0808B9A4 E003     b       808B9AEh                                
0808B9A6 4668     mov     r0,r13                                  
0808B9A8 1C21     mov     r1,r4                                   
0808B9AA F7FFFF47 bl      808B83Ch                                
0808B9AE B00E     add     sp,38h                                  
0808B9B0 BD10     pop     r4,r15                                  
0808B9B2 0000     lsl     r0,r0,0h                                
0808B9B4 B510     push    r4,r14                                  
0808B9B6 B08E     add     sp,-38h                                 
0808B9B8 900A     str     r0,[sp,28h]                             
0808B9BA 910B     str     r1,[sp,2Ch]                             
0808B9BC 920C     str     r2,[sp,30h]                             
0808B9BE 930D     str     r3,[sp,34h]                             
0808B9C0 A80A     add     r0,sp,28h                               
0808B9C2 4669     mov     r1,r13                                  
0808B9C4 F7FFFB4C bl      808B060h                                
0808B9C8 A80C     add     r0,sp,30h                               
0808B9CA AC05     add     r4,sp,14h                               
0808B9CC 1C21     mov     r1,r4                                   
0808B9CE F7FFFB47 bl      808B060h                                
0808B9D2 2100     mov     r1,0h                                   
0808B9D4 9800     ldr     r0,[sp]                                 
0808B9D6 2801     cmp     r0,1h                                   
0808B9D8 D800     bhi     808B9DCh                                
0808B9DA 2101     mov     r1,1h                                   
0808B9DC 2900     cmp     r1,0h                                   
0808B9DE D106     bne     808B9EEh                                
0808B9E0 2100     mov     r1,0h                                   
0808B9E2 9805     ldr     r0,[sp,14h]                             
0808B9E4 2801     cmp     r0,1h                                   
0808B9E6 D800     bhi     808B9EAh                                
0808B9E8 2101     mov     r1,1h                                   
0808B9EA 2900     cmp     r1,0h                                   
0808B9EC D001     beq     808B9F2h                                
0808B9EE 2001     mov     r0,1h                                   
0808B9F0 E003     b       808B9FAh                                
0808B9F2 4668     mov     r0,r13                                  
0808B9F4 1C21     mov     r1,r4                                   
0808B9F6 F7FFFF21 bl      808B83Ch                                
0808B9FA B00E     add     sp,38h                                  
0808B9FC BD10     pop     r4,r15                                  
0808B9FE 0000     lsl     r0,r0,0h                                
0808BA00 B510     push    r4,r14                                  
0808BA02 B08E     add     sp,-38h                                 
0808BA04 900A     str     r0,[sp,28h]                             
0808BA06 910B     str     r1,[sp,2Ch]                             
0808BA08 920C     str     r2,[sp,30h]                             
0808BA0A 930D     str     r3,[sp,34h]                             
0808BA0C A80A     add     r0,sp,28h                               
0808BA0E 4669     mov     r1,r13                                  
0808BA10 F7FFFB26 bl      808B060h                                
0808BA14 A80C     add     r0,sp,30h                               
0808BA16 AC05     add     r4,sp,14h                               
0808BA18 1C21     mov     r1,r4                                   
0808BA1A F7FFFB21 bl      808B060h                                
0808BA1E 2100     mov     r1,0h                                   
0808BA20 9800     ldr     r0,[sp]                                 
0808BA22 2801     cmp     r0,1h                                   
0808BA24 D800     bhi     808BA28h                                
0808BA26 2101     mov     r1,1h                                   
0808BA28 2900     cmp     r1,0h                                   
0808BA2A D106     bne     808BA3Ah                                
0808BA2C 2100     mov     r1,0h                                   
0808BA2E 9805     ldr     r0,[sp,14h]                             
0808BA30 2801     cmp     r0,1h                                   
0808BA32 D800     bhi     808BA36h                                
0808BA34 2101     mov     r1,1h                                   
0808BA36 2900     cmp     r1,0h                                   
0808BA38 D002     beq     808BA40h                                
0808BA3A 2001     mov     r0,1h                                   
0808BA3C 4240     neg     r0,r0                                   
0808BA3E E003     b       808BA48h                                
0808BA40 4668     mov     r0,r13                                  
0808BA42 1C21     mov     r1,r4                                   
0808BA44 F7FFFEFA bl      808B83Ch                                
0808BA48 B00E     add     sp,38h                                  
0808BA4A BD10     pop     r4,r15                                  
0808BA4C B510     push    r4,r14                                  
0808BA4E B08E     add     sp,-38h                                 
0808BA50 900A     str     r0,[sp,28h]                             
0808BA52 910B     str     r1,[sp,2Ch]                             
0808BA54 920C     str     r2,[sp,30h]                             
0808BA56 930D     str     r3,[sp,34h]                             
0808BA58 A80A     add     r0,sp,28h                               
0808BA5A 4669     mov     r1,r13                                  
0808BA5C F7FFFB00 bl      808B060h                                
0808BA60 A80C     add     r0,sp,30h                               
0808BA62 AC05     add     r4,sp,14h                               
0808BA64 1C21     mov     r1,r4                                   
0808BA66 F7FFFAFB bl      808B060h                                
0808BA6A 2100     mov     r1,0h                                   
0808BA6C 9800     ldr     r0,[sp]                                 
0808BA6E 2801     cmp     r0,1h                                   
0808BA70 D800     bhi     808BA74h                                
0808BA72 2101     mov     r1,1h                                   
0808BA74 2900     cmp     r1,0h                                   
0808BA76 D106     bne     808BA86h                                
0808BA78 2100     mov     r1,0h                                   
0808BA7A 9805     ldr     r0,[sp,14h]                             
0808BA7C 2801     cmp     r0,1h                                   
0808BA7E D800     bhi     808BA82h                                
0808BA80 2101     mov     r1,1h                                   
0808BA82 2900     cmp     r1,0h                                   
0808BA84 D002     beq     808BA8Ch                                
0808BA86 2001     mov     r0,1h                                   
0808BA88 4240     neg     r0,r0                                   
0808BA8A E003     b       808BA94h                                
0808BA8C 4668     mov     r0,r13                                  
0808BA8E 1C21     mov     r1,r4                                   
0808BA90 F7FFFED4 bl      808B83Ch                                
0808BA94 B00E     add     sp,38h                                  
0808BA96 BD10     pop     r4,r15                                  
0808BA98 B510     push    r4,r14                                  
0808BA9A B08E     add     sp,-38h                                 
0808BA9C 900A     str     r0,[sp,28h]                             
0808BA9E 910B     str     r1,[sp,2Ch]                             
0808BAA0 920C     str     r2,[sp,30h]                             
0808BAA2 930D     str     r3,[sp,34h]                             
0808BAA4 A80A     add     r0,sp,28h                               
0808BAA6 4669     mov     r1,r13                                  
0808BAA8 F7FFFADA bl      808B060h                                
0808BAAC A80C     add     r0,sp,30h                               
0808BAAE AC05     add     r4,sp,14h                               
0808BAB0 1C21     mov     r1,r4                                   
0808BAB2 F7FFFAD5 bl      808B060h                                
0808BAB6 2100     mov     r1,0h                                   
0808BAB8 9800     ldr     r0,[sp]                                 
0808BABA 2801     cmp     r0,1h                                   
0808BABC D800     bhi     808BAC0h                                
0808BABE 2101     mov     r1,1h                                   
0808BAC0 2900     cmp     r1,0h                                   
0808BAC2 D106     bne     808BAD2h                                
0808BAC4 2100     mov     r1,0h                                   
0808BAC6 9805     ldr     r0,[sp,14h]                             
0808BAC8 2801     cmp     r0,1h                                   
0808BACA D800     bhi     808BACEh                                
0808BACC 2101     mov     r1,1h                                   
0808BACE 2900     cmp     r1,0h                                   
0808BAD0 D001     beq     808BAD6h                                
0808BAD2 2001     mov     r0,1h                                   
0808BAD4 E003     b       808BADEh                                
0808BAD6 4668     mov     r0,r13                                  
0808BAD8 1C21     mov     r1,r4                                   
0808BADA F7FFFEAF bl      808B83Ch                                
0808BADE B00E     add     sp,38h                                  
0808BAE0 BD10     pop     r4,r15                                  
0808BAE2 0000     lsl     r0,r0,0h                                
0808BAE4 B510     push    r4,r14                                  
0808BAE6 B08E     add     sp,-38h                                 
0808BAE8 900A     str     r0,[sp,28h]                             
0808BAEA 910B     str     r1,[sp,2Ch]                             
0808BAEC 920C     str     r2,[sp,30h]                             
0808BAEE 930D     str     r3,[sp,34h]                             
0808BAF0 A80A     add     r0,sp,28h                               
0808BAF2 4669     mov     r1,r13                                  
0808BAF4 F7FFFAB4 bl      808B060h                                
0808BAF8 A80C     add     r0,sp,30h                               
0808BAFA AC05     add     r4,sp,14h                               
0808BAFC 1C21     mov     r1,r4                                   
0808BAFE F7FFFAAF bl      808B060h                                
0808BB02 2100     mov     r1,0h                                   
0808BB04 9800     ldr     r0,[sp]                                 
0808BB06 2801     cmp     r0,1h                                   
0808BB08 D800     bhi     808BB0Ch                                
0808BB0A 2101     mov     r1,1h                                   
0808BB0C 2900     cmp     r1,0h                                   
0808BB0E D106     bne     808BB1Eh                                
0808BB10 2100     mov     r1,0h                                   
0808BB12 9805     ldr     r0,[sp,14h]                             
0808BB14 2801     cmp     r0,1h                                   
0808BB16 D800     bhi     808BB1Ah                                
0808BB18 2101     mov     r1,1h                                   
0808BB1A 2900     cmp     r1,0h                                   
0808BB1C D001     beq     808BB22h                                
0808BB1E 2001     mov     r0,1h                                   
0808BB20 E003     b       808BB2Ah                                
0808BB22 4668     mov     r0,r13                                  
0808BB24 1C21     mov     r1,r4                                   
0808BB26 F7FFFE89 bl      808B83Ch                                
0808BB2A B00E     add     sp,38h                                  
0808BB2C BD10     pop     r4,r15                                  
0808BB2E 0000     lsl     r0,r0,0h
////////////////////////////////////////////////////////////////////////////////////////////
                                
0808BB30 B530     push    r4,r5,r14                               
0808BB32 B085     add     sp,-14h                                 
0808BB34 1C02     mov     r2,r0                                   
0808BB36 2003     mov     r0,3h                                   
0808BB38 9000     str     r0,[sp]     ;SP3h                              
0808BB3A 0FD1     lsr     r1,r2,1Fh   ;lsr 1f                            
0808BB3C 9101     str     r1,[sp,4h]  ;SP4                            
0808BB3E 2A00     cmp     r2,0h                                   
0808BB40 D102     bne     @@SpeedNo0:                                
0808BB42 2002     mov     r0,2h                                   
0808BB44 9000     str     r0,[sp]     ;SP2                            
0808BB46 E02A     b       @@Speed0 

@@SpeedNo0:                               
0808BB48 203C     mov     r0,3Ch                                  
0808BB4A 9002     str     r0,[sp,8h]  ;2Csp8                            
0808BB4C 2900     cmp     r1,0h                                   
0808BB4E D00E     beq     808BB6Eh                                
0808BB50 2080     mov     r0,80h                                  
0808BB52 0600     lsl     r0,r0,18h                               
0808BB54 4282     cmp     r2,r0                                   
0808BB56 D107     bne     808BB68h                                
0808BB58 4902     ldr     r1,=0h                                  
0808BB5A 4801     ldr     r0,=0C1E00000h                          
0808BB5C E022     b       808BBA4h                                
0808BB5E 0000     lsl     r0,r0,0h                                
0808BB60 0000     lsl     r0,r0,0h                                
0808BB62 C1E0     stmia   [r1]!,r5-r7                             
0808BB64 0000     lsl     r0,r0,0h                                
0808BB66 0000     lsl     r0,r0,0h                                
0808BB68 4250     neg     r0,r2                                   
0808BB6A 17C1     asr     r1,r0,1Fh                               
0808BB6C E001     b       808BB72h                                
0808BB6E 1C10     mov     r0,r2                                   
0808BB70 17D1     asr     r1,r2,1Fh                               
0808BB72 9003     str     r0,[sp,0Ch]                             
0808BB74 9104     str     r1,[sp,10h]                             
0808BB76 9804     ldr     r0,[sp,10h]                             
0808BB78 490B     ldr     r1,=0FFFFFFFh                           
0808BB7A 4288     cmp     r0,r1                                   
0808BB7C D80F     bhi     808BB9Eh                                
0808BB7E 1C0D     mov     r5,r1                                   
0808BB80 9C02     ldr     r4,[sp,8h]                              
0808BB82 9803     ldr     r0,[sp,0Ch]                             
0808BB84 9904     ldr     r1,[sp,10h]                             
0808BB86 0FC3     lsr     r3,r0,1Fh                               
0808BB88 004A     lsl     r2,r1,1h                                
0808BB8A 1C19     mov     r1,r3                                   
0808BB8C 4311     orr     r1,r2                                   
0808BB8E 0040     lsl     r0,r0,1h                                
0808BB90 9003     str     r0,[sp,0Ch]                             
0808BB92 9104     str     r1,[sp,10h]                             
0808BB94 3C01     sub     r4,1h                                   
0808BB96 9804     ldr     r0,[sp,10h]                             
0808BB98 42A8     cmp     r0,r5                                   
0808BB9A D9F2     bls     808BB82h                                
0808BB9C 9402     str     r4,[sp,8h] 

@@Speed0:                             
0808BB9E 4668     mov     r0,r13                                  
0808BBA0 F7FFF9BA bl      808AF18h                                
0808BBA4 B005     add     sp,14h                                  
0808BBA6 BD30     pop     r4,r5,r15                               
0808BBA8 FFFF     bl      lr+0FFEh                                
0808BBAA 0FFF     lsr     r7,r7,1Fh                               
0808BBAC B500     push    r14                                     
0808BBAE B087     add     sp,-1Ch                                 
0808BBB0 9005     str     r0,[sp,14h]                             
0808BBB2 9106     str     r1,[sp,18h]                             
0808BBB4 A805     add     r0,sp,14h                               
0808BBB6 4669     mov     r1,r13                                  
0808BBB8 F7FFFA52 bl      808B060h                                
0808BBBC 2100     mov     r1,0h                                   
0808BBBE 9800     ldr     r0,[sp]                                 
0808BBC0 2802     cmp     r0,2h                                   
0808BBC2 D100     bne     808BBC6h                                
0808BBC4 2101     mov     r1,1h                                   
0808BBC6 2900     cmp     r1,0h                                   
0808BBC8 D117     bne     808BBFAh                                
0808BBCA 2100     mov     r1,0h                                   
0808BBCC 2801     cmp     r0,1h                                   
0808BBCE D800     bhi     808BBD2h                                
0808BBD0 2101     mov     r1,1h                                   
0808BBD2 2900     cmp     r1,0h                                   
0808BBD4 D111     bne     808BBFAh                                
0808BBD6 2100     mov     r1,0h                                   
0808BBD8 2804     cmp     r0,4h                                   
0808BBDA D100     bne     808BBDEh                                
0808BBDC 2101     mov     r1,1h                                   
0808BBDE 2900     cmp     r1,0h                                   
0808BBE0 D008     beq     808BBF4h                                
0808BBE2 9801     ldr     r0,[sp,4h]                              
0808BBE4 4902     ldr     r1,=7FFFFFFFh                           
0808BBE6 2800     cmp     r0,0h                                   
0808BBE8 D016     beq     808BC18h                                
0808BBEA 3101     add     r1,1h                                   
0808BBEC E014     b       808BC18h                                
0808BBEE 0000     lsl     r0,r0,0h                                
0808BBF0 FFFF     bl      lr+0FFEh                                
0808BBF2 7FFF     ldrb    r7,[r7,1Fh]                             
0808BBF4 9802     ldr     r0,[sp,8h]                              
0808BBF6 2800     cmp     r0,0h                                   
0808BBF8 DA01     bge     808BBFEh                                
0808BBFA 2000     mov     r0,0h                                   
0808BBFC E00D     b       808BC1Ah                                
0808BBFE 281E     cmp     r0,1Eh                                  
0808BC00 DCEF     bgt     808BBE2h                                
0808BC02 223C     mov     r2,3Ch                                  
0808BC04 1A12     sub     r2,r2,r0                                
0808BC06 9803     ldr     r0,[sp,0Ch]                             
0808BC08 9904     ldr     r1,[sp,10h]                             
0808BC0A F000FCF9 bl      808C600h                                
0808BC0E 1C01     mov     r1,r0                                   
0808BC10 9801     ldr     r0,[sp,4h]                              
0808BC12 2800     cmp     r0,0h                                   
0808BC14 D000     beq     808BC18h                                
0808BC16 4249     neg     r1,r1                                   
0808BC18 1C08     mov     r0,r1                                   
0808BC1A B007     add     sp,1Ch                                  
0808BC1C BD00     pop     r15                                     
0808BC1E 0000     lsl     r0,r0,0h                                
0808BC20 B500     push    r14                                     
0808BC22 B087     add     sp,-1Ch                                 
0808BC24 9005     str     r0,[sp,14h]                             
0808BC26 9106     str     r1,[sp,18h]                             
0808BC28 A805     add     r0,sp,14h                               
0808BC2A 4669     mov     r1,r13                                  
0808BC2C F7FFFA18 bl      808B060h                                
0808BC30 2100     mov     r1,0h                                   
0808BC32 9801     ldr     r0,[sp,4h]                              
0808BC34 2800     cmp     r0,0h                                   
0808BC36 D100     bne     808BC3Ah                                
0808BC38 2101     mov     r1,1h                                   
0808BC3A 9101     str     r1,[sp,4h]                              
0808BC3C 4668     mov     r0,r13                                  
0808BC3E F7FFF96B bl      808AF18h                                
0808BC42 B007     add     sp,1Ch                                  
0808BC44 BD00     pop     r15                                     
0808BC46 0000     lsl     r0,r0,0h                                
0808BC48 B081     add     sp,-4h                                  
0808BC4A B510     push    r4,r14                                  
0808BC4C B085     add     sp,-14h                                 
0808BC4E 9307     str     r3,[sp,1Ch]                             
0808BC50 9B07     ldr     r3,[sp,1Ch]                             
0808BC52 9C08     ldr     r4,[sp,20h]                             
0808BC54 9000     str     r0,[sp]                                 
0808BC56 9101     str     r1,[sp,4h]                              
0808BC58 9202     str     r2,[sp,8h]                              
0808BC5A 9303     str     r3,[sp,0Ch]                             
0808BC5C 9404     str     r4,[sp,10h]                             
0808BC5E 4668     mov     r0,r13                                  
0808BC60 F7FFF95A bl      808AF18h                                
0808BC64 B005     add     sp,14h                                  
0808BC66 BC10     pop     r4                                      
0808BC68 BC08     pop     r3                                      
0808BC6A B001     add     sp,4h                                   
0808BC6C 4718     bx      r3                                      
0808BC6E 0000     lsl     r0,r0,0h                                
0808BC70 B530     push    r4,r5,r14                               
0808BC72 B087     add     sp,-1Ch                                 
0808BC74 9005     str     r0,[sp,14h]                             
0808BC76 9106     str     r1,[sp,18h]                             
0808BC78 A805     add     r0,sp,14h                               
0808BC7A 4669     mov     r1,r13                                  
0808BC7C F7FFF9F0 bl      808B060h                                
0808BC80 9A03     ldr     r2,[sp,0Ch]                             
0808BC82 9B04     ldr     r3,[sp,10h]                             
0808BC84 009D     lsl     r5,r3,2h                                
0808BC86 0F94     lsr     r4,r2,1Eh                               
0808BC88 1C28     mov     r0,r5                                   
0808BC8A 4320     orr     r0,r4                                   
0808BC8C 1C05     mov     r5,r0                                   
0808BC8E 4C08     ldr     r4,=3FFFFFFFh                           
0808BC90 1C10     mov     r0,r2                                   
0808BC92 4020     and     r0,r4                                   
0808BC94 2100     mov     r1,0h                                   
0808BC96 4308     orr     r0,r1                                   
0808BC98 2800     cmp     r0,0h                                   
0808BC9A D001     beq     808BCA0h                                
0808BC9C 2001     mov     r0,1h                                   
0808BC9E 4305     orr     r5,r0                                   
0808BCA0 9800     ldr     r0,[sp]                                 
0808BCA2 9901     ldr     r1,[sp,4h]                              
0808BCA4 9A02     ldr     r2,[sp,8h]                              
0808BCA6 1C2B     mov     r3,r5                                   
0808BCA8 F000FC88 bl      808C5BCh                                
0808BCAC B007     add     sp,1Ch                                  
0808BCAE BD30     pop     r4,r5,r15                               
0808BCB0 FFFF     bl      lr+0FFEh                                
0808BCB2 3FFF     sub     r7,0FFh                                 
0808BCB4 B570     push    r4-r6,r14                               
0808BCB6 68C2     ldr     r2,[r0,0Ch]                             
0808BCB8 6846     ldr     r6,[r0,4h]                              
0808BCBA 2500     mov     r5,0h                                   
0808BCBC 2100     mov     r1,0h                                   
0808BCBE 6803     ldr     r3,[r0]                                 
0808BCC0 2B01     cmp     r3,1h                                   
0808BCC2 D800     bhi     808BCC6h                                
0808BCC4 2101     mov     r1,1h                                   
0808BCC6 2900     cmp     r1,0h                                   
0808BCC8 D004     beq     808BCD4h                                
0808BCCA 25FF     mov     r5,0FFh                                 

