08023B6C B570     push    r4-r6,r14                               ;22 337
08023B6E 4C09     ldr     r4,=3000738h                            ;9  346
08023B70 7F66     ldrb    r6,[r4,1Dh]                             ;7  353
08023B72 2E47     cmp     r6,47h                                  ;2  355
08023B74 D11A     bne     8023BACh                                ;8  363
08023B76 2003     mov     r0,3h                                   ;2  365
08023B78 212B     mov     r1,2Bh                                  ;2  367
08023B7A F03CFE9F bl      80608BCh                                ;10 377
08023B7E 2800     cmp     r0,0h                                   ;2  379
08023B80 D105     bne     8023B8Eh                                ;8  387
08023B82 2003     mov     r0,3h                                   ;2  389
08023B84 212A     mov     r1,2Ah                                  ;2  391
08023B86 F03CFE99 bl      80608BCh                                ;10 401
08023B8A 2800     cmp     r0,0h                                   ;2  403
08023B8C D104     bne     8023B98h                                ;8  411
08023B8E 2000     mov     r0,0h                                   ;2  413
08023B90 8020     strh    r0,[r4]                                 ;8  421
08023B92 E066     b       8023C62h                                ;8  429
08023B94 0738     lsl     r0,r7,1Ch                               ;2  431
08023B96 0300     lsl     r0,r0,0Ch                               ;2  433
08023B98 4903     ldr     r1,=300007Bh                            ;9  442
08023B9A 2001     mov     r0,1h                                   ;2  444
08023B9C 7008     strb    r0,[r1]                                 ;8  452
08023B9E 1C21     mov     r1,r4                                   ;2  454
08023BA0 3124     add     r1,24h                                  ;2  456
08023BA2 2011     mov     r0,11h                                  ;2  458
08023BA4 E019     b       8023BDAh                                ;8  466
08023BA6 0000     lsl     r0,r0,0h                                ;2  468
08023BA8 007B     lsl     r3,r7,1h                                ;2  470
08023BAA 0300     lsl     r0,r0,0Ch                               ;2  472
08023BAC 8860     ldrh    r0,[r4,2h]                              ;7  479
08023BAE 3844     sub     r0,44h                                  ;2  481
08023BB0 88A1     ldrh    r1,[r4,4h]                              ;7  488
08023BB2 F7EBFD69 bl      800F688h                                ;10 498
08023BB6 4816     ldr     r0,=30007F1h                            ;9  507
08023BB8 7801     ldrb    r1,[r0]                                 ;7  514
08023BBA 20F0     mov     r0,0F0h                                 ;2  516
08023BBC 4008     and     r0,r1                                   ;2  518
08023BBE 2800     cmp     r0,0h                                   ;2  520
08023BC0 D008     beq     8023BD4h                                ;8  528
08023BC2 8820     ldrh    r0,[r4]                                 ;7  535
08023BC4 2280     mov     r2,80h                                  ;2  537
08023BC6 0052     lsl     r2,r2,1h                                ;2  539
08023BC8 1C11     mov     r1,r2                                   ;2  541
08023BCA 4301     orr     r1,r0                                   ;2  543
08023BCC 8021     strh    r1,[r4]                                 ;8  551
08023BCE 8860     ldrh    r0,[r4,2h]                              ;7  558
08023BD0 3840     sub     r0,40h                                  ;2  560
08023BD2 8060     strh    r0,[r4,2h]                              ;8  568
08023BD4 1C21     mov     r1,r4                                   ;2  570
08023BD6 3124     add     r1,24h                                  ;2  572
08023BD8 200F     mov     r0,0Fh                                  ;2  574
08023BDA 7008     strb    r0,[r1]                                 ;8  582
08023BDC 4A0D     ldr     r2,=3000738h                            ;9  591
08023BDE 1C10     mov     r0,r2                                   ;2  593
08023BE0 302C     add     r0,2Ch                                  ;2  595
08023BE2 2500     mov     r5,0h                                   ;2  597
08023BE4 7005     strb    r5,[r0]                                 ;8  605
08023BE6 8811     ldrh    r1,[r2]                                 ;4  609
08023BE8 2080     mov     r0,80h                                  ;2  611
08023BEA 0040     lsl     r0,r0,1h                                ;2  613
08023BEC 4008     and     r0,r1                                   ;2  615
08023BEE 0400     lsl     r0,r0,10h                               ;2  617
08023BF0 0C04     lsr     r4,r0,10h                               ;2  619
08023BF2 1C13     mov     r3,r2                                   ;2  621
08023BF4 2C00     cmp     r4,0h                                   ;2  623
08023BF6 D00F     beq     8023C18h                                ;8  631
08023BF8 1C19     mov     r1,r3                                   ;2  633
08023BFA 3127     add     r1,27h                                  ;2  635
08023BFC 2008     mov     r0,8h                                   ;2  637
08023BFE 7008     strb    r0,[r1]                                 ;8  645
08023C00 3101     add     r1,1h                                   ;2  647
08023C02 2028     mov     r0,28h                                  ;2  649
08023C04 7008     strb    r0,[r1]                                 ;8  657
08023C06 815D     strh    r5,[r3,0Ah]                             ;5  662
08023C08 2058     mov     r0,58h                                  ;2  664
08023C0A 8198     strh    r0,[r3,0Ch]                             ;5  669
08023C0C E00E     b       8023C2Ch                                ;8  677
08023C0E 0000     lsl     r0,r0,0h                                ;2  679
08023C10 07F1     lsl     r1,r6,1Fh                               ;2  681
08023C12 0300     lsl     r0,r0,0Ch                               ;2  683
08023C14 0738     lsl     r0,r7,1Ch                               ;2  685
08023C16 0300     lsl     r0,r0,0Ch                               ;2  687
08023C18 1C19     mov     r1,r3                                   ;2  689
08023C1A 3127     add     r1,27h                                  ;2  691
08023C1C 2028     mov     r0,28h                                  ;2  693
08023C1E 7008     strb    r0,[r1]                                 ;8  701
08023C20 3101     add     r1,1h                                   ;2  703
08023C22 2008     mov     r0,8h                                   ;2  705
08023C24 7008     strb    r0,[r1]                                 ;8  713
08023C26 4810     ldr     r0,=0FFA8h                              ;9  722
08023C28 8158     strh    r0,[r3,0Ah]                             ;5  727
08023C2A 819C     strh    r4,[r3,0Ch]                             ;5  732
08023C2C 1C19     mov     r1,r3                                   ;2  734
08023C2E 3129     add     r1,29h                                  ;2  736
08023C30 2200     mov     r2,0h                                   ;2  738
08023C32 2018     mov     r0,18h                                  ;2  740
08023C34 7008     strb    r0,[r1]                                 ;8  748
08023C36 2100     mov     r1,0h                                   ;2  750
08023C38 480C     ldr     r0,=0FFC0h                              ;9  759
08023C3A 81D8     strh    r0,[r3,0Eh]                             ;5  764
08023C3C 2040     mov     r0,40h                                  ;2  766
08023C3E 8218     strh    r0,[r3,10h]                             ;5  771
08023C40 480B     ldr     r0,=82D82DCh                            ;9  780
08023C42 6198     str     r0,[r3,18h]                             ;5  785
08023C44 7719     strb    r1,[r3,1Ch]                             ;5  790
08023C46 82DA     strh    r2,[r3,16h]                             ;5  795
08023C48 1C19     mov     r1,r3                                   ;2  797
08023C4A 3125     add     r1,25h                                  ;2  799
08023C4C 2004     mov     r0,4h                                   ;2  801
08023C4E 7008     strb    r0,[r1]                                 ;8  809
08023C50 4908     ldr     r1,=82B0D68h                            ;9  818
08023C52 00F0     lsl     r0,r6,3h                                ;2  820
08023C54 1980     add     r0,r0,r6                                ;2  822
08023C56 0040     lsl     r0,r0,1h                                ;2  824
08023C58 1840     add     r0,r0,r1                                ;2  826
08023C5A 8800     ldrh    r0,[r0]                                 ;7  833
08023C5C 8298     strh    r0,[r3,14h]                             ;5  838
08023C5E F7EBFDF1 bl      800F844h                                ;10 848
08023C62 BC70     pop     r4-r6                                   ;17 865
08023C64 BC01     pop     r0                                      ;9  874
08023C66 4700     bx      r0                                      ;8  882
08023C68 FFA8     bl      lr+0F50h                                ;10 892
08023C6A 0000     lsl     r0,r0,0h                                ;2  894
08023C6C FFC0     bl      lr+0F80h                                ;10 904
08023C6E 0000     lsl     r0,r0,0h                                ;2  906
08023C70 82DC     strh    r4,[r3,16h]                             ;5  911
08023C72 082D     lsr     r5,r5,20h                               ;2  913
08023C74 0D68     lsr     r0,r5,15h                               ;2  915
08023C76 082B     lsr     r3,r5,20h                               ;2  917
08023C78 4905     ldr     r1,=3000738h                            ;9  926
08023C7A 1C0B     mov     r3,r1                                   ;2  928
08023C7C 3324     add     r3,24h                                  ;2  930
08023C7E 2200     mov     r2,0h                                   ;2  932
08023C80 2009     mov     r0,9h                                   ;2  934
08023C82 7018     strb    r0,[r3]                                 ;5  939
08023C84 770A     strb    r2,[r1,1Ch]                             ;8  947
08023C86 82CA     strh    r2,[r1,16h]                             ;8  955
08023C88 4802     ldr     r0,=82D8364h                            ;9  964
08023C8A 6188     str     r0,[r1,18h]                             ;10 974
08023C8C 4770     bx      r14                                     ;8  982
08023C8E 0000     lsl     r0,r0,0h                                ;2  984
08023C90 0738     lsl     r0,r7,1Ch                               ;2  986
08023C92 0300     lsl     r0,r0,0Ch                               ;2  988
08023C94 8364     strh    r4,[r4,1Ah]                             ;8  996
08023C96 082D     lsr     r5,r5,20h                               ;2  998
08023C98 B510     push    r4,r14                                  ;14 1012
08023C9A 4B0D     ldr     r3,=3000738h                            ;9  1021
08023C9C 1C19     mov     r1,r3                                   ;2  1023
08023C9E 3124     add     r1,24h                                  ;2  1025
08023CA0 2200     mov     r2,0h                                   ;2  1027
08023CA2 2023     mov     r0,23h                                  ;2  1029
08023CA4 7008     strb    r0,[r1]                                 ;8  1037
08023CA6 771A     strb    r2,[r3,1Ch]                             ;5  1042
08023CA8 2400     mov     r4,0h                                   ;2  1044
08023CAA 82DA     strh    r2,[r3,16h]                             ;5  1049
08023CAC 1C18     mov     r0,r3                                   ;2  1051
08023CAE 302F     add     r0,2Fh                                  ;2  1053
08023CB0 7004     strb    r4,[r0]                                 ;8  1061
08023CB2 4808     ldr     r0,=82D8384h                            ;9  1070
08023CB4 6198     str     r0,[r3,18h]                             ;5  1075
08023CB6 4808     ldr     r0,=300083Ch                            ;9  1084
08023CB8 7801     ldrb    r1,[r0]                                 ;7  1091
08023CBA 2201     mov     r2,1h                                   ;2  1093
08023CBC 1C10     mov     r0,r2                                   ;2  1095
08023CBE 4008     and     r0,r1                                   ;2  1097
08023CC0 1C19     mov     r1,r3                                   ;2  1099
08023CC2 2800     cmp     r0,0h                                   ;2  1101
08023CC4 D00A     beq     8023CDCh                                ;8  1109
08023CC6 1C08     mov     r0,r1                                   ;2  1111
08023CC8 302E     add     r0,2Eh                                  ;2  1113
08023CCA 7002     strb    r2,[r0]                                 ;8  1121
08023CCC E009     b       8023CE2h                                ;8  1129
08023CCE 0000     lsl     r0,r0,0h                                ;2  1131
08023CD0 0738     lsl     r0,r7,1Ch                               ;2  1133
08023CD2 0300     lsl     r0,r0,0Ch                               ;2  1135
08023CD4 8384     strh    r4,[r0,1Ch]                             ;8  1143
08023CD6 082D     lsr     r5,r5,20h                               ;2  1145
08023CD8 083C     lsr     r4,r7,20h                               ;2  1147
08023CDA 0300     lsl     r0,r0,0Ch                               ;2  1149
08023CDC 1C08     mov     r0,r1                                   ;2  1151
08023CDE 302E     add     r0,2Eh                                  ;2  1153
08023CE0 7004     strb    r4,[r0]                                 ;8  1161
08023CE2 8809     ldrh    r1,[r1]                                 ;7  1168
08023CE4 2002     mov     r0,2h                                   ;2  1170
08023CE6 4008     and     r0,r1                                   ;2  1172
08023CE8 2800     cmp     r0,0h                                   ;2  1174
08023CEA D003     beq     8023CF4h                                ;8  1182
08023CEC 20AD     mov     r0,0ADh                                 ;2  1184
08023CEE 0040     lsl     r0,r0,1h                                ;2  1186
08023CF0 F7DEFF16 bl      8002B20h                                ;10 1196
08023CF4 BC10     pop     r4                                      ;9  1205
08023CF6 BC01     pop     r0                                      ;9  1214
08023CF8 4700     bx      r0                                      ;8  1222
08023CFA 0000     lsl     r0,r0,0h                                ;2  1224
08023CFC B500     push    r14                                     ;10 1234
08023CFE 490A     ldr     r1,=3000738h                            ;9  1243
08023D00 1C0B     mov     r3,r1                                   ;2  1245
08023D02 3324     add     r3,24h                                  ;2  1247
08023D04 2200     mov     r2,0h                                   ;2  1249
08023D06 2025     mov     r0,25h                                  ;2  1251
08023D08 7018     strb    r0,[r3]                                 ;5  1256
08023D0A 770A     strb    r2,[r1,1Ch]                             ;8  1264
08023D0C 82CA     strh    r2,[r1,16h]                             ;8  1272
08023D0E 4807     ldr     r0,=82D839Ch                            ;9  1281
08023D10 6188     str     r0,[r1,18h]                             ;10 1291
08023D12 8809     ldrh    r1,[r1]                                 ;7  1298
08023D14 2002     mov     r0,2h                                   ;2  1300
08023D16 4008     and     r0,r1                                   ;2  1302
08023D18 2800     cmp     r0,0h                                   ;2  1304
08023D1A D002     beq     8023D22h                                ;8  1312
08023D1C 4804     ldr     r0,=15Bh                                ;9  1321
08023D1E F7DEFEFF bl      8002B20h                                ;10 1331
08023D22 BC01     pop     r0                                      ;9  1340
08023D24 4700     bx      r0                                      ;8  1348
08023D26 0000     lsl     r0,r0,0h                                ;2  1350
08023D28 0738     lsl     r0,r7,1Ch                               ;2  1352
08023D2A 0300     lsl     r0,r0,0Ch                               ;2  1354
08023D2C 839C     strh    r4,[r3,1Ch]                             ;5  1359
08023D2E 082D     lsr     r5,r5,20h                               ;2  1361
08023D30 015B     lsl     r3,r3,5h                                ;2  1363
08023D32 0000     lsl     r0,r0,0h                                ;2  1365
08023D34 B500     push    r14                                     ;5  1370
08023D36 F7FFFF09 bl      8023B4Ch                                ;10 1380
08023D3A 0600     lsl     r0,r0,18h                               ;2  1382
08023D3C 0E03     lsr     r3,r0,18h                               ;2  1384
08023D3E 2B00     cmp     r3,0h                                   ;2  1386
08023D40 D002     beq     8023D48h                                ;8  1394
08023D42 F7FFFF99 bl      8023C78h                                ;10 1404
08023D46 E02A     b       8023D9Eh                                ;8  1412
08023D48 4A0C     ldr     r2,=3000738h                            ;9  1421
08023D4A 1C11     mov     r1,r2                                   ;2  1423
08023D4C 3124     add     r1,24h                                  ;2  1425
08023D4E 200F     mov     r0,0Fh                                  ;2  1427
08023D50 7008     strb    r0,[r1]                                 ;8  1435
08023D52 7713     strb    r3,[r2,1Ch]                             ;5  1440
08023D54 2100     mov     r1,0h                                   ;2  1442
08023D56 82D3     strh    r3,[r2,16h]                             ;5  1447
08023D58 1C10     mov     r0,r2                                   ;2  1449
08023D5A 302C     add     r0,2Ch                                  ;2  1451
08023D5C 7001     strb    r1,[r0]                                 ;8  1459
08023D5E 4808     ldr     r0,=300083Ch                            ;9  1468
08023D60 7801     ldrb    r1,[r0]                                 ;7  1475
08023D62 2003     mov     r0,3h                                   ;2  1477
08023D64 4008     and     r0,r1                                   ;2  1479
08023D66 1C13     mov     r3,r2                                   ;2  1481
08023D68 332D     add     r3,2Dh                                  ;2  1483
08023D6A 7018     strb    r0,[r3]                                 ;5  1488
08023D6C 0609     lsl     r1,r1,18h                               ;2  1490
08023D6E 0E09     lsr     r1,r1,18h                               ;2  1492
08023D70 2907     cmp     r1,7h                                   ;2  1494
08023D72 D909     bls     8023D88h                                ;8  1502
08023D74 4803     ldr     r0,=82D82DCh                            ;9  1511
08023D76 6190     str     r0,[r2,18h]                             ;5  1516
08023D78 E011     b       8023D9Eh                                ;8  1524
08023D7A 0000     lsl     r0,r0,0h                                ;2  1526
08023D7C 0738     lsl     r0,r7,1Ch                               ;2  1528
08023D7E 0300     lsl     r0,r0,0Ch                               ;2  1530
08023D80 083C     lsr     r4,r7,20h                               ;2  1532
08023D82 0300     lsl     r0,r0,0Ch                               ;2  1534
08023D84 82DC     strh    r4,[r3,16h]                             ;5  1539
08023D86 082D     lsr     r5,r5,20h                               ;2  1541
08023D88 4806     ldr     r0,=82D8304h                            ;9  1550
08023D8A 6190     str     r0,[r2,18h]                             ;5  1555
08023D8C 8811     ldrh    r1,[r2]                                 ;4  1559
08023D8E 2002     mov     r0,2h                                   ;2  1561
08023D90 4008     and     r0,r1                                   ;2  1563
08023D92 2800     cmp     r0,0h                                   ;2  1565
08023D94 D003     beq     8023D9Eh                                ;8  1573
08023D96 20AE     mov     r0,0AEh                                 ;2  1575
08023D98 0040     lsl     r0,r0,1h                                ;2  1577
08023D9A F7DEFEC1 bl      8002B20h                                ;10 1587
08023D9E BC01     pop     r0                                      ;9  1596
08023DA0 4700     bx      r0                                      ;8  1604
08023DA2 0000     lsl     r0,r0,0h                                ;2  1606
08023DA4 8304     strh    r4,[r0,18h]                             ;8  1614
08023DA6 082D     lsr     r5,r5,20h                               ;2  1616
08023DA8 4B06     ldr     r3,=3000738h                            ;9  1625
08023DAA 1C19     mov     r1,r3                                   ;2  1627
08023DAC 3124     add     r1,24h                                  ;2  1629
08023DAE 2200     mov     r2,0h                                   ;2  1631
08023DB0 201F     mov     r0,1Fh                                  ;2  1633
08023DB2 7008     strb    r0,[r1]                                 ;8  1641
08023DB4 771A     strb    r2,[r3,1Ch]                             ;5  1646
08023DB6 2000     mov     r0,0h                                   ;2  1648
08023DB8 82DA     strh    r2,[r3,16h]                             ;5  1653
08023DBA 310B     add     r1,0Bh                                  ;2  1655
08023DBC 7008     strb    r0,[r1]                                 ;8  1663
08023DBE 4802     ldr     r0,=82D8384h                            ;9  1672
08023DC0 6198     str     r0,[r3,18h]                             ;5  1677
08023DC2 4770     bx      r14                                     ;8  1685
08023DC4 0738     lsl     r0,r7,1Ch                               ;2  1687
08023DC6 0300     lsl     r0,r0,0Ch                               ;2  1689
08023DC8 8384     strh    r4,[r0,1Ch]                             ;8  1697
08023DCA 082D     lsr     r5,r5,20h                               ;2  1699
08023DCC B530     push    r4,r5,r14                               ;18 1717
08023DCE 4C0F     ldr     r4,=3000738h                            ;9  1726
08023DD0 8860     ldrh    r0,[r4,2h]                              ;7  1733
08023DD2 88A1     ldrh    r1,[r4,4h]                              ;7  1740
08023DD4 F7EBFCA4 bl      800F720h                                ;10 1750
08023DD8 2800     cmp     r0,0h                                   ;2  1752
08023DDA D11B     bne     8023E14h                                ;8  1760
08023DDC 8860     ldrh    r0,[r4,2h]                              ;7  1767
08023DDE 2210     mov     r2,10h                                  ;2  1769
08023DE0 5EA1     ldsh    r1,[r4,r2]                              ;7  1776
08023DE2 88A2     ldrh    r2,[r4,4h]                              ;7  1783
08023DE4 1889     add     r1,r1,r2                                ;2  1785
08023DE6 F7EBFC4F bl      800F688h                                ;10 1795
08023DEA 4D09     ldr     r5,=30007F1h                            ;9  1804
08023DEC 7828     ldrb    r0,[r5]                                 ;4  1808
08023DEE 2800     cmp     r0,0h                                   ;2  1810
08023DF0 D110     bne     8023E14h                                ;8  1818
08023DF2 8860     ldrh    r0,[r4,2h]                              ;7  1825
08023DF4 220E     mov     r2,0Eh                                  ;2  1827
08023DF6 5EA1     ldsh    r1,[r4,r2]                              ;7  1834
08023DF8 88A4     ldrh    r4,[r4,4h]                              ;7  1841
08023DFA 1909     add     r1,r1,r4                                ;2  1843
08023DFC F7EBFC44 bl      800F688h                                ;10 1853
08023E00 7828     ldrb    r0,[r5]                                 ;4  1857
08023E02 2800     cmp     r0,0h                                   ;2  1859
08023E04 D106     bne     8023E14h                                ;8  1867
08023E06 F7FFFFCF bl      8023DA8h                                ;10 1877
08023E0A E009     b       8023E20h                                ;8  1885
08023E0C 0738     lsl     r0,r7,1Ch                               ;2  1887
08023E0E 0300     lsl     r0,r0,0Ch                               ;2  1889
08023E10 07F1     lsl     r1,r6,1Fh                               ;2  1891
08023E12 0300     lsl     r0,r0,0Ch                               ;2  1893
08023E14 F7EBFED8 bl      800FBC8h                                ;10 1903
08023E18 2800     cmp     r0,0h                                   ;2  1905
08023E1A D001     beq     8023E20h                                ;8  1913
08023E1C F7FFFF3C bl      8023C98h                                ;10 1923
08023E20 BC30     pop     r4,r5                                   ;13 1936
08023E22 BC01     pop     r0                                      ;9  1945
08023E24 4700     bx      r0                                      ;8  1953
08023E26 0000     lsl     r0,r0,0h                                ;2  1955
08023E28 B500     push    r14                                     ;10 1965
08023E2A F7EBFECD bl      800FBC8h                                ;10 1975
08023E2E 2800     cmp     r0,0h                                   ;2  1977
08023E30 D001     beq     8023E36h                                ;8  1985
08023E32 F7FFFF31 bl      8023C98h                                ;10 1995
08023E36 BC01     pop     r0                                      ;9  2004
08023E38 4700     bx      r0                                      ;8  2012
08023E3A 0000     lsl     r0,r0,0h                                ;2  2014
08023E3C B570     push    r4-r6,r14                               ;22 2036
08023E3E 2600     mov     r6,0h                                   ;2  2038
08023E40 4A07     ldr     r2,=3000738h                            ;9  2047
08023E42 1C10     mov     r0,r2                                   ;2  2049
08023E44 302E     add     r0,2Eh                                  ;2  2051
08023E46 7800     ldrb    r0,[r0]                                 ;7  2058
08023E48 2800     cmp     r0,0h                                   ;2  2060
08023E4A D00D     beq     8023E68h                                ;8  2068
08023E4C 4905     ldr     r1,=82D7AE8h                            ;9  2077
08023E4E 1C10     mov     r0,r2                                   ;2  2079
08023E50 302F     add     r0,2Fh                                  ;2  2081
08023E52 7800     ldrb    r0,[r0]                                 ;7  2088
08023E54 0880     lsr     r0,r0,2h                                ;2  2090
08023E56 0040     lsl     r0,r0,1h                                ;2  2092
08023E58 1840     add     r0,r0,r1                                ;2  2094
08023E5A 2100     mov     r1,0h                                   ;2  2096
08023E5C 5E45     ldsh    r5,[r0,r1]                              ;4  2100
08023E5E E00C     b       8023E7Ah                                ;8  2108
08023E60 0738     lsl     r0,r7,1Ch                               ;2  2110
08023E62 0300     lsl     r0,r0,0Ch                               ;2  2112
08023E64 7AE8     ldrb    r0,[r5,0Bh]                             ;4  2116
08023E66 082D     lsr     r5,r5,20h                               ;2  2118
08023E68 4911     ldr     r1,=82D7AD4h                            ;9  2127
08023E6A 1C10     mov     r0,r2                                   ;2  2129
08023E6C 302F     add     r0,2Fh                                  ;2  2131
08023E6E 7800     ldrb    r0,[r0]                                 ;7  2138
08023E70 0880     lsr     r0,r0,2h                                ;2  2140
08023E72 0040     lsl     r0,r0,1h                                ;2  2142
08023E74 1840     add     r0,r0,r1                                ;2  2144
08023E76 2200     mov     r2,0h                                   ;2  2146
08023E78 5E85     ldsh    r5,[r0,r2]                              ;7  2153
08023E7A 4C0E     ldr     r4,=3000738h                            ;9  2162
08023E7C 8821     ldrh    r1,[r4]                                 ;7  2169
08023E7E 2080     mov     r0,80h                                  ;2  2171
08023E80 0080     lsl     r0,r0,2h                                ;2  2173
08023E82 4008     and     r0,r1                                   ;2  2175
08023E84 2800     cmp     r0,0h                                   ;2  2177
08023E86 D021     beq     8023ECCh                                ;8  2185
08023E88 8860     ldrh    r0,[r4,2h]                              ;7  2192
08023E8A 3810     sub     r0,10h                                  ;2  2194
08023E8C 2310     mov     r3,10h                                  ;2  2196
08023E8E 5EE1     ldsh    r1,[r4,r3]                              ;7  2203
08023E90 88A2     ldrh    r2,[r4,4h]                              ;7  2210
08023E92 1889     add     r1,r1,r2                                ;2  2212
08023E94 3104     add     r1,4h                                   ;2  2214
08023E96 F7EBFBF7 bl      800F688h                                ;10 2224
08023E9A 4807     ldr     r0,=30007F1h                            ;9  2233
08023E9C 7800     ldrb    r0,[r0]                                 ;7  2240
08023E9E 2811     cmp     r0,11h                                  ;2  2242
08023EA0 D10C     bne     8023EBCh                                ;8  2250
08023EA2 1C70     add     r0,r6,1                                 ;2  2252
08023EA4 0600     lsl     r0,r0,18h                               ;2  2254
08023EA6 0E06     lsr     r6,r0,18h                               ;2  2256
08023EA8 88A0     ldrh    r0,[r4,4h]                              ;7  2263
08023EAA 3806     sub     r0,6h                                   ;2  2265
08023EAC E02B     b       8023F06h                                ;8  2273
08023EAE 0000     lsl     r0,r0,0h                                ;2  2275
08023EB0 7AD4     ldrb    r4,[r2,0Bh]                             ;4  2279
08023EB2 082D     lsr     r5,r5,20h                               ;2  2281
08023EB4 0738     lsl     r0,r7,1Ch                               ;2  2283
08023EB6 0300     lsl     r0,r0,0Ch                               ;2  2285
08023EB8 07F1     lsl     r1,r6,1Fh                               ;2  2287
08023EBA 0300     lsl     r0,r0,0Ch                               ;2  2289
08023EBC 2D00     cmp     r5,0h                                   ;2  2291
08023EBE DD02     ble     8023EC6h                                ;8  2299
08023EC0 88A0     ldrh    r0,[r4,4h]                              ;7  2306
08023EC2 3004     add     r0,4h                                   ;2  2308
08023EC4 E01F     b       8023F06h                                ;8  2316
08023EC6 88A0     ldrh    r0,[r4,4h]                              ;7  2323
08023EC8 3005     add     r0,5h                                   ;2  2325
08023ECA E01C     b       8023F06h                                ;8  2333
08023ECC 8860     ldrh    r0,[r4,2h]                              ;7  2340
08023ECE 3810     sub     r0,10h                                  ;2  2342
08023ED0 230E     mov     r3,0Eh                                  ;2  2344
08023ED2 5EE1     ldsh    r1,[r4,r3]                              ;7  2351
08023ED4 88A2     ldrh    r2,[r4,4h]                              ;7  2358
08023ED6 1889     add     r1,r1,r2                                ;2  2360
08023ED8 3904     sub     r1,4h                                   ;2  2362
08023EDA F7EBFBD5 bl      800F688h                                ;10 2372
08023EDE 4805     ldr     r0,=30007F1h                            ;9  2381
08023EE0 7800     ldrb    r0,[r0]                                 ;7  2388
08023EE2 2811     cmp     r0,11h                                  ;2  2390
08023EE4 D108     bne     8023EF8h                                ;8  2398
08023EE6 1C70     add     r0,r6,1                                 ;2  2400
08023EE8 0600     lsl     r0,r0,18h                               ;2  2402
08023EEA 0E06     lsr     r6,r0,18h                               ;2  2404
08023EEC 88A0     ldrh    r0,[r4,4h]                              ;7  2411
08023EEE 3006     add     r0,6h                                   ;2  2413
08023EF0 E009     b       8023F06h                                ;8  2421
08023EF2 0000     lsl     r0,r0,0h                                ;2  2423
08023EF4 07F1     lsl     r1,r6,1Fh                               ;2  2425
08023EF6 0300     lsl     r0,r0,0Ch                               ;2  2427
08023EF8 2D00     cmp     r5,0h                                   ;2  2429
08023EFA DD02     ble     8023F02h                                ;8  2437
08023EFC 88A0     ldrh    r0,[r4,4h]                              ;7  2444
08023EFE 3804     sub     r0,4h                                   ;2  2446
08023F00 E001     b       8023F06h                                ;8  2454
08023F02 88A0     ldrh    r0,[r4,4h]                              ;7  2461
08023F04 3805     sub     r0,5h                                   ;2  2463
08023F06 80A0     strh    r0,[r4,4h]                              ;8  2471
08023F08 4C10     ldr     r4,=3000738h                            ;9  2480
08023F0A 8860     ldrh    r0,[r4,2h]                              ;7  2487
08023F0C 1940     add     r0,r0,r5                                ;2  2489
08023F0E 8060     strh    r0,[r4,2h]                              ;8  2497
08023F10 1C21     mov     r1,r4                                   ;2  2499
08023F12 312F     add     r1,2Fh                                  ;2  2501
08023F14 7808     ldrb    r0,[r1]                                 ;7  2508
08023F16 2826     cmp     r0,26h                                  ;2  2510
08023F18 D801     bhi     8023F1Eh                                ;8  2518
08023F1A 3001     add     r0,1h                                   ;2  2520
08023F1C 7008     strb    r0,[r1]                                 ;8  2528
08023F1E 2D00     cmp     r5,0h                                   ;2  2530
08023F20 DD3A     ble     8023F98h                                ;8  2538
08023F22 2E00     cmp     r6,0h                                   ;2  2540
08023F24 D005     beq     8023F32h                                ;8  2548
08023F26 8820     ldrh    r0,[r4]                                 ;7  2555
08023F28 2380     mov     r3,80h                                  ;2  2557
08023F2A 009B     lsl     r3,r3,2h                                ;2  2559
08023F2C 1C19     mov     r1,r3                                   ;2  2561
08023F2E 4048     eor     r0,r1                                   ;2  2563
08023F30 8020     strh    r0,[r4]                                 ;8  2571
08023F32 8860     ldrh    r0,[r4,2h]                              ;7  2578
08023F34 88A1     ldrh    r1,[r4,4h]                              ;7  2585
08023F36 F7EBFAA1 bl      800F47Ch                                ;10 2595
08023F3A 1C01     mov     r1,r0                                   ;2  2597
08023F3C 4D04     ldr     r5,=30007F0h                            ;9  2606
08023F3E 7828     ldrb    r0,[r5]                                 ;4  2610
08023F40 2800     cmp     r0,0h                                   ;2  2612
08023F42 D007     beq     8023F54h                                ;8  2620
08023F44 8061     strh    r1,[r4,2h]                              ;8  2628
08023F46 F7FFFED9 bl      8023CFCh                                ;10 2638
08023F4A E064     b       8024016h                                ;8  2646
08023F4C 0738     lsl     r0,r7,1Ch                               ;2  2648
08023F4E 0300     lsl     r0,r0,0Ch                               ;2  2650
08023F50 07F0     lsl     r0,r6,1Fh                               ;2  2652
08023F52 0300     lsl     r0,r0,0Ch                               ;2  2654
08023F54 2E00     cmp     r6,0h                                   ;2  2656
08023F56 D15E     bne     8024016h                                ;8  2664
08023F58 8860     ldrh    r0,[r4,2h]                              ;7  2671
08023F5A 2210     mov     r2,10h                                  ;2  2673
08023F5C 5EA1     ldsh    r1,[r4,r2]                              ;7  2680
08023F5E 88A3     ldrh    r3,[r4,4h]                              ;7  2687
08023F60 18C9     add     r1,r1,r3                                ;2  2689
08023F62 F7EBFA8B bl      800F47Ch                                ;10 2699
08023F66 1C01     mov     r1,r0                                   ;2  2701
08023F68 7828     ldrb    r0,[r5]                                 ;4  2705
08023F6A 2800     cmp     r0,0h                                   ;2  2707
08023F6C D10D     bne     8023F8Ah                                ;8  2715
08023F6E 8860     ldrh    r0,[r4,2h]                              ;7  2722
08023F70 220E     mov     r2,0Eh                                  ;2  2724
08023F72 5EA1     ldsh    r1,[r4,r2]                              ;7  2731
08023F74 88A4     ldrh    r4,[r4,4h]                              ;7  2738
08023F76 1909     add     r1,r1,r4                                ;2  2740
08023F78 F7EBFA80 bl      800F47Ch                                ;10 2750
08023F7C 1C01     mov     r1,r0                                   ;2  2752
08023F7E 7828     ldrb    r0,[r5]                                 ;4  2756
08023F80 2800     cmp     r0,0h                                   ;2  2758
08023F82 D000     beq     8023F86h                                ;8  2766
08023F84 2601     mov     r6,1h                                   ;2  2768
08023F86 2E00     cmp     r6,0h                                   ;2  2770
08023F88 D045     beq     8024016h                                ;8  2778
08023F8A 4802     ldr     r0,=3000738h                            ;9  2787
08023F8C 8041     strh    r1,[r0,2h]                              ;8  2795
08023F8E F7FFFEB5 bl      8023CFCh                                ;10 2805
08023F92 E040     b       8024016h                                ;8  2813
08023F94 0738     lsl     r0,r7,1Ch                               ;2  2815
08023F96 0300     lsl     r0,r0,0Ch                               ;2  2817
08023F98 8821     ldrh    r1,[r4]                                 ;7  2824
08023F9A 2080     mov     r0,80h                                  ;2  2826
08023F9C 0080     lsl     r0,r0,2h                                ;2  2828
08023F9E 4008     and     r0,r1                                   ;2  2830
08023FA0 2800     cmp     r0,0h                                   ;2  2832
08023FA2 D019     beq     8023FD8h                                ;8  2840
08023FA4 230A     mov     r3,0Ah                                  ;2  2842
08023FA6 5EE0     ldsh    r0,[r4,r3]                              ;7  2849
08023FA8 8861     ldrh    r1,[r4,2h]                              ;7  2856
08023FAA 1840     add     r0,r0,r1                                ;2  2858
08023FAC 2210     mov     r2,10h                                  ;2  2860
08023FAE 5EA1     ldsh    r1,[r4,r2]                              ;7  2867
08023FB0 88A3     ldrh    r3,[r4,4h]                              ;7  2874
08023FB2 18C9     add     r1,r1,r3                                ;2  2876
08023FB4 F7EBFB68 bl      800F688h                                ;10 2886
08023FB8 4806     ldr     r0,=30007F1h                            ;9  2895
08023FBA 7800     ldrb    r0,[r0]                                 ;7  2902
08023FBC 2811     cmp     r0,11h                                  ;2  2904
08023FBE D121     bne     8024004h                                ;8  2912
08023FC0 1C70     add     r0,r6,1                                 ;2  2914
08023FC2 0600     lsl     r0,r0,18h                               ;2  2916
08023FC4 0E06     lsr     r6,r0,18h                               ;2  2918
08023FC6 88A0     ldrh    r0,[r4,4h]                              ;7  2925
08023FC8 3806     sub     r0,6h                                   ;2  2927
08023FCA 80A0     strh    r0,[r4,4h]                              ;8  2935
08023FCC F7FFFEEC bl      8023DA8h                                ;10 2945
08023FD0 E018     b       8024004h                                ;8  2953
08023FD2 0000     lsl     r0,r0,0h                                ;2  2955
08023FD4 07F1     lsl     r1,r6,1Fh                               ;2  2957
08023FD6 0300     lsl     r0,r0,0Ch                               ;2  2959
08023FD8 210A     mov     r1,0Ah                                  ;2  2961
08023FDA 5E60     ldsh    r0,[r4,r1]                              ;4  2965
08023FDC 8862     ldrh    r2,[r4,2h]                              ;7  2972
08023FDE 1880     add     r0,r0,r2                                ;2  2974
08023FE0 230E     mov     r3,0Eh                                  ;2  2976
08023FE2 5EE1     ldsh    r1,[r4,r3]                              ;7  2983
08023FE4 88A2     ldrh    r2,[r4,4h]                              ;7  2990
08023FE6 1889     add     r1,r1,r2                                ;2  2992
08023FE8 F7EBFB4E bl      800F688h                                ;10 3002
08023FEC 480B     ldr     r0,=30007F1h                            ;9  3011
08023FEE 7800     ldrb    r0,[r0]                                 ;7  3018
08023FF0 2811     cmp     r0,11h                                  ;2  3020
08023FF2 D107     bne     8024004h                                ;8  3028
08023FF4 1C70     add     r0,r6,1                                 ;2  3030
08023FF6 0600     lsl     r0,r0,18h                               ;2  3032
08023FF8 0E06     lsr     r6,r0,18h                               ;2  3034
08023FFA 88A0     ldrh    r0,[r4,4h]                              ;7  3041
08023FFC 3006     add     r0,6h                                   ;2  3043
08023FFE 80A0     strh    r0,[r4,4h]                              ;8  3051
08024000 F7FFFED2 bl      8023DA8h                                ;10 3061
08024004 2E00     cmp     r6,0h                                   ;2  3063
08024006 D006     beq     8024016h                                ;8  3071
08024008 4805     ldr     r0,=3000738h                            ;9  3080
0802400A 8801     ldrh    r1,[r0]                                 ;7  3087
0802400C 2380     mov     r3,80h                                  ;2  3089
0802400E 009B     lsl     r3,r3,2h                                ;2  3091
08024010 1C1A     mov     r2,r3                                   ;2  3093
08024012 4051     eor     r1,r2                                   ;2  3095
08024014 8001     strh    r1,[r0]                                 ;8  3103
08024016 BC70     pop     r4-r6                                   ;17 3120
08024018 BC01     pop     r0                                      ;9  3129
0802401A 4700     bx      r0                                      ;8  3137
0802401C 07F1     lsl     r1,r6,1Fh                               ;2  3139
0802401E 0300     lsl     r0,r0,0Ch                               ;2  3141
08024020 0738     lsl     r0,r7,1Ch                               ;2  3143
08024022 0300     lsl     r0,r0,0Ch                               ;2  3145
08024024 B5F0     push    r4-r7,r14                               ;26 3171
08024026 2700     mov     r7,0h                                   ;2  3173
08024028 4A07     ldr     r2,=3000738h                            ;9  3182
0802402A 1C10     mov     r0,r2                                   ;2  3184
0802402C 302E     add     r0,2Eh                                  ;2  3186
0802402E 7800     ldrb    r0,[r0]                                 ;7  3193
08024030 2800     cmp     r0,0h                                   ;2  3195
08024032 D00D     beq     8024050h                                ;8  3203
08024034 4905     ldr     r1,=82D7AE8h                            ;9  3212
08024036 1C10     mov     r0,r2                                   ;2  3214
08024038 302F     add     r0,2Fh                                  ;2  3216
0802403A 7800     ldrb    r0,[r0]                                 ;7  3223
0802403C 0880     lsr     r0,r0,2h                                ;2  3225
0802403E 0040     lsl     r0,r0,1h                                ;2  3227
08024040 1840     add     r0,r0,r1                                ;2  3229
08024042 2100     mov     r1,0h                                   ;2  3231
08024044 5E45     ldsh    r5,[r0,r1]                              ;4  3235
08024046 E00C     b       8024062h                                ;8  3243
08024048 0738     lsl     r0,r7,1Ch                               ;2  3245
0802404A 0300     lsl     r0,r0,0Ch                               ;2  3247
0802404C 7AE8     ldrb    r0,[r5,0Bh]                             ;4  3251
0802404E 082D     lsr     r5,r5,20h                               ;2  3253
08024050 4911     ldr     r1,=82D7AD4h                            ;9  3262
08024052 1C10     mov     r0,r2                                   ;2  3264
08024054 302F     add     r0,2Fh                                  ;2  3266
08024056 7800     ldrb    r0,[r0]                                 ;7  3273
08024058 0880     lsr     r0,r0,2h                                ;2  3275
0802405A 0040     lsl     r0,r0,1h                                ;2  3277
0802405C 1840     add     r0,r0,r1                                ;2  3279
0802405E 2200     mov     r2,0h                                   ;2  3281
08024060 5E85     ldsh    r5,[r0,r2]                              ;7  3288
08024062 4C0E     ldr     r4,=3000738h                            ;9  3297
08024064 8821     ldrh    r1,[r4]                                 ;7  3304
08024066 2080     mov     r0,80h                                  ;2  3306
08024068 0080     lsl     r0,r0,2h                                ;2  3308
0802406A 4008     and     r0,r1                                   ;2  3310
0802406C 2800     cmp     r0,0h                                   ;2  3312
0802406E D021     beq     80240B4h                                ;8  3320
08024070 8860     ldrh    r0,[r4,2h]                              ;7  3327
08024072 3010     add     r0,10h                                  ;2  3329
08024074 2310     mov     r3,10h                                  ;2  3331
08024076 5EE1     ldsh    r1,[r4,r3]                              ;7  3338
08024078 88A2     ldrh    r2,[r4,4h]                              ;7  3345
0802407A 1889     add     r1,r1,r2                                ;2  3347
0802407C 3104     add     r1,4h                                   ;2  3349
0802407E F7EBFB03 bl      800F688h                                ;10 3359
08024082 4807     ldr     r0,=30007F1h                            ;9  3368
08024084 7800     ldrb    r0,[r0]                                 ;7  3375
08024086 2811     cmp     r0,11h                                  ;2  3377
08024088 D10C     bne     80240A4h                                ;8  3385
0802408A 1C78     add     r0,r7,1                                 ;2  3387
0802408C 0600     lsl     r0,r0,18h                               ;2  3389
0802408E 0E07     lsr     r7,r0,18h                               ;2  3391
08024090 88A0     ldrh    r0,[r4,4h]                              ;7  3398
08024092 3806     sub     r0,6h                                   ;2  3400
08024094 E02B     b       80240EEh                                ;8  3408
08024096 0000     lsl     r0,r0,0h                                ;2  3410
08024098 7AD4     ldrb    r4,[r2,0Bh]                             ;4  3414
0802409A 082D     lsr     r5,r5,20h                               ;2  3416
0802409C 0738     lsl     r0,r7,1Ch                               ;2  3418
0802409E 0300     lsl     r0,r0,0Ch                               ;2  3420
080240A0 07F1     lsl     r1,r6,1Fh                               ;2  3422
080240A2 0300     lsl     r0,r0,0Ch                               ;2  3424
080240A4 2D00     cmp     r5,0h                                   ;2  3426
080240A6 DD02     ble     80240AEh                                ;8  3434
080240A8 88A0     ldrh    r0,[r4,4h]                              ;7  3441
080240AA 3004     add     r0,4h                                   ;2  3443
080240AC E01F     b       80240EEh                                ;8  3451
080240AE 88A0     ldrh    r0,[r4,4h]                              ;7  3458
080240B0 3005     add     r0,5h                                   ;2  3460
080240B2 E01C     b       80240EEh                                ;8  3468
080240B4 8860     ldrh    r0,[r4,2h]                              ;7  3475
080240B6 3010     add     r0,10h                                  ;2  3477
080240B8 230E     mov     r3,0Eh                                  ;2  3479
080240BA 5EE1     ldsh    r1,[r4,r3]                              ;7  3486
080240BC 88A2     ldrh    r2,[r4,4h]                              ;7  3493
080240BE 1889     add     r1,r1,r2                                ;2  3495
080240C0 3904     sub     r1,4h                                   ;2  3497
080240C2 F7EBFAE1 bl      800F688h                                ;10 3507
080240C6 4805     ldr     r0,=30007F1h                            ;9  3516
080240C8 7800     ldrb    r0,[r0]                                 ;7  3523
080240CA 2811     cmp     r0,11h                                  ;2  3525
080240CC D108     bne     80240E0h                                ;8  3533
080240CE 1C78     add     r0,r7,1                                 ;2  3535
080240D0 0600     lsl     r0,r0,18h                               ;2  3537
080240D2 0E07     lsr     r7,r0,18h                               ;2  3539
080240D4 88A0     ldrh    r0,[r4,4h]                              ;7  3546
080240D6 3006     add     r0,6h                                   ;2  3548
080240D8 E009     b       80240EEh                                ;8  3556
080240DA 0000     lsl     r0,r0,0h                                ;2  3558
080240DC 07F1     lsl     r1,r6,1Fh                               ;2  3560
080240DE 0300     lsl     r0,r0,0Ch                               ;2  3562
080240E0 2D00     cmp     r5,0h                                   ;2  3564
080240E2 DD02     ble     80240EAh                                ;8  3572
080240E4 88A0     ldrh    r0,[r4,4h]                              ;7  3579
080240E6 3804     sub     r0,4h                                   ;2  3581
080240E8 E001     b       80240EEh                                ;8  3589
080240EA 88A0     ldrh    r0,[r4,4h]                              ;7  3596
080240EC 3805     sub     r0,5h                                   ;2  3598
080240EE 80A0     strh    r0,[r4,4h]                              ;8  3606
080240F0 4C14     ldr     r4,=3000738h                            ;9  3615
080240F2 8860     ldrh    r0,[r4,2h]                              ;7  3622
080240F4 1B40     sub     r0,r0,r5                                ;2  3624
080240F6 8060     strh    r0,[r4,2h]                              ;8  3632
080240F8 1C21     mov     r1,r4                                   ;2  3634
080240FA 312F     add     r1,2Fh                                  ;2  3636
080240FC 7808     ldrb    r0,[r1]                                 ;7  3643
080240FE 2826     cmp     r0,26h                                  ;2  3645
08024100 D801     bhi     8024106h                                ;8  3653
08024102 3001     add     r0,1h                                   ;2  3655
08024104 7008     strb    r0,[r1]                                 ;8  3663
08024106 2D00     cmp     r5,0h                                   ;2  3665
08024108 DA44     bge     8024194h                                ;8  3673
0802410A 8821     ldrh    r1,[r4]                                 ;7  3680
0802410C 2080     mov     r0,80h                                  ;2  3682
0802410E 0080     lsl     r0,r0,2h                                ;2  3684
08024110 4008     and     r0,r1                                   ;2  3686
08024112 2800     cmp     r0,0h                                   ;2  3688
08024114 D01A     beq     802414Ch                                ;8  3696
08024116 230C     mov     r3,0Ch                                  ;2  3698
08024118 5EE0     ldsh    r0,[r4,r3]                              ;7  3705
0802411A 8861     ldrh    r1,[r4,2h]                              ;7  3712
0802411C 1840     add     r0,r0,r1                                ;2  3714
0802411E 2210     mov     r2,10h                                  ;2  3716
08024120 5EA1     ldsh    r1,[r4,r2]                              ;7  3723
08024122 88A3     ldrh    r3,[r4,4h]                              ;7  3730
08024124 18C9     add     r1,r1,r3                                ;2  3732
08024126 F7EBFAAF bl      800F688h                                ;10 3742
0802412A 4807     ldr     r0,=30007F1h                            ;9  3751
0802412C 7800     ldrb    r0,[r0]                                 ;7  3758
0802412E 2811     cmp     r0,11h                                  ;2  3760
08024130 D122     bne     8024178h                                ;8  3768
08024132 1C78     add     r0,r7,1                                 ;2  3770
08024134 0600     lsl     r0,r0,18h                               ;2  3772
08024136 0E07     lsr     r7,r0,18h                               ;2  3774
08024138 88A0     ldrh    r0,[r4,4h]                              ;7  3781
0802413A 3806     sub     r0,6h                                   ;2  3783
0802413C 80A0     strh    r0,[r4,4h]                              ;8  3791
0802413E F7FFFE33 bl      8023DA8h                                ;10 3801
08024142 E019     b       8024178h                                ;8  3809
08024144 0738     lsl     r0,r7,1Ch                               ;2  3811
08024146 0300     lsl     r0,r0,0Ch                               ;2  3813
08024148 07F1     lsl     r1,r6,1Fh                               ;2  3815
0802414A 0300     lsl     r0,r0,0Ch                               ;2  3817
0802414C 210C     mov     r1,0Ch                                  ;2  3819
0802414E 5E60     ldsh    r0,[r4,r1]                              ;4  3823
08024150 8862     ldrh    r2,[r4,2h]                              ;7  3830
08024152 1880     add     r0,r0,r2                                ;2  3832
08024154 230E     mov     r3,0Eh                                  ;2  3834
08024156 5EE1     ldsh    r1,[r4,r3]                              ;7  3841
08024158 88A2     ldrh    r2,[r4,4h]                              ;7  3848
0802415A 1889     add     r1,r1,r2                                ;2  3850
0802415C F7EBFA94 bl      800F688h                                ;10 3860
08024160 480A     ldr     r0,=30007F1h                            ;9  3869
08024162 7800     ldrb    r0,[r0]                                 ;7  3876
08024164 2811     cmp     r0,11h                                  ;2  3878
08024166 D107     bne     8024178h                                ;8  3886
08024168 1C78     add     r0,r7,1                                 ;2  3888
0802416A 0600     lsl     r0,r0,18h                               ;2  3890
0802416C 0E07     lsr     r7,r0,18h                               ;2  3892
0802416E 88A0     ldrh    r0,[r4,4h]                              ;7  3899
08024170 3006     add     r0,6h                                   ;2  3901
08024172 80A0     strh    r0,[r4,4h]                              ;8  3909
08024174 F7FFFE18 bl      8023DA8h                                ;10 3919
08024178 2F00     cmp     r7,0h                                   ;2  3921
0802417A D04C     beq     8024216h                                ;8  3929
0802417C 4804     ldr     r0,=3000738h                            ;9  3938
0802417E 8801     ldrh    r1,[r0]                                 ;7  3945
08024180 2380     mov     r3,80h                                  ;2  3947
08024182 009B     lsl     r3,r3,2h                                ;2  3949
08024184 1C1A     mov     r2,r3                                   ;2  3951
08024186 4051     eor     r1,r2                                   ;2  3953
08024188 8001     strh    r1,[r0]                                 ;8  3961
0802418A E044     b       8024216h                                ;8  3969
0802418C 07F1     lsl     r1,r6,1Fh                               ;2  3971
0802418E 0300     lsl     r0,r0,0Ch                               ;2  3973
08024190 0738     lsl     r0,r7,1Ch                               ;2  3975
08024192 0300     lsl     r0,r0,0Ch                               ;2  3977
08024194 2F00     cmp     r7,0h                                   ;2  3979
08024196 D005     beq     80241A4h                                ;8  3987
08024198 8820     ldrh    r0,[r4]                                 ;7  3994
0802419A 2280     mov     r2,80h                                  ;2  3996
0802419C 0092     lsl     r2,r2,2h                                ;2  3998
0802419E 1C11     mov     r1,r2                                   ;2  4000
080241A0 4048     eor     r0,r1                                   ;2  4002
080241A2 8020     strh    r0,[r4]                                 ;8  4010
080241A4 8860     ldrh    r0,[r4,2h]                              ;7  4017
080241A6 88A1     ldrh    r1,[r4,4h]                              ;7  4024
080241A8 F7EBF968 bl      800F47Ch                                ;10 4034
080241AC 1C02     mov     r2,r0                                   ;2  4036
080241AE 4D06     ldr     r5,=30007F0h                            ;9  4045
080241B0 7829     ldrb    r1,[r5]                                 ;4  4049
080241B2 260F     mov     r6,0Fh                                  ;2  4051
080241B4 1C30     mov     r0,r6                                   ;2  4053
080241B6 4008     and     r0,r1                                   ;2  4055
080241B8 2800     cmp     r0,0h                                   ;2  4057
080241BA D007     beq     80241CCh                                ;8  4065
080241BC 1C10     mov     r0,r2                                   ;2  4067
080241BE 3040     add     r0,40h                                  ;2  4069
080241C0 8060     strh    r0,[r4,2h]                              ;8  4077
080241C2 F7FFFD9B bl      8023CFCh                                ;10 4087
080241C6 E026     b       8024216h                                ;8  4095
080241C8 07F0     lsl     r0,r6,1Fh                               ;2  4097
080241CA 0300     lsl     r0,r0,0Ch                               ;2  4099
080241CC 2F00     cmp     r7,0h                                   ;2  4101
080241CE D122     bne     8024216h                                ;8  4109
080241D0 8860     ldrh    r0,[r4,2h]                              ;7  4116
080241D2 2310     mov     r3,10h                                  ;2  4118
080241D4 5EE1     ldsh    r1,[r4,r3]                              ;7  4125
080241D6 88A2     ldrh    r2,[r4,4h]                              ;7  4132
080241D8 1889     add     r1,r1,r2                                ;2  4134
080241DA F7EBF94F bl      800F47Ch                                ;10 4144
080241DE 1C02     mov     r2,r0                                   ;2  4146
080241E0 7829     ldrb    r1,[r5]                                 ;4  4150
080241E2 1C30     mov     r0,r6                                   ;2  4152
080241E4 4008     and     r0,r1                                   ;2  4154
080241E6 2800     cmp     r0,0h                                   ;2  4156
080241E8 D10F     bne     802420Ah                                ;8  4164
080241EA 8860     ldrh    r0,[r4,2h]                              ;7  4171
080241EC 230E     mov     r3,0Eh                                  ;2  4173
080241EE 5EE1     ldsh    r1,[r4,r3]                              ;7  4180
080241F0 88A4     ldrh    r4,[r4,4h]                              ;7  4187
080241F2 1909     add     r1,r1,r4                                ;2  4189
080241F4 F7EBF942 bl      800F47Ch                                ;10 4199
080241F8 1C02     mov     r2,r0                                   ;2  4201
080241FA 7829     ldrb    r1,[r5]                                 ;4  4205
080241FC 1C30     mov     r0,r6                                   ;2  4207
080241FE 4008     and     r0,r1                                   ;2  4209
08024200 2800     cmp     r0,0h                                   ;2  4211
08024202 D000     beq     8024206h                                ;8  4219
08024204 2701     mov     r7,1h                                   ;2  4221
08024206 2F00     cmp     r7,0h                                   ;2  4223
08024208 D005     beq     8024216h                                ;8  4231
0802420A 4904     ldr     r1,=3000738h                            ;9  4240
0802420C 1C10     mov     r0,r2                                   ;2  4242
0802420E 3040     add     r0,40h                                  ;2  4244
08024210 8048     strh    r0,[r1,2h]                              ;8  4252
08024212 F7FFFD73 bl      8023CFCh                                ;10 4262
08024216 BCF0     pop     r4-r7                                   ;21 4283
08024218 BC01     pop     r0                                      ;9  4292
0802421A 4700     bx      r0                                      ;8  4300
0802421C 0738     lsl     r0,r7,1Ch                               ;2  4302
0802421E 0300     lsl     r0,r0,0Ch                               ;2  4304
08024220 B500     push    r14                                     ;10 4314
08024222 F7EBFCD1 bl      800FBC8h                                ;10 4324
08024226 2800     cmp     r0,0h                                   ;2  4326
08024228 D001     beq     802422Eh                                ;8  4334
0802422A F7FFFD83 bl      8023D34h                                ;10 4344
0802422E BC01     pop     r0                                      ;9  4353
08024230 4700     bx      r0                                      ;8  4361
08024232 0000     lsl     r0,r0,0h                                ;2  4363
08024234 B570     push    r4-r6,r14                               ;22 4385
08024236 2600     mov     r6,0h                                   ;2  4387
08024238 4C13     ldr     r4,=3000738h                            ;9  4396
0802423A 8860     ldrh    r0,[r4,2h]                              ;7  4403
0802423C 88A1     ldrh    r1,[r4,4h]                              ;7  4410
0802423E F7EBF91D bl      800F47Ch                                ;10 4420
08024242 1C01     mov     r1,r0                                   ;2  4422
08024244 4D11     ldr     r5,=30007F0h                            ;9  4431
08024246 7828     ldrb    r0,[r5]                                 ;4  4435
08024248 2800     cmp     r0,0h                                   ;2  4437
0802424A D118     bne     802427Eh                                ;8  4445
0802424C 8860     ldrh    r0,[r4,2h]                              ;7  4452
0802424E 2210     mov     r2,10h                                  ;2  4454
08024250 5EA1     ldsh    r1,[r4,r2]                              ;7  4461
08024252 88A2     ldrh    r2,[r4,4h]                              ;7  4468
08024254 1889     add     r1,r1,r2                                ;2  4470
08024256 F7EBF911 bl      800F47Ch                                ;10 4480
0802425A 1C01     mov     r1,r0                                   ;2  4482
0802425C 7828     ldrb    r0,[r5]                                 ;4  4486
0802425E 2800     cmp     r0,0h                                   ;2  4488
08024260 D10D     bne     802427Eh                                ;8  4496
08024262 8860     ldrh    r0,[r4,2h]                              ;7  4503
08024264 220E     mov     r2,0Eh                                  ;2  4505
08024266 5EA1     ldsh    r1,[r4,r2]                              ;7  4512
08024268 88A2     ldrh    r2,[r4,4h]                              ;7  4519
0802426A 1889     add     r1,r1,r2                                ;2  4521
0802426C F7EBF906 bl      800F47Ch                                ;10 4531
08024270 1C01     mov     r1,r0                                   ;2  4533
08024272 7828     ldrb    r0,[r5]                                 ;4  4537
08024274 2800     cmp     r0,0h                                   ;2  4539
08024276 D000     beq     802427Ah                                ;8  4547
08024278 2601     mov     r6,1h                                   ;2  4549
0802427A 2E00     cmp     r6,0h                                   ;2  4551
0802427C D008     beq     8024290h                                ;8  4559
0802427E 4802     ldr     r0,=3000738h                            ;9  4568
08024280 8041     strh    r1,[r0,2h]                              ;8  4576
08024282 F7FFFD3B bl      8023CFCh                                ;10 4586
08024286 E023     b       80242D0h                                ;8  4594
08024288 0738     lsl     r0,r7,1Ch                               ;2  4596
0802428A 0300     lsl     r0,r0,0Ch                               ;2  4598
0802428C 07F0     lsl     r0,r6,1Fh                               ;2  4600
0802428E 0300     lsl     r0,r0,0Ch                               ;2  4602
08024290 1C23     mov     r3,r4                                   ;2  4604
08024292 262F     mov     r6,2Fh                                  ;2  4606
08024294 18F6     add     r6,r6,r3                                ;2  4608
08024296 46B4     mov     r12,r6                                  ;2  4610
08024298 7831     ldrb    r1,[r6]                                 ;4  4614
0802429A 4D08     ldr     r5,=82B0D04h                            ;9  4623
0802429C 0048     lsl     r0,r1,1h                                ;2  4625
0802429E 1940     add     r0,r0,r5                                ;2  4627
080242A0 2600     mov     r6,0h                                   ;2  4629
080242A2 5F82     ldsh    r2,[r0,r6]                              ;7  4636
080242A4 4806     ldr     r0,=7FFFh                               ;9  4645
080242A6 4282     cmp     r2,r0                                   ;2  4647
080242A8 D10C     bne     80242C4h                                ;8  4655
080242AA 1E48     sub     r0,r1,1                                 ;2  4657
080242AC 0040     lsl     r0,r0,1h                                ;2  4659
080242AE 1940     add     r0,r0,r5                                ;2  4661
080242B0 2100     mov     r1,0h                                   ;2  4663
080242B2 5E40     ldsh    r0,[r0,r1]                              ;4  4667
080242B4 885A     ldrh    r2,[r3,2h]                              ;4  4671
080242B6 1880     add     r0,r0,r2                                ;2  4673
080242B8 8058     strh    r0,[r3,2h]                              ;5  4678
080242BA E009     b       80242D0h                                ;8  4686
080242BC 0D04     lsr     r4,r0,14h                               ;2  4688
080242BE 082B     lsr     r3,r5,20h                               ;2  4690
080242C0 7FFF     ldrb    r7,[r7,1Fh]                             ;4  4694
080242C2 0000     lsl     r0,r0,0h                                ;2  4696
080242C4 1C48     add     r0,r1,1                                 ;2  4698
080242C6 4666     mov     r6,r12                                  ;2  4700
080242C8 7030     strb    r0,[r6]                                 ;5  4705
080242CA 8860     ldrh    r0,[r4,2h]                              ;7  4712
080242CC 1880     add     r0,r0,r2                                ;2  4714
080242CE 8060     strh    r0,[r4,2h]                              ;8  4722
080242D0 BC70     pop     r4-r6                                   ;17 4739
080242D2 BC01     pop     r0                                      ;9  4748
080242D4 4700     bx      r0                                      ;8  4756
080242D6 0000     lsl     r0,r0,0h                                ;2  4758
080242D8 B570     push    r4-r6,r14                               ;22 4780
080242DA 2600     mov     r6,0h                                   ;2  4782
080242DC 4C14     ldr     r4,=3000738h                            ;9  4791
080242DE 8860     ldrh    r0,[r4,2h]                              ;7  4798
080242E0 88A1     ldrh    r1,[r4,4h]                              ;7  4805
080242E2 F7EBF8CB bl      800F47Ch                                ;10 4815
080242E6 1C02     mov     r2,r0                                   ;2  4817
080242E8 4D12     ldr     r5,=30007F0h                            ;9  4826
080242EA 7828     ldrb    r0,[r5]                                 ;4  4830
080242EC 2800     cmp     r0,0h                                   ;2  4832
080242EE D118     bne     8024322h                                ;8  4840
080242F0 8860     ldrh    r0,[r4,2h]                              ;7  4847
080242F2 2210     mov     r2,10h                                  ;2  4849
080242F4 5EA1     ldsh    r1,[r4,r2]                              ;7  4856
080242F6 88A2     ldrh    r2,[r4,4h]                              ;7  4863
080242F8 1889     add     r1,r1,r2                                ;2  4865
080242FA F7EBF8BF bl      800F47Ch                                ;10 4875
080242FE 1C02     mov     r2,r0                                   ;2  4877
08024300 7828     ldrb    r0,[r5]                                 ;4  4881
08024302 2800     cmp     r0,0h                                   ;2  4883
08024304 D10D     bne     8024322h                                ;8  4891
08024306 8860     ldrh    r0,[r4,2h]                              ;7  4898
08024308 220E     mov     r2,0Eh                                  ;2  4900
0802430A 5EA1     ldsh    r1,[r4,r2]                              ;7  4907
0802430C 88A2     ldrh    r2,[r4,4h]                              ;7  4914
0802430E 1889     add     r1,r1,r2                                ;2  4916
08024310 F7EBF8B4 bl      800F47Ch                                ;10 4926
08024314 1C02     mov     r2,r0                                   ;2  4928
08024316 7828     ldrb    r0,[r5]                                 ;4  4932
08024318 2800     cmp     r0,0h                                   ;2  4934
0802431A D000     beq     802431Eh                                ;8  4942
0802431C 2601     mov     r6,1h                                   ;2  4944
0802431E 2E00     cmp     r6,0h                                   ;2  4946
08024320 D00A     beq     8024338h                                ;8  4954
08024322 4903     ldr     r1,=3000738h                            ;9  4963
08024324 1C10     mov     r0,r2                                   ;2  4965
08024326 3040     add     r0,40h                                  ;2  4967
08024328 8048     strh    r0,[r1,2h]                              ;8  4975
0802432A F7FFFCE7 bl      8023CFCh                                ;10 4985
0802432E E023     b       8024378h                                ;8  4993
08024330 0738     lsl     r0,r7,1Ch                               ;2  4995
08024332 0300     lsl     r0,r0,0Ch                               ;2  4997
08024334 07F0     lsl     r0,r6,1Fh                               ;2  4999
08024336 0300     lsl     r0,r0,0Ch                               ;2  5001
08024338 1C23     mov     r3,r4                                   ;2  5003
0802433A 262F     mov     r6,2Fh                                  ;2  5005
0802433C 18F6     add     r6,r6,r3                                ;2  5007
0802433E 46B4     mov     r12,r6                                  ;2  5009
08024340 7831     ldrb    r1,[r6]                                 ;4  5013
08024342 4D08     ldr     r5,=82B0CE4h                            ;9  5022
08024344 0048     lsl     r0,r1,1h                                ;2  5024
08024346 1940     add     r0,r0,r5                                ;2  5026
08024348 2600     mov     r6,0h                                   ;2  5028
0802434A 5F82     ldsh    r2,[r0,r6]                              ;7  5035
0802434C 4806     ldr     r0,=7FFFh                               ;9  5044
0802434E 4282     cmp     r2,r0                                   ;2  5046
08024350 D10C     bne     802436Ch                                ;8  5054
08024352 1E48     sub     r0,r1,1                                 ;2  5056
08024354 0040     lsl     r0,r0,1h                                ;2  5058
08024356 1940     add     r0,r0,r5                                ;2  5060
08024358 2100     mov     r1,0h                                   ;2  5062
0802435A 5E40     ldsh    r0,[r0,r1]                              ;4  5066
0802435C 885A     ldrh    r2,[r3,2h]                              ;4  5070
0802435E 1880     add     r0,r0,r2                                ;2  5072
08024360 8058     strh    r0,[r3,2h]                              ;5  5077
08024362 E009     b       8024378h                                ;8  5085
08024364 0CE4     lsr     r4,r4,13h                               ;2  5087
08024366 082B     lsr     r3,r5,20h                               ;2  5089
08024368 7FFF     ldrb    r7,[r7,1Fh]                             ;4  5093
0802436A 0000     lsl     r0,r0,0h                                ;2  5095
