

0800F914 B500     push    r14                                     
0800F916 4A05     ldr     r2,=3000738h                            
0800F918 4905     ldr     r1,=30013D4h                            
0800F91A 8890     ldrh    r0,[r2,4h]    ;读取精灵X坐标                           
0800F91C 8A49     ldrh    r1,[r1,12h]   ;读取人物X坐标                          
0800F91E 4288     cmp     r0,r1                                   
0800F920 D908     bls     @@SpriteAtLeft                                
0800F922 8811     ldrh    r1,[r2]                                 
0800F924 2040     mov     r0,40h                                  
0800F926 4308     orr     r0,r1         ;取向ORR40                          
0800F928 E007     b       @@Peer                                

@@SpriteAtLeft:                              
0800F934 8811     ldrh    r1,[r2]                                 
0800F936 4802     ldr     r0,=0FFBFh                              
0800F938 4008     and     r0,r1 

@@Peer:                                  
0800F93A 8010     strh    r0,[r2]                                 
0800F93C BC01     pop     r0                                      
0800F93E 4700     bx      r0                                      



0800F360 B530     push    r4,r5,r14                               
0800F362 0400     lsl     r0,r0,10h                               
0800F364 0C04     lsr     r4,r0,10h                               
0800F366 0409     lsl     r1,r1,10h                               
0800F368 0C0D     lsr     r5,r1,10h                               
0800F36A 1C20     mov     r0,r4                                   
0800F36C 1C29     mov     r1,r5                                   
0800F36E F048FD85 bl      8057E7Ch                                
0800F372 1C03     mov     r3,r0                                   
0800F374 2280     mov     r2,80h                                  
0800F376 0452     lsl     r2,r2,11h                               
0800F378 401A     and     r2,r3                                   
0800F37A 2A00     cmp     r2,0h                                   
0800F37C D006     beq     800F38Ch                                
0800F37E 4902     ldr     r1,=30007F0h                            
0800F380 2011     mov     r0,11h                                  
0800F382 7008     strb    r0,[r1]                                 
0800F384 1C0A     mov     r2,r1                                   
0800F386 E004     b       800F392h                                
0800F388 07F0     lsl     r0,r6,1Fh                               
0800F38A 0300     lsl     r0,r0,0Ch                               
0800F38C 4806     ldr     r0,=30007F0h                            
0800F38E 7002     strb    r2,[r0]                                 
0800F390 1C02     mov     r2,r0                                   
0800F392 20FF     mov     r0,0FFh                                 
0800F394 4018     and     r0,r3                                   
0800F396 3802     sub     r0,2h                                   
0800F398 280A     cmp     r0,0Ah                                  
0800F39A D867     bhi     800F46Ch                                
0800F39C 0080     lsl     r0,r0,2h                                
0800F39E 4903     ldr     r1,=800F3B0h                            
0800F3A0 1840     add     r0,r0,r1                                
0800F3A2 6800     ldr     r0,[r0]                                 
0800F3A4 4687     mov     r15,r0                                  
0800F3A6 0000     lsl     r0,r0,0h                                
0800F3A8 07F0     lsl     r0,r6,1Fh                               
0800F3AA 0300     lsl     r0,r0,0Ch                               
0800F3AC F3B0     ????                                            
0800F3AE 0800     lsr     r0,r0,20h                               
0800F3B0 F428     ????                                            
0800F3B2 0800     lsr     r0,r0,20h                               
0800F3B4 F3DC     ????                                            
0800F3B6 0800     lsr     r0,r0,20h                               
0800F3B8 F450     ????                                            
0800F3BA 0800     lsr     r0,r0,20h                               
0800F3BC F43C     ????                                            
0800F3BE 0800     lsr     r0,r0,20h                               
0800F3C0 F3F8     ????                                            
0800F3C2 0800     lsr     r0,r0,20h                               
0800F3C4 F40C     ????                                            
0800F3C6 0800     lsr     r0,r0,20h                               
0800F3C8 F46C     ????                                            
0800F3CA 0800     lsr     r0,r0,20h                               
0800F3CC F46C     ????                                            
0800F3CE 0800     lsr     r0,r0,20h                               
0800F3D0 F46C     ????                                            
0800F3D2 0800     lsr     r0,r0,20h                               
0800F3D4 F46C     ????                                            
0800F3D6 0800     lsr     r0,r0,20h                               
0800F3D8 F468     ????                                            
0800F3DA 0800     lsr     r0,r0,20h                               
0800F3DC 4805     ldr     r0,=0FFC0h                              
0800F3DE 4020     and     r0,r4                                   
0800F3E0 213F     mov     r1,3Fh                                  
0800F3E2 4029     and     r1,r5                                   
0800F3E4 393F     sub     r1,3Fh                                  
0800F3E6 1A40     sub     r0,r0,r1                                
0800F3E8 0400     lsl     r0,r0,10h                               
0800F3EA 0C01     lsr     r1,r0,10h                               
0800F3EC 2005     mov     r0,5h                                   
0800F3EE 7010     strb    r0,[r2]                                 
0800F3F0 E03E     b       800F470h                                
0800F3F2 0000     lsl     r0,r0,0h                                
0800F3F4 FFC0     bl      lr+0F80h                                
0800F3F6 0000     lsl     r0,r0,0h                                
0800F3F8 4803     ldr     r0,=0FFC0h                              
0800F3FA 4020     and     r0,r4                                   
0800F3FC 213F     mov     r1,3Fh                                  
0800F3FE 4029     and     r1,r5                                   
0800F400 0849     lsr     r1,r1,1h                                
0800F402 393F     sub     r1,3Fh                                  
0800F404 E008     b       800F418h                                
0800F406 0000     lsl     r0,r0,0h                                
0800F408 FFC0     bl      lr+0F80h                                
0800F40A 0000     lsl     r0,r0,0h                                
0800F40C 4805     ldr     r0,=0FFC0h                              
0800F40E 4020     and     r0,r4                                   
0800F410 213F     mov     r1,3Fh                                  
0800F412 4029     and     r1,r5                                   
0800F414 0849     lsr     r1,r1,1h                                
0800F416 391F     sub     r1,1Fh                                  
0800F418 1A40     sub     r0,r0,r1                                
0800F41A 0400     lsl     r0,r0,10h                               
0800F41C 0C01     lsr     r1,r0,10h                               
0800F41E 2003     mov     r0,3h                                   
0800F420 7010     strb    r0,[r2]                                 
0800F422 E025     b       800F470h                                
0800F424 FFC0     bl      lr+0F80h                                
0800F426 0000     lsl     r0,r0,0h                                
0800F428 4903     ldr     r1,=0FFC0h                              
0800F42A 4021     and     r1,r4                                   
0800F42C 203F     mov     r0,3Fh                                  
0800F42E 4028     and     r0,r5                                   
0800F430 4301     orr     r1,r0                                   
0800F432 2004     mov     r0,4h                                   
0800F434 7010     strb    r0,[r2]                                 
0800F436 E01B     b       800F470h                                
0800F438 FFC0     bl      lr+0F80h                                
0800F43A 0000     lsl     r0,r0,0h                                
0800F43C 4903     ldr     r1,=0FFC0h                              
0800F43E 4021     and     r1,r4                                   
0800F440 203F     mov     r0,3Fh                                  
0800F442 4028     and     r0,r5                                   
0800F444 0840     lsr     r0,r0,1h                                
0800F446 301F     add     r0,1Fh                                  
0800F448 E007     b       800F45Ah                                
0800F44A 0000     lsl     r0,r0,0h                                
0800F44C FFC0     bl      lr+0F80h                                
0800F44E 0000     lsl     r0,r0,0h                                
0800F450 4904     ldr     r1,=0FFC0h                              
0800F452 4021     and     r1,r4                                   
0800F454 203F     mov     r0,3Fh                                  
0800F456 4028     and     r0,r5                                   
0800F458 0840     lsr     r0,r0,1h                                
0800F45A 4301     orr     r1,r0                                   
0800F45C 2002     mov     r0,2h                                   
0800F45E 7010     strb    r0,[r2]                                 
0800F460 E006     b       800F470h                                
0800F462 0000     lsl     r0,r0,0h                                
0800F464 FFC0     bl      lr+0F80h                                
0800F466 0000     lsl     r0,r0,0h                                
0800F468 2010     mov     r0,10h                                  
0800F46A 7010     strb    r0,[r2]                                 
0800F46C 4902     ldr     r1,=0FFC0h                              
0800F46E 4021     and     r1,r4                                   
0800F470 1C08     mov     r0,r1                                   
0800F472 BC30     pop     r4,r5                                   
0800F474 BC02     pop     r1                                      
0800F476 4708     bx      r1                                      
0800F478 FFC0     bl      lr+0F80h                                
0800F47A 0000     lsl     r0,r0,0h                                
0800F47C B530     push    r4,r5,r14                               
0800F47E 0400     lsl     r0,r0,10h                               
0800F480 0C05     lsr     r5,r0,10h                               
0800F482 0409     lsl     r1,r1,10h                               
0800F484 0C0C     lsr     r4,r1,10h                               
0800F486 1C28     mov     r0,r5                                   
0800F488 1C21     mov     r1,r4                                   
0800F48A F048FCF7 bl      8057E7Ch                                
0800F48E 1C01     mov     r1,r0                                   
0800F490 2080     mov     r0,80h                                  
0800F492 0440     lsl     r0,r0,11h                               
0800F494 4008     and     r0,r1                                   
0800F496 2300     mov     r3,0h                                   
0800F498 2800     cmp     r0,0h                                   
0800F49A D000     beq     800F49Eh                                
0800F49C 2311     mov     r3,11h                                  
0800F49E 20FF     mov     r0,0FFh                                 
0800F4A0 4008     and     r0,r1                                   
0800F4A2 3802     sub     r0,2h                                   
0800F4A4 280A     cmp     r0,0Ah                                  
0800F4A6 D860     bhi     800F56Ah                                
0800F4A8 0080     lsl     r0,r0,2h                                
0800F4AA 4902     ldr     r1,=800F4B8h                            
0800F4AC 1840     add     r0,r0,r1                                
0800F4AE 6800     ldr     r0,[r0]                                 
0800F4B0 4687     mov     r15,r0                                  
0800F4B2 0000     lsl     r0,r0,0h                                
0800F4B4 F4B8     ????                                            
0800F4B6 0800     lsr     r0,r0,20h                               
0800F4B8 F52C     ????                                            
0800F4BA 0800     lsr     r0,r0,20h                               
0800F4BC F4E4     ????                                            
0800F4BE 0800     lsr     r0,r0,20h                               
0800F4C0 F554     ????                                            
0800F4C2 0800     lsr     r0,r0,20h                               
0800F4C4 F540     ????                                            
0800F4C6 0800     lsr     r0,r0,20h                               
0800F4C8 F4FC     ????                                            
0800F4CA 0800     lsr     r0,r0,20h                               
0800F4CC F510     ????                                            
0800F4CE 0800     lsr     r0,r0,20h                               
0800F4D0 F56A     ????                                            
0800F4D2 0800     lsr     r0,r0,20h                               
0800F4D4 F56A     ????                                            
0800F4D6 0800     lsr     r0,r0,20h                               
0800F4D8 F56A     ????                                            
0800F4DA 0800     lsr     r0,r0,20h                               
0800F4DC F56A     ????                                            
0800F4DE 0800     lsr     r0,r0,20h                               
0800F4E0 F568     ????                                            
0800F4E2 0800     lsr     r0,r0,20h                               
0800F4E4 4904     ldr     r1,=0FFC0h                              
0800F4E6 4029     and     r1,r5                                   
0800F4E8 203F     mov     r0,3Fh                                  
0800F4EA 4020     and     r0,r4                                   
0800F4EC 383F     sub     r0,3Fh                                  
0800F4EE 1A09     sub     r1,r1,r0                                
0800F4F0 0409     lsl     r1,r1,10h                               
0800F4F2 0C0A     lsr     r2,r1,10h                               
0800F4F4 2305     mov     r3,5h                                   
0800F4F6 E03A     b       800F56Eh                                
0800F4F8 FFC0     bl      lr+0F80h                                
0800F4FA 0000     lsl     r0,r0,0h                                
0800F4FC 4903     ldr     r1,=0FFC0h                              
0800F4FE 4029     and     r1,r5                                   
0800F500 203F     mov     r0,3Fh                                  
0800F502 4020     and     r0,r4                                   
0800F504 0840     lsr     r0,r0,1h                                
0800F506 383F     sub     r0,3Fh                                  
0800F508 E008     b       800F51Ch                                
0800F50A 0000     lsl     r0,r0,0h                                
0800F50C FFC0     bl      lr+0F80h                                
0800F50E 0000     lsl     r0,r0,0h                                
0800F510 4905     ldr     r1,=0FFC0h                              
0800F512 4029     and     r1,r5                                   
0800F514 203F     mov     r0,3Fh                                  
0800F516 4020     and     r0,r4                                   
0800F518 0840     lsr     r0,r0,1h                                
0800F51A 381F     sub     r0,1Fh                                  
0800F51C 1A09     sub     r1,r1,r0                                
0800F51E 0409     lsl     r1,r1,10h                               
0800F520 0C0A     lsr     r2,r1,10h                               
0800F522 2303     mov     r3,3h                                   
0800F524 E023     b       800F56Eh                                
0800F526 0000     lsl     r0,r0,0h                                
0800F528 FFC0     bl      lr+0F80h                                
0800F52A 0000     lsl     r0,r0,0h                                
0800F52C 4A03     ldr     r2,=0FFC0h                              
0800F52E 402A     and     r2,r5                                   
0800F530 203F     mov     r0,3Fh                                  
0800F532 4020     and     r0,r4                                   
0800F534 4302     orr     r2,r0                                   
0800F536 2304     mov     r3,4h                                   
0800F538 E019     b       800F56Eh                                
0800F53A 0000     lsl     r0,r0,0h                                
0800F53C FFC0     bl      lr+0F80h                                
0800F53E 0000     lsl     r0,r0,0h                                
0800F540 4A03     ldr     r2,=0FFC0h                              
0800F542 402A     and     r2,r5                                   
0800F544 203F     mov     r0,3Fh                                  
0800F546 4020     and     r0,r4                                   
0800F548 0840     lsr     r0,r0,1h                                
0800F54A 301F     add     r0,1Fh                                  
0800F54C E007     b       800F55Eh                                
0800F54E 0000     lsl     r0,r0,0h                                
0800F550 FFC0     bl      lr+0F80h                                
0800F552 0000     lsl     r0,r0,0h                                
0800F554 4A03     ldr     r2,=0FFC0h                              
0800F556 402A     and     r2,r5                                   
0800F558 203F     mov     r0,3Fh                                  
0800F55A 4020     and     r0,r4                                   
0800F55C 0840     lsr     r0,r0,1h                                
0800F55E 4302     orr     r2,r0                                   
0800F560 2302     mov     r3,2h                                   
0800F562 E004     b       800F56Eh                                
0800F564 FFC0     bl      lr+0F80h                                
0800F566 0000     lsl     r0,r0,0h                                
0800F568 2310     mov     r3,10h                                  
0800F56A 4A03     ldr     r2,=0FFC0h                              
0800F56C 402A     and     r2,r5                                   
0800F56E 4295     cmp     r5,r2                                   
0800F570 D306     bcc     800F580h                                
0800F572 4802     ldr     r0,=30007F0h                            
0800F574 7003     strb    r3,[r0]                                 
0800F576 E006     b       800F586h                                
0800F578 FFC0     bl      lr+0F80h                                
0800F57A 0000     lsl     r0,r0,0h                                
0800F57C 07F0     lsl     r0,r6,1Fh                               
0800F57E 0300     lsl     r0,r0,0Ch                               
0800F580 4903     ldr     r1,=30007F0h                            
0800F582 2000     mov     r0,0h                                   
0800F584 7008     strb    r0,[r1]                                 
0800F586 1C10     mov     r0,r2                                   
0800F588 BC30     pop     r4,r5                                   
0800F58A BC02     pop     r1                                      
0800F58C 4708     bx      r1                                      
0800F58E 0000     lsl     r0,r0,0h                                
0800F590 07F0     lsl     r0,r6,1Fh                               
0800F592 0300     lsl     r0,r0,0Ch                               
0800F594 B5F0     push    r4-r7,r14                               
0800F596 4657     mov     r7,r10                                  
0800F598 464E     mov     r6,r9                                   
0800F59A 4645     mov     r5,r8                                   
0800F59C B4E0     push    r5-r7                                   
0800F59E 4F18     ldr     r7,=3000738h                            
0800F5A0 887D     ldrh    r5,[r7,2h]                              
0800F5A2 46A9     mov     r9,r5                                   
0800F5A4 88BC     ldrh    r4,[r7,4h]                              
0800F5A6 46A2     mov     r10,r4                                  
0800F5A8 1F28     sub     r0,r5,4                                 
0800F5AA 0400     lsl     r0,r0,10h                               
0800F5AC 0C00     lsr     r0,r0,10h                               
0800F5AE 1C21     mov     r1,r4                                   
0800F5B0 F7FFFED6 bl      800F360h                                
0800F5B4 1C02     mov     r2,r0                                   
0800F5B6 4E13     ldr     r6,=30007F0h                            
0800F5B8 7831     ldrb    r1,[r6]                                 
0800F5BA 200F     mov     r0,0Fh                                  
0800F5BC 4680     mov     r8,r0                                   
0800F5BE 4008     and     r0,r1                                   
0800F5C0 2801     cmp     r0,1h                                   
0800F5C2 D814     bhi     800F5EEh                                
0800F5C4 1C28     mov     r0,r5                                   
0800F5C6 1C21     mov     r1,r4                                   
0800F5C8 F7FFFECA bl      800F360h                                
0800F5CC 1C02     mov     r2,r0                                   
0800F5CE 7831     ldrb    r1,[r6]                                 
0800F5D0 4640     mov     r0,r8                                   
0800F5D2 4008     and     r0,r1                                   
0800F5D4 2801     cmp     r0,1h                                   
0800F5D6 D80A     bhi     800F5EEh                                
0800F5D8 4648     mov     r0,r9                                   
0800F5DA 3004     add     r0,4h                                   
0800F5DC 0400     lsl     r0,r0,10h                               
0800F5DE 0C00     lsr     r0,r0,10h                               
0800F5E0 4651     mov     r1,r10                                  
0800F5E2 F7FFFEBD bl      800F360h                                
0800F5E6 1C02     mov     r2,r0                                   
0800F5E8 7830     ldrb    r0,[r6]                                 
0800F5EA 2800     cmp     r0,0h                                   
0800F5EC D000     beq     800F5F0h                                
0800F5EE 807A     strh    r2,[r7,2h]                              
0800F5F0 BC38     pop     r3-r5                                   
0800F5F2 4698     mov     r8,r3                                   
0800F5F4 46A1     mov     r9,r4                                   
0800F5F6 46AA     mov     r10,r5                                  
0800F5F8 BCF0     pop     r4-r7                                   
0800F5FA BC01     pop     r0                                      
0800F5FC 4700     bx      r0                                      
0800F5FE 0000     lsl     r0,r0,0h                                
0800F600 0738     lsl     r0,r7,1Ch                               
0800F602 0300     lsl     r0,r0,0Ch                               
0800F604 07F0     lsl     r0,r6,1Fh                               
0800F606 0300     lsl     r0,r0,0Ch                               
0800F608 B5F0     push    r4-r7,r14                               
0800F60A 4657     mov     r7,r10                                  
0800F60C 464E     mov     r6,r9                                   
0800F60E 4645     mov     r5,r8                                   
0800F610 B4E0     push    r5-r7                                   
0800F612 4E1B     ldr     r6,=3000738h                            
0800F614 89B0     ldrh    r0,[r6,0Ch]                             
0800F616 8871     ldrh    r1,[r6,2h]                              
0800F618 1840     add     r0,r0,r1                                
0800F61A 0400     lsl     r0,r0,10h                               
0800F61C 0C05     lsr     r5,r0,10h                               
0800F61E 46A9     mov     r9,r5                                   
0800F620 88B4     ldrh    r4,[r6,4h]                              
0800F622 46A2     mov     r10,r4                                  
0800F624 1F28     sub     r0,r5,4                                 
0800F626 0400     lsl     r0,r0,10h                               
0800F628 0C00     lsr     r0,r0,10h                               
0800F62A 1C21     mov     r1,r4                                   
0800F62C F7FFFE98 bl      800F360h                                
0800F630 1C02     mov     r2,r0                                   
0800F632 4F14     ldr     r7,=30007F0h                            
0800F634 7839     ldrb    r1,[r7]                                 
0800F636 200F     mov     r0,0Fh                                  
0800F638 4680     mov     r8,r0                                   
0800F63A 4008     and     r0,r1                                   
0800F63C 2801     cmp     r0,1h                                   
0800F63E D814     bhi     800F66Ah                                
0800F640 1C28     mov     r0,r5                                   
0800F642 1C21     mov     r1,r4                                   
0800F644 F7FFFE8C bl      800F360h                                
0800F648 1C02     mov     r2,r0                                   
0800F64A 7839     ldrb    r1,[r7]                                 
0800F64C 4640     mov     r0,r8                                   
0800F64E 4008     and     r0,r1                                   
0800F650 2801     cmp     r0,1h                                   
0800F652 D80A     bhi     800F66Ah                                
0800F654 4648     mov     r0,r9                                   
0800F656 3004     add     r0,4h                                   
0800F658 0400     lsl     r0,r0,10h                               
0800F65A 0C00     lsr     r0,r0,10h                               
0800F65C 4651     mov     r1,r10                                  
0800F65E F7FFFE7F bl      800F360h                                
0800F662 1C02     mov     r2,r0                                   
0800F664 7838     ldrb    r0,[r7]                                 
0800F666 2800     cmp     r0,0h                                   
0800F668 D002     beq     800F670h                                
0800F66A 89B0     ldrh    r0,[r6,0Ch]                             
0800F66C 1A10     sub     r0,r2,r0                                
0800F66E 8070     strh    r0,[r6,2h]                              
0800F670 BC38     pop     r3-r5                                   
0800F672 4698     mov     r8,r3                                   
0800F674 46A1     mov     r9,r4                                   
0800F676 46AA     mov     r10,r5                                  
0800F678 BCF0     pop     r4-r7                                   
0800F67A BC01     pop     r0                                      
0800F67C 4700     bx      r0                                      
0800F67E 0000     lsl     r0,r0,0h                                
0800F680 0738     lsl     r0,r7,1Ch                               
0800F682 0300     lsl     r0,r0,0Ch                               
0800F684 07F0     lsl     r0,r6,1Fh                               
0800F686 0300     lsl     r0,r0,0Ch                               
0800F688 B500     push    r14                                     
0800F68A 0400     lsl     r0,r0,10h                               
0800F68C 0C00     lsr     r0,r0,10h                               
0800F68E 0409     lsl     r1,r1,10h                               
0800F690 0C09     lsr     r1,r1,10h                               
0800F692 F048FBF3 bl      8057E7Ch                                
0800F696 1C03     mov     r3,r0                                   
0800F698 2280     mov     r2,80h                                  
0800F69A 0452     lsl     r2,r2,11h                               
0800F69C 401A     and     r2,r3                                   
0800F69E 2A00     cmp     r2,0h                                   
0800F6A0 D006     beq     800F6B0h                                
0800F6A2 4902     ldr     r1,=30007F1h                            
0800F6A4 2011     mov     r0,11h                                  
0800F6A6 7008     strb    r0,[r1]                                 
0800F6A8 1C0A     mov     r2,r1                                   
0800F6AA E004     b       800F6B6h                                
0800F6AC 07F1     lsl     r1,r6,1Fh                               
0800F6AE 0300     lsl     r0,r0,0Ch                               
0800F6B0 4806     ldr     r0,=30007F1h                            
0800F6B2 7002     strb    r2,[r0]                                 
0800F6B4 1C02     mov     r2,r0                                   
0800F6B6 20FF     mov     r0,0FFh                                 
0800F6B8 4018     and     r0,r3                                   
0800F6BA 3802     sub     r0,2h                                   
0800F6BC 280A     cmp     r0,0Ah                                  
0800F6BE D82D     bhi     800F71Ch                                
0800F6C0 0080     lsl     r0,r0,2h                                
0800F6C2 4903     ldr     r1,=800F6D4h                            
0800F6C4 1840     add     r0,r0,r1                                
0800F6C6 6800     ldr     r0,[r0]                                 
0800F6C8 4687     mov     r15,r0                                  
0800F6CA 0000     lsl     r0,r0,0h                                
0800F6CC 07F1     lsl     r1,r6,1Fh                               
0800F6CE 0300     lsl     r0,r0,0Ch                               
0800F6D0 F6D4     ????                                            
0800F6D2 0800     lsr     r0,r0,20h                               
0800F6D4 F70C     ????                                            
0800F6D6 0800     lsr     r0,r0,20h                               
0800F6D8 F700     ????                                            
0800F6DA 0800     lsr     r0,r0,20h                               
0800F6DC F714     ????                                            
0800F6DE 0800     lsr     r0,r0,20h                               
0800F6E0 F710     ????                                            
0800F6E2 0800     lsr     r0,r0,20h                               
0800F6E4 F704     ????                                            
0800F6E6 0800     lsr     r0,r0,20h                               
0800F6E8 F708     ????                                            
0800F6EA 0800     lsr     r0,r0,20h                               
0800F6EC F71C     ????                                            
0800F6EE 0800     lsr     r0,r0,20h                               
0800F6F0 F71C     ????                                            
0800F6F2 0800     lsr     r0,r0,20h                               
0800F6F4 F71C     ????                                            
0800F6F6 0800     lsr     r0,r0,20h                               
0800F6F8 F71C     ????                                            
0800F6FA 0800     lsr     r0,r0,20h                               
0800F6FC F718     ????                                            
0800F6FE 0800     lsr     r0,r0,20h                               
0800F700 2005     mov     r0,5h                                   
0800F702 E00A     b       800F71Ah                                
0800F704 2003     mov     r0,3h                                   
0800F706 E008     b       800F71Ah                                
0800F708 2003     mov     r0,3h                                   
0800F70A E006     b       800F71Ah                                
0800F70C 2004     mov     r0,4h                                   
0800F70E E004     b       800F71Ah                                
0800F710 2002     mov     r0,2h                                   
0800F712 E002     b       800F71Ah                                
0800F714 2002     mov     r0,2h                                   
0800F716 E000     b       800F71Ah                                
0800F718 2010     mov     r0,10h                                  
0800F71A 7010     strb    r0,[r2]                                 
0800F71C BC01     pop     r0                                      
0800F71E 4700     bx      r0                                      
0800F720 B500     push    r14                                     
0800F722 0400     lsl     r0,r0,10h                               
0800F724 0C00     lsr     r0,r0,10h                               
0800F726 0409     lsl     r1,r1,10h                               
0800F728 0C09     lsr     r1,r1,10h                               
0800F72A F048FBA7 bl      8057E7Ch                                
0800F72E 1C01     mov     r1,r0                                   
0800F730 2080     mov     r0,80h                                  
0800F732 0440     lsl     r0,r0,11h                               
0800F734 4008     and     r0,r1                                   
0800F736 2200     mov     r2,0h                                   
0800F738 2800     cmp     r0,0h                                   
0800F73A D000     beq     800F73Eh                                
0800F73C 2211     mov     r2,11h                                  
0800F73E 20FF     mov     r0,0FFh                                 
0800F740 4008     and     r0,r1                                   
0800F742 3802     sub     r0,2h                                   
0800F744 280A     cmp     r0,0Ah                                  
0800F746 D826     bhi     800F796h                                
0800F748 0080     lsl     r0,r0,2h                                
0800F74A 4902     ldr     r1,=800F758h                            
0800F74C 1840     add     r0,r0,r1                                
0800F74E 6800     ldr     r0,[r0]                                 
0800F750 4687     mov     r15,r0                                  
0800F752 0000     lsl     r0,r0,0h                                
0800F754 F758     ????                                            
0800F756 0800     lsr     r0,r0,20h                               
0800F758 F78C     ????                                            
0800F75A 0800     lsr     r0,r0,20h                               
0800F75C F784     ????                                            
0800F75E 0800     lsr     r0,r0,20h                               
0800F760 F790     ????                                            
0800F762 0800     lsr     r0,r0,20h                               
0800F764 F790     ????                                            
0800F766 0800     lsr     r0,r0,20h                               
0800F768 F788     ????                                            
0800F76A 0800     lsr     r0,r0,20h                               
0800F76C F788     ????                                            
0800F76E 0800     lsr     r0,r0,20h                               
0800F770 F796     ????                                            
0800F772 0800     lsr     r0,r0,20h                               
0800F774 F796     ????                                            
0800F776 0800     lsr     r0,r0,20h                               
0800F778 F796     ????                                            
0800F77A 0800     lsr     r0,r0,20h                               
0800F77C F796     ????                                            
0800F77E 0800     lsr     r0,r0,20h                               
0800F780 F794     ????                                            
0800F782 0800     lsr     r0,r0,20h                               
0800F784 2205     mov     r2,5h                                   
0800F786 E006     b       800F796h                                
0800F788 2203     mov     r2,3h                                   
0800F78A E004     b       800F796h                                
0800F78C 2204     mov     r2,4h                                   
0800F78E E002     b       800F796h                                
0800F790 2202     mov     r2,2h                                   
0800F792 E000     b       800F796h                                
0800F794 2210     mov     r2,10h                                  
0800F796 1C10     mov     r0,r2                                   
0800F798 BC02     pop     r1                                      
0800F79A 4708     bx      r1                                      
0800F79C B530     push    r4,r5,r14                               
0800F79E 4C08     ldr     r4,=3000738h                            
0800F7A0 8860     ldrh    r0,[r4,2h]                              
0800F7A2 88A1     ldrh    r1,[r4,4h]                              
0800F7A4 F7FFFE6A bl      800F47Ch                                
0800F7A8 1C01     mov     r1,r0                                   
0800F7AA 4806     ldr     r0,=30007F0h                            
0800F7AC 7800     ldrb    r0,[r0]                                 
0800F7AE 2800     cmp     r0,0h                                   
0800F7B0 D00A     beq     800F7C8h                                
0800F7B2 8061     strh    r1,[r4,2h]                              
0800F7B4 1C21     mov     r1,r4                                   
0800F7B6 3124     add     r1,24h                                  
0800F7B8 200E     mov     r0,0Eh                                  
0800F7BA 7008     strb    r0,[r1]                                 
0800F7BC E022     b       800F804h                                
0800F7BE 0000     lsl     r0,r0,0h                                
0800F7C0 0738     lsl     r0,r7,1Ch                               
0800F7C2 0300     lsl     r0,r0,0Ch                               
0800F7C4 07F0     lsl     r0,r6,1Fh                               
0800F7C6 0300     lsl     r0,r0,0Ch                               
0800F7C8 202F     mov     r0,2Fh                                  
0800F7CA 1900     add     r0,r0,r4                                
0800F7CC 4684     mov     r12,r0                                  
0800F7CE 7801     ldrb    r1,[r0]                                 
0800F7D0 4B07     ldr     r3,=82B0D04h                            
0800F7D2 0048     lsl     r0,r1,1h                                
0800F7D4 18C0     add     r0,r0,r3                                
0800F7D6 2500     mov     r5,0h                                   
0800F7D8 5F42     ldsh    r2,[r0,r5]                              
0800F7DA 4806     ldr     r0,=7FFFh                               
0800F7DC 4282     cmp     r2,r0                                   
0800F7DE D10B     bne     800F7F8h                                
0800F7E0 1E48     sub     r0,r1,1                                 
0800F7E2 0040     lsl     r0,r0,1h                                
0800F7E4 18C0     add     r0,r0,r3                                
0800F7E6 2100     mov     r1,0h                                   
0800F7E8 5E40     ldsh    r0,[r0,r1]                              
0800F7EA 8865     ldrh    r5,[r4,2h]                              
0800F7EC 1940     add     r0,r0,r5                                
0800F7EE E008     b       800F802h                                
0800F7F0 0D04     lsr     r4,r0,14h                               
0800F7F2 082B     lsr     r3,r5,20h                               
0800F7F4 7FFF     ldrb    r7,[r7,1Fh]                             
0800F7F6 0000     lsl     r0,r0,0h                                
0800F7F8 1C48     add     r0,r1,1                                 
0800F7FA 4661     mov     r1,r12                                  
0800F7FC 7008     strb    r0,[r1]                                 
0800F7FE 8860     ldrh    r0,[r4,2h]                              
0800F800 1880     add     r0,r0,r2                                
0800F802 8060     strh    r0,[r4,2h]                              
0800F804 BC30     pop     r4,r5                                   
0800F806 BC01     pop     r0                                      
0800F808 4700     bx      r0                                      
0800F80A 0000     lsl     r0,r0,0h                                
0800F80C B500     push    r14                                     
0800F80E 4805     ldr     r0,=300083Ch                            
0800F810 7801     ldrb    r1,[r0]                                 
0800F812 2001     mov     r0,1h                                   
0800F814 4008     and     r0,r1                                   
0800F816 2800     cmp     r0,0h                                   
0800F818 D00A     beq     800F830h                                
0800F81A 4A03     ldr     r2,=3000738h                            
0800F81C 8811     ldrh    r1,[r2]                                 
0800F81E 4803     ldr     r0,=0FFBFh                              
0800F820 4008     and     r0,r1                                   
0800F822 E009     b       800F838h                                
0800F824 083C     lsr     r4,r7,20h                               
0800F826 0300     lsl     r0,r0,0Ch                               
0800F828 0738     lsl     r0,r7,1Ch                               
0800F82A 0300     lsl     r0,r0,0Ch                               
0800F82C FFBF     bl      lr+0F7Eh                                
0800F82E 0000     lsl     r0,r0,0h                                
0800F830 4A03     ldr     r2,=3000738h                            
0800F832 8811     ldrh    r1,[r2]                                 
0800F834 2040     mov     r0,40h                                  
0800F836 4308     orr     r0,r1                                   
0800F838 8010     strh    r0,[r2]                                 
0800F83A BC01     pop     r0                                      
0800F83C 4700     bx      r0                                      
0800F83E 0000     lsl     r0,r0,0h                                
0800F840 0738     lsl     r0,r7,1Ch                               
0800F842 0300     lsl     r0,r0,0Ch                               
0800F844 B500     push    r14                                     
0800F846 4805     ldr     r0,=300083Ch                            
0800F848 7801     ldrb    r1,[r0]                                 
0800F84A 2001     mov     r0,1h                                   
0800F84C 4008     and     r0,r1                                   
0800F84E 2800     cmp     r0,0h                                   
0800F850 D00A     beq     800F868h                                
0800F852 4A03     ldr     r2,=3000738h                            
0800F854 8811     ldrh    r1,[r2]                                 
0800F856 4803     ldr     r0,=0FDFFh                              
0800F858 4008     and     r0,r1                                   
0800F85A E00B     b       800F874h                                
0800F85C 083C     lsr     r4,r7,20h                               
0800F85E 0300     lsl     r0,r0,0Ch                               

