0800408C B5F0     push    r4-r7,lr
0800408E 464F     mov     r7,r9
08004090 4646     mov     r6,r8
08004092 B4C0     push    r6,r7
08004094 B081     add     sp,-4h
08004096 2700     mov     r7,0h
08004098 480A     ldr     r0,=808F254h
0800409A 6986     ldr     r6,[r0,18h]     ;3005AD0
0800409C 7F30     ldrb    r0,[r6,1Ch]     ;基本始终是0...
0800409E 2800     cmp     r0,0h
080040A0 D14B     bne     @@Peer
080040A2 2201     mov     r2,1h
080040A4 7732     strb    r2,[r6,1Ch]     ;写入1
080040A6 7FB1     ldrb    r1,[r6,1Eh]     ;读取3005AEE
080040A8 1C10     mov     r0,r2
080040AA 4008     and     r0,r1
080040AC 2800     cmp     r0,0h
080040AE D144     bne     @@Peer
080040B0 7831     ldrb    r1,[r6]
080040B2 2002     mov     r0,2h
080040B4 4008     and     r0,r1
080040B6 2800     cmp     r0,0h
080040B8 D03F     beq     @@Peer
080040BA 77B2     strb    r2,[r6,1Eh]     ;3005AEE写入1
080040BC 2100     mov     r1,0h
080040BE 69B4     ldr     r4,[r6,18h]     ;3004A28 
080040C0 E038     b       8004134h
080040C2 0000     lsl     r0,r0,0h
080040C4 F2540808 ????
080040C6 0808     lsr     r0,r1,20h
080040C8 1C20     mov     r0,r4
080040CA 3034     add     r0,34h
080040CC 7802     ldrb    r2,[r0]
080040CE 20C0     mov     r0,0C0h
080040D0 4010     and     r0,r2
080040D2 3101     add     r1,1h
080040D4 4688     mov     r8,r1
080040D6 2150     mov     r1,50h
080040D8 1909     add     r1,r1,r4
080040DA 4689     mov     r9,r1
080040DC 2800     cmp     r0,0h
080040DE D125     bne     800412Ch
080040E0 6CE0     ldr     r0,[r4,4Ch]
080040E2 2800     cmp     r0,0h
080040E4 D006     beq     80040F4h
080040E6 2107     mov     r1,7h
080040E8 4011     and     r1,r2
080040EA 3901     sub     r1,1h
080040EC 0609     lsl     r1,r1,18h
080040EE 0E09     lsr     r1,r1,18h
080040F0 F7FEF9E6 bl      80024C0h
080040F4 6CA0     ldr     r0,[r4,48h]
080040F6 2800     cmp     r0,0h
080040F8 D018     beq     800412Ch
080040FA 1C04     mov     r4,r0
080040FC 4B13     ldr     r3,=30039BCh
080040FE 2500     mov     r5,0h
08004100 00F8     lsl     r0,r7,3h
08004102 1BC0     sub     r0,r0,r7
08004104 00C0     lsl     r0,r0,3h
08004106 18C0     add     r0,r0,r3
08004108 C010     stmia   [r0]!,r4
0800410A 1C21     mov     r1,r4
0800410C 2234     mov     r2,34h
0800410E 9300     str     r3,[sp]
08004110 F088FAD4 bl      808C6BCh
08004114 1C78     add     r0,r7,1
08004116 0600     lsl     r0,r0,18h
08004118 0E07     lsr     r7,r0,18h
0800411A 7025     strb    r5,[r4]
0800411C 62A5     str     r5,[r4,28h]
0800411E 6B20     ldr     r0,[r4,30h]
08004120 6325     str     r5,[r4,30h]
08004122 62E5     str     r5,[r4,2Ch]
08004124 1C04     mov     r4,r0
08004126 9B00     ldr     r3,[sp]
08004128 2C00     cmp     r4,0h
0800412A D1E9     bne     8004100h
0800412C 4641     mov     r1,r8
0800412E 0608     lsl     r0,r1,18h
08004130 0E01     lsr     r1,r0,18h
08004132 464C     mov     r4,r9
08004134 7870     ldrb    r0,[r6,1h]
08004136 4281     cmp     r1,r0
08004138 D3C6     bcc     80040C8h

@@Peer:
0800413A 2000     mov     r0,0h
0800413C 7730     strb    r0,[r6,1Ch]
0800413E B001     add     sp,4h
08004140 BC18     pop     r3,r4
08004142 4698     mov     r8,r3
08004144 46A1     mov     r9,r4
08004146 BCF0     pop     r4-r7
08004148 BC01     pop     r0
0800414A 4700     bx      r0
0800414C 39BC     sub     r1,0BCh
0800414E 0300     lsl     r0,r0,0Ch
08004150 B5F0     push    r4-r7,lr
08004152 464F     mov     r7,r9
08004154 4646     mov     r6,r8
08004156 B4C0     push    r6,r7
08004158 2600     mov     r6,0h
0800415A 4822     ldr     r0,=808F254h
0800415C 6985     ldr     r5,[r0,18h]
0800415E 7F28     ldrb    r0,[r5,1Ch]
08004160 2800     cmp     r0,0h
08004162 D136     bne     80041D2h
08004164 2001     mov     r0,1h
08004166 7728     strb    r0,[r5,1Ch]
08004168 7FA9     ldrb    r1,[r5,1Eh]
0800416A 4008     and     r0,r1
0800416C 2800     cmp     r0,0h
0800416E D030     beq     80041D2h
08004170 20FE     mov     r0,0FEh
08004172 4008     and     r0,r1
08004174 77A8     strb    r0,[r5,1Eh]
08004176 2300     mov     r3,0h
08004178 69AA     ldr     r2,[r5,18h]
0800417A 7868     ldrb    r0,[r5,1h]
0800417C 4283     cmp     r3,r0
0800417E D228     bcs     80041D2h
08004180 1C10     mov     r0,r2
08004182 3034     add     r0,34h
08004184 7801     ldrb    r1,[r0]
08004186 20C0     mov     r0,0C0h
08004188 4008     and     r0,r1
0800418A 1C5F     add     r7,r3,1
0800418C 2150     mov     r1,50h
0800418E 1889     add     r1,r1,r2
08004190 4688     mov     r8,r1
08004192 2800     cmp     r0,0h
08004194 D117     bne     80041C6h
08004196 6C90     ldr     r0,[r2,48h]
08004198 2800     cmp     r0,0h
0800419A D014     beq     80041C6h
0800419C 1C04     mov     r4,r0
0800419E 4812     ldr     r0,=30039BCh
080041A0 4681     mov     r9,r0
080041A2 1C20     mov     r0,r4
080041A4 F7FDFF7E bl      80020A4h
080041A8 00F1     lsl     r1,r6,3h
080041AA 1B89     sub     r1,r1,r6
080041AC 00C9     lsl     r1,r1,3h
080041AE 4449     add     r1,r9
080041B0 3104     add     r1,4h
080041B2 1C20     mov     r0,r4
080041B4 2234     mov     r2,34h
080041B6 F088FA81 bl      808C6BCh
080041BA 1C70     add     r0,r6,1
080041BC 0600     lsl     r0,r0,18h
080041BE 0E06     lsr     r6,r0,18h
080041C0 6B24     ldr     r4,[r4,30h]
080041C2 2C00     cmp     r4,0h
080041C4 D1ED     bne     80041A2h
080041C6 0638     lsl     r0,r7,18h
080041C8 0E03     lsr     r3,r0,18h
080041CA 4642     mov     r2,r8
080041CC 7869     ldrb    r1,[r5,1h]
080041CE 428B     cmp     r3,r1
080041D0 D3D6     bcc     8004180h
080041D2 2000     mov     r0,0h
080041D4 7728     strb    r0,[r5,1Ch]
080041D6 BC18     pop     r3,r4
080041D8 4698     mov     r8,r3
080041DA 46A1     mov     r9,r4
080041DC BCF0     pop     r4-r7
080041DE BC01     pop     r0
080041E0 4700     bx      r0
080041E2 0000     lsl     r0,r0,0h
080041E4 F2540808 ????
080041E6 0808     lsr     r0,r1,20h
080041E8 39BC     sub     r1,0BCh
080041EA 0300     lsl     r0,r0,0Ch
080041EC B510     push    r4,lr
080041EE 1C03     mov     r3,r0
080041F0 0409     lsl     r1,r1,10h
080041F2 0C0C     lsr     r4,r1,10h
080041F4 7F18     ldrb    r0,[r3,1Ch]
080041F6 2800     cmp     r0,0h
080041F8 D111     bne     800421Eh
080041FA 2001     mov     r0,1h
080041FC 7718     strb    r0,[r3,1Ch]
080041FE 2100     mov     r1,0h
08004200 699A     ldr     r2,[r3,18h]
08004202 E009     b       8004218h
08004204 7810     ldrb    r0,[r2]
08004206 2800     cmp     r0,0h
08004208 D002     beq     8004210h
0800420A 7890     ldrb    r0,[r2,2h]
0800420C 1900     add     r0,r0,r4
0800420E 7090     strb    r0,[r2,2h]
08004210 1C48     add     r0,r1,1
08004212 0600     lsl     r0,r0,18h
08004214 0E01     lsr     r1,r0,18h
08004216 3250     add     r2,50h
08004218 7858     ldrb    r0,[r3,1h]
0800421A 4281     cmp     r1,r0
0800421C D3F2     bcc     8004204h
0800421E 2000     mov     r0,0h
08004220 7718     strb    r0,[r3,1Ch]
08004222 BC10     pop     r4
08004224 BC01     pop     r0
08004226 4700     bx      r0
08004228 B530     push    r4,r5,lr
0800422A 0400     lsl     r0,r0,10h
0800422C 0C05     lsr     r5,r0,10h
0800422E 480A     ldr     r0,=3001D00h
08004230 8B80     ldrh    r0,[r0,1Ch]
08004232 4285     cmp     r5,r0
08004234 D00C     beq     8004250h
08004236 4809     ldr     r0,=808F254h
08004238 6804     ldr     r4,[r0]
0800423A 1C20     mov     r0,r4
0800423C F000FCEE bl      8004C1Ch
08004240 1C28     mov     r0,r5
08004242 2108     mov     r1,8h
08004244 F7FFFBD6 bl      80039F4h
08004248 1C20     mov     r0,r4
0800424A 211E     mov     r1,1Eh
0800424C F7FFFFCE bl      80041ECh
08004250 BC30     pop     r4,r5
08004252 BC01     pop     r0
08004254 4700     bx      r0
08004256 0000     lsl     r0,r0,0h
08004258 1D00     add     r0,r0,4
0800425A 0300     lsl     r0,r0,0Ch
0800425C F2540808 ????
0800425E 0808     lsr     r0,r1,20h
08004260 B500     push    lr
08004262 0400     lsl     r0,r0,10h
08004264 0C00     lsr     r0,r0,10h
08004266 F7FEFBD7 bl      8002A18h
0800426A 4803     ldr     r0,=808F254h
0800426C 6800     ldr     r0,[r0]
0800426E 211E     mov     r1,1Eh
08004270 F7FFFFBC bl      80041ECh
08004274 BC01     pop     r0
08004276 4700     bx      r0
08004278 F2540808 ????
0800427A 0808     lsr     r0,r1,20h
0800427C B510     push    r4,lr
0800427E 0400     lsl     r0,r0,10h
08004280 0C04     lsr     r4,r0,10h
08004282 4808     ldr     r0,=808F254h
08004284 6802     ldr     r2,[r0]
08004286 4808     ldr     r0,=808F2C0h
08004288 6C83     ldr     r3,[r0,48h]
0800428A 7811     ldrb    r1,[r2]
0800428C 2002     mov     r0,2h
0800428E 4008     and     r0,r1
08004290 2800     cmp     r0,0h
08004292 D00B     beq     80042ACh
08004294 6910     ldr     r0,[r2,10h]
08004296 4283     cmp     r3,r0
08004298 D108     bne     80042ACh
0800429A 2002     mov     r0,2h
0800429C F7FFFDE0 bl      8003E60h
080042A0 E009     b       80042B6h
080042A2 0000     lsl     r0,r0,0h
080042A4 F2540808 ????
080042A6 0808     lsr     r0,r1,20h
080042A8 F2C00808 ????
080042AA 0808     lsr     r0,r1,20h
080042AC 1C20     mov     r0,r4
080042AE 2109     mov     r1,9h
080042B0 2202     mov     r2,2h
080042B2 F7FFFC3D bl      8003B30h
080042B6 BC10     pop     r4
080042B8 BC01     pop     r0
080042BA 4700     bx      r0
080042BC B570     push    r4-r6,lr
080042BE 0400     lsl     r0,r0,10h
080042C0 0C05     lsr     r5,r0,10h
080042C2 4C0F     ldr     r4,=3001D00h
080042C4 7866     ldrb    r6,[r4,1h]
080042C6 2E00     cmp     r6,0h
080042C8 D116     bne     80042F8h
080042CA 2001     mov     r0,1h
080042CC 7060     strb    r0,[r4,1h]
080042CE 1C22     mov     r2,r4
080042D0 3221     add     r2,21h
080042D2 7811     ldrb    r1,[r2]
080042D4 2080     mov     r0,80h
080042D6 4008     and     r0,r1
080042D8 7010     strb    r0,[r2]
080042DA 2D00     cmp     r5,0h
080042DC D100     bne     80042E0h
080042DE 4D09     ldr     r5,=12Bh
080042E0 4809     ldr     r0,=808F254h
080042E2 6800     ldr     r0,[r0]
080042E4 4A09     ldr     r2,=808F2C0h
080042E6 00E9     lsl     r1,r5,3h
080042E8 1889     add     r1,r1,r2
080042EA 6809     ldr     r1,[r1]
080042EC F000FC30 bl      8004B50h
080042F0 1C20     mov     r0,r4
080042F2 3020     add     r0,20h
080042F4 7006     strb    r6,[r0]
080042F6 83A5     strh    r5,[r4,1Ch]
080042F8 BC70     pop     r4-r6
080042FA BC01     pop     r0
080042FC 4700     bx      r0
080042FE 0000     lsl     r0,r0,0h
08004300 1D00     add     r0,r0,4
08004302 0300     lsl     r0,r0,0Ch
08004304 012B     lsl     r3,r5,4h
08004306 0000     lsl     r0,r0,0h
08004308 F2540808 ????
0800430A 0808     lsr     r0,r1,20h
0800430C F2C00808 ????
0800430E 0808     lsr     r0,r1,20h
08004310 B4F0     push    r4-r7
08004312 4644     mov     r4,r8
08004314 464D     mov     r5,r9
08004316 4656     mov     r6,r10
08004318 465F     mov     r7,r11
0800431A B5F0     push    r4-r7,lr
0800431C A400     add     r4,=8004320h
0800431E 4720     bx      r4
08004320 4088     lsl     r0,r1
08004322 E59F     b       8003E64h
08004324 C004     stmia   [r0]!,r2
08004326 E5D4     b       8003ED2h
08004328 EC06     ????
0800432A E3A0     b       8004A6Eh
0800432C 0001     lsl     r1,r0,0h
0800432E EA00     ????
08004330 3001     add     r0,1h
08004332 E253     b       80047DCh
08004334 0019     lsl     r1,r3,0h
08004336 0A00     lsr     r0,r0,8h
08004338 60DE     str     r6,[r3,0Ch]
0800433A E190     b       800465Eh
0800433C 70DE     strb    r6,[r3,3h]
0800433E E191     b       8004664h
08004340 40D1     lsr     r1,r2
08004342 E0D0     b       80044E6h
08004344 50D1     str     r1,[r2,r3]
08004346 E0D1     b       80044ECh
08004348 A0DE     add     r0,=80046C4h
0800434A E190     b       800466Eh
0800434C B0DE     add     sp,-178h
0800434E E191     b       8004674h
08004350 80D1     strh    r1,[r2,6h]
08004352 E0D0     b       80044F6h
08004354 90D1     str     r0,[sp,344h]
08004356 E0D1     b       80044FCh
08004358 6004     str     r4,[r0]
0800435A E086     b       800446Ah
0800435C 6005     str     r5,[r0]
0800435E E086     b       800446Eh
08004360 6007     str     r7,[r0]
08004362 E086     b       8004472h
08004364 8009     strh    r1,[r1]
08004366 E088     b       800447Ah
08004368 800A     strh    r2,[r1]
0800436A E088     b       800447Eh
0800436C 800B     strh    r3,[r1]
0800436E E088     b       8004482h
08004370 069C     lsl     r4,r3,1Ah
08004372 E006     b       8004382h
08004374 089C     lsr     r4,r3,2h
08004376 E008     b       800438Ah
08004378 64C6     str     r6,[r0,4Ch]
0800437A E1B0     b       80046DEh
0800437C 6001     str     r1,[r0]
0800437E 4286     cmp     r6,r0
08004380 84C8     strh    r0,[r1,26h]
08004382 E1B0     b       80046E6h
08004384 8001     strh    r1,[r0]
08004386 4288     cmp     r0,r1
08004388 6386     str     r6,[r0,38h]
0800438A E1A0     b       80046CEh
0800438C 8388     strh    r0,[r1,1Ch]
0800438E E1A0     b       80046D2h
08004390 7006     strb    r6,[r0]
08004392 E1A0     b       80046D6h
08004394 9008     str     r0,[sp,20h]
08004396 E1A0     b       80046DAh
08004398 03C0     lsl     r0,r0,0Fh
0800439A E8A2     ????
0800439C FFE3EAFF ????
0800439E EAFF     ????
080043A0 0002     lsl     r2,r0,0h
080043A2 E1A0     b       80046E6h
080043A4 4F00     ldr     r7,=0E8BD00F0h
080043A6 E8BD     ????
080043A8 00F0     lsl     r0,r6,3h
080043AA E8BD     ????
080043AC FF1EE12F ????
080043AE E12F     b       8004610h
080043B0 1D00     add     r0,r0,4
080043B2 0300     lsl     r0,r0,0Ch
080043B4 B4F0     push    r4-r7
080043B6 4644     mov     r4,r8
080043B8 464D     mov     r5,r9
080043BA 4656     mov     r6,r10
080043BC 465F     mov     r7,r11
080043BE B5F0     push    r4-r7,lr
080043C0 A400     add     r4,=80043C4h
080043C2 4720     bx      r4
080043C4 3C06     sub     r4,6h
080043C6 E3A0     b       8004B0Ah
080043C8 3003     add     r0,3h
080043CA E080     b       80044CEh
080043CC C000     stmia   [r0]!,
080043CE E3A0     b       8004B12h
080043D0 C001     stmia   [r0]!,r0
080043D2 E24C     b       800486Eh
080043D4 CBAC     ldmia   [r3]!,r2,r3,r5,r7
080043D6 E1A0     b       800471Ah
080043D8 E080     b       80044DCh
080043DA E59F     b       8003F1Ch
080043DC 0001     lsl     r1,r0,0h
080043DE EA00     ????
080043E0 2001     mov     r0,1h
080043E2 E252     b       800488Ah
080043E4 0019     lsl     r1,r3,0h
080043E6 0A00     lsr     r0,r0,8h
080043E8 0FF0     lsr     r0,r6,1Fh
080043EA E8B1     ????
080043EC 43A4     bic     r4,r4
080043EE E00C     b       800440Ah
080043F0 53A5     strh    r5,[r4,r6]
080043F2 E00C     b       800440Eh
080043F4 63A6     str     r6,[r4,38h]
080043F6 E00C     b       8004412h
080043F8 73A7     strb    r7,[r4,0Eh]
080043FA E00C     b       8004416h
080043FC 83A8     strh    r0,[r5,1Ch]
080043FE E00C     b       800441Ah
08004400 93A9     str     r3,[sp,2A4h]
08004402 E00C     b       800441Eh
08004404 A3AA     add     r3,=80046B0h
08004406 E00C     b       8004422h
08004408 B3AB     ????
0800440A E00C     b       8004426h
0800440C 4004     and     r4,r0
0800440E E7DE     b       80043CEh
08004410 5005     str     r5,[r0,r0]
08004412 E7DE     b       80043D2h
08004414 6006     str     r6,[r0]
08004416 E7DE     b       80043D6h
08004418 7007     strb    r7,[r0]
0800441A E7DE     b       80043DAh
0800441C 8008     strh    r0,[r1]
0800441E E7DE     b       80043DEh
08004420 9009     str     r0,[sp,24h]
08004422 E7DE     b       80043E2h
08004424 A00A     add     r0,=8004450h
08004426 E7DE     b       80043E6h
08004428 B00B     add     sp,2Ch
0800442A E7DE     b       80043EAh
0800442C 4406     ????
0800442E E184     b       800473Ah
08004430 4808     ldr     r0,=0E8BD4F00h
08004432 E184     b       800473Eh
08004434 4C0A     ldr     r4,=808CCE2h
08004436 E184     b       8004742h
08004438 4004     and     r4,r0
0800443A E480     b       8003D3Eh
0800443C 5407     strb    r7,[r0,r0]
0800443E E185     b       800474Ch
08004440 5809     ldr     r1,[r1,r0]
08004442 E185     b       8004750h
08004444 5C0B     ldrb    r3,[r1,r0]
08004446 E185     b       8004754h
08004448 5004     str     r4,[r0,r0]
0800444A E483     b       8003D54h
0800444C FFE3EAFF ????
0800444E EAFF     ????
08004450 0001     lsl     r1,r0,0h
08004452 E1A0     b       8004796h
08004454 4F00     ldr     r7,=0E8BD00F0h
08004456 E8BD     ????
08004458 00F0     lsl     r0,r6,3h
0800445A E8BD     ????
0800445C FF1EE12F ????
0800445E E12F     b       80046C0h
08004460 CCE2     ldmia   [r4]!,r1,r5-r7
08004462 0808     lsr     r0,r1,20h
08004464 B4F0     push    r4-r7
08004466 4643     mov     r3,r8
08004468 464C     mov     r4,r9
0800446A 4655     mov     r5,r10
0800446C 465E     mov     r6,r11
0800446E B578     push    r3-r6,lr
08004470 A400     add     r4,=8004474h
08004472 4720     bx      r4
08004474 C018     stmia   [r0]!,r3,r4
08004476 E590     b       8003F9Ah
08004478 B011     add     sp,44h
0800447A E5D0     b       800401Eh
0800447C A012     add     r0,=80044C8h
0800447E E5D0     b       8004022h
08004480 9024     str     r0,[sp,90h]
08004482 E590     b       8003FA6h
08004484 3020     add     r0,20h
08004486 E590     b       8003FAAh
08004488 800C     strh    r4,[r1]
0800448A E593     b       8003FB4h
0800448C 4001     and     r1,r0
0800448E E5D0     b       8004032h
08004490 0020     lsl     r0,r4,0h
08004492 E354     b       8004B3Eh
08004494 0109     lsl     r1,r1,4h
08004496 0A00     lsr     r0,r0,8h
08004498 0008     lsl     r0,r1,0h
0800449A E354     b       8004B46h
0800449C 00BC     lsl     r4,r7,2h
0800449E 0A00     lsr     r0,r0,8h
080044A0 7000     strb    r0,[r0]
080044A2 E3A0     b       8004BE6h
080044A4 7001     strb    r1,[r0]
080044A6 E247     b       8004938h
080044A8 7927     ldrb    r7,[r4,4h]
080044AA E1A0     b       80047EEh
080044AC 601C     str     r4,[r3]
080044AE E590     b       8003FD2h
080044B0 0001     lsl     r1,r0,0h
080044B2 E92D     ????
080044B4 00B2     lsl     r2,r6,2h
080044B6 E1D3     b       8004860h
080044B8 E008     b       80044CCh
080044BA E593     b       8003FE4h
080044BC E008     b       80044D0h
080044BE E04E     b       800455Eh
080044C0 0001     lsl     r1,r0,0h
080044C2 EA00     ????
080044C4 2001     mov     r0,1h
080044C6 E252     b       800496Eh
080044C8 0176     lsl     r6,r6,5h
080044CA 0A00     lsr     r0,r0,8h
080044CC 4106     asr     r6,r0
080044CE E08C     b       80045EAh
080044D0 4724     bx      r4
080044D2 E058     b       8004586h
080044D4 007D     lsl     r5,r7,1h
080044D6 CA00     ldmia   [r2]!,
080044D8 572C     ldsb    r4,[r5,r4]
080044DA E1A0     b       800481Eh
080044DC 0000     lsl     r0,r0,0h
080044DE E010     b       8004502h
080044E0 0034     lsl     r4,r6,0h
080044E2 1A00     sub     r0,r0,r0
080044E4 30D9     add     r0,0D9h
080044E6 E1B5     b       8004854h
080044E8 40D1     lsr     r1,r2
080044EA E1D5     b       8004898h
080044EC 4003     and     r3,r0
080044EE E044     b       800457Ah
080044F0 5007     str     r7,[r0,r0]
080044F2 E00C     b       800450Eh
080044F4 0495     lsl     r5,r2,12h
080044F6 E004     b       8004502h
080044F8 3724     add     r7,24h
080044FA E083     b       8004604h
080044FC 0030     lsl     r0,r6,0h
080044FE E891     ????
08004500 4B93     ldr     r3,=0E0244B93h
08004502 E024     b       800454Eh
08004504 5A93     ldrh    r3,[r2,r2]
08004506 E025     b       8004554h
08004508 0030     lsl     r0,r6,0h
0800450A E8A1     ????
0800450C C006     stmia   [r0]!,r1,r2
0800450E E08C     b       800462Ah
08004510 572C     ldsb    r4,[r5,r4]
08004512 E1A0     b       8004856h
08004514 0008     lsl     r0,r1,0h
08004516 E155     b       80047C4h
08004518 015E     lsl     r6,r3,5h
0800451A AA00     add     r2,sp,0h
0800451C 30D9     add     r0,0D9h
0800451E E1B5     b       800488Ch
08004520 40D1     lsr     r1,r2
08004522 E1D5     b       80048D0h
08004524 4003     and     r3,r0
08004526 E044     b       80045B2h
08004528 5007     str     r7,[r0,r0]
0800452A E00C     b       8004546h
0800452C 0495     lsl     r5,r2,12h
0800452E E004     b       800453Ah
08004530 3724     add     r7,24h
08004532 E083     b       800463Ch
08004534 0030     lsl     r0,r6,0h
08004536 E891     ????
08004538 4B93     ldr     r3,=0E8A10030h
0800453A E024     b       8004586h
0800453C 5A93     ldrh    r3,[r2,r2]
0800453E E025     b       800458Ch
08004540 0030     lsl     r0,r6,0h
08004542 E8A1     ????
08004544 C006     stmia   [r0]!,r1,r2
08004546 E08C     b       8004662h
08004548 572C     ldsb    r4,[r5,r4]
0800454A E1A0     b       800488Eh
0800454C 0008     lsl     r0,r1,0h
0800454E E155     b       80047FCh
08004550 0150     lsl     r0,r2,5h
08004552 AA00     add     r2,sp,0h
08004554 30D9     add     r0,0D9h
08004556 E1B5     b       80048C4h
08004558 40D1     lsr     r1,r2
0800455A E1D5     b       8004908h
0800455C 4003     and     r3,r0
0800455E E044     b       80045EAh
08004560 5007     str     r7,[r0,r0]
08004562 E00C     b       800457Eh
08004564 0495     lsl     r5,r2,12h
08004566 E004     b       8004572h
08004568 3724     add     r7,24h
0800456A E083     b       8004674h
0800456C 0030     lsl     r0,r6,0h
0800456E E891     ????
08004570 4B93     ldr     r3,=0E0244B93h
08004572 E024     b       80045BEh
08004574 5A93     ldrh    r3,[r2,r2]
08004576 E025     b       80045C4h
08004578 0030     lsl     r0,r6,0h
0800457A E8A1     ????
0800457C C006     stmia   [r0]!,r1,r2
0800457E E08C     b       800469Ah
08004580 572C     ldsb    r4,[r5,r4]
08004582 E1A0     b       80048C6h
08004584 0008     lsl     r0,r1,0h
08004586 E155     b       8004834h
08004588 0142     lsl     r2,r0,5h
0800458A AA00     add     r2,sp,0h
