08008CF8 B570     push    r4-r6,r14               
08008CFA 1C04     mov     r4,r0                   
08008CFC 4A09     ldr     r2,=3001380h            
08008CFE 8811     ldrh    r1,[r2]            ;读取即时输入     
08008D00 2080     mov     r0,80h                  
08008D02 4008     and     r0,r1                   
08008D04 2800     cmp     r0,0h                   
08008D06 D011     beq     @@PassBall                
08008D08 78A0     ldrb    r0,[r4,2h]         ;检查炮口方向          
08008D0A 2804     cmp     r0,4h                   
08008D0C D10E     bne     @@PassBall           ;不向下    
08008D0E 4806     ldr     r0,=3001530h            
08008D10 7BC1     ldrb    r1,[r0,0Fh]             
08008D12 2040     mov     r0,40h                  
08008D14 4008     and     r0,r1              ;检查能力是否有球激活了     
08008D16 2800     cmp     r0,0h                   
08008D18 D008     beq     @@PassBall                
08008D1A 2077     mov     r0,77h                  
08008D1C F7F9FE7C bl      8002A18h           ;变球声       
08008D20 2014     mov     r0,14h             ;姿势为空中球     
08008D22 E063     b       @@end                

@@PassBall:             
08008D2C 8811     ldrh    r1,[r2]                 
08008D2E 2001     mov     r0,1h                   
08008D30 4008     and     r0,r1              ;检查即时输入是否有跳         
08008D32 2800     cmp     r0,0h                   
08008D34 D012     beq     @@NoSparkConditions               
08008D36 7A20     ldrb    r0,[r4,8h]         ;检查金身时间     
08008D38 2800     cmp     r0,0h                   
08008D3A D001     beq     @@NoSpark                
08008D3C 2021     mov     r0,21h             ;姿势冲刺准备动作        
08008D3E E055     b       @@end   

@@NoSpark:             
08008D40 4805     ldr     r0,=300137Ch            
08008D42 8800     ldrh    r0,[r0]            ;读取输入            
08008D44 21C0     mov     r1,0C0h            ;是否有上或下     
08008D46 4001     and     r1,r0                   
08008D48 2900     cmp     r1,0h                   
08008D4A D107     bne     @@NoSparkConditions                
08008D4C 200C     mov     r0,0Ch                  
08008D4E 7020     strb    r0,[r4]            ;姿势写入旋转跳    
08008D50 7761     strb    r1,[r4,1Dh]             
08008D52 7721     strb    r1,[r4,1Ch]        ;动画和动画帧归零     
08008D54 E049     b       @@NoChangePose                

@@NoSparkConditions:              
08008D5C 2600     mov     r6,0h                   
08008D5E 4D0A     ldr     r5,=3001588h            
08008D60 1C28     mov     r0,r5                   
08008D62 3068     add     r0,68h                  
08008D64 2100     mov     r1,0h                   
08008D66 5E42     ldsh    r2,[r0,r1]         ;读取空中的X加速度         
08008D68 4808     ldr     r0,=300137Ch            
08008D6A 8803     ldrh    r3,[r0]            ;读取输入     
08008D6C 89E1     ldrh    r1,[r4,0Eh]             
08008D6E 1C18     mov     r0,r3              ;读取面向    
08008D70 4008     and     r0,r1                   
08008D72 2800     cmp     r0,0h                   
08008D74 D00C     beq     @@NoPressBefore              
08008D76 1C28     mov     r0,r5                   
08008D78 306A     add     r0,6Ah             ;读取空中X速度     
08008D7A 2300     mov     r3,0h                   
08008D7C 5EC1     ldsh    r1,[r0,r3]              
08008D7E 1C10     mov     r0,r2                   
08008D80 1C22     mov     r2,r4                   
08008D82 F7FFFA79 bl      8008278h           ;移动速度写入             
08008D86 E01E     b       @@Peer                

@@NoPressBefore:              
08008D90 2030     mov     r0,30h             ;相反的面向       
08008D92 4048     eor     r0,r1                   
08008D94 4018     and     r0,r3              ;和输入and     
08008D96 0400     lsl     r0,r0,10h               
08008D98 2800     cmp     r0,0h                   
08008D9A D001     beq     @@NoPressBack                
08008D9C 2601     mov     r6,1h              ;转向FLAG          
08008D9E E012     b       @@Peer  

@@NoPressBack:              
08008DA0 8AE0     ldrh    r0,[r4,16h]        ;X速度           
08008DA2 2316     mov     r3,16h                  
08008DA4 5EE1     ldsh    r1,[r4,r3]              
08008DA6 2900     cmp     r1,0h              ;零或负数跳转   
08008DA8 DD05     ble     @@ZeroOrFu                
08008DAA 1A80     sub     r0,r0,r2           ;减去加速度     
08008DAC 82E0     strh    r0,[r4,16h]        ;再写入     
08008DAE 0400     lsl     r0,r0,10h               
08008DB0 2800     cmp     r0,0h                   
08008DB2 DA08     bge     @@Peer             ;大于或等于0   
08008DB4 E006     b       @@XSpeedZero           ;小于0

@@ZeroOrFu:               
08008DB6 2900     cmp     r1,0h                   
08008DB8 DA05     bge     @@Peer                
08008DBA 1810     add     r0,r2,r0                
08008DBC 82E0     strh    r0,[r4,16h]             
08008DBE 0400     lsl     r0,r0,10h               
08008DC0 2800     cmp     r0,0h                   
08008DC2 DD00     ble     @@Peer 

@@XSpeedZero:               
08008DC4 82E6     strh    r6,[r4,16h] 

@@Peer:           
08008DC6 1C20     mov     r0,r4                   
08008DC8 F7FEFDEC bl      80079A4h      ;控制炮口的方向              
08008DCC 2E00     cmp     r6,0h                   
08008DCE D001     beq     @@PassTurn                
08008DD0 2009     mov     r0,9h         ;空中转向            
08008DD2 E00B     b       @@end  

@@PassTurn:              
08008DD4 4807     ldr     r0,=300137Ch  ;读取输入          
08008DD6 8800     ldrh    r0,[r0]                 
08008DD8 2101     mov     r1,1h                   
08008DDA 4001     and     r1,r0                   
08008DDC 2900     cmp     r1,0h         ;检查是否有跳           
08008DDE D104     bne     @@NoChangePose                
08008DE0 2218     mov     r2,18h                  
08008DE2 5EA0     ldsh    r0,[r4,r2]    ;读取Y速度           
08008DE4 2800     cmp     r0,0h                   
08008DE6 DD00     ble     @@NoChangePose                
08008DE8 8321     strh    r1,[r4,18h] 

@@NoChangePose:            
08008DEA 20FF     mov     r0,0FFh 

@@end:                
08008DEC BC70     pop     r4-r6                   
08008DEE BC02     pop     r1                      
08008DF0 4708     bx      r1                      
08008DF2 0000     lsl     r0,r0,0h                
08008DF4 137C     asr     r4,r7,0Dh               
08008DF6 0300     lsl     r0,r0,0Ch  

             
08008DF8 B510     push    r4,r14                  
08008DFA 1C04     mov     r4,r0                   
08008DFC 2118     mov     r1,18h                  
08008DFE 5E60     ldsh    r0,[r4,r1]              
08008E00 2800     cmp     r0,0h                   
08008E02 DB05     blt     8008E10h                
08008E04 7F60     ldrb    r0,[r4,1Dh]             
08008E06 2802     cmp     r0,2h                   
08008E08 D107     bne     8008E1Ah                
08008E0A 2000     mov     r0,0h                   
08008E0C 7720     strb    r0,[r4,1Ch]             
08008E0E E004     b       8008E1Ah                
08008E10 7F60     ldrb    r0,[r4,1Dh]             
08008E12 2801     cmp     r0,1h                   
08008E14 D801     bhi     8008E1Ah                
08008E16 2002     mov     r0,2h                   
08008E18 7760     strb    r0,[r4,1Dh]             
08008E1A 1C20     mov     r0,r4                   
08008E1C 2100     mov     r1,0h                   
08008E1E F7FFFB2D bl      800847Ch                
08008E22 0600     lsl     r0,r0,18h               
08008E24 0E00     lsr     r0,r0,18h               
08008E26 2802     cmp     r0,2h                   
08008E28 D101     bne     8008E2Eh                
08008E2A 2004     mov     r0,4h                   
08008E2C 7760     strb    r0,[r4,1Dh]             
08008E2E 20FF     mov     r0,0FFh                 
08008E30 BC10     pop     r4                      
08008E32 BC02     pop     r1                      
08008E34 4708     bx      r1                      
08008E36 0000     lsl     r0,r0,0h                
08008E38 B500     push    r14                     
08008E3A 1C02     mov     r2,r0                   
08008E3C 4805     ldr     r0,=3001380h            
08008E3E 8801     ldrh    r1,[r0]                 
08008E40 2001     mov     r0,1h                   
08008E42 4008     and     r0,r1                   
08008E44 2800     cmp     r0,0h                   
08008E46 D01B     beq     8008E80h                
08008E48 7A10     ldrb    r0,[r2,8h]              
08008E4A 2800     cmp     r0,0h                   
08008E4C D004     beq     8008E58h                
08008E4E 2021     mov     r0,21h                  
08008E50 E02E     b       8008EB0h                
08008E52 0000     lsl     r0,r0,0h                
08008E54 1380     asr     r0,r0,0Eh               
08008E56 0300     lsl     r0,r0,0Ch               
08008E58 4808     ldr     r0,=300137Ch            
08008E5A 8801     ldrh    r1,[r0]                 
08008E5C 20C0     mov     r0,0C0h                 
08008E5E 4008     and     r0,r1                   
08008E60 2800     cmp     r0,0h                   
08008E62 D10D     bne     8008E80h                
08008E64 200C     mov     r0,0Ch                  
08008E66 7010     strb    r0,[r2]                 
08008E68 89D0     ldrh    r0,[r2,0Eh]             
08008E6A 2130     mov     r1,30h                  
08008E6C 4048     eor     r0,r1                   
08008E6E 2100     mov     r1,0h                   
08008E70 81D0     strh    r0,[r2,0Eh]             
08008E72 7751     strb    r1,[r2,1Dh]             
08008E74 7711     strb    r1,[r2,1Ch]             
08008E76 70D1     strb    r1,[r2,3h]              
08008E78 E019     b       8008EAEh                
08008E7A 0000     lsl     r0,r0,0h                
08008E7C 137C     asr     r4,r7,0Dh               
08008E7E 0300     lsl     r0,r0,0Ch               
08008E80 4804     ldr     r0,=3001588h            
08008E82 305C     add     r0,5Ch                  
08008E84 7800     ldrb    r0,[r0]                 
08008E86 2800     cmp     r0,0h                   
08008E88 D006     beq     8008E98h                
08008E8A 2002     mov     r0,2h                   
08008E8C 7110     strb    r0,[r2,4h]              
08008E8E 20FE     mov     r0,0FEh                 
08008E90 E00E     b       8008EB0h                
08008E92 0000     lsl     r0,r0,0h                
08008E94 1588     asr     r0,r1,16h               
08008E96 0300     lsl     r0,r0,0Ch               
08008E98 4806     ldr     r0,=300137Ch            
08008E9A 8800     ldrh    r0,[r0]                 
08008E9C 2101     mov     r1,1h                   
08008E9E 4001     and     r1,r0                   
08008EA0 2900     cmp     r1,0h                   
08008EA2 D104     bne     8008EAEh                
08008EA4 2318     mov     r3,18h                  
08008EA6 5ED0     ldsh    r0,[r2,r3]              
08008EA8 2800     cmp     r0,0h                   
08008EAA DD00     ble     8008EAEh                
08008EAC 8311     strh    r1,[r2,18h]             
08008EAE 20FF     mov     r0,0FFh                 
08008EB0 BC02     pop     r1                      
08008EB2 4708     bx      r1                      
08008EB4 137C     asr     r4,r7,0Dh               
08008EB6 0300     lsl     r0,r0,0Ch               
08008EB8 B510     push    r4,r14                  
08008EBA 1C04     mov     r4,r0                   
08008EBC 2100     mov     r1,0h                   
08008EBE F7FFFADD bl      800847Ch                
08008EC2 0600     lsl     r0,r0,18h               
08008EC4 0E00     lsr     r0,r0,18h               
08008EC6 2802     cmp     r0,2h                   
08008EC8 D001     beq     8008ECEh                
08008ECA 20FF     mov     r0,0FFh                 
08008ECC E001     b       8008ED2h                
08008ECE 7120     strb    r0,[r4,4h]              
08008ED0 20FE     mov     r0,0FEh                 
08008ED2 BC10     pop     r4                      
08008ED4 BC02     pop     r1                      
08008ED6 4708     bx      r1                      
08008ED8 B510     push    r4,r14                  
08008EDA 1C04     mov     r4,r0                   
08008EDC 2100     mov     r1,0h                   
08008EDE F7FFFACD bl      800847Ch                
08008EE2 0600     lsl     r0,r0,18h               
08008EE4 0E00     lsr     r0,r0,18h               
08008EE6 2802     cmp     r0,2h                   
08008EE8 D103     bne     8008EF2h                
08008EEA 2100     mov     r1,0h                   
08008EEC 200C     mov     r0,0Ch                  
08008EEE 7020     strb    r0,[r4]                 
08008EF0 7761     strb    r1,[r4,1Dh]             
08008EF2 20FF     mov     r0,0FFh                 
08008EF4 BC10     pop     r4                      
08008EF6 BC02     pop     r1                      
08008EF8 4708     bx      r1                      
08008EFA 0000     lsl     r0,r0,0h                
08008EFC B530     push    r4,r5,r14               
08008EFE 1C04     mov     r4,r0                   
08008F00 4803     ldr     r0,=3001588h            
08008F02 305C     add     r0,5Ch                  
08008F04 7800     ldrb    r0,[r0]                 
08008F06 2800     cmp     r0,0h                   
08008F08 D004     beq     8008F14h                
08008F0A 2000     mov     r0,0h                   
08008F0C E00D     b       8008F2Ah                
08008F0E 0000     lsl     r0,r0,0h                
08008F10 1588     asr     r0,r1,16h               
08008F12 0300     lsl     r0,r0,0Ch               
08008F14 4806     ldr     r0,=300137Ch            
08008F16 8801     ldrh    r1,[r0]                 
08008F18 2030     mov     r0,30h                  
08008F1A 4008     and     r0,r1                   
08008F1C 2800     cmp     r0,0h                   
08008F1E D109     bne     8008F34h                
08008F20 20C0     mov     r0,0C0h                 
08008F22 4008     and     r0,r1                   
08008F24 2800     cmp     r0,0h                   
08008F26 D005     beq     8008F34h                
08008F28 2002     mov     r0,2h                   
08008F2A 7120     strb    r0,[r4,4h]              
08008F2C 20FE     mov     r0,0FEh                 
08008F2E E07F     b       8009030h                
08008F30 137C     asr     r4,r7,0Dh               
08008F32 0300     lsl     r0,r0,0Ch               
08008F34 1C20     mov     r0,r4                   
08008F36 F7FEFD35 bl      80079A4h                
08008F3A 4911     ldr     r1,=3001588h            
08008F3C 1C08     mov     r0,r1                   
08008F3E 3068     add     r0,68h                  
08008F40 2200     mov     r2,0h                   
08008F42 5E85     ldsh    r5,[r0,r2]              
08008F44 480F     ldr     r0,=3001530h            
08008F46 7BC2     ldrb    r2,[r0,0Fh]             
08008F48 2004     mov     r0,4h                   
08008F4A 4010     and     r0,r2                   
08008F4C 2800     cmp     r0,0h                   
08008F4E D020     beq     8008F92h                
08008F50 1C08     mov     r0,r1                   
08008F52 305B     add     r0,5Bh                  
08008F54 7800     ldrb    r0,[r0]                 
08008F56 2800     cmp     r0,0h                   
08008F58 D11B     bne     8008F92h                
08008F5A 480B     ldr     r0,=3001380h            
08008F5C 8801     ldrh    r1,[r0]                 
08008F5E 2301     mov     r3,1h                   
08008F60 1C18     mov     r0,r3                   
08008F62 4008     and     r0,r1                   
08008F64 2800     cmp     r0,0h                   
08008F66 D03E     beq     8008FE6h                
08008F68 2018     mov     r0,18h                  
08008F6A 5E21     ldsh    r1,[r4,r0]              
08008F6C 2040     mov     r0,40h                  
08008F6E 4240     neg     r0,r0                   
08008F70 4281     cmp     r1,r0                   
08008F72 DC38     bgt     8008FE6h                
08008F74 1C18     mov     r0,r3                   
08008F76 4010     and     r0,r2                   
08008F78 2800     cmp     r0,0h                   
08008F7A D007     beq     8008F8Ch                
08008F7C 20E8     mov     r0,0E8h                 
08008F7E E006     b       8008F8Eh                
08008F80 1588     asr     r0,r1,16h               
08008F82 0300     lsl     r0,r0,0Ch               
08008F84 1530     asr     r0,r6,14h               
08008F86 0300     lsl     r0,r0,0Ch               
08008F88 1380     asr     r0,r0,0Eh               
08008F8A 0300     lsl     r0,r0,0Ch               
08008F8C 20C0     mov     r0,0C0h                 
08008F8E 8320     strh    r0,[r4,18h]             
08008F90 E04D     b       800902Eh                
08008F92 79E0     ldrb    r0,[r4,7h]              
08008F94 2800     cmp     r0,0h                   
08008F96 D026     beq     8008FE6h                
08008F98 3801     sub     r0,1h                   
08008F9A 71E0     strb    r0,[r4,7h]              
08008F9C 89E0     ldrh    r0,[r4,0Eh]             
08008F9E 89A2     ldrh    r2,[r4,0Ch]             
08008FA0 4010     and     r0,r2                   
08008FA2 2800     cmp     r0,0h                   
08008FA4 D01F     beq     8008FE6h                
08008FA6 480E     ldr     r0,=3001380h            
08008FA8 8801     ldrh    r1,[r0]                 
08008FAA 2001     mov     r0,1h                   
08008FAC 4008     and     r0,r1                   
08008FAE 2800     cmp     r0,0h                   
08008FB0 D018     beq     8008FE4h                
08008FB2 2010     mov     r0,10h                  
08008FB4 4010     and     r0,r2                   
08008FB6 2228     mov     r2,28h                  
08008FB8 2800     cmp     r0,0h                   
08008FBA D000     beq     8008FBEh                
08008FBC 3A50     sub     r2,50h                  
08008FBE 8AA0     ldrh    r0,[r4,14h]             
08008FC0 8A61     ldrh    r1,[r4,12h]             
08008FC2 1889     add     r1,r1,r2                
08008FC4 0409     lsl     r1,r1,10h               
08008FC6 0C09     lsr     r1,r1,10h               
08008FC8 F04EFF16 bl      8057DF8h                
08008FCC 2180     mov     r1,80h                  
08008FCE 0449     lsl     r1,r1,11h               
08008FD0 4001     and     r1,r0                   
08008FD2 2900     cmp     r1,0h                   
08008FD4 D006     beq     8008FE4h                
08008FD6 89A0     ldrh    r0,[r4,0Ch]             
08008FD8 81E0     strh    r0,[r4,0Eh]             
08008FDA 200D     mov     r0,0Dh                  
08008FDC E028     b       8009030h                
08008FDE 0000     lsl     r0,r0,0h                
08008FE0 1380     asr     r0,r0,0Eh               
08008FE2 0300     lsl     r0,r0,0Ch               
08008FE4 2501     mov     r5,1h                   
08008FE6 4A07     ldr     r2,=300137Ch            
08008FE8 89E1     ldrh    r1,[r4,0Eh]             
08008FEA 2030     mov     r0,30h                  
08008FEC 1C0B     mov     r3,r1                   
08008FEE 4043     eor     r3,r0                   
08008FF0 8811     ldrh    r1,[r2]                 
08008FF2 1C18     mov     r0,r3                   
08008FF4 4008     and     r0,r1                   
08008FF6 2800     cmp     r0,0h                   
08008FF8 D006     beq     8009008h                
08008FFA 2000     mov     r0,0h                   
08008FFC 81E3     strh    r3,[r4,0Eh]             
08008FFE 82E0     strh    r0,[r4,16h]             
08009000 E00A     b       8009018h                
08009002 0000     lsl     r0,r0,0h                
08009004 137C     asr     r4,r7,0Dh               
08009006 0300     lsl     r0,r0,0Ch               
08009008 480B     ldr     r0,=3001588h            
0800900A 306A     add     r0,6Ah                  
0800900C 2200     mov     r2,0h                   
0800900E 5E81     ldsh    r1,[r0,r2]              
08009010 1C28     mov     r0,r5                   
08009012 1C22     mov     r2,r4                   
08009014 F7FFF930 bl      8008278h                
08009018 4808     ldr     r0,=300137Ch            
0800901A 8800     ldrh    r0,[r0]                 
0800901C 2101     mov     r1,1h                   
0800901E 4001     and     r1,r0                   
08009020 2900     cmp     r1,0h                   
08009022 D104     bne     800902Eh                
08009024 2218     mov     r2,18h                  
08009026 5EA0     ldsh    r0,[r4,r2]              
08009028 2800     cmp     r0,0h                   
0800902A DD00     ble     800902Eh                
0800902C 8321     strh    r1,[r4,18h]             
0800902E 20FF     mov     r0,0FFh                 
08009030 BC30     pop     r4,r5                   
08009032 BC02     pop     r1                      
08009034 4708     bx      r1                      
08009036 0000     lsl     r0,r0,0h                
08009038 1588     asr     r0,r1,16h               
0800903A 0300     lsl     r0,r0,0Ch               
0800903C 137C     asr     r4,r7,0Dh               
0800903E 0300     lsl     r0,r0,0Ch  

             
08009040 B530     push    r4,r5,r14               
08009042 1C04     mov     r4,r0                   
08009044 480B     ldr     r0,=3001588h            
08009046 1C05     mov     r5,r0                   
08009048 355B     add     r5,5Bh                  
0800904A 7829     ldrb    r1,[r5]                 
0800904C 1C20     mov     r0,r4                   
0800904E F7FFFA15 bl      800847Ch                
08009052 0600     lsl     r0,r0,18h               
08009054 0E00     lsr     r0,r0,18h               
08009056 2802     cmp     r0,2h                   
08009058 D101     bne     800905Eh                
0800905A 2000     mov     r0,0h                   
0800905C 7760     strb    r0,[r4,1Dh]             
0800905E 8BA0     ldrh    r0,[r4,1Ch]             
08009060 2801     cmp     r0,1h                   
08009062 D116     bne     8009092h                
08009064 7828     ldrb    r0,[r5]                 
08009066 2800     cmp     r0,0h                   
08009068 D006     beq     8009078h                
0800906A 2092     mov     r0,92h                  
0800906C F7F9FCD4 bl      8002A18h                
08009070 E00F     b       8009092h                
08009072 0000     lsl     r0,r0,0h                
08009074 1588     asr     r0,r1,16h               
08009076 0300     lsl     r0,r0,0Ch               
08009078 4803     ldr     r0,=3001530h            
0800907A 7C80     ldrb    r0,[r0,12h]             
0800907C 2802     cmp     r0,2h                   
0800907E D005     beq     800908Ch                
08009080 206A     mov     r0,6Ah                  
08009082 F7F9FCC9 bl      8002A18h                
08009086 E004     b       8009092h                
08009088 1530     asr     r0,r6,14h               
0800908A 0300     lsl     r0,r0,0Ch               
0800908C 2098     mov     r0,98h                  
0800908E F7F9FCC3 bl      8002A18h                
08009092 20FF     mov     r0,0FFh                 
08009094 BC30     pop     r4,r5                   
08009096 BC02     pop     r1                      
08009098 4708     bx      r1                      
0800909A 0000     lsl     r0,r0,0h                
0800909C B500     push    r14                     
0800909E 1C03     mov     r3,r0                   
080090A0 4804     ldr     r0,=3001588h            
080090A2 305C     add     r0,5Ch                  
080090A4 7800     ldrb    r0,[r0]                 
080090A6 2800     cmp     r0,0h                   
080090A8 D006     beq     80090B8h                
080090AA 2000     mov     r0,0h                   
080090AC 7118     strb    r0,[r3,4h]              
080090AE 20FE     mov     r0,0FEh                 
080090B0 E013     b       80090DAh                
080090B2 0000     lsl     r0,r0,0h                
080090B4 1588     asr     r0,r1,16h               
080090B6 0300     lsl     r0,r0,0Ch               
080090B8 4806     ldr     r0,=300137Ch            
080090BA 8802     ldrh    r2,[r0]                 
080090BC 2130     mov     r1,30h                  
080090BE 4011     and     r1,r2                   
080090C0 2900     cmp     r1,0h                   
080090C2 D109     bne     80090D8h                
080090C4 20C0     mov     r0,0C0h                 
080090C6 4010     and     r0,r2                   
080090C8 2800     cmp     r0,0h                   
080090CA D005     beq     80090D8h                
080090CC 7119     strb    r1,[r3,4h]              
080090CE 20FE     mov     r0,0FEh                 
080090D0 E003     b       80090DAh                
080090D2 0000     lsl     r0,r0,0h                
080090D4 137C     asr     r4,r7,0Dh               
080090D6 0300     lsl     r0,r0,0Ch               
080090D8 20FF     mov     r0,0FFh                 
080090DA BC02     pop     r1                      
080090DC 4708     bx      r1                      
080090DE 0000     lsl     r0,r0,0h                
080090E0 B510     push    r4,r14                  
080090E2 1C04     mov     r4,r0                   
080090E4 2100     mov     r1,0h                   
080090E6 F7FFF9C9 bl      800847Ch                
080090EA 0600     lsl     r0,r0,18h               
080090EC 0E00     lsr     r0,r0,18h               
080090EE 2802     cmp     r0,2h                   
080090F0 D001     beq     80090F6h                
080090F2 20FF     mov     r0,0FFh                 
080090F4 E002     b       80090FCh                
080090F6 2001     mov     r0,1h                   
080090F8 7120     strb    r0,[r4,4h]              
080090FA 20FE     mov     r0,0FEh                 
080090FC BC10     pop     r4                      
080090FE BC02     pop     r1                      
08009100 4708     bx      r1                      
08009102 0000     lsl     r0,r0,0h                
08009104 B510     push    r4,r14                  
08009106 1C04     mov     r4,r0                   
08009108 8BA0     ldrh    r0,[r4,1Ch]             
0800910A 2801     cmp     r0,1h                   
0800910C D10D     bne     800912Ah                
0800910E 4804     ldr     r0,=3001588h            
08009110 305B     add     r0,5Bh                  
08009112 7800     ldrb    r0,[r0]                 
08009114 2800     cmp     r0,0h                   
08009116 D005     beq     8009124h                
08009118 206B     mov     r0,6Bh                  
0800911A F7F9FC7D bl      8002A18h                
0800911E E004     b       800912Ah                
08009120 1588     asr     r0,r1,16h               
08009122 0300     lsl     r0,r0,0Ch               
08009124 206B     mov     r0,6Bh                  
08009126 F7F9FC77 bl      8002A18h                
0800912A 4808     ldr     r0,=3001588h            
0800912C 305B     add     r0,5Bh                  
0800912E 7801     ldrb    r1,[r0]                 
08009130 1C20     mov     r0,r4                   
08009132 F7FFF9A3 bl      800847Ch                
08009136 0600     lsl     r0,r0,18h               
08009138 0E00     lsr     r0,r0,18h               
0800913A 2802     cmp     r0,2h                   
0800913C D101     bne     8009142h                
0800913E 2000     mov     r0,0h                   
08009140 7760     strb    r0,[r4,1Dh]             
08009142 20FF     mov     r0,0FFh                 
08009144 BC10     pop     r4                      
08009146 BC02     pop     r1                      
08009148 4708     bx      r1                      
0800914A 0000     lsl     r0,r0,0h                
0800914C 1588     asr     r0,r1,16h               
0800914E 0300     lsl     r0,r0,0Ch               
08009150 B530     push    r4,r5,r14               
08009152 1C04     mov     r4,r0                   
08009154 4807     ldr     r0,=3001530h            
08009156 7BC1     ldrb    r1,[r0,0Fh]             
08009158 2004     mov     r0,4h                   
0800915A 4008     and     r0,r1                   
0800915C 2800     cmp     r0,0h                   
0800915E D00D     beq     800917Ch                
08009160 4805     ldr     r0,=8238EF4h            
08009162 6885     ldr     r5,[r0,8h]              
08009164 8BA0     ldrh    r0,[r4,1Ch]             
08009166 2801     cmp     r0,1h                   
08009168 D110     bne     800918Ch                
0800916A 206D     mov     r0,6Dh                  
0800916C F7F9FC54 bl      8002A18h                
08009170 E00C     b       800918Ch                
08009172 0000     lsl     r0,r0,0h                
08009174 1530     asr     r0,r6,14h               
08009176 0300     lsl     r0,r0,0Ch               
08009178 8EF4     ldrh    r4,[r6,36h]             
0800917A 0823     lsr     r3,r4,20h               
0800917C 4820     ldr     r0,=8238EF4h            
0800917E 6805     ldr     r5,[r0]                 
08009180 8BA0     ldrh    r0,[r4,1Ch]             
08009182 2801     cmp     r0,1h                   
08009184 D102     bne     800918Ch                
08009186 206C     mov     r0,6Ch                  
08009188 F7F9FC46 bl      8002A18h                
0800918C 7F60     ldrb    r0,[r4,1Dh]             
0800918E 0100     lsl     r0,r0,4h                
08009190 182D     add     r5,r5,r0                
08009192 7B29     ldrb    r1,[r5,0Ch]             
08009194 481B     ldr     r0,=3001588h            
08009196 305B     add     r0,5Bh                  
08009198 7800     ldrb    r0,[r0]                 
0800919A 2800     cmp     r0,0h                   
0800919C D001     beq     80091A2h                
0800919E 0648     lsl     r0,r1,19h               
080091A0 0E01     lsr     r1,r0,18h               
080091A2 7F20     ldrb    r0,[r4,1Ch]             
080091A4 4288     cmp     r0,r1                   
080091A6 D308     bcc     80091BAh                
080091A8 2000     mov     r0,0h                   
080091AA 7720     strb    r0,[r4,1Ch]             
080091AC 7F60     ldrb    r0,[r4,1Dh]             
080091AE 3001     add     r0,1h                   
080091B0 7760     strb    r0,[r4,1Dh]             
080091B2 7F28     ldrb    r0,[r5,1Ch]             
080091B4 2800     cmp     r0,0h                   
080091B6 D100     bne     80091BAh                
080091B8 7760     strb    r0,[r4,1Dh]             
080091BA 4B13     ldr     r3,=3001528h            
080091BC 2001     mov     r0,1h                   
080091BE 7018     strb    r0,[r3]                 
080091C0 7859     ldrb    r1,[r3,1h]              
080091C2 3101     add     r1,1h                   
080091C4 7059     strb    r1,[r3,1h]              
080091C6 4C11     ldr     r4,=8289084h            
080091C8 789A     ldrb    r2,[r3,2h]              
080091CA 0050     lsl     r0,r2,1h                
080091CC 1880     add     r0,r0,r2                
080091CE 0080     lsl     r0,r0,2h                
080091D0 1900     add     r0,r0,r4                
080091D2 0609     lsl     r1,r1,18h               
080091D4 0E09     lsr     r1,r1,18h               
080091D6 7A00     ldrb    r0,[r0,8h]              
080091D8 4281     cmp     r1,r0                   
080091DA D30D     bcc     80091F8h                
080091DC 2000     mov     r0,0h                   
080091DE 7058     strb    r0,[r3,1h]              
080091E0 7898     ldrb    r0,[r3,2h]              
080091E2 3001     add     r0,1h                   
080091E4 7098     strb    r0,[r3,2h]              
080091E6 7899     ldrb    r1,[r3,2h]              
080091E8 0048     lsl     r0,r1,1h                
080091EA 1840     add     r0,r0,r1                
080091EC 0080     lsl     r0,r0,2h                
080091EE 1900     add     r0,r0,r4                
080091F0 7A00     ldrb    r0,[r0,8h]              
080091F2 2800     cmp     r0,0h                   
080091F4 D100     bne     80091F8h                
080091F6 7098     strb    r0,[r3,2h]              
080091F8 20FF     mov     r0,0FFh                 
080091FA BC30     pop     r4,r5                   
080091FC BC02     pop     r1                      
080091FE 4708     bx      r1                      
08009200 8EF4     ldrh    r4,[r6,36h]             
08009202 0823     lsr     r3,r4,20h               
08009204 1588     asr     r0,r1,16h               
08009206 0300     lsl     r0,r0,0Ch               
08009208 1528     asr     r0,r5,14h               
0800920A 0300     lsl     r0,r0,0Ch               
0800920C 9084     str     r0,[sp,210h]            
0800920E 0828     lsr     r0,r5,20h               
08009210 B500     push    r14                     
08009212 1C02     mov     r2,r0                   
08009214 4805     ldr     r0,=3001380h            
08009216 8801     ldrh    r1,[r0]                 
08009218 2040     mov     r0,40h                  
0800921A 4008     and     r0,r1                   
0800921C 2800     cmp     r0,0h                   
0800921E D001     beq     8009224h                
08009220 2013     mov     r0,13h                  
08009222 7010     strb    r0,[r2]                 
08009224 20FF     mov     r0,0FFh                 
08009226 BC02     pop     r1                      
08009228 4708     bx      r1                      
0800922A 0000     lsl     r0,r0,0h                
0800922C 1380     asr     r0,r0,0Eh               
0800922E 0300     lsl     r0,r0,0Ch               
08009230 B500     push    r14                     
08009232 2100     mov     r1,0h                   
08009234 F7FFF922 bl      800847Ch                
08009238 0600     lsl     r0,r0,18h               
0800923A 0E00     lsr     r0,r0,18h               
0800923C 2802     cmp     r0,2h                   
0800923E D001     beq     8009244h                
08009240 20FF     mov     r0,0FFh                 
08009242 E000     b       8009246h                
08009244 2011     mov     r0,11h                  
08009246 BC02     pop     r1                      
08009248 4708     bx      r1                      
0800924A 0000     lsl     r0,r0,0h                
0800924C B530     push    r4,r5,r14               
0800924E 1C04     mov     r4,r0                   
08009250 7920     ldrb    r0,[r4,4h]              
08009252 1C01     mov     r1,r0                   
08009254 2915     cmp     r1,15h                  
08009256 D903     bls     8009260h                
08009258 2001     mov     r0,1h                   
0800925A 7120     strb    r0,[r4,4h]              
0800925C 20FE     mov     r0,0FEh                 
0800925E E0A5     b       80093ACh                
08009260 2913     cmp     r1,13h                  
08009262 D902     bls     800926Ah                
08009264 3001     add     r0,1h                   
08009266 7120     strb    r0,[r4,4h]              
08009268 E09F     b       80093AAh                
0800926A 4810     ldr     r0,=3001380h            
0800926C 8801     ldrh    r1,[r0]                 
0800926E 2201     mov     r2,1h                   
08009270 1C10     mov     r0,r2                   
08009272 4008     and     r0,r1                   
08009274 2800     cmp     r0,0h                   
08009276 D01F     beq     80092B8h                
08009278 480D     ldr     r0,=3001530h            
0800927A 7BC1     ldrb    r1,[r0,0Fh]             
0800927C 1C10     mov     r0,r2                   
0800927E 4008     and     r0,r1                   
08009280 2800     cmp     r0,0h                   
08009282 D019     beq     80092B8h                
08009284 7A20     ldrb    r0,[r4,8h]              
08009286 2800     cmp     r0,0h                   
08009288 D016     beq     80092B8h                
0800928A 480A     ldr     r0,=823A554h            
0800928C 8A01     ldrh    r1,[r0,10h]             
0800928E 3940     sub     r1,40h                  
08009290 0409     lsl     r1,r1,10h               
08009292 1409     asr     r1,r1,10h               
08009294 1C20     mov     r0,r4                   
08009296 F7FCFAA9 bl      80057ECh                
0800929A 0600     lsl     r0,r0,18h               
0800929C 2800     cmp     r0,0h                   
0800929E D10B     bne     80092B8h                
080092A0 8AA0     ldrh    r0,[r4,14h]             
080092A2 3820     sub     r0,20h                  
080092A4 82A0     strh    r0,[r4,14h]             
080092A6 2025     mov     r0,25h                  
080092A8 E080     b       80093ACh                
080092AA 0000     lsl     r0,r0,0h                
080092AC 1380     asr     r0,r0,0Eh               
080092AE 0300     lsl     r0,r0,0Ch               
080092B0 1530     asr     r0,r6,14h               
080092B2 0300     lsl     r0,r0,0Ch               
080092B4 A554     add     r5,=8009408h            
080092B6 0823     lsr     r3,r4,20h               
080092B8 1C20     mov     r0,r4                   
080092BA F7FEFECF bl      800805Ch                
080092BE 0600     lsl     r0,r0,18h               
080092C0 2800     cmp     r0,0h                   
080092C2 D008     beq     80092D6h                
080092C4 7921     ldrb    r1,[r4,4h]              
080092C6 2901     cmp     r1,1h                   
080092C8 D1C8     bne     800925Ch                
080092CA 4807     ldr     r0,=3001530h            
080092CC 7BC0     ldrb    r0,[r0,0Fh]             
080092CE 4008     and     r0,r1                   
080092D0 2800     cmp     r0,0h                   
080092D2 D1C3     bne     800925Ch                
080092D4 7120     strb    r0,[r4,4h]              
080092D6 4805     ldr     r0,=300137Ch            
080092D8 8800     ldrh    r0,[r0]                 
080092DA 2130     mov     r1,30h                  
080092DC 4001     and     r1,r0                   
080092DE 2900     cmp     r1,0h                   
080092E0 D006     beq     80092F0h                
080092E2 81E1     strh    r1,[r4,0Eh]             
080092E4 2012     mov     r0,12h                  
080092E6 E061     b       80093ACh                
080092E8 1530     asr     r0,r6,14h               
080092EA 0300     lsl     r0,r0,0Ch               
080092EC 137C     asr     r4,r7,0Dh               
080092EE 0300     lsl     r0,r0,0Ch               
080092F0 480E     ldr     r0,=3001380h            
080092F2 8801     ldrh    r1,[r0]                 
080092F4 2040     mov     r0,40h                  
080092F6 4008     and     r0,r1                   
080092F8 2800     cmp     r0,0h                   
080092FA D044     beq     8009386h                
080092FC 4D0C     ldr     r5,=823A554h            
080092FE 2004     mov     r0,4h                   
08009300 5E29     ldsh    r1,[r5,r0]              
08009302 1C20     mov     r0,r4                   
08009304 F7FCFA72 bl      80057ECh                
08009308 0600     lsl     r0,r0,18h               
0800930A 0E00     lsr     r0,r0,18h               
0800930C 2801     cmp     r0,1h                   
0800930E D115     bne     800933Ch                
08009310 8829     ldrh    r1,[r5]                 
08009312 8A62     ldrh    r2,[r4,12h]             
08009314 1888     add     r0,r1,r2                
08009316 0400     lsl     r0,r0,10h               
08009318 0C02     lsr     r2,r0,10h               
0800931A 4806     ldr     r0,=0FFC0h              
0800931C 4002     and     r2,r0                   
0800931E 1A51     sub     r1,r2,r1                
08009320 3140     add     r1,40h                  
08009322 8261     strh    r1,[r4,12h]             
08009324 4804     ldr     r0,=3001600h            
08009326 8001     strh    r1,[r0]                 
08009328 E019     b       800935Eh                
0800932A 0000     lsl     r0,r0,0h                
0800932C 1380     asr     r0,r0,0Eh               
0800932E 0300     lsl     r0,r0,0Ch               
08009330 A554     add     r5,=8009484h            
08009332 0823     lsr     r3,r4,20h               
08009334 FFC0     bl      lr+0F80h                
08009336 0000     lsl     r0,r0,0h                
08009338 1600     asr     r0,r0,18h               
0800933A 0300     lsl     r0,r0,0Ch               
0800933C 2808     cmp     r0,8h                   
0800933E D10C     bne     800935Ah                
08009340 8869     ldrh    r1,[r5,2h]              
08009342 8A62     ldrh    r2,[r4,12h]             
08009344 1888     add     r0,r1,r2                
08009346 0400     lsl     r0,r0,10h               
08009348 0C02     lsr     r2,r0,10h               
0800934A 4809     ldr     r0,=0FFC0h              
0800934C 4002     and     r2,r0                   
0800934E 1A51     sub     r1,r2,r1                
08009350 3901     sub     r1,1h                   
08009352 8261     strh    r1,[r4,12h]             
08009354 4807     ldr     r0,=3001600h            
08009356 8001     strh    r1,[r0]                 
08009358 2000     mov     r0,0h                   
0800935A 2800     cmp     r0,0h                   
0800935C D113     bne     8009386h                
0800935E 4806     ldr     r0,=3001588h            
08009360 305B     add     r0,5Bh                  
08009362 7800     ldrb    r0,[r0]                 
08009364 2800     cmp     r0,0h                   
08009366 D009     beq     800937Ch                
08009368 2078     mov     r0,78h                  
0800936A F7F9FB55 bl      8002A18h                
0800936E E008     b       8009382h                
08009370 FFC0     bl      lr+0F80h                
08009372 0000     lsl     r0,r0,0h                
08009374 1600     asr     r0,r0,18h               
08009376 0300     lsl     r0,r0,0Ch               
08009378 1588     asr     r0,r1,16h               
0800937A 0300     lsl     r0,r0,0Ch               
0800937C 2078     mov     r0,78h                  
0800937E F7F9FB4B bl      8002A18h                
08009382 2013     mov     r0,13h                  
08009384 E012     b       80093ACh                
08009386 7AA0     ldrb    r0,[r4,0Ah]             
08009388 2800     cmp     r0,0h                   
0800938A D00E     beq     80093AAh                
0800938C 3801     sub     r0,1h                   
0800938E 72A0     strb    r0,[r4,0Ah]             
08009390 4808     ldr     r0,=300137Ch            
08009392 8801     ldrh    r1,[r0]                 
08009394 20F0     mov     r0,0F0h                 
08009396 4008     and     r0,r1                   
08009398 2880     cmp     r0,80h                  
0800939A D106     bne     80093AAh                
0800939C 20B4     mov     r0,0B4h                 
0800939E 7220     strb    r0,[r4,8h]              
080093A0 2000     mov     r0,0h                   
080093A2 72A0     strb    r0,[r4,0Ah]             
080093A4 4904     ldr     r1,=3001528h            
080093A6 2008     mov     r0,8h                   
080093A8 7008     strb    r0,[r1]                 
080093AA 20FF     mov     r0,0FFh                 
080093AC BC30     pop     r4,r5                   
080093AE BC02     pop     r1                      
080093B0 4708     bx      r1                      
080093B2 0000     lsl     r0,r0,0h                
080093B4 137C     asr     r4,r7,0Dh               
080093B6 0300     lsl     r0,r0,0Ch               
080093B8 1528     asr     r0,r5,14h               
080093BA 0300     lsl     r0,r0,0Ch               
080093BC B510     push    r4,r14                  
080093BE 1C04     mov     r4,r0                   
080093C0 4808     ldr     r0,=3001380h            
080093C2 8801     ldrh    r1,[r0]                 
080093C4 2201     mov     r2,1h                   
080093C6 1C10     mov     r0,r2                   
080093C8 4008     and     r0,r1                   
080093CA 2800     cmp     r0,0h                   
080093CC D00E     beq     80093ECh                
080093CE 4806     ldr     r0,=3001530h            
080093D0 7BC1     ldrb    r1,[r0,0Fh]             
080093D2 1C10     mov     r0,r2                   
080093D4 4008     and     r0,r1                   
080093D6 2800     cmp     r0,0h                   
080093D8 D008     beq     80093ECh                
080093DA 2001     mov     r0,1h                   
080093DC 7120     strb    r0,[r4,4h]              
080093DE 20FE     mov     r0,0FEh                 
080093E0 E04F     b       8009482h                
080093E2 0000     lsl     r0,r0,0h                
080093E4 1380     asr     r0,r0,0Eh               
080093E6 0300     lsl     r0,r0,0Ch               
080093E8 1530     asr     r0,r6,14h               
080093EA 0300     lsl     r0,r0,0Ch               
080093EC 480B     ldr     r0,=823A554h            
080093EE 2204     mov     r2,4h                   
080093F0 5E81     ldsh    r1,[r0,r2]              
080093F2 1C20     mov     r0,r4                   
080093F4 F7FCF9FA bl      80057ECh                
080093F8 0600     lsl     r0,r0,18h               
080093FA 2800     cmp     r0,0h                   
080093FC D119     bne     8009432h                
080093FE 4808     ldr     r0,=3001380h            
08009400 8801     ldrh    r1,[r0]                 
08009402 2040     mov     r0,40h                  
08009404 4008     and     r0,r1                   
08009406 2800     cmp     r0,0h                   
08009408 D013     beq     8009432h                
0800940A 4806     ldr     r0,=3001588h            
0800940C 305B     add     r0,5Bh                  
0800940E 7800     ldrb    r0,[r0]                 
08009410 2800     cmp     r0,0h                   
08009412 D009     beq     8009428h                
08009414 2078     mov     r0,78h                  
08009416 F7F9FAFF bl      8002A18h                
0800941A E008     b       800942Eh                
0800941C A554     add     r5,=8009570h            
0800941E 0823     lsr     r3,r4,20h               
08009420 1380     asr     r0,r0,0Eh               
08009422 0300     lsl     r0,r0,0Ch               
08009424 1588     asr     r0,r1,16h               
08009426 0300     lsl     r0,r0,0Ch               
08009428 2078     mov     r0,78h                  
0800942A F7F9FAF5 bl      8002A18h                
0800942E 2013     mov     r0,13h                  
08009430 E027     b       8009482h                
08009432 480D     ldr     r0,=300137Ch            
08009434 8802     ldrh    r2,[r0]                 
08009436 89E1     ldrh    r1,[r4,0Eh]             
08009438 1C10     mov     r0,r2                   
0800943A 4008     and     r0,r1                   
0800943C 2800     cmp     r0,0h                   
0800943E D017     beq     8009470h                
08009440 4A0A     ldr     r2,=3001588h            
08009442 1C10     mov     r0,r2                   
08009444 3060     add     r0,60h                  
08009446 2300     mov     r3,0h                   
08009448 5EC1     ldsh    r1,[r0,r3]              
0800944A 7960     ldrb    r0,[r4,5h]              
0800944C 2800     cmp     r0,0h                   
0800944E D002     beq     8009456h                
08009450 21A0     mov     r1,0A0h                 
08009452 2006     mov     r0,6h                   
08009454 7220     strb    r0,[r4,8h]              
08009456 1C10     mov     r0,r2                   
08009458 305E     add     r0,5Eh                  
0800945A 2200     mov     r2,0h                   
0800945C 5E80     ldsh    r0,[r0,r2]              
0800945E 1C22     mov     r2,r4                   
08009460 F7FEFF0A bl      8008278h                
08009464 20FF     mov     r0,0FFh                 
08009466 E00C     b       8009482h                
08009468 137C     asr     r4,r7,0Dh               
0800946A 0300     lsl     r0,r0,0Ch               
0800946C 1588     asr     r0,r1,16h               
0800946E 0300     lsl     r0,r0,0Ch               
08009470 2030     mov     r0,30h                  
08009472 4048     eor     r0,r1                   
08009474 4010     and     r0,r2                   
08009476 0400     lsl     r0,r0,10h               
08009478 2800     cmp     r0,0h                   
0800947A D001     beq     8009480h                
0800947C 2001     mov     r0,1h                   
0800947E 70E0     strb    r0,[r4,3h]              
08009480 2011     mov     r0,11h                  
08009482 BC10     pop     r4                      
08009484 BC02     pop     r1                      
08009486 4708     bx      r1                      
08009488 B510     push    r4,r14                  
0800948A 1C04     mov     r4,r0                   
0800948C 2100     mov     r1,0h                   
0800948E F7FEFFF5 bl      800847Ch                
08009492 0600     lsl     r0,r0,18h               
08009494 0E00     lsr     r0,r0,18h               
08009496 2802     cmp     r0,2h                   
08009498 D102     bne     80094A0h                
0800949A 2000     mov     r0,0h                   
0800949C 7760     strb    r0,[r4,1Dh]             
0800949E E00B     b       80094B8h                
080094A0 2801     cmp     r0,1h                   
080094A2 D109     bne     80094B8h                
080094A4 7F60     ldrb    r0,[r4,1Dh]             
080094A6 2801     cmp     r0,1h                   
080094A8 D001     beq     80094AEh                
080094AA 2805     cmp     r0,5h                   
080094AC D104     bne     80094B8h                
080094AE 1C20     mov     r0,r4                   
080094B0 2100     mov     r1,0h                   
080094B2 2207     mov     r2,7h                   
080094B4 F7FCFEAE bl      8006214h                
080094B8 20FF     mov     r0,0FFh                 
080094BA BC10     pop     r4                      
080094BC BC02     pop     r1                      
080094BE 4708     bx      r1                      
080094C0 B510     push    r4,r14                  
080094C2 1C04     mov     r4,r0                   
080094C4 4809     ldr     r0,=823A554h            
080094C6 2204     mov     r2,4h                   
080094C8 5E81     ldsh    r1,[r0,r2]              
080094CA 1C20     mov     r0,r4                   
080094CC F7FCF98E bl      80057ECh                
080094D0 0600     lsl     r0,r0,18h               
080094D2 2800     cmp     r0,0h                   
080094D4 D112     bne     80094FCh                
080094D6 4806     ldr     r0,=3001380h            
080094D8 8801     ldrh    r1,[r0]                 
080094DA 2001     mov     r0,1h                   
080094DC 4008     and     r0,r1                   
080094DE 2800     cmp     r0,0h                   
080094E0 D008     beq     80094F4h                
080094E2 2001     mov     r0,1h                   
080094E4 7120     strb    r0,[r4,4h]              
080094E6 20FE     mov     r0,0FEh                 
080094E8 E00B     b       8009502h                
080094EA 0000     lsl     r0,r0,0h                
080094EC A554     add     r5,=8009640h            
080094EE 0823     lsr     r3,r4,20h               
080094F0 1380     asr     r0,r0,0Eh               
080094F2 0300     lsl     r0,r0,0Ch               
080094F4 2080     mov     r0,80h                  
080094F6 4008     and     r0,r1                   

