08008EFC B530     push    r4,r5,r14                             
08008EFE 1C04     mov     r4,r0                                 
08008F00 4803     ldr     r0,=3001588h                          
08008F02 F2FBF8E9 bl      83040D8h                              
08008F06 2800     cmp     r0,0h        ;射击flag                          
08008F08 D004     beq     @@NoShoot                              
08008F0A 2000     mov     r0,0h                                 
08008F0C E00D     b       @@ShootFlag                              
.pool

@@NoShoot:                            
08008F14 4806     ldr     r0,=300137Ch                          
08008F16 8801     ldrh    r1,[r0]                               
08008F18 2030     mov     r0,30h                                
08008F1A 4008     and     r0,r1                                 
08008F1C 2800     cmp     r0,0h       ;检查是否按了左右方向                          
08008F1E D109     bne     @@PressLeftOrRightOrNoPressUpDown                              
08008F20 20C0     mov     r0,0C0h                               
08008F22 4008     and     r0,r1                                 
08008F24 2800     cmp     r0,0h       ;检查是否按了上下方向                          
08008F26 D005     beq     @@PressLeftOrRightOrNoPressUpDown                              
08008F28 2002     mov     r0,2h 

@@ShootFlag:                                
08008F2A 7120     strb    r0,[r4,4h]                            
08008F2C 20FE     mov     r0,0FEh                               
08008F2E E07F     b       @@end                              
.pool

@@PressLeftOrRightOrNoPressUpDown:                            
08008F34 1C20     mov     r0,r4                                 
08008F36 F7FEFD35 bl      80079A4h         ;控制炮口的方向                          
08008F3A 4911     ldr     r1,=3001588h                          
08008F3C 1C08     mov     r0,r1                                 
08008F3E 3068     add     r0,68h                                
08008F40 2200     mov     r2,0h                                 
08008F42 5E85     ldsh    r5,[r0,r2]       ;读取空中X速度                       
08008F44 480F     ldr     r0,=3001530h                          
08008F46 7BC2     ldrb    r2,[r0,0Fh]                           
08008F48 2004     mov     r0,4h                                 
08008F4A 4010     and     r0,r2                                 
08008F4C 2800     cmp     r0,0h            ;检查空间跳是否激活                    
08008F4E D020     beq     @@NoSpaceJump                              
08008F50 1C08     mov     r0,r1                                 
08008F52 305B     add     r0,5Bh                                
08008F54 7800     ldrb    r0,[r0]          ;无重力在水中flag                      
08008F56 2800     cmp     r0,0h                                 
08008F58 D11B     bne     @@NoSpaceJump                              
08008F5A 480B     ldr     r0,=3001380h                          
08008F5C 8801     ldrh    r1,[r0]          ;读取即时输入                     
08008F5E 2301     mov     r3,1h                                 
08008F60 1C18     mov     r0,r3                                 
08008F62 4008     and     r0,r1                                 
08008F64 2800     cmp     r0,0h            ;是否按了跳                     
08008F66 D03E     beq     @@NoPressJump                              
08008F68 2018     mov     r0,18h                                
08008F6A 5E21     ldsh    r1,[r4,r0]       ;读取当前的Y速度                      
08008F6C 2040     mov     r0,40h           ;也就是空间跳必须落下这么多才能再次起跳                     
08008F6E 4240     neg     r0,r0            ;FFC0                     
08008F70 4281     cmp     r1,r0            ;有负大于才跳转                     
08008F72 DC38     bgt     @@NoPressJump                              
08008F74 1C18     mov     r0,r3                                 
08008F76 4010     and     r0,r2            ;检查能力是否有高跳                     
08008F78 2800     cmp     r0,0h                                 
08008F7A D007     beq     @@NoHi-Jump                              
08008F7C 20E8     mov     r0,0E8h         ;有高挑的跳跃速度值                      
08008F7E E006     b       @@WriteNewJumpNumber                              
.pool

@@NoHi-Jump:                             
08008F8C 20C0     mov     r0,0C0h         ;无高跳的跳跃高度

@@WriteNewJumpNumber:                             
08008F8E 8320     strh    r0,[r4,18h]                           
08008F90 E04D     b       @@NoChangePose  

@@NoSpaceJump:                           
08008F92 79E0     ldrb    r0,[r4,7h]      ;读取墙跳时间                       
08008F94 2800     cmp     r0,0h                                 
08008F96 D026     beq     @@NoPressJump                              
08008F98 3801     sub     r0,1h                                 
08008F9A 71E0     strb    r0,[r4,7h]      ;递减                       
08008F9C 89E0     ldrh    r0,[r4,0Eh]     ;读取面向                       
08008F9E 89A2     ldrh    r2,[r4,0Ch]     ;读取当前接触的墙面向                     
08008FA0 4010     and     r0,r2                                 
08008FA2 2800     cmp     r0,0h                                 
08008FA4 D01F     beq     @@NoPressJump   ;没有接触或没有向相反的方向                           
08008FA6 480E     ldr     r0,=3001380h                          
08008FA8 8801     ldrh    r1,[r0]         ;读取即时输入                      
08008FAA 2001     mov     r0,1h                                 
08008FAC 4008     and     r0,r1                                 
08008FAE 2800     cmp     r0,0h           ;是否按了跳                      
08008FB0 D018     beq     @@XSpeedOne                              
08008FB2 2010     mov     r0,10h                                
08008FB4 4010     and     r0,r2           ;检查当前接触的墙是否在左边                      
08008FB6 2228     mov     r2,28h                                
08008FB8 2800     cmp     r0,0h           ;如果是就是向右跳                      
08008FBA D000     beq     @@BlockCheck?                              
08008FBC 3A50     sub     r2,50h 

@@BlockCheck?:                               
08008FBE 8AA0     ldrh    r0,[r4,14h]     ;Y坐标                      
08008FC0 8A61     ldrh    r1,[r4,12h]     ;X坐标                      
08008FC2 1889     add     r1,r1,r2        ;X加上偏移值                      
08008FC4 0409     lsl     r1,r1,10h                             
08008FC6 0C09     lsr     r1,r1,10h                             
08008FC8 F04EFF16 bl      8057DF8h        ;检查是否成立?                      
08008FCC 2180     mov     r1,80h                                
08008FCE 0449     lsl     r1,r1,11h                             
08008FD0 4001     and     r1,r0                                 
08008FD2 2900     cmp     r1,0h                                 
08008FD4 D006     beq     @@XSpeedOne                              
08008FD6 89A0     ldrh    r0,[r4,0Ch]     ;成立的话则面向改成墙向                       
08008FD8 81E0     strh    r0,[r4,0Eh]                           
08008FDA 200D     mov     r0,0Dh          ;Pose 为 D                      
08008FDC E028     b       @@end                              
.pool

@@XSpeedOne:
08008FE4          mov     r5,1h            ;X加速度为1

@@NoPressJump:                                
08008FE6 4A07     ldr     r2,=300137Ch                          
08008FE8 89E1     ldrh    r1,[r4,0Eh]      ;读取面向                     
08008FEA 2030     mov     r0,30h                                
08008FEC 1C0B     mov     r3,r1                                 
08008FEE 4043     eor     r3,r0            ;取反向                       
08008FF0 8811     ldrh    r1,[r2]          ;读取当前的输入                     
08008FF2 1C18     mov     r0,r3                                 
08008FF4 4008     and     r0,r1            ;检查是否和面向相反                     
08008FF6 2800     cmp     r0,0h                                 
08008FF8 D006     beq     @@NoTurn                              
08008FFA 2000     mov     r0,0h                                 
08008FFC 81E3     strh    r3,[r4,0Eh]      ;面向改变                      
08008FFE 82E0     strh    r0,[r4,16h]      ;X速度归零                     
08009000 E00A     b       @@Peer                              
.pool

@@NoTurn:                             
08009008 F2FBF846 bl      8304098h         ;设置速度                     
0800900C E001     b       8009012h                              
0800900E 5E81     ldsh    r1,[r0,r2]                            
08009010 1C28     mov     r0,r5                                 
08009012 1C22     mov     r2,r4                                 
08009014 F7FFF930 bl      8008278h 

@@Peer:                             
08009018 4808     ldr     r0,=300137Ch                          
0800901A 8800     ldrh    r0,[r0]          ;读取输入                     
0800901C 2101     mov     r1,1h                                 
0800901E 4001     and     r1,r0                                 
08009020 2900     cmp     r1,0h            ;是否按着跳                     
08009022 D104     bne     @@NoChangePose                              
08009024 2218     mov     r2,18h                                
08009026 5EA0     ldsh    r0,[r4,r2]       ;读取Y速度                     
08009028 2800     cmp     r0,0h            ;如果还在上升                    
0800902A DD00     ble     @@NoChangePose   ;不写入0                          
0800902C 8321     strh    r1,[r4,18h]      ;写入0

@@NoChangePose:                          
0800902E 20FF     mov     r0,0FFh 

@@end:                              
08009030 BC30     pop     r4,r5                                 
08009032 BC02     pop     r1                                    
08009034 4708     bx      r1  
.pool
;调用的程序
08057DF8 B570     push    r4-r6,lr
08057DFA B085     add     sp,-14h
08057DFC 0400     lsl     r0,r0,10h          ;要检查的Y坐标
08057DFE 0C05     lsr     r5,r0,10h
08057E00 0409     lsl     r1,r1,10h          ;要检查的X坐标
08057E02 0C0E     lsr     r6,r1,10h
08057E04 466A     mov     r2,r13
08057E06 0D80     lsr     r0,r0,16h			 ;Y的格数
08057E08 8250     strh    r0,[r2,12h]		 ;写入SP12
08057E0A 4668     mov     r0,r13
08057E0C 0D89     lsr     r1,r1,16h          ;X的格数
08057E0E 8201     strh    r1,[r0,10h]        ;写入SP10
08057E10 4C02     ldr     r4,=300009Ch
08057E12 8BA0     ldrh    r0,[r4,1Ch]        ;房间的宽度格数
08057E14 4281     cmp     r1,r0
08057E16 D305     bcc     @@XNoOver
08057E18 4801     ldr     r0,=1000001h
08057E1A E02A     b       @@end
.pool

@@XNoOver:
08057E24 4668     mov     r0,r13
08057E26 8A40     ldrh    r0,[r0,12h]        ;Y的格数
08057E28 8BE1     ldrh    r1,[r4,1Eh]		 ;房间的最大高度格数
08057E2A 4288     cmp     r0,r1
08057E2C D220     bcs     @@YOver           
08057E2E 4B0E     ldr     r3,=3005450h
08057E30 8BA2     ldrh    r2,[r4,1Ch]
08057E32 4668     mov     r0,r13
08057E34 8A40     ldrh    r0,[r0,12h]        ;房间最大宽度格数
08057E36 4669     mov     r1,r13
08057E38 4350     mul     r0,r2              ;乘以当前的高度格数
08057E3A 8A09     ldrh    r1,[r1,10h]        
08057E3C 1840     add     r0,r0,r1           ;加上当前的X格数
08057E3E 69A1     ldr     r1,[r4,18h]		 ;房间的clip数据地址
08057E40 0040     lsl     r0,r0,1h           ;偏移乘以2
08057E42 1840     add     r0,r0,r1           ;加上坐标
08057E44 8801     ldrh    r1,[r0]            ;读取砖块序号
08057E46 6858     ldr     r0,[r3,4h]         ;砖块的碰撞类型坐标
08057E48 1840     add     r0,r0,r1           ;加上序号的偏移
08057E4A 7800     ldrb    r0,[r0]            ;读取碰撞类型
08057E4C 9000     str     r0,[sp]            ;写入SP
08057E4E 203F     mov     r0,3Fh
08057E50 4005     and     r5,r0              ;Y坐标取整
08057E52 9502     str     r5,[sp,8h]         ;写入sp8
08057E54 4006     and     r6,r0    ;取整为40则为0
08057E56 9601     str     r6,[sp,4h]		 ;X坐标取整写入SP4
08057E58 2000     mov     r0,0h
08057E5A 9003     str     r0,[sp,0Ch]	     ;SP 0C 写入0
08057E5C 4803     ldr     r0,=3005704h
08057E5E 6801     ldr     r1,[r0]            ;30016c5
08057E60 4668     mov     r0,r13
08057E62 F032FECB bl      808ABFCh
08057E66 E004     b       @@end
.pool

@@YOver:
08057E70 2000     mov     r0,0h

@@end:
08057E72 B005     add     sp,14h
08057E74 BC70     pop     r4-r6
08057E76 BC02     pop     r1
08057E78 4708     bx      r1

;神奇的内存铺设的程序
030016C4 B500     push    r14                                   
030016C6 1C02     mov     r2,r0          ;sp地址                       
030016C8 2100     mov     r1,0h                                 
030016CA 6810     ldr     r0,[r2]        ;读取砖块的碰撞类型                       
030016CC 280C     cmp     r0,0Ch                                
030016CE D877     bhi     @@end                              
030016D0 0080     lsl     r0,r0,2h                              
030016D2 4902     ldr     r1,=8057F98h                          
030016D4 1840     add     r0,r0,r1                              
030016D6 6800     ldr     r0,[r0]                               
030016D8 4687     mov     r15,r0                                
.pool
                             
Table:   
	.word 0@@air;0                         
	.word 08057FCCh;1
	.word 08057FD4h;2
	.word 08057FE4h;3
	.word 08057FF8h;4
	.word 0805800Ah;5
	.word 0805801Eh;6
	.word 08058034h;7
	.word 0805804Eh;8
	.word 08058058h;9
	.word 08058062h;a
	.word 0@@Typeb;b
	.word 0@@air;c 
	;这个和内存中的代码一样
	;类型1
08057FCC 6811     ldr     r1,[r2]                               
08057FCE 2080     mov     r0,80h                                
08057FD0 0440     lsl     r0,r0,11h                             
08057FD2 E050     b       @@ReturnOrr 

;类型2                左高右低大斜坡             
08057FD4 6891     ldr     r1,[r2,8h]      ;Y取整数                      
08057FD6 6850     ldr     r0,[r2,4h]      ;X取整数                     
08057FD8 4281     cmp     r1,r0                                
08057FDA DB36     blt     @@air           ;在空中?                   
08057FDC 6811     ldr     r1,[r2]         ;只要X比Y大就算成立                     
08057FDE 2080     mov     r0,80h                                
08057FE0 0440     lsl     r0,r0,11h                             
08057FE2 E048     b       @@ReturnOrr 

;类型3               右高左低大斜坡             
08057FE4 6850     ldr     r0,[r2,4h]      ;X and 3f数                        
08057FE6 213F     mov     r1,3Fh                                
08057FE8 1A09     sub     r1,r1,r0        ;向左3F 一格?                      
08057FEA 6890     ldr     r0,[r2,8h]      ;Y and 3F数                      
08057FEC 4288     cmp     r0,r1           ;只要Y比X大就算成立                      
08057FEE DB2C     blt     @@air                              
08057FF0 6811     ldr     r1,[r2]                               
08057FF2 2080     mov     r0,80h                                
08057FF4 0440     lsl     r0,r0,11h                             
08057FF6 E03E     b       @@ReturnOrr

;类型4              ;左高右低上部小斜坡                  
08057FF8 6850     ldr     r0,[r2,4h]      ;X除2                      
08057FFA 1040     asr     r0,r0,1h                              
08057FFC 6891     ldr     r1,[r2,8h]                             
08057FFE 4281     cmp     r1,r0           ;Y若大于X                      
08058000 DB23     blt     @@air                              
08058002 6811     ldr     r1,[r2]                               
08058004 2080     mov     r0,80h                                
08058006 0440     lsl     r0,r0,11h                             
08058008 E035     b       @@ReturnOrr  

;类型5             ;左高右低下部小斜坡               
0805800A 6850     ldr     r0,[r2,4h]      ;X加3F再除以2                       
0805800C 303F     add     r0,3Fh                                
0805800E 1040     asr     r0,r0,1h                              
08058010 6891     ldr     r1,[r2,8h]                            
08058012 4281     cmp     r1,r0                                 
08058014 DB19     blt     @@air                              
08058016 6811     ldr     r1,[r2]                               
08058018 2080     mov     r0,80h                                
0805801A 0440     lsl     r0,r0,11h                             
0805801C E02B     b       @@ReturnOrr 

;类型6             ;右高左低下部小斜坡                
0805801E 6850     ldr     r0,[r2,4h]                            
08058020 1040     asr     r0,r0,1h                              
08058022 213F     mov     r1,3Fh                                
08058024 1A09     sub     r1,r1,r0                              
08058026 6890     ldr     r0,[r2,8h]                            
08058028 4288     cmp     r0,r1                                 
0805802A DB0E     blt     @@air                              
0805802C 6811     ldr     r1,[r2]                               
0805802E 2080     mov     r0,80h                                
08058030 0440     lsl     r0,r0,11h                             
08058032 E020     b       @@ReturnOrr  

;类型7            ;右高左低上部小斜坡                       
08058034 6850     ldr     r0,[r2,4h]                            
08058036 213F     mov     r1,3Fh                                
08058038 1A09     sub     r1,r1,r0                              
0805803A 1049     asr     r1,r1,1h                              
0805803C 6890     ldr     r0,[r2,8h]                            
0805803E 4288     cmp     r0,r1                                 
08058040 DB03     blt     @@air                              
08058042 6811     ldr     r1,[r2]                               
08058044 2080     mov     r0,80h                                
08058046 0440     lsl     r0,r0,11h                             
08058048 E015     b       @@ReturnOrr 

;类型0 & c                            
0805804A 6811     ldr     r1,[r2]                               
0805804C E014     b       @@end 

;类型8                             
0805804E 68D0     ldr     r0,[r2,0Ch]                           
08058050 2801     cmp     r0,1h                                 
08058052 DD0C     ble     @@Typeb                              
08058054 2000     mov     r0,0h                                 
08058056 E007     b       @@Typea

;类型9                              
08058058 68D0     ldr     r0,[r2,0Ch]                           
0805805A 2801     cmp     r0,1h                                 
0805805C DC07     bgt     @@Typeb                              
0805805E 2000     mov     r0,0h                                 
08058060 E002     b       @@Typea  

;类型a                            
08058062 68D0     ldr     r0,[r2,0Ch]                           
08058064 2800     cmp     r0,0h                                 
08058066 D102     bne     @@Typeb 

@@Typea:                             
08058068 6010     str     r0,[r2]                               
0805806A 2100     mov     r1,0h                                 
0805806C E004     b       @@end

;类型b 
@@Typeb:                            
0805806E 2001     mov     r0,1h                                 
08058070 6010     str     r0,[r2]        ;sp写入1                       
08058072 2180     mov     r1,80h                                
08058074 0449     lsl     r1,r1,11h 

@@ReturnOrr:                            
08058076 4301     orr     r1,r0      ;碰撞类型和1000000 orr

@@end:                           
08058078 1C08     mov     r0,r1                                 
0805807A BC02     pop     r1                                    
0805807C 4708     bx      r1     
	
03001714 6811     ldr     r1,[r2]                               
03001716 2080     mov     r0,80h                                
03001718 0440     lsl     r0,r0,11h                             
0300171A E050     b       30017BEh                              
0300171C 6891     ldr     r1,[r2,8h]                            
0300171E 6850     ldr     r0,[r2,4h]                            
03001720 4281     cmp     r1,r0                                 
03001722 DB36     blt     3001792h                              
03001724 6811     ldr     r1,[r2]                               
03001726 2080     mov     r0,80h                                
03001728 0440     lsl     r0,r0,11h                             
0300172A E048     b       30017BEh                              
0300172C 6850     ldr     r0,[r2,4h]                            
0300172E 213F     mov     r1,3Fh                                
03001730 1A09     sub     r1,r1,r0                              
03001732 6890     ldr     r0,[r2,8h]                            
03001734 4288     cmp     r0,r1                                 
03001736 DB2C     blt     3001792h                              
03001738 6811     ldr     r1,[r2]                               
0300173A 2080     mov     r0,80h                                
0300173C 0440     lsl     r0,r0,11h                             
0300173E E03E     b       30017BEh                              
03001740 6850     ldr     r0,[r2,4h]                            
03001742 1040     asr     r0,r0,1h                              
03001744 6891     ldr     r1,[r2,8h]                            
03001746 4281     cmp     r1,r0                                 
03001748 DB23     blt     3001792h                              
0300174A 6811     ldr     r1,[r2]                               
0300174C 2080     mov     r0,80h                                
0300174E 0440     lsl     r0,r0,11h                             
03001750 E035     b       30017BEh                              
03001752 6850     ldr     r0,[r2,4h]                            
03001754 303F     add     r0,3Fh                                
03001756 1040     asr     r0,r0,1h                              
03001758 6891     ldr     r1,[r2,8h]                            
0300175A 4281     cmp     r1,r0                                 
0300175C DB19     blt     3001792h                              
0300175E 6811     ldr     r1,[r2]                               
03001760 2080     mov     r0,80h                                
03001762 0440     lsl     r0,r0,11h                             
03001764 E02B     b       30017BEh                              
03001766 6850     ldr     r0,[r2,4h]                            
03001768 1040     asr     r0,r0,1h                              
0300176A 213F     mov     r1,3Fh                                
0300176C 1A09     sub     r1,r1,r0                              
0300176E 6890     ldr     r0,[r2,8h]                            
03001770 4288     cmp     r0,r1                                 
03001772 DB0E     blt     3001792h                              
03001774 6811     ldr     r1,[r2]                               
03001776 2080     mov     r0,80h                                
03001778 0440     lsl     r0,r0,11h                             
0300177A E020     b       30017BEh                              
0300177C 6850     ldr     r0,[r2,4h]                            
0300177E 213F     mov     r1,3Fh                                
03001780 1A09     sub     r1,r1,r0                              
03001782 1049     asr     r1,r1,1h                              
03001784 6890     ldr     r0,[r2,8h]                            
03001786 4288     cmp     r0,r1                                 
03001788 DB03     blt     3001792h                              
0300178A 6811     ldr     r1,[r2]                               
0300178C 2080     mov     r0,80h                                
0300178E 0440     lsl     r0,r0,11h                             
03001790 E015     b       30017BEh                              
03001792 6811     ldr     r1,[r2]                               
03001794 E014     b       30017C0h                              
03001796 68D0     ldr     r0,[r2,0Ch]                           
03001798 2801     cmp     r0,1h                                 
0300179A DD0C     ble     30017B6h                              
0300179C 2000     mov     r0,0h                                 
0300179E E007     b       30017B0h                              
030017A0 68D0     ldr     r0,[r2,0Ch]                           
030017A2 2801     cmp     r0,1h                                 
030017A4 DC07     bgt     30017B6h                              
030017A6 2000     mov     r0,0h                                 
030017A8 E002     b       30017B0h                              
030017AA 68D0     ldr     r0,[r2,0Ch]                           
030017AC 2800     cmp     r0,0h                                 
030017AE D102     bne     30017B6h                              
030017B0 6010     str     r0,[r2]                               
030017B2 2100     mov     r1,0h                                 
030017B4 E004     b       30017C0h                              
030017B6 2001     mov     r0,1h                                 
030017B8 6010     str     r0,[r2]                               
030017BA 2180     mov     r1,80h                                
030017BC 0449     lsl     r1,r1,11h                             
030017BE 4301     orr     r1,r0  

@@end:                               
030017C0 1C08     mov     r0,r1                                 
030017C2 BC02     pop     r1                                    
030017C4 4708     bx      r1 
.pool
                                   



08057E7C B5F0     push    r4-r7,r14                             
08057E7E 4647     mov     r7,r8                                 
08057E80 B480     push    r7                                    
08057E82 B085     add     sp,-14h                               
08057E84 0400     lsl     r0,r0,10h                             
08057E86 0C07     lsr     r7,r0,10h                             
08057E88 0409     lsl     r1,r1,10h                             
08057E8A 0C0A     lsr     r2,r1,10h                             
08057E8C 4690     mov     r8,r2                                 
08057E8E 466A     mov     r2,r13                                
08057E90 0D80     lsr     r0,r0,16h                             
08057E92 2400     mov     r4,0h                                 
08057E94 2300     mov     r3,0h                                 
08057E96 8250     strh    r0,[r2,12h]                           
08057E98 4668     mov     r0,r13                                
08057E9A 0D89     lsr     r1,r1,16h                             
08057E9C 8201     strh    r1,[r0,10h]                           
08057E9E 4A08     ldr     r2,=300009Ch                          
08057EA0 8B90     ldrh    r0,[r2,1Ch]                           
08057EA2 4281     cmp     r1,r0                                 
08057EA4 D204     bcs     8057EB0h                              
08057EA6 4668     mov     r0,r13                                
08057EA8 8A40     ldrh    r0,[r0,12h]                           
08057EAA 8BD2     ldrh    r2,[r2,1Eh]                           
08057EAC 4290     cmp     r0,r2                                 
08057EAE D30D     bcc     8057ECCh                              
08057EB0 4804     ldr     r0,=30000DCh                          
08057EB2 8003     strh    r3,[r0]                               
08057EB4 8043     strh    r3,[r0,2h]                            
08057EB6 4804     ldr     r0,=3000079h                          
08057EB8 7004     strb    r4,[r0]                               
08057EBA 2000     mov     r0,0h                                 
08057EBC E04F     b       8057F5Eh                              
08057EBE 0000     lsl     r0,r0,0h                              
08057EC0 009C     lsl     r4,r3,2h                              
08057EC2 0300     lsl     r0,r0,0Ch                             
08057EC4 00DC     lsl     r4,r3,3h                              
08057EC6 0300     lsl     r0,r0,0Ch                             
08057EC8 0079     lsl     r1,r7,1h                              
08057ECA 0300     lsl     r0,r0,0Ch                             
08057ECC 4A08     ldr     r2,=3000079h                          
08057ECE 7811     ldrb    r1,[r2]                               
08057ED0 2900     cmp     r1,0h                                 
08057ED2 D111     bne     8057EF8h                              
08057ED4 2002     mov     r0,2h                                 
08057ED6 9003     str     r0,[sp,0Ch]                           
08057ED8 4806     ldr     r0,=30000DCh                          
08057EDA 8001     strh    r1,[r0]                               
08057EDC 8041     strh    r1,[r0,2h]                            
08057EDE 4668     mov     r0,r13                                
08057EE0 8A41     ldrh    r1,[r0,12h]                           
08057EE2 8A02     ldrh    r2,[r0,10h]                           
08057EE4 1C38     mov     r0,r7                                 
08057EE6 2302     mov     r3,2h                                 
08057EE8 F000F8EA bl      80580C0h                              
08057EEC E00E     b       8057F0Ch                              
08057EEE 0000     lsl     r0,r0,0h                              
08057EF0 0079     lsl     r1,r7,1h                              
08057EF2 0300     lsl     r0,r0,0Ch                             
08057EF4 00DC     lsl     r4,r3,3h                              
08057EF6 0300     lsl     r0,r0,0Ch                             
08057EF8 2905     cmp     r1,5h                                 
08057EFA D905     bls     8057F08h                              
08057EFC 2001     mov     r0,1h                                 
08057EFE 9003     str     r0,[sp,0Ch]                           
08057F00 2906     cmp     r1,6h                                 
08057F02 D103     bne     8057F0Ch                              
08057F04 7014     strb    r4,[r2]                               
08057F06 E001     b       8057F0Ch                              
08057F08 2002     mov     r0,2h                                 
08057F0A 9003     str     r0,[sp,0Ch]                           
08057F0C 4A17     ldr     r2,=300009Ch                          
08057F0E 4668     mov     r0,r13                                
08057F10 8A45     ldrh    r5,[r0,12h]                           
08057F12 8B90     ldrh    r0,[r2,1Ch]                           
08057F14 4368     mul     r0,r5                                 
08057F16 4669     mov     r1,r13                                
08057F18 8A0B     ldrh    r3,[r1,10h]                           
08057F1A 18C0     add     r0,r0,r3                              
08057F1C 6991     ldr     r1,[r2,18h]                           
08057F1E 0040     lsl     r0,r0,1h                              
08057F20 1840     add     r0,r0,r1                              
08057F22 8804     ldrh    r4,[r0]                               
08057F24 4E12     ldr     r6,=3000079h                          
08057F26 7830     ldrb    r0,[r6]                               
08057F28 2800     cmp     r0,0h                                 
08057F2A D006     beq     8057F3Ah                              
08057F2C 1C22     mov     r2,r4                                 
08057F2E 1C28     mov     r0,r5                                 
08057F30 1C19     mov     r1,r3                                 
08057F32 F001FCA3 bl      805987Ch                              
08057F36 2000     mov     r0,0h                                 
08057F38 7030     strb    r0,[r6]                               
08057F3A 480E     ldr     r0,=3005450h                          
08057F3C 6840     ldr     r0,[r0,4h]                            
08057F3E 1900     add     r0,r0,r4                              
08057F40 7800     ldrb    r0,[r0]                               
08057F42 9000     str     r0,[sp]                               
08057F44 213F     mov     r1,3Fh                                
08057F46 1C38     mov     r0,r7                                 
08057F48 4008     and     r0,r1                                 
08057F4A 9002     str     r0,[sp,8h]                            
08057F4C 4640     mov     r0,r8                                 
08057F4E 4008     and     r0,r1                                 
08057F50 9001     str     r0,[sp,4h]                            
08057F52 4809     ldr     r0,=3005704h                          
08057F54 6801     ldr     r1,[r0]                               
08057F56 4668     mov     r0,r13                                
08057F58 F032FE50 bl      808ABFCh                              
08057F5C 1C04     mov     r4,r0                                 
08057F5E B005     add     sp,14h                                
08057F60 BC08     pop     r3                                    
08057F62 4698     mov     r8,r3                                 
08057F64 BCF0     pop     r4-r7                                 
08057F66 BC02     pop     r1                                    
08057F68 4708     bx      r1                                    
08057F6A 0000     lsl     r0,r0,0h                              
08057F6C 009C     lsl     r4,r3,2h                              
08057F6E 0300     lsl     r0,r0,0Ch                             
08057F70 0079     lsl     r1,r7,1h                              
08057F72 0300     lsl     r0,r0,0Ch                             
08057F74 5450     strb    r0,[r2,r1]                            
08057F76 0300     lsl     r0,r0,0Ch                             
08057F78 5704     ldsb    r4,[r0,r4]                            
08057F7A 0300     lsl     r0,r0,0Ch                             
08057F7C B500     push    r14                                   
08057F7E 1C02     mov     r2,r0                                 
08057F80 2100     mov     r1,0h                                 
08057F82 6810     ldr     r0,[r2]                               
08057F84 280C     cmp     r0,0Ch                                
08057F86 D877     bhi     @@end                              
08057F88 0080     lsl     r0,r0,2h                              
08057F8A 4902     ldr     r1,=8057F98h                          
08057F8C 1840     add     r0,r0,r1                              
08057F8E 6800     ldr     r0,[r0]                               
08057F90 4687     mov     r15,r0                                
08057F92 0000     lsl     r0,r0,0h                              
08057F94 7F98     ldrb    r0,[r3,1Eh]                           
08057F96 0805     lsr     r5,r0,20h                             
08057F98 804A     strh    r2,[r1,2h]                            
08057F9A 0805     lsr     r5,r0,20h                             
08057F9C 7FCC     ldrb    r4,[r1,1Fh]                           
08057F9E 0805     lsr     r5,r0,20h                             
08057FA0 7FD4     ldrb    r4,[r2,1Fh]                           
08057FA2 0805     lsr     r5,r0,20h                             
08057FA4 7FE4     ldrb    r4,[r4,1Fh]                           
08057FA6 0805     lsr     r5,r0,20h                             
08057FA8 7FF8     ldrb    r0,[r7,1Fh]                           
08057FAA 0805     lsr     r5,r0,20h                             
08057FAC 800A     strh    r2,[r1]                               
08057FAE 0805     lsr     r5,r0,20h                             
08057FB0 801E     strh    r6,[r3]                               
08057FB2 0805     lsr     r5,r0,20h                             
08057FB4 8034     strh    r4,[r6]                               
08057FB6 0805     lsr     r5,r0,20h                             
08057FB8 804E     strh    r6,[r1,2h]                            
08057FBA 0805     lsr     r5,r0,20h                             
08057FBC 8058     strh    r0,[r3,2h]                            
08057FBE 0805     lsr     r5,r0,20h                             
08057FC0 8062     strh    r2,[r4,2h]                            
08057FC2 0805     lsr     r5,r0,20h                             
08057FC4 806E     strh    r6,[r5,2h]                            
08057FC6 0805     lsr     r5,r0,20h                             
08057FC8 804A     strh    r2,[r1,2h]                            
08057FCA 0805     lsr     r5,r0,20h                             
08057FCC 6811     ldr     r1,[r2]                               
08057FCE 2080     mov     r0,80h                                
08057FD0 0440     lsl     r0,r0,11h                             
08057FD2 E050     b       @@ReturnOrr                              
08057FD4 6891     ldr     r1,[r2,8h]                            
08057FD6 6850     ldr     r0,[r2,4h]                            
08057FD8 4281     cmp     r1,r0                                 
08057FDA DB36     blt     @@air                              
08057FDC 6811     ldr     r1,[r2]                               
08057FDE 2080     mov     r0,80h                                
08057FE0 0440     lsl     r0,r0,11h                             
08057FE2 E048     b       @@ReturnOrr                              
08057FE4 6850     ldr     r0,[r2,4h]                            
08057FE6 213F     mov     r1,3Fh                                
08057FE8 1A09     sub     r1,r1,r0                              
08057FEA 6890     ldr     r0,[r2,8h]                            
08057FEC 4288     cmp     r0,r1                                 
08057FEE DB2C     blt     @@air                              
08057FF0 6811     ldr     r1,[r2]                               
08057FF2 2080     mov     r0,80h                                
08057FF4 0440     lsl     r0,r0,11h                             
08057FF6 E03E     b       @@ReturnOrr                              
08057FF8 6850     ldr     r0,[r2,4h]                            
08057FFA 1040     asr     r0,r0,1h                              
08057FFC 6891     ldr     r1,[r2,8h]                            
08057FFE 4281     cmp     r1,r0                                 
08058000 DB23     blt     @@air                              
08058002 6811     ldr     r1,[r2]                               
08058004 2080     mov     r0,80h                                
08058006 0440     lsl     r0,r0,11h                             
08058008 E035     b       @@ReturnOrr                              
0805800A 6850     ldr     r0,[r2,4h]                            
0805800C 303F     add     r0,3Fh                                
0805800E 1040     asr     r0,r0,1h                              
08058010 6891     ldr     r1,[r2,8h]                            
08058012 4281     cmp     r1,r0                                 
08058014 DB19     blt     @@air                              
08058016 6811     ldr     r1,[r2]                               
08058018 2080     mov     r0,80h                                
0805801A 0440     lsl     r0,r0,11h                             
0805801C E02B     b       @@ReturnOrr                              
0805801E 6850     ldr     r0,[r2,4h]                            
08058020 1040     asr     r0,r0,1h                              
08058022 213F     mov     r1,3Fh                                
08058024 1A09     sub     r1,r1,r0                              
08058026 6890     ldr     r0,[r2,8h]                            
08058028 4288     cmp     r0,r1                                 
0805802A DB0E     blt     @@air                              
0805802C 6811     ldr     r1,[r2]                               
0805802E 2080     mov     r0,80h                                
08058030 0440     lsl     r0,r0,11h                             
08058032 E020     b       @@ReturnOrr                              
08058034 6850     ldr     r0,[r2,4h]                            
08058036 213F     mov     r1,3Fh                                
08058038 1A09     sub     r1,r1,r0                              
0805803A 1049     asr     r1,r1,1h                              
0805803C 6890     ldr     r0,[r2,8h]                            
0805803E 4288     cmp     r0,r1                                 
08058040 DB03     blt     @@air                              
08058042 6811     ldr     r1,[r2]                               
08058044 2080     mov     r0,80h                                
08058046 0440     lsl     r0,r0,11h                             
08058048 E015     b       @@ReturnOrr                              
0805804A 6811     ldr     r1,[r2]                               
0805804C E014     b       @@end                              
0805804E 68D0     ldr     r0,[r2,0Ch]                           
08058050 2801     cmp     r0,1h                                 
08058052 DD0C     ble     @@Typeb                              
08058054 2000     mov     r0,0h                                 
08058056 E007     b       @@Typea                              
08058058 68D0     ldr     r0,[r2,0Ch]                           
0805805A 2801     cmp     r0,1h                                 
0805805C DC07     bgt     @@Typeb                              
0805805E 2000     mov     r0,0h                                 
08058060 E002     b       @@Typea                              
08058062 68D0     ldr     r0,[r2,0Ch]                           
08058064 2800     cmp     r0,0h                                 
08058066 D102     bne     @@Typeb                              
08058068 6010     str     r0,[r2]                               
0805806A 2100     mov     r1,0h                                 
0805806C E004     b       @@end                              
0805806E 2001     mov     r0,1h                                 
08058070 6010     str     r0,[r2]                               
08058072 2180     mov     r1,80h                                
08058074 0449     lsl     r1,r1,11h                             
08058076 4301     orr     r1,r0                                 
08058078 1C08     mov     r0,r1                                 
0805807A BC02     pop     r1                                    
0805807C 4708     bx      r1                                    
0805807E 0000     lsl     r0,r0,0h                              
08058080 B510     push    r4,r14                                
08058082 0400     lsl     r0,r0,10h                             
08058084 0C04     lsr     r4,r0,10h                             
08058086 0409     lsl     r1,r1,10h                             
08058088 4B07     ldr     r3,=30000DCh                          
0805808A 2200     mov     r2,0h                                 
0805808C 801A     strh    r2,[r3]                               
0805808E 805A     strh    r2,[r3,2h]                            
08058090 0D83     lsr     r3,r0,16h                             
08058092 0D8A     lsr     r2,r1,16h                             
08058094 4805     ldr     r0,=300009Ch                          
08058096 8BC1     ldrh    r1,[r0,1Eh]                           
08058098 428B     cmp     r3,r1                                 
0805809A D202     bcs     80580A2h                              
0805809C 8B80     ldrh    r0,[r0,1Ch]                           
0805809E 4282     cmp     r2,r0                                 
080580A0 D306     bcc     80580B0h                              
080580A2 2000     mov     r0,0h                                 
080580A4 E009     b       80580BAh                              
080580A6 0000     lsl     r0,r0,0h                              
080580A8 00DC     lsl     r4,r3,3h                              
080580AA 0300     lsl     r0,r0,0Ch                             
080580AC 009C     lsl     r4,r3,2h                              
080580AE 0300     lsl     r0,r0,0Ch                             
080580B0 1C20     mov     r0,r4                                 
080580B2 1C19     mov     r1,r3                                 
080580B4 2300     mov     r3,0h                                 
080580B6 F000F803 bl      80580C0h                              
080580BA BC10     pop     r4                                    
080580BC BC02     pop     r1                                    
080580BE 4708     bx      r1                                    
080580C0 B5F0     push    r4-r7,r14                             
080580C2 0400     lsl     r0,r0,10h                             
080580C4 0C07     lsr     r7,r0,10h                             
080580C6 0409     lsl     r1,r1,10h                             
080580C8 0C09     lsr     r1,r1,10h                             
080580CA 0412     lsl     r2,r2,10h                             
080580CC 0C12     lsr     r2,r2,10h                             
080580CE 061B     lsl     r3,r3,18h                             
080580D0 0E1E     lsr     r6,r3,18h                             
080580D2 4C0B     ldr     r4,=3005450h                          
080580D4 4B0B     ldr     r3,=300009Ch                          
080580D6 8B98     ldrh    r0,[r3,1Ch]                           
080580D8 4348     mul     r0,r1                                 
080580DA 1880     add     r0,r0,r2                              
080580DC 6999     ldr     r1,[r3,18h]                           
080580DE 0040     lsl     r0,r0,1h                              
080580E0 1840     add     r0,r0,r1                              
080580E2 8800     ldrh    r0,[r0]                               
080580E4 68A1     ldr     r1,[r4,8h]                            
080580E6 0040     lsl     r0,r0,1h                              
080580E8 1840     add     r0,r0,r1                              
080580EA 8805     ldrh    r5,[r0]                               
080580EC 2D00     cmp     r5,0h                                 
080580EE D00D     beq     805810Ch                              
080580F0 2D0F     cmp     r5,0Fh                                
080580F2 DC0B     bgt     805810Ch                              
080580F4 4904     ldr     r1,=83458E4h                          
080580F6 0068     lsl     r0,r5,1h                              
080580F8 1840     add     r0,r0,r1                              
080580FA 8804     ldrh    r4,[r0]                               
080580FC E007     b       805810Eh                              
080580FE 0000     lsl     r0,r0,0h                              
08058100 5450     strb    r0,[r2,r1]                            
08058102 0300     lsl     r0,r0,0Ch                             
08058104 009C     lsl     r4,r3,2h                              
08058106 0300     lsl     r0,r0,0Ch                             
08058108 58E4     ldr     r4,[r4,r3]                            
0805810A 0834     lsr     r4,r6,20h                             
0805810C 2400     mov     r4,0h                                 
0805810E 2E00     cmp     r6,0h                                 
08058110 D10C     bne     805812Ch                              
08058112 1E60     sub     r0,r4,1                               
08058114 2801     cmp     r0,1h                                 
08058116 D809     bhi     805812Ch                              
08058118 480A     ldr     r0,=30013D4h                          
0805811A 7800     ldrb    r0,[r0]                               
0805811C 281D     cmp     r0,1Dh                                
0805811E D005     beq     805812Ch                              
08058120 1C20     mov     r0,r4                                 
08058122 F000F83B bl      805819Ch                              
08058126 2800     cmp     r0,0h                                 
08058128 D000     beq     805812Ch                              
0805812A 2400     mov     r4,0h                                 
0805812C 4806     ldr     r0,=30000DCh                          
0805812E 8004     strh    r4,[r0]                               
08058130 2400     mov     r4,0h                                 
08058132 1C2A     mov     r2,r5                                 
08058134 3A40     sub     r2,40h                                
08058136 1C05     mov     r5,r0                                 
08058138 2A03     cmp     r2,3h                                 
0805813A D809     bhi     8058150h                              
0805813C 4903     ldr     r1,=8345924h                          
0805813E 0050     lsl     r0,r2,1h                              
08058140 1840     add     r0,r0,r1                              
08058142 E022     b       805818Ah                              
08058144 13D4     asr     r4,r2,0Fh                             
08058146 0300     lsl     r0,r0,0Ch                             
08058148 00DC     lsl     r4,r3,3h                              
0805814A 0300     lsl     r0,r0,0Ch                             
0805814C 5924     ldr     r4,[r4,r4]                            
0805814E 0834     lsr     r4,r6,20h                             
08058150 490A     ldr     r1,=30000BCh                          
08058152 7848     ldrb    r0,[r1,1h]                            
08058154 2800     cmp     r0,0h                                 
08058156 D019     beq     805818Ch                              
08058158 7D08     ldrb    r0,[r1,14h]                           
0805815A 2800     cmp     r0,0h                                 
0805815C D016     beq     805818Ch                              
0805815E 2807     cmp     r0,7h                                 
08058160 D814     bhi     805818Ch                              
08058162 4B07     ldr     r3,=8345904h                          
08058164 0081     lsl     r1,r0,2h                              
08058166 1C98     add     r0,r3,2                               
08058168 180A     add     r2,r1,r0                              
0805816A 8810     ldrh    r0,[r2]                               
0805816C 2800     cmp     r0,0h                                 
0805816E D00B     beq     8058188h                              
08058170 4804     ldr     r0,=300006Ch                          
08058172 8800     ldrh    r0,[r0]                               
08058174 42B8     cmp     r0,r7                                 
08058176 D807     bhi     8058188h                              
08058178 8814     ldrh    r4,[r2]                               
0805817A E007     b       805818Ch                              
0805817C 00BC     lsl     r4,r7,2h                              
0805817E 0300     lsl     r0,r0,0Ch                             
08058180 5904     ldr     r4,[r0,r4]                            
08058182 0834     lsr     r4,r6,20h                             
08058184 006C     lsl     r4,r5,1h                              
08058186 0300     lsl     r0,r0,0Ch                             
08058188 18C8     add     r0,r1,r3                              
0805818A 8804     ldrh    r4,[r0]                               
0805818C 806C     strh    r4,[r5,2h]                            
0805818E 8828     ldrh    r0,[r5]                               
08058190 0400     lsl     r0,r0,10h                             
08058192 8869     ldrh    r1,[r5,2h]                            
08058194 4308     orr     r0,r1                                 
08058196 BCF0     pop     r4-r7                                 
08058198 BC02     pop     r1                                    
0805819A 4708     bx      r1                                    
0805819C B5F0     push    r4-r7,r14                             
0805819E 464F     mov     r7,r9                                 
080581A0 4646     mov     r6,r8                                 
080581A2 B4C0     push    r6,r7                                 
080581A4 480E     ldr     r0,=3000198h                          
080581A6 2100     mov     r1,0h                                 
080581A8 7081     strb    r1,[r0,2h]                            
080581AA 2200     mov     r2,0h                                 
080581AC 8001     strh    r1,[r0]                               
080581AE 70C2     strb    r2,[r0,3h]                            
080581B0 2400     mov     r4,0h                                 
080581B2 2508     mov     r5,8h                                 
080581B4 480B     ldr     r0,=3000054h                          
080581B6 4681     mov     r9,r0                                 
080581B8 490B     ldr     r1,=8345934h                          
080581BA 4688     mov     r8,r1                                 
080581BC 4646     mov     r6,r8                                 
080581BE 3644     add     r6,44h                                
080581C0 2740     mov     r7,40h                                
080581C2 4808     ldr     r0,=3000054h                          
080581C4 4908     ldr     r1,=8345934h                          
080581C6 1879     add     r1,r7,r1                              
080581C8 7800     ldrb    r0,[r0]                               
080581CA 780A     ldrb    r2,[r1]                               
080581CC 4290     cmp     r0,r2                                 
080581CE D10F     bne     80581F0h                              
080581D0 4806     ldr     r0,=3000055h                          
080581D2 7800     ldrb    r0,[r0]                               
080581D4 7849     ldrb    r1,[r1,1h]                            
080581D6 4288     cmp     r0,r1                                 
080581D8 D10A     bne     80581F0h                              
080581DA 2401     mov     r4,1h                                 
080581DC E016     b       805820Ch                              
080581DE 0000     lsl     r0,r0,0h                              
080581E0 0198     lsl     r0,r3,6h                              
080581E2 0300     lsl     r0,r0,0Ch                             
080581E4 0054     lsl     r4,r2,1h                              
080581E6 0300     lsl     r0,r0,0Ch                             
080581E8 5934     ldr     r4,[r6,r4]                            
080581EA 0834     lsr     r4,r6,20h                             
080581EC 0055     lsl     r5,r2,1h                              
080581EE 0300     lsl     r0,r0,0Ch                             
080581F0 4649     mov     r1,r9                                 
080581F2 7808     ldrb    r0,[r1]                               
080581F4 7832     ldrb    r2,[r6]                               
080581F6 4290     cmp     r0,r2                                 
080581F8 D106     bne     8058208h                              
080581FA 480B     ldr     r0,=3000055h                          
080581FC 7800     ldrb    r0,[r0]                               
080581FE 7871     ldrb    r1,[r6,1h]                            
08058200 4288     cmp     r0,r1                                 
08058202 D101     bne     8058208h                              
08058204 2401     mov     r4,1h                                 
08058206 4264     neg     r4,r4                                 
08058208 2C00     cmp     r4,0h                                 
0805820A D019     beq     8058240h                              
0805820C 2D08     cmp     r5,8h                                 
0805820E D10E     bne     805822Eh                              
08058210 2003     mov     r0,3h                                 
08058212 2141     mov     r1,41h                                
08058214 F008FB52 bl      80608BCh                              
08058218 2800     cmp     r0,0h                                 
0805821A D007     beq     805822Ch                              
0805821C 4646     mov     r6,r8                                 
0805821E 3634     add     r6,34h                                
08058220 2730     mov     r7,30h                                
08058222 2506     mov     r5,6h                                 
08058224 E003     b       805822Eh                              
08058226 0000     lsl     r0,r0,0h                              
08058228 0055     lsl     r5,r2,1h                              
0805822A 0300     lsl     r0,r0,0Ch                             
0805822C 2400     mov     r4,0h                                 
0805822E 2C00     cmp     r4,0h                                 
08058230 D006     beq     8058240h                              
08058232 4802     ldr     r0,=3000198h                          
08058234 7085     strb    r5,[r0,2h]                            
08058236 70C4     strb    r4,[r0,3h]                            
08058238 E007     b       805824Ah                              
0805823A 0000     lsl     r0,r0,0h                              
0805823C 0198     lsl     r0,r3,6h                              
0805823E 0300     lsl     r0,r0,0Ch                             
08058240 3E08     sub     r6,8h                                 
08058242 3F08     sub     r7,8h                                 
08058244 3D01     sub     r5,1h                                 
08058246 2D00     cmp     r5,0h                                 
08058248 DCBB     bgt     80581C2h                              
0805824A 2000     mov     r0,0h                                 
0805824C 2C00     cmp     r4,0h                                 
0805824E D100     bne     8058252h                              
08058250 2001     mov     r0,1h                                 
08058252 1C04     mov     r4,r0                                 
08058254 BC18     pop     r3,r4                                 
08058256 4698     mov     r8,r3                                 
08058258 46A1     mov     r9,r4                                 
0805825A BCF0     pop     r4-r7                                 
0805825C BC02     pop     r1                                    
0805825E 4708     bx      r1                                    
08058260 B500     push    r14                                   
08058262 0400     lsl     r0,r0,10h                             
08058264 0409     lsl     r1,r1,10h                             
08058266 0D83     lsr     r3,r0,16h                             
08058268 0D89     lsr     r1,r1,16h                             
0805826A 4A04     ldr     r2,=300009Ch                          
0805826C 8BD0     ldrh    r0,[r2,1Eh]                           
0805826E 4283     cmp     r3,r0                                 
08058270 DA02     bge     8058278h                              
08058272 8B90     ldrh    r0,[r2,1Ch]                           
08058274 4281     cmp     r1,r0                                 
08058276 DB03     blt     8058280h                              
08058278 2000     mov     r0,0h                                 
0805827A E021     b       80582C0h                              
0805827C 009C     lsl     r4,r3,2h                              
0805827E 0300     lsl     r0,r0,0Ch                             
08058280 4358     mul     r0,r3                                 
08058282 1840     add     r0,r0,r1                              
08058284 6991     ldr     r1,[r2,18h]                           
08058286 0040     lsl     r0,r0,1h                              
08058288 1840     add     r0,r0,r1                              
0805828A 8802     ldrh    r2,[r0]                               
0805828C 2080     mov     r0,80h                                
0805828E 00C0     lsl     r0,r0,3h                              
08058290 4010     and     r0,r2                                 
08058292 2800     cmp     r0,0h                                 
08058294 D001     beq     805829Ah                              
08058296 2200     mov     r2,0h                                 
08058298 E004     b       80582A4h                              
0805829A 4806     ldr     r0,=3005450h                          
0805829C 6881     ldr     r1,[r0,8h]                            
0805829E 0050     lsl     r0,r2,1h                              
080582A0 1840     add     r0,r0,r1                              
080582A2 8802     ldrh    r2,[r0]                               
080582A4 1C11     mov     r1,r2                                 
080582A6 3950     sub     r1,50h                                
080582A8 2904     cmp     r1,4h                                 
080582AA D807     bhi     80582BCh                              
080582AC 4802     ldr     r0,=834592Ch                          
080582AE 1808     add     r0,r1,r0                              
080582B0 7802     ldrb    r2,[r0]                               
080582B2 E004     b       80582BEh                              
080582B4 5450     strb    r0,[r2,r1]                            
080582B6 0300     lsl     r0,r0,0Ch                             
080582B8 592C     ldr     r4,[r5,r4]                            
080582BA 0834     lsr     r4,r6,20h                             
080582BC 2200     mov     r2,0h                                 
080582BE 1C10     mov     r0,r2                                 
080582C0 BC02     pop     r1                                    
080582C2 4708     bx      r1                                    
080582C4 B5F0     push    r4-r7,r14                             
080582C6 1C05     mov     r5,r0                                 
080582C8 F000F906 bl      80584D8h                              
080582CC 4814     ldr     r0,=3000144h                          
080582CE 8807     ldrh    r7,[r0]                               
080582D0 8846     ldrh    r6,[r0,2h]                            
080582D2 4C14     ldr     r4,=3000118h                          
080582D4 7820     ldrb    r0,[r4]                               
080582D6 2800     cmp     r0,0h                                 
080582D8 D009     beq     80582EEh                              
080582DA 1C20     mov     r0,r4                                 
080582DC 1C29     mov     r1,r5                                 
080582DE F000F881 bl      80583E4h                              
080582E2 1C07     mov     r7,r0                                 
080582E4 1C20     mov     r0,r4                                 
080582E6 1C29     mov     r1,r5                                 
080582E8 F000F89C bl      8058424h                              
080582EC 1C06     mov     r6,r0                                 
080582EE 340C     add     r4,0Ch                                
080582F0 7820     ldrb    r0,[r4]                               
080582F2 2800     cmp     r0,0h                                 
080582F4 D00B     beq     805830Eh                              
080582F6 1C20     mov     r0,r4                                 
080582F8 1C29     mov     r1,r5                                 
080582FA F000F873 bl      80583E4h                              
080582FE 1838     add     r0,r7,r0                              
08058300 1047     asr     r7,r0,1h                              
08058302 1C20     mov     r0,r4                                 
08058304 1C29     mov     r1,r5                                 
08058306 F000F88D bl      8058424h                              
0805830A 1830     add     r0,r6,r0                              
0805830C 1046     asr     r6,r0,1h                              
0805830E 0438     lsl     r0,r7,10h                             
08058310 0C00     lsr     r0,r0,10h                             
08058312 0431     lsl     r1,r6,10h                             
08058314 0C09     lsr     r1,r1,10h                             
08058316 F000F807 bl      8058328h                              
0805831A BCF0     pop     r4-r7                                 
0805831C BC01     pop     r0                                    
0805831E 4700     bx      r0                                    
08058320 0144     lsl     r4,r0,5h                              
08058322 0300     lsl     r0,r0,0Ch                             
08058324 0118     lsl     r0,r3,4h                              
08058326 0300     lsl     r0,r0,0Ch                             
08058328 B530     push    r4,r5,r14                             
0805832A 0400     lsl     r0,r0,10h                             
0805832C 0C04     lsr     r4,r0,10h                             
0805832E 0409     lsl     r1,r1,10h                             
08058330 0C0A     lsr     r2,r1,10h                             
08058332 490C     ldr     r1,=3000144h                          
08058334 800C     strh    r4,[r1]                               
08058336 804A     strh    r2,[r1,2h]                            
08058338 480B     ldr     r0,=3000C72h                          
0805833A 2300     mov     r3,0h                                 
0805833C 5EC0     ldsh    r0,[r0,r3]                            
0805833E 1C0D     mov     r5,r1                                 
08058340 2800     cmp     r0,0h                                 
08058342 D04B     beq     80583DCh                              
08058344 4809     ldr     r0,=30013BAh                          
08058346 1C03     mov     r3,r0                                 
08058348 8818     ldrh    r0,[r3]                               
0805834A 4282     cmp     r2,r0                                 
0805834C D020     beq     8058390h                              
0805834E 8818     ldrh    r0,[r3]                               
08058350 1A11     sub     r1,r2,r0                              
08058352 2900     cmp     r1,0h                                 
08058354 DD0E     ble     8058374h                              
08058356 4806     ldr     r0,=3005714h                          
08058358 2206     mov     r2,6h                                 
0805835A 5E80     ldsh    r0,[r0,r2]                            
0805835C 4288     cmp     r0,r1                                 
0805835E DA0F     bge     8058380h                              
08058360 E00D     b       805837Eh                              
08058362 0000     lsl     r0,r0,0h                              
08058364 0144     lsl     r4,r0,5h                              
08058366 0300     lsl     r0,r0,0Ch                             
08058368 0C72     lsr     r2,r6,11h                             
0805836A 0300     lsl     r0,r0,0Ch                             
0805836C 13BA     asr     r2,r7,0Eh                             
0805836E 0300     lsl     r0,r0,0Ch                             
08058370 5714     ldsb    r4,[r2,r4]                            
08058372 0300     lsl     r0,r0,0Ch                             
08058374 4805     ldr     r0,=3005714h                          
08058376 2204     mov     r2,4h                                 
08058378 5E80     ldsh    r0,[r0,r2]                            
0805837A 4288     cmp     r0,r1                                 
0805837C DD00     ble     8058380h                              
0805837E 1C01     mov     r1,r0                                 
08058380 7169     strb    r1,[r5,5h]                            
08058382 8818     ldrh    r0,[r3]                               
08058384 1840     add     r0,r0,r1                              
08058386 8018     strh    r0,[r3]                               
08058388 E004     b       8058394h                              
0805838A 0000     lsl     r0,r0,0h                              
0805838C 5714     ldsb    r4,[r2,r4]                            
0805838E 0300     lsl     r0,r0,0Ch                             
08058390 2000     mov     r0,0h                                 
08058392 7168     strb    r0,[r5,5h]                            
08058394 4807     ldr     r0,=30013B8h                          
08058396 1C02     mov     r2,r0                                 
08058398 8813     ldrh    r3,[r2]                               
0805839A 429C     cmp     r4,r3                                 
0805839C D01C     beq     80583D8h                              
0805839E 8810     ldrh    r0,[r2]                               
080583A0 1A21     sub     r1,r4,r0                              
080583A2 2900     cmp     r1,0h                                 
080583A4 DD0A     ble     80583BCh                              
080583A6 4804     ldr     r0,=3005714h                          
080583A8 2302     mov     r3,2h                                 
080583AA 5EC0     ldsh    r0,[r0,r3]                            
080583AC 4288     cmp     r0,r1                                 
080583AE DA0B     bge     80583C8h                              
080583B0 E009     b       80583C6h                              
080583B2 0000     lsl     r0,r0,0h                              
080583B4 13B8     asr     r0,r7,0Eh                             
080583B6 0300     lsl     r0,r0,0Ch                             
080583B8 5714     ldsb    r4,[r2,r4]                            
080583BA 0300     lsl     r0,r0,0Ch                             
080583BC 4805     ldr     r0,=3005714h                          
080583BE 2300     mov     r3,0h                                 
080583C0 5EC0     ldsh    r0,[r0,r3]                            
080583C2 4288     cmp     r0,r1                                 
080583C4 DD00     ble     80583C8h                              
080583C6 1C01     mov     r1,r0                                 
080583C8 7129     strb    r1,[r5,4h]                            
080583CA 8810     ldrh    r0,[r2]                               
080583CC 1840     add     r0,r0,r1                              
080583CE 8010     strh    r0,[r2]                               
080583D0 E004     b       80583DCh                              
080583D2 0000     lsl     r0,r0,0h                              
080583D4 5714     ldsb    r4,[r2,r4]                            
080583D6 0300     lsl     r0,r0,0Ch                             
080583D8 2000     mov     r0,0h                                 
080583DA 7128     strb    r0,[r5,4h]                            
080583DC BC30     pop     r4,r5                                 
080583DE BC01     pop     r0                                    
080583E0 4700     bx      r0                                    
080583E2 0000     lsl     r0,r0,0h                              
080583E4 B510     push    r4,r14                                
080583E6 1C03     mov     r3,r0                                 
080583E8 8809     ldrh    r1,[r1]                               
080583EA 889A     ldrh    r2,[r3,4h]                            
080583EC 24F0     mov     r4,0F0h                               
080583EE 0064     lsl     r4,r4,1h                              
080583F0 1910     add     r0,r2,r4                              
080583F2 4281     cmp     r1,r0                                 
080583F4 DA01     bge     80583FAh                              
080583F6 1C10     mov     r0,r2                                 
080583F8 E00E     b       8058418h                              
080583FA 885A     ldrh    r2,[r3,2h]                            
080583FC 4B03     ldr     r3,=0FFFFFE20h                        
080583FE 18D0     add     r0,r2,r3                              
08058400 4281     cmp     r1,r0                                 
08058402 DD07     ble     8058414h                              
08058404 4C02     ldr     r4,=0FFFFFC40h                        
08058406 1910     add     r0,r2,r4                              
08058408 E006     b       8058418h                              
0805840A 0000     lsl     r0,r0,0h                              
0805840C FE20     bl      lr+0C40h                              
0805840E FFFF     bl      lr+0FFEh                              
08058410 FC40     bl      lr+880h                               
08058412 FFFF     bl      lr+0FFEh                              
08058414 4A02     ldr     r2,=0FFFFFE20h                        
08058416 1888     add     r0,r1,r2                              
08058418 BC10     pop     r4                                    
0805841A BC02     pop     r1                                    
0805841C 4708     bx      r1                                    
0805841E 0000     lsl     r0,r0,0h                              
08058420 FE20     bl      lr+0C40h                              
08058422 FFFF     bl      lr+0FFEh                              
08058424 B510     push    r4,r14                                
08058426 1C02     mov     r2,r0                                 
08058428 7810     ldrb    r0,[r2]                               
0805842A 2802     cmp     r0,2h                                 
0805842C D11C     bne     8058468h                              
0805842E 8849     ldrh    r1,[r1,2h]                            
08058430 88D3     ldrh    r3,[r2,6h]                            
08058432 24C0     mov     r4,0C0h                               
08058434 0064     lsl     r4,r4,1h                              
08058436 1918     add     r0,r3,r4                              
08058438 4281     cmp     r1,r0                                 
0805843A DB08     blt     805844Eh                              
0805843C 8912     ldrh    r2,[r2,8h]                            
0805843E 4C05     ldr     r4,=0FFFFFF00h                        
08058440 1910     add     r0,r2,r4                              
08058442 4281     cmp     r1,r0                                 
08058444 DD0A     ble     805845Ch                              
08058446 4904     ldr     r1,=0FFFFFD80h                        
08058448 1850     add     r0,r2,r1                              
0805844A 4298     cmp     r0,r3                                 
0805844C DA0F     bge     805846Eh                              
0805844E 1C18     mov     r0,r3                                 
08058450 E00D     b       805846Eh                              
08058452 0000     lsl     r0,r0,0h                              
08058454 FF00     bl      lr+0E00h                              
08058456 FFFF     bl      lr+0FFEh                              
08058458 FD80     bl      lr+0B00h                              
0805845A FFFF     bl      lr+0FFEh                              
0805845C 4A01     ldr     r2,=0FFFFFE80h                        
0805845E 1888     add     r0,r1,r2                              
08058460 E005     b       805846Eh                              
08058462 0000     lsl     r0,r0,0h                              
08058464 FE80     bl      lr+0D00h                              
08058466 FFFF     bl      lr+0FFEh                              
08058468 8910     ldrh    r0,[r2,8h]                            
0805846A 4C02     ldr     r4,=0FFFFFD80h                        
0805846C 1900     add     r0,r0,r4                              
0805846E BC10     pop     r4                                    
08058470 BC02     pop     r1                                    
08058472 4708     bx      r1                                    
08058474 FD80     bl      lr+0B00h                              
08058476 FFFF     bl      lr+0FFEh                              
08058478 B530     push    r4,r5,r14                             
0805847A 4908     ldr     r1,=875FD28h                          
0805847C 4808     ldr     r0,=3000054h                          
0805847E 7800     ldrb    r0,[r0]                               
08058480 0080     lsl     r0,r0,2h                              
08058482 1840     add     r0,r0,r1                              
08058484 6802     ldr     r2,[r0]                               
08058486 6813     ldr     r3,[r2]                               
08058488 4806     ldr     r0,=3000055h                          
0805848A 7819     ldrb    r1,[r3]                               
0805848C 1C05     mov     r5,r0                                 
0805848E 4C06     ldr     r4,=3005708h                          
08058490 7828     ldrb    r0,[r5]                               
08058492 4281     cmp     r1,r0                                 
08058494 D10C     bne     80584B0h                              
08058496 6023     str     r3,[r4]                               
08058498 E015     b       80584C6h                              
0805849A 0000     lsl     r0,r0,0h                              
0805849C FD28     bl      lr+0A50h                              
0805849E 0875     lsr     r5,r6,1h                              
080584A0 0054     lsl     r4,r2,1h                              
080584A2 0300     lsl     r0,r0,0Ch                             
080584A4 0055     lsl     r5,r2,1h                              
080584A6 0300     lsl     r0,r0,0Ch                             
080584A8 5708     ldsb    r0,[r1,r4]                            
080584AA 0300     lsl     r0,r0,0Ch                             
080584AC 6021     str     r1,[r4]                               
080584AE E00D     b       80584CCh                              
080584B0 6811     ldr     r1,[r2]                               
080584B2 7808     ldrb    r0,[r1]                               
080584B4 28FF     cmp     r0,0FFh                               
080584B6 D0F9     beq     80584ACh                              
080584B8 3204     add     r2,4h                                 
080584BA 6811     ldr     r1,[r2]                               
080584BC 7808     ldrb    r0,[r1]                               
080584BE 782B     ldrb    r3,[r5]                               
080584C0 4298     cmp     r0,r3                                 
080584C2 D1F5     bne     80584B0h                              
080584C4 6021     str     r1,[r4]                               
080584C6 4903     ldr     r1,=30000BCh                          
080584C8 2003     mov     r0,3h                                 
080584CA 7148     strb    r0,[r1,5h]                            
080584CC BC30     pop     r4,r5                                 
080584CE BC01     pop     r0                                    
080584D0 4700     bx      r0                                    
080584D2 0000     lsl     r0,r0,0h                              
080584D4 00BC     lsl     r4,r7,2h                              
080584D6 0300     lsl     r0,r0,0Ch                             
080584D8 B5F0     push    r4-r7,r14                             
080584DA 464F     mov     r7,r9                                 
080584DC 4646     mov     r6,r8                                 
080584DE B4C0     push    r6,r7                                 
080584E0 B084     add     sp,-10h                               
080584E2 4A1C     ldr     r2,=3000118h                          
080584E4 2100     mov     r1,0h                                 
080584E6 7011     strb    r1,[r2]                               
080584E8 7311     strb    r1,[r2,0Ch]                           
080584EA 8801     ldrh    r1,[r0]                               
080584EC 0989     lsr     r1,r1,6h                              
080584EE 4688     mov     r8,r1                                 
080584F0 8840     ldrh    r0,[r0,2h]                            
080584F2 3801     sub     r0,1h                                 
080584F4 0280     lsl     r0,r0,0Ah                             
080584F6 0C00     lsr     r0,r0,10h                             
080584F8 4684     mov     r12,r0                                
080584FA 4817     ldr     r0,=3005708h                          
080584FC 6800     ldr     r0,[r0]                               
080584FE 3001     add     r0,1h                                 
08058500 7805     ldrb    r5,[r0]                               
08058502 1C44     add     r4,r0,1                               
08058504 1C17     mov     r7,r2                                 
08058506 2D00     cmp     r5,0h                                 
08058508 D100     bne     805850Ch                              
0805850A E084     b       8058616h                              
0805850C 4E13     ldr     r6,=300009Ch                          
0805850E 46B9     mov     r9,r7                                 
08058510 4648     mov     r0,r9                                 
08058512 3018     add     r0,18h                                
08058514 4282     cmp     r2,r0                                 
08058516 D100     bne     805851Ah                              
08058518 E088     b       805862Ch                              
0805851A 2000     mov     r0,0h                                 
0805851C 9000     str     r0,[sp]                               
0805851E 2001     mov     r0,1h                                 
08058520 9001     str     r0,[sp,4h]                            
08058522 2002     mov     r0,2h                                 
08058524 9002     str     r0,[sp,8h]                            
08058526 2003     mov     r0,3h                                 
08058528 9003     str     r0,[sp,0Ch]                           
0805852A 7920     ldrb    r0,[r4,4h]                            
0805852C 28FF     cmp     r0,0FFh                               
0805852E D017     beq     8058560h                              
08058530 79E0     ldrb    r0,[r4,7h]                            
08058532 28FF     cmp     r0,0FFh                               
08058534 D014     beq     8058560h                              
08058536 7961     ldrb    r1,[r4,5h]                            
08058538 8BB0     ldrh    r0,[r6,1Ch]                           
0805853A 4348     mul     r0,r1                                 
0805853C 7921     ldrb    r1,[r4,4h]                            
0805853E 1843     add     r3,r0,r1                              
08058540 69B1     ldr     r1,[r6,18h]                           
08058542 0058     lsl     r0,r3,1h                              
08058544 1840     add     r0,r0,r1                              
08058546 8800     ldrh    r0,[r0]                               
08058548 2800     cmp     r0,0h                                 
0805854A D11C     bne     8058586h                              
0805854C 79A0     ldrb    r0,[r4,6h]                            
0805854E 28FF     cmp     r0,0FFh                               
08058550 D019     beq     8058586h                              
08058552 E013     b       805857Ch                              
08058554 0118     lsl     r0,r3,4h                              
08058556 0300     lsl     r0,r0,0Ch                             
08058558 5708     ldsb    r0,[r1,r4]                            
0805855A 0300     lsl     r0,r0,0Ch                             
0805855C 009C     lsl     r4,r3,2h                              
0805855E 0300     lsl     r0,r0,0Ch                             
08058560 4836     ldr     r0,=30013D4h                          
08058562 7800     ldrb    r0,[r0]                               
08058564 281D     cmp     r0,1Dh                                
08058566 D10E     bne     8058586h                              
08058568 79E0     ldrb    r0,[r4,7h]                            
0805856A 28FF     cmp     r0,0FFh                               
0805856C D00B     beq     8058586h                              
0805856E 79A0     ldrb    r0,[r4,6h]                            
08058570 3802     sub     r0,2h                                 
08058572 0600     lsl     r0,r0,18h                             
08058574 0E00     lsr     r0,r0,18h                             
08058576 2801     cmp     r0,1h                                 
08058578 D805     bhi     8058586h                              
0805857A 79A0     ldrb    r0,[r4,6h]                            
0805857C 0080     lsl     r0,r0,2h                              
0805857E 466B     mov     r3,r13                                
08058580 1819     add     r1,r3,r0                              
08058582 2007     mov     r0,7h                                 
08058584 6008     str     r0,[r1]                               
08058586 9800     ldr     r0,[sp]                               
08058588 1820     add     r0,r4,r0                              
0805858A 7801     ldrb    r1,[r0]                               
0805858C 4541     cmp     r1,r8                                 
0805858E D83D     bhi     805860Ch                              
08058590 9801     ldr     r0,[sp,4h]                            
08058592 1820     add     r0,r4,r0                              
08058594 7800     ldrb    r0,[r0]                               
08058596 4580     cmp     r8,r0                                 
08058598 D838     bhi     805860Ch                              
0805859A 9802     ldr     r0,[sp,8h]                            
0805859C 1820     add     r0,r4,r0                              
0805859E 7800     ldrb    r0,[r0]                               
080585A0 4560     cmp     r0,r12                                
080585A2 D833     bhi     805860Ch                              
080585A4 9803     ldr     r0,[sp,0Ch]                           
080585A6 1820     add     r0,r4,r0                              
080585A8 7800     ldrb    r0,[r0]                               
080585AA 4584     cmp     r12,r0                                
080585AC D82E     bhi     805860Ch                              
080585AE 7810     ldrb    r0,[r2]                               
080585B0 2800     cmp     r0,0h                                 
080585B2 D12B     bne     805860Ch                              
080585B4 0188     lsl     r0,r1,6h                              
080585B6 2880     cmp     r0,80h                                
080585B8 DA00     bge     80585BCh                              
080585BA 2080     mov     r0,80h                                
080585BC 8090     strh    r0,[r2,4h]                            
080585BE 8BB0     ldrh    r0,[r6,1Ch]                           
080585C0 0180     lsl     r0,r0,6h                              
080585C2 1C03     mov     r3,r0                                 
080585C4 3B80     sub     r3,80h                                
080585C6 9801     ldr     r0,[sp,4h]                            
080585C8 1820     add     r0,r4,r0                              
080585CA 7800     ldrb    r0,[r0]                               
080585CC 3001     add     r0,1h                                 
080585CE 0180     lsl     r0,r0,6h                              
080585D0 1C19     mov     r1,r3                                 
080585D2 4298     cmp     r0,r3                                 
080585D4 DA00     bge     80585D8h                              
080585D6 1C01     mov     r1,r0                                 
080585D8 8051     strh    r1,[r2,2h]                            
080585DA 9802     ldr     r0,[sp,8h]                            
080585DC 1820     add     r0,r4,r0                              
080585DE 7800     ldrb    r0,[r0]                               
080585E0 0180     lsl     r0,r0,6h                              
080585E2 2880     cmp     r0,80h                                
080585E4 DA00     bge     80585E8h                              
080585E6 2080     mov     r0,80h                                
080585E8 80D0     strh    r0,[r2,6h]                            
080585EA 8BF0     ldrh    r0,[r6,1Eh]                           
080585EC 0180     lsl     r0,r0,6h                              
080585EE 1C03     mov     r3,r0                                 
080585F0 3B80     sub     r3,80h                                
080585F2 9803     ldr     r0,[sp,0Ch]                           
080585F4 1820     add     r0,r4,r0                              
080585F6 7800     ldrb    r0,[r0]                               
080585F8 3001     add     r0,1h                                 
080585FA 0180     lsl     r0,r0,6h                              
080585FC 1C19     mov     r1,r3                                 
080585FE 4298     cmp     r0,r3                                 
08058600 DA00     bge     8058604h                              
08058602 1C01     mov     r1,r0                                 
08058604 8111     strh    r1,[r2,8h]                            
08058606 2002     mov     r0,2h                                 
08058608 7010     strb    r0,[r2]                               
0805860A 320C     add     r2,0Ch                                
0805860C 3408     add     r4,8h                                 
0805860E 3D01     sub     r5,1h                                 
08058610 2D00     cmp     r5,0h                                 
08058612 D000     beq     8058616h                              
08058614 E77C     b       8058510h                              
08058616 7838     ldrb    r0,[r7]                               
08058618 2800     cmp     r0,0h                                 
0805861A D107     bne     805862Ch                              
0805861C 7B38     ldrb    r0,[r7,0Ch]                           
0805861E 2800     cmp     r0,0h                                 
08058620 D104     bne     805862Ch                              
08058622 7038     strb    r0,[r7]                               
08058624 8078     strh    r0,[r7,2h]                            
08058626 80B8     strh    r0,[r7,4h]                            
08058628 80F8     strh    r0,[r7,6h]                            
0805862A 8138     strh    r0,[r7,8h]                            
0805862C B004     add     sp,10h                                
0805862E BC18     pop     r3,r4                                 
08058630 4698     mov     r8,r3                                 
08058632 46A1     mov     r9,r4                                 
08058634 BCF0     pop     r4-r7                                 
08058636 BC01     pop     r0                                    
08058638 4700     bx      r0                                    
0805863A 0000     lsl     r0,r0,0h                              
0805863C 13D4     asr     r4,r2,0Fh                             
0805863E 0300     lsl     r0,r0,0Ch                             
08058640 B530     push    r4,r5,r14                             
08058642 B081     add     sp,-4h                                
08058644 480D     ldr     r0,=3005520h                          
08058646 7840     ldrb    r0,[r0,1h]                            
08058648 2800     cmp     r0,0h                                 
0805864A D000     beq     805864Eh                              
0805864C E0E7     b       805881Eh                              
0805864E 480C     ldr     r0,=3000100h                          
08058650 7801     ldrb    r1,[r0]                               
08058652 1C04     mov     r4,r0                                 
08058654 2900     cmp     r1,0h                                 
08058656 D137     bne     80586C8h                              
08058658 4A0A     ldr     r2,=30013D4h                          
0805865A 8A91     ldrh    r1,[r2,14h]                           
0805865C 3101     add     r1,1h                                 
0805865E 0409     lsl     r1,r1,10h                             
08058660 8A50     ldrh    r0,[r2,12h]                           
08058662 4308     orr     r0,r1                                 
08058664 9000     str     r0,[sp]                               
08058666 7810     ldrb    r0,[r2]                               
08058668 1C01     mov     r1,r0                                 
0805866A 2915     cmp     r1,15h                                
0805866C D001     beq     8058672h                              
0805866E 293D     cmp     r1,3Dh                                
08058670 D10C     bne     805868Ch                              
08058672 4905     ldr     r1,=300003Eh                          
08058674 2001     mov     r0,1h                                 
08058676 8008     strh    r0,[r1]                               
08058678 E03C     b       80586F4h                              
0805867A 0000     lsl     r0,r0,0h                              
0805867C 5520     strb    r0,[r4,r4]                            
0805867E 0300     lsl     r0,r0,0Ch                             
08058680 0100     lsl     r0,r0,4h                              
08058682 0300     lsl     r0,r0,0Ch                             
08058684 13D4     asr     r4,r2,0Fh                             
08058686 0300     lsl     r0,r0,0Ch                             
08058688 003E     lsl     r6,r7,0h                              
0805868A 0300     lsl     r0,r0,0Ch                             
0805868C 381A     sub     r0,1Ah                                
0805868E 0600     lsl     r0,r0,18h                             
08058690 0E00     lsr     r0,r0,18h                             
08058692 2801     cmp     r0,1h                                 
08058694 D806     bhi     80586A4h                              
08058696 4902     ldr     r1,=300003Eh                          
08058698 2008     mov     r0,8h                                 
0805869A 8008     strh    r0,[r1]                               
0805869C E02A     b       80586F4h                              
0805869E 0000     lsl     r0,r0,0h                              
080586A0 003E     lsl     r6,r7,0h                              
080586A2 0300     lsl     r0,r0,0Ch                             
080586A4 291C     cmp     r1,1Ch                                
080586A6 D105     bne     80586B4h                              
080586A8 4901     ldr     r1,=300003Eh                          
080586AA 2014     mov     r0,14h                                
080586AC 8008     strh    r0,[r1]                               
080586AE E021     b       80586F4h                              
080586B0 003E     lsl     r6,r7,0h                              
080586B2 0300     lsl     r0,r0,0Ch                             
080586B4 4903     ldr     r1,=300003Eh                          
080586B6 8808     ldrh    r0,[r1]                               
080586B8 2800     cmp     r0,0h                                 
080586BA D01B     beq     80586F4h                              
080586BC 3801     sub     r0,1h                                 
080586BE 8008     strh    r0,[r1]                               
080586C0 E018     b       80586F4h                              
080586C2 0000     lsl     r0,r0,0h                              
080586C4 003E     lsl     r6,r7,0h                              
080586C6 0300     lsl     r0,r0,0Ch                             
080586C8 2901     cmp     r1,1h                                 
080586CA D105     bne     80586D8h                              
080586CC 88A1     ldrh    r1,[r4,4h]                            
080586CE 0409     lsl     r1,r1,10h                             
080586D0 8860     ldrh    r0,[r4,2h]                            
080586D2 4308     orr     r0,r1                                 
080586D4 9000     str     r0,[sp]                               
080586D6 E00D     b       80586F4h                              
080586D8 4A19     ldr     r2,=30013D4h                          
080586DA 8A51     ldrh    r1,[r2,12h]                           
080586DC 8860     ldrh    r0,[r4,2h]                            
080586DE 1809     add     r1,r1,r0                              
080586E0 88A0     ldrh    r0,[r4,4h]                            
080586E2 3001     add     r0,1h                                 
080586E4 8A92     ldrh    r2,[r2,14h]                           
080586E6 1880     add     r0,r0,r2                              
080586E8 03C0     lsl     r0,r0,0Fh                             
080586EA 0C00     lsr     r0,r0,10h                             
080586EC 0400     lsl     r0,r0,10h                             
080586EE 0849     lsr     r1,r1,1h                              
080586F0 4301     orr     r1,r0                                 
080586F2 9100     str     r1,[sp]                               
080586F4 9A00     ldr     r2,[sp]                               
080586F6 0C11     lsr     r1,r2,10h                             
080586F8 2080     mov     r0,80h                                
080586FA 0200     lsl     r0,r0,8h                              
080586FC 4008     and     r0,r1                                 
080586FE 2800     cmp     r0,0h                                 
08058700 D002     beq     8058708h                              
08058702 4810     ldr     r0,=0FFFFh                            
08058704 4002     and     r2,r0                                 
08058706 9200     str     r2,[sp]                               
08058708 4B0F     ldr     r3,=3005714h                          
0805870A 4A10     ldr     r2,=8345988h                          
0805870C 6810     ldr     r0,[r2]                               
0805870E 6851     ldr     r1,[r2,4h]                            
08058710 6018     str     r0,[r3]                               
08058712 6059     str     r1,[r3,4h]                            
08058714 7820     ldrb    r0,[r4]                               
08058716 1C1C     mov     r4,r3                                 
08058718 2800     cmp     r0,0h                                 
0805871A D142     bne     80587A2h                              
0805871C 480C     ldr     r0,=300003Eh                          
0805871E 8800     ldrh    r0,[r0]                               
08058720 2800     cmp     r0,0h                                 
08058722 D13A     bne     805879Ah                              
08058724 4A06     ldr     r2,=30013D4h                          
08058726 8A51     ldrh    r1,[r2,12h]                           
08058728 480A     ldr     r0,=3001600h                          
0805872A 8800     ldrh    r0,[r0]                               
0805872C 1A09     sub     r1,r1,r0                              
0805872E 2900     cmp     r1,0h                                 
08058730 DD12     ble     8058758h                              
08058732 2502     mov     r5,2h                                 
08058734 5F58     ldsh    r0,[r3,r5]                            
08058736 4281     cmp     r1,r0                                 
08058738 DB16     blt     8058768h                              
0805873A 1D08     add     r0,r1,4                               
0805873C 8058     strh    r0,[r3,2h]                            
0805873E E013     b       8058768h                              
08058740 13D4     asr     r4,r2,0Fh                             
08058742 0300     lsl     r0,r0,0Ch                             
08058744 FFFF     bl      lr+0FFEh                              
08058746 0000     lsl     r0,r0,0h                              
08058748 5714     ldsb    r4,[r2,r4]                            
0805874A 0300     lsl     r0,r0,0Ch                             
0805874C 5988     ldr     r0,[r1,r6]                            
0805874E 0834     lsr     r4,r6,20h                             
08058750 003E     lsl     r6,r7,0h                              
08058752 0300     lsl     r0,r0,0Ch                             
08058754 1600     asr     r0,r0,18h                             
08058756 0300     lsl     r0,r0,0Ch                             
08058758 2900     cmp     r1,0h                                 
0805875A DA05     bge     8058768h                              
0805875C 2500     mov     r5,0h                                 
0805875E 5F58     ldsh    r0,[r3,r5]                            
08058760 4281     cmp     r1,r0                                 
08058762 DC01     bgt     8058768h                              
08058764 1F08     sub     r0,r1,4                               
08058766 8018     strh    r0,[r3]                               
08058768 8A90     ldrh    r0,[r2,14h]                           
0805876A 4906     ldr     r1,=3001602h                          
0805876C 8809     ldrh    r1,[r1]                               
0805876E 1A41     sub     r1,r0,r1                              
08058770 2900     cmp     r1,0h                                 
08058772 DD09     ble     8058788h                              
08058774 2206     mov     r2,6h                                 
08058776 5EA0     ldsh    r0,[r4,r2]                            
08058778 4281     cmp     r1,r0                                 
0805877A DB12     blt     80587A2h                              
0805877C 1D08     add     r0,r1,4                               
0805877E 80E0     strh    r0,[r4,6h]                            
08058780 E00F     b       80587A2h                              
08058782 0000     lsl     r0,r0,0h                              
08058784 1602     asr     r2,r0,18h                             
08058786 0300     lsl     r0,r0,0Ch                             
08058788 2900     cmp     r1,0h                                 
0805878A DA0A     bge     80587A2h                              
0805878C 2504     mov     r5,4h                                 
0805878E 5F60     ldsh    r0,[r4,r5]                            
08058790 4281     cmp     r1,r0                                 
08058792 DC06     bgt     80587A2h                              
08058794 1F08     sub     r0,r1,4                               
08058796 80A0     strh    r0,[r4,4h]                            
08058798 E003     b       80587A2h                              
0805879A 6890     ldr     r0,[r2,8h]                            
0805879C 68D1     ldr     r1,[r2,0Ch]                           
0805879E 6018     str     r0,[r3]                               
080587A0 6059     str     r1,[r3,4h]                            
080587A2 4808     ldr     r0,=300003Dh                          
080587A4 7800     ldrb    r0,[r0]                               
080587A6 2800     cmp     r0,0h                                 
080587A8 D139     bne     805881Eh                              
080587AA 4807     ldr     r0,=300007Fh                          
080587AC 7800     ldrb    r0,[r0]                               
080587AE 2800     cmp     r0,0h                                 
080587B0 D00E     beq     80587D0h                              
080587B2 4806     ldr     r0,=3000C72h                          
080587B4 2100     mov     r1,0h                                 
080587B6 5E40     ldsh    r0,[r0,r1]                            
080587B8 2806     cmp     r0,6h                                 
080587BA D109     bne     80587D0h                              
080587BC 4668     mov     r0,r13                                
080587BE F000FC23 bl      8059008h                              
080587C2 E012     b       80587EAh                              
080587C4 003D     lsl     r5,r7,0h                              
080587C6 0300     lsl     r0,r0,0Ch                             
080587C8 007F     lsl     r7,r7,1h                              
080587CA 0300     lsl     r0,r0,0Ch                             
080587CC 0C72     lsr     r2,r6,11h                             
080587CE 0300     lsl     r0,r0,0Ch                             
080587D0 4803     ldr     r0,=30000BCh                          
080587D2 7940     ldrb    r0,[r0,5h]                            
080587D4 2803     cmp     r0,3h                                 
080587D6 D105     bne     80587E4h                              
080587D8 4668     mov     r0,r13                                
080587DA F7FFFD73 bl      80582C4h                              
080587DE E004     b       80587EAh                              
080587E0 00BC     lsl     r4,r7,2h                              
080587E2 0300     lsl     r0,r0,0Ch                             
080587E4 4668     mov     r0,r13                                
080587E6 F000F825 bl      8058834h                              
080587EA 4668     mov     r0,r13                                
080587EC F000FBA8 bl      8058F40h                              
080587F0 480D     ldr     r0,=30054F4h                          
080587F2 7800     ldrb    r0,[r0]                               
080587F4 2800     cmp     r0,0h                                 
080587F6 D007     beq     8058808h                              
080587F8 480C     ldr     r0,=30000BCh                          
080587FA 7841     ldrb    r1,[r0,1h]                            
080587FC 2040     mov     r0,40h                                
080587FE 4008     and     r0,r1                                 
08058800 2800     cmp     r0,0h                                 
08058802 D001     beq     8058808h                              
08058804 F000FA5C bl      8058CC0h                              
08058808 4668     mov     r0,r13                                
0805880A F000F905 bl      8058A18h                              
0805880E F000FAC7 bl      8058DA0h                              
08058812 4807     ldr     r0,=30054ECh                          
08058814 7800     ldrb    r0,[r0]                               
08058816 2800     cmp     r0,0h                                 
08058818 D001     beq     805881Eh                              
0805881A F000FB7B bl      8058F14h                              
0805881E B001     add     sp,4h                                 
08058820 BC30     pop     r4,r5                                 
08058822 BC01     pop     r0                                    
08058824 4700     bx      r0                                    
08058826 0000     lsl     r0,r0,0h                              
08058828 54F4     strb    r4,[r6,r3]                            
0805882A 0300     lsl     r0,r0,0Ch                             
0805882C 00BC     lsl     r4,r7,2h                              
0805882E 0300     lsl     r0,r0,0Ch                             
08058830 54EC     strb    r4,[r5,r3]                            
08058832 0300     lsl     r0,r0,0Ch                             
08058834 B510     push    r4,r14                                
08058836 1C04     mov     r4,r0                                 
08058838 F000F886 bl      8058948h                              
0805883C 1C20     mov     r0,r4                                 
0805883E F000F803 bl      8058848h                              
08058842 BC10     pop     r4                                    
08058844 BC01     pop     r0                                    
08058846 4700     bx      r0                                    
08058848 B510     push    r4,r14                                
0805884A 1C04     mov     r4,r0                                 
0805884C 4804     ldr     r0,=3000100h                          
0805884E 7800     ldrb    r0,[r0]                               
08058850 2800     cmp     r0,0h                                 
08058852 D10B     bne     805886Ch                              
08058854 4A03     ldr     r2,=30013D4h                          
08058856 8A91     ldrh    r1,[r2,14h]                           
08058858 4803     ldr     r0,=3001602h                          
0805885A 8800     ldrh    r0,[r0]                               
0805885C 1A09     sub     r1,r1,r0                              
0805885E E007     b       8058870h                              
08058860 0100     lsl     r0,r0,4h                              
08058862 0300     lsl     r0,r0,0Ch                             
08058864 13D4     asr     r4,r2,0Fh                             
08058866 0300     lsl     r0,r0,0Ch                             
08058868 1602     asr     r2,r0,18h                             
0805886A 0300     lsl     r0,r0,0Ch                             
0805886C 2100     mov     r1,0h                                 
0805886E 4A0A     ldr     r2,=30013D4h                          
08058870 7812     ldrb    r2,[r2]                               
08058872 1C10     mov     r0,r2                                 
08058874 3811     sub     r0,11h                                
08058876 0600     lsl     r0,r0,18h                             
08058878 0E00     lsr     r0,r0,18h                             
0805887A 2801     cmp     r0,1h                                 
0805887C D901     bls     8058882h                              
0805887E 2A1C     cmp     r2,1Ch                                
08058880 D110     bne     80588A4h                              
08058882 4906     ldr     r1,=3005515h                          
08058884 2000     mov     r0,0h                                 
08058886 5608     ldsb    r0,[r1,r0]                            
08058888 3004     add     r0,4h                                 
0805888A 1C0B     mov     r3,r1                                 
0805888C 281F     cmp     r0,1Fh                                
0805888E DC07     bgt     80588A0h                              
08058890 7818     ldrb    r0,[r3]                               
08058892 3002     add     r0,2h                                 
08058894 E017     b       80588C6h                              
08058896 0000     lsl     r0,r0,0h                              
08058898 13D4     asr     r4,r2,0Fh                             
0805889A 0300     lsl     r0,r0,0Ch                             
0805889C 5515     strb    r5,[r2,r4]                            
0805889E 0300     lsl     r0,r0,0Ch                             
080588A0 2020     mov     r0,20h                                
080588A2 E010     b       80588C6h                              
080588A4 4B06     ldr     r3,=3005515h                          
080588A6 2900     cmp     r1,0h                                 
080588A8 DA0E     bge     80588C8h                              
080588AA 2000     mov     r0,0h                                 
080588AC 5618     ldsb    r0,[r3,r0]                            
080588AE 1840     add     r0,r0,r1                              
080588B0 2800     cmp     r0,0h                                 
080588B2 DD07     ble     80588C4h                              
080588B4 0FC8     lsr     r0,r1,1Fh                             
080588B6 1808     add     r0,r1,r0                              
080588B8 1040     asr     r0,r0,1h                              
080588BA 7819     ldrb    r1,[r3]                               
080588BC 1840     add     r0,r0,r1                              
080588BE E002     b       80588C6h                              
080588C0 5515     strb    r5,[r2,r4]                            
080588C2 0300     lsl     r0,r0,0Ch                             
080588C4 2000     mov     r0,0h                                 
080588C6 7018     strb    r0,[r3]                               
080588C8 8862     ldrh    r2,[r4,2h]                            
080588CA 2100     mov     r1,0h                                 
080588CC 5659     ldsb    r1,[r3,r1]                            
080588CE 2080     mov     r0,80h                                
080588D0 0080     lsl     r0,r0,2h                              
080588D2 1A40     sub     r0,r0,r1                              
080588D4 4282     cmp     r2,r0                                 
080588D6 DA01     bge     80588DCh                              
080588D8 2380     mov     r3,80h                                
080588DA E010     b       80588FEh                              
080588DC 4804     ldr     r0,=300009Ch                          
080588DE 89C0     ldrh    r0,[r0,0Eh]                           
080588E0 0180     lsl     r0,r0,6h                              
080588E2 4B04     ldr     r3,=0FFFFFE80h                        
080588E4 18C0     add     r0,r0,r3                              
080588E6 1A40     sub     r0,r0,r1                              
080588E8 4282     cmp     r2,r0                                 
080588EA DD05     ble     80588F8h                              
080588EC 18C0     add     r0,r0,r3                              
080588EE E005     b       80588FCh                              
080588F0 009C     lsl     r4,r3,2h                              
080588F2 0300     lsl     r0,r0,0Ch                             
080588F4 FE80     bl      lr+0D00h                              
080588F6 FFFF     bl      lr+0FFEh                              
080588F8 4C07     ldr     r4,=0FFFFFE80h                        
080588FA 1910     add     r0,r2,r4                              
080588FC 1843     add     r3,r0,r1                              
080588FE 4A07     ldr     r2,=3000144h                          
08058900 8053     strh    r3,[r2,2h]                            
08058902 4907     ldr     r1,=30013BAh                          
08058904 8808     ldrh    r0,[r1]                               
08058906 1A1B     sub     r3,r3,r0                              
08058908 2B00     cmp     r3,0h                                 
0805890A DD0D     ble     8058928h                              
0805890C 4805     ldr     r0,=3005714h                          
0805890E 2406     mov     r4,6h                                 
08058910 5F00     ldsh    r0,[r0,r4]                            
08058912 4298     cmp     r0,r3                                 
08058914 DA0E     bge     8058934h                              
08058916 E00C     b       8058932h                              
08058918 FE80     bl      lr+0D00h                              
0805891A FFFF     bl      lr+0FFEh                              
0805891C 0144     lsl     r4,r0,5h                              
0805891E 0300     lsl     r0,r0,0Ch                             
08058920 13BA     asr     r2,r7,0Eh                             
08058922 0300     lsl     r0,r0,0Ch                             
08058924 5714     ldsb    r4,[r2,r4]                            
08058926 0300     lsl     r0,r0,0Ch                             
08058928 4806     ldr     r0,=3005714h                          
0805892A 2404     mov     r4,4h                                 
0805892C 5F00     ldsh    r0,[r0,r4]                            
0805892E 4283     cmp     r3,r0                                 
08058930 DA00     bge     8058934h                              
08058932 1C03     mov     r3,r0                                 
08058934 7153     strb    r3,[r2,5h]                            
08058936 8808     ldrh    r0,[r1]                               
08058938 18C0     add     r0,r0,r3                              
0805893A 8008     strh    r0,[r1]                               
0805893C BC10     pop     r4                                    
0805893E BC01     pop     r0                                    
08058940 4700     bx      r0                                    
08058942 0000     lsl     r0,r0,0h                              
08058944 5714     ldsb    r4,[r2,r4]                            
08058946 0300     lsl     r0,r0,0Ch                             
08058948 B510     push    r4,r14                                
0805894A 1C02     mov     r2,r0                                 
0805894C 2300     mov     r3,0h                                 
0805894E 4808     ldr     r0,=3000100h                          
08058950 7800     ldrb    r0,[r0]                               
08058952 2800     cmp     r0,0h                                 
08058954 D118     bne     8058988h                              
08058956 4807     ldr     r0,=3001588h                          
08058958 3056     add     r0,56h                                
0805895A 7800     ldrb    r0,[r0]                               
0805895C 2803     cmp     r0,3h                                 
0805895E D113     bne     8058988h                              
08058960 4805     ldr     r0,=30013D4h                          
08058962 89C1     ldrh    r1,[r0,0Eh]                           
08058964 2010     mov     r0,10h                                
08058966 4008     and     r0,r1                                 
08058968 2800     cmp     r0,0h                                 
0805896A D007     beq     805897Ch                              
0805896C 2380     mov     r3,80h                                
0805896E E00B     b       8058988h                              
08058970 0100     lsl     r0,r0,4h                              
08058972 0300     lsl     r0,r0,0Ch                             
08058974 1588     asr     r0,r1,16h                             
08058976 0300     lsl     r0,r0,0Ch                             
08058978 13D4     asr     r4,r2,0Fh                             
0805897A 0300     lsl     r0,r0,0Ch                             
0805897C 2020     mov     r0,20h                                
0805897E 4008     and     r0,r1                                 
08058980 2800     cmp     r0,0h                                 
08058982 D001     beq     8058988h                              
08058984 2380     mov     r3,80h                                
08058986 425B     neg     r3,r3                                 
08058988 4805     ldr     r0,=3005516h                          
0805898A 8003     strh    r3,[r0]                               
0805898C 8812     ldrh    r2,[r2]                               
0805898E 2300     mov     r3,0h                                 
08058990 5EC1     ldsh    r1,[r0,r3]                            
08058992 2098     mov     r0,98h                                
08058994 0080     lsl     r0,r0,2h                              
08058996 1A40     sub     r0,r0,r1                              
08058998 4282     cmp     r2,r0                                 
0805899A DA03     bge     80589A4h                              
0805899C 2380     mov     r3,80h                                
0805899E E016     b       80589CEh                              
080589A0 5516     strb    r6,[r2,r4]                            
080589A2 0300     lsl     r0,r0,0Ch                             
080589A4 4805     ldr     r0,=300009Ch                          
080589A6 8980     ldrh    r0,[r0,0Ch]                           
080589A8 0180     lsl     r0,r0,6h                              
080589AA 4C05     ldr     r4,=0FFFFFDA0h                        
080589AC 1900     add     r0,r0,r4                              
080589AE 1A40     sub     r0,r0,r1                              
080589B0 4282     cmp     r2,r0                                 
080589B2 DD09     ble     80589C8h                              
080589B4 4A03     ldr     r2,=0FFFFFE20h                        
080589B6 1880     add     r0,r0,r2                              
080589B8 E008     b       80589CCh                              
080589BA 0000     lsl     r0,r0,0h                              
080589BC 009C     lsl     r4,r3,2h                              
080589BE 0300     lsl     r0,r0,0Ch                             
080589C0 FDA0     bl      lr+0B40h                              
080589C2 FFFF     bl      lr+0FFEh                              
080589C4 FE20     bl      lr+0C40h                              
080589C6 FFFF     bl      lr+0FFEh                              
080589C8 4B07     ldr     r3,=0FFFFFE20h                        
080589CA 18D0     add     r0,r2,r3                              
080589CC 1843     add     r3,r0,r1                              
080589CE 4A07     ldr     r2,=3000144h                          
080589D0 8013     strh    r3,[r2]                               
080589D2 4907     ldr     r1,=30013B8h                          
080589D4 8808     ldrh    r0,[r1]                               
080589D6 1A1B     sub     r3,r3,r0                              
080589D8 2B00     cmp     r3,0h                                 
080589DA DD0D     ble     80589F8h                              
080589DC 4805     ldr     r0,=3005714h                          
080589DE 2402     mov     r4,2h                                 
080589E0 5F00     ldsh    r0,[r0,r4]                            
080589E2 4298     cmp     r0,r3                                 
080589E4 DA0E     bge     8058A04h                              
080589E6 E00C     b       8058A02h                              
080589E8 FE20     bl      lr+0C40h                              
080589EA FFFF     bl      lr+0FFEh                              
080589EC 0144     lsl     r4,r0,5h                              
080589EE 0300     lsl     r0,r0,0Ch                             
080589F0 13B8     asr     r0,r7,0Eh                             
080589F2 0300     lsl     r0,r0,0Ch                             
080589F4 5714     ldsb    r4,[r2,r4]                            
080589F6 0300     lsl     r0,r0,0Ch                             
080589F8 4806     ldr     r0,=3005714h                          
080589FA 2400     mov     r4,0h                                 
080589FC 5F00     ldsh    r0,[r0,r4]                            
080589FE 4283     cmp     r3,r0                                 
08058A00 DA00     bge     8058A04h                              
08058A02 1C03     mov     r3,r0                                 
08058A04 7113     strb    r3,[r2,4h]                            
08058A06 8808     ldrh    r0,[r1]                               
08058A08 18C0     add     r0,r0,r3                              
08058A0A 8008     strh    r0,[r1]                               
08058A0C BC10     pop     r4                                    
08058A0E BC01     pop     r0                                    
08058A10 4700     bx      r0                                    
08058A12 0000     lsl     r0,r0,0h                              
08058A14 5714     ldsb    r4,[r2,r4]                            
08058A16 0300     lsl     r0,r0,0Ch                             
08058A18 B5F0     push    r4-r7,r14                             
08058A1A 1C04     mov     r4,r0                                 
08058A1C 2700     mov     r7,0h                                 
08058A1E 490B     ldr     r1,=30000BCh                          
08058A20 784A     ldrb    r2,[r1,1h]                            
08058A22 2010     mov     r0,10h                                
08058A24 4010     and     r0,r2                                 
08058A26 0600     lsl     r0,r0,18h                             
08058A28 0E03     lsr     r3,r0,18h                             
08058A2A 468C     mov     r12,r1                                
08058A2C 2B00     cmp     r3,0h                                 
08058A2E D019     beq     8058A64h                              
08058A30 2A11     cmp     r2,11h                                
08058A32 D000     beq     8058A36h                              
08058A34 E10B     b       8058C4Eh                              
08058A36 4906     ldr     r1,=30013B4h                          
08058A38 4806     ldr     r0,=30013B8h                          
08058A3A 8800     ldrh    r0,[r0]                               
08058A3C 0840     lsr     r0,r0,1h                              
08058A3E 8008     strh    r0,[r1]                               
08058A40 4905     ldr     r1,=30013B6h                          
08058A42 4806     ldr     r0,=30013BAh                          
08058A44 8800     ldrh    r0,[r0]                               
08058A46 8008     strh    r0,[r1]                               
08058A48 4E05     ldr     r6,=300006Eh                          
08058A4A E10B     b       8058C64h                              
08058A4C 00BC     lsl     r4,r7,2h                              
08058A4E 0300     lsl     r0,r0,0Ch                             
08058A50 13B4     asr     r4,r6,0Eh                             
08058A52 0300     lsl     r0,r0,0Ch                             
08058A54 13B8     asr     r0,r7,0Eh                             
08058A56 0300     lsl     r0,r0,0Ch                             
08058A58 13B6     asr     r6,r6,0Eh                             
08058A5A 0300     lsl     r0,r0,0Ch                             
08058A5C 13BA     asr     r2,r7,0Eh                             
08058A5E 0300     lsl     r0,r0,0Ch                             
08058A60 006E     lsl     r6,r5,1h                              
08058A62 0300     lsl     r0,r0,0Ch                             
08058A64 4660     mov     r0,r12                                
08058A66 8A41     ldrh    r1,[r0,12h]                           
08058A68 4811     ldr     r0,=0FFFFh                            
08058A6A 4281     cmp     r1,r0                                 
08058A6C D100     bne     8058A70h                              
08058A6E E087     b       8058B80h                              
08058A70 4910     ldr     r1,=30013B4h                          
08058A72 4811     ldr     r0,=30013B8h                          
08058A74 8800     ldrh    r0,[r0]                               
08058A76 8008     strh    r0,[r1]                               
08058A78 4A10     ldr     r2,=300006Eh                          
08058A7A 2100     mov     r1,0h                                 
08058A7C 5E50     ldsh    r0,[r2,r1]                            
08058A7E 4663     mov     r3,r12                                
08058A80 8A5B     ldrh    r3,[r3,12h]                           
08058A82 18C0     add     r0,r0,r3                              
08058A84 490E     ldr     r1,=30013BAh                          
08058A86 8809     ldrh    r1,[r1]                               
08058A88 1A40     sub     r0,r0,r1                              
08058A8A 1085     asr     r5,r0,2h                              
08058A8C 480D     ldr     r0,=300551Ch                          
08058A8E 7801     ldrb    r1,[r0]                               
08058A90 1C16     mov     r6,r2                                 
08058A92 1C02     mov     r2,r0                                 
08058A94 2901     cmp     r1,1h                                 
08058A96 D12F     bne     8058AF8h                              
08058A98 480B     ldr     r0,=3001606h                          
08058A9A 8800     ldrh    r0,[r0]                               
08058A9C 4B0B     ldr     r3,=875FD54h                          
08058A9E 2800     cmp     r0,0h                                 
08058AA0 D124     bne     8058AECh                              
08058AA2 7891     ldrb    r1,[r2,2h]                            
08058AA4 2002     mov     r0,2h                                 
08058AA6 5610     ldsb    r0,[r2,r0]                            
08058AA8 2800     cmp     r0,0h                                 
08058AAA D011     beq     8058AD0h                              
08058AAC 1E48     sub     r0,r1,1                               
08058AAE E01C     b       8058AEAh                              
08058AB0 FFFF     bl      lr+0FFEh                              
08058AB2 0000     lsl     r0,r0,0h                              
08058AB4 13B4     asr     r4,r6,0Eh                             
08058AB6 0300     lsl     r0,r0,0Ch                             
08058AB8 13B8     asr     r0,r7,0Eh                             
08058ABA 0300     lsl     r0,r0,0Ch                             
08058ABC 006E     lsl     r6,r5,1h                              
08058ABE 0300     lsl     r0,r0,0Ch                             
08058AC0 13BA     asr     r2,r7,0Eh                             
08058AC2 0300     lsl     r0,r0,0Ch                             
08058AC4 551C     strb    r4,[r3,r4]                            
08058AC6 0300     lsl     r0,r0,0Ch                             
08058AC8 1606     asr     r6,r0,18h                             
08058ACA 0300     lsl     r0,r0,0Ch                             
08058ACC FD54     bl      lr+0AA8h                              
08058ACE 0875     lsr     r5,r6,1h                              
08058AD0 7850     ldrb    r0,[r2,1h]                            
08058AD2 3001     add     r0,1h                                 
08058AD4 7050     strb    r0,[r2,1h]                            
08058AD6 0600     lsl     r0,r0,18h                             
08058AD8 0E00     lsr     r0,r0,18h                             
08058ADA 2807     cmp     r0,7h                                 
08058ADC D900     bls     8058AE0h                              
08058ADE 7057     strb    r7,[r2,1h]                            
08058AE0 7850     ldrb    r0,[r2,1h]                            
08058AE2 0040     lsl     r0,r0,1h                              
08058AE4 1C59     add     r1,r3,1                               
08058AE6 1840     add     r0,r0,r1                              
08058AE8 7800     ldrb    r0,[r0]                               
08058AEA 7090     strb    r0,[r2,2h]                            
08058AEC 7850     ldrb    r0,[r2,1h]                            
08058AEE 0040     lsl     r0,r0,1h                              
08058AF0 18C0     add     r0,r0,r3                              
08058AF2 2100     mov     r1,0h                                 
08058AF4 5641     ldsb    r1,[r0,r1]                            
08058AF6 E000     b       8058AFAh                              
08058AF8 2100     mov     r1,0h                                 
08058AFA 1C08     mov     r0,r1                                 
08058AFC 3808     sub     r0,8h                                 
08058AFE 0080     lsl     r0,r0,2h                              
08058B00 70D0     strb    r0,[r2,3h]                            
08058B02 186D     add     r5,r5,r1                              
08058B04 2D00     cmp     r5,0h                                 
08058B06 DA19     bge     8058B3Ch                              
08058B08 4A09     ldr     r2,=3000088h                          
08058B0A 8A53     ldrh    r3,[r2,12h]                           
08058B0C 24C0     mov     r4,0C0h                               
08058B0E 0224     lsl     r4,r4,8h                              
08058B10 1C20     mov     r0,r4                                 
08058B12 4018     and     r0,r3                                 
08058B14 2800     cmp     r0,0h                                 
08058B16 D024     beq     8058B62h                              
08058B18 8951     ldrh    r1,[r2,0Ah]                           
08058B1A 1C20     mov     r0,r4                                 
08058B1C 4008     and     r0,r1                                 
08058B1E 2800     cmp     r0,0h                                 
08058B20 D01F     beq     8058B62h                              
08058B22 4804     ldr     r0,=3FFFh                             
08058B24 4018     and     r0,r3                                 
08058B26 8250     strh    r0,[r2,12h]                           
08058B28 4903     ldr     r1,=4000008h                          
08058B2A 8008     strh    r0,[r1]                               
08058B2C E019     b       8058B62h                              
08058B2E 0000     lsl     r0,r0,0h                              
08058B30 0088     lsl     r0,r1,2h                              
08058B32 0300     lsl     r0,r0,0Ch                             
08058B34 3FFF     sub     r7,0FFh                               
08058B36 0000     lsl     r0,r0,0h                              
08058B38 0008     lsl     r0,r1,0h                              
08058B3A 0400     lsl     r0,r0,10h                             
08058B3C 4A0D     ldr     r2,=3000088h                          
08058B3E 8A53     ldrh    r3,[r2,12h]                           
08058B40 21C0     mov     r1,0C0h                               
08058B42 0209     lsl     r1,r1,8h                              
08058B44 1C08     mov     r0,r1                                 
08058B46 4018     and     r0,r3                                 
08058B48 2800     cmp     r0,0h                                 
08058B4A D10A     bne     8058B62h                              
08058B4C 8950     ldrh    r0,[r2,0Ah]                           
08058B4E 4001     and     r1,r0                                 
08058B50 2900     cmp     r1,0h                                 
08058B52 D006     beq     8058B62h                              
08058B54 1C08     mov     r0,r1                                 
08058B56 4318     orr     r0,r3                                 
08058B58 8250     strh    r0,[r2,12h]                           
08058B5A 4A07     ldr     r2,=4000008h                          
08058B5C 8811     ldrh    r1,[r2]                               
08058B5E 4308     orr     r0,r1                                 
08058B60 8010     strh    r0,[r2]                               
08058B62 2080     mov     r0,80h                                
08058B64 0040     lsl     r0,r0,1h                              
08058B66 4285     cmp     r5,r0                                 
08058B68 DD00     ble     8058B6Ch                              
08058B6A 1C05     mov     r5,r0                                 
08058B6C 4903     ldr     r1,=30013B6h                          
08058B6E 4268     neg     r0,r5                                 
08058B70 0080     lsl     r0,r0,2h                              
08058B72 E076     b       8058C62h                              
08058B74 0088     lsl     r0,r1,2h                              
08058B76 0300     lsl     r0,r0,0Ch                             
08058B78 0008     lsl     r0,r1,0h                              
08058B7A 0400     lsl     r0,r0,10h                             
08058B7C 13B6     asr     r6,r6,0Eh                             
08058B7E 0300     lsl     r0,r0,0Ch                             
08058B80 2701     mov     r7,1h                                 
08058B82 4661     mov     r1,r12                                
08058B84 7848     ldrb    r0,[r1,1h]                            
08058B86 2843     cmp     r0,43h                                
08058B88 D012     beq     8058BB0h                              
08058B8A 2843     cmp     r0,43h                                
08058B8C DC02     bgt     8058B94h                              
08058B8E 2841     cmp     r0,41h                                
08058B90 D005     beq     8058B9Eh                              
08058B92 E05B     b       8058C4Ch                              
08058B94 2844     cmp     r0,44h                                
08058B96 D021     beq     8058BDCh                              
08058B98 2845     cmp     r0,45h                                
08058B9A D009     beq     8058BB0h                              
08058B9C E056     b       8058C4Ch                              
08058B9E 4802     ldr     r0,=30013B4h                          
08058BA0 8003     strh    r3,[r0]                               
08058BA2 4802     ldr     r0,=30013B6h                          
08058BA4 8003     strh    r3,[r0]                               
08058BA6 E052     b       8058C4Eh                              
08058BA8 13B4     asr     r4,r6,0Eh                             
08058BAA 0300     lsl     r0,r0,0Ch                             
08058BAC 13B6     asr     r6,r6,0Eh                             
08058BAE 0300     lsl     r0,r0,0Ch                             
08058BB0 4A06     ldr     r2,=30013B4h                          
08058BB2 4807     ldr     r0,=30013B8h                          
08058BB4 8800     ldrh    r0,[r0]                               
08058BB6 8821     ldrh    r1,[r4]                               
08058BB8 1A40     sub     r0,r0,r1                              
08058BBA 8010     strh    r0,[r2]                               
08058BBC 4A05     ldr     r2,=30013B6h                          
08058BBE 4806     ldr     r0,=30013BAh                          
08058BC0 8800     ldrh    r0,[r0]                               
08058BC2 8861     ldrh    r1,[r4,2h]                            
08058BC4 1A40     sub     r0,r0,r1                              
08058BC6 3040     add     r0,40h                                
08058BC8 8010     strh    r0,[r2]                               
08058BCA E040     b       8058C4Eh                              
08058BCC 13B4     asr     r4,r6,0Eh                             
08058BCE 0300     lsl     r0,r0,0Ch                             
08058BD0 13B8     asr     r0,r7,0Eh                             
08058BD2 0300     lsl     r0,r0,0Ch                             
08058BD4 13B6     asr     r6,r6,0Eh                             
08058BD6 0300     lsl     r0,r0,0Ch                             
08058BD8 13BA     asr     r2,r7,0Eh                             
08058BDA 0300     lsl     r0,r0,0Ch                             
08058BDC 2500     mov     r5,0h                                 
08058BDE 4E16     ldr     r6,=30013B4h                          
08058BE0 4816     ldr     r0,=30013B8h                          
08058BE2 4B17     ldr     r3,=30000F8h                          
08058BE4 8801     ldrh    r1,[r0]                               
08058BE6 8818     ldrh    r0,[r3]                               
08058BE8 1A09     sub     r1,r1,r0                              
08058BEA 2280     mov     r2,80h                                
08058BEC 0112     lsl     r2,r2,4h                              
08058BEE 1888     add     r0,r1,r2                              
08058BF0 8030     strh    r0,[r6]                               
08058BF2 4C14     ldr     r4,=30013B6h                          
08058BF4 4814     ldr     r0,=30013BAh                          
08058BF6 8802     ldrh    r2,[r0]                               
08058BF8 8858     ldrh    r0,[r3,2h]                            
08058BFA 1A12     sub     r2,r2,r0                              
08058BFC 2388     mov     r3,88h                                
08058BFE 00DB     lsl     r3,r3,3h                              
08058C00 18D0     add     r0,r2,r3                              
08058C02 8020     strh    r0,[r4]                               
08058C04 20A0     mov     r0,0A0h                               
08058C06 00C0     lsl     r0,r0,3h                              
08058C08 1809     add     r1,r1,r0                              
08058C0A 0409     lsl     r1,r1,10h                             
08058C0C 20C0     mov     r0,0C0h                               
08058C0E 04C0     lsl     r0,r0,13h                             
08058C10 4281     cmp     r1,r0                                 
08058C12 D900     bls     8058C16h                              
08058C14 2501     mov     r5,1h                                 
08058C16 21D0     mov     r1,0D0h                               
08058C18 0089     lsl     r1,r1,2h                              
08058C1A 1850     add     r0,r2,r1                              
08058C1C 0400     lsl     r0,r0,10h                             
08058C1E 21C0     mov     r1,0C0h                               
08058C20 0489     lsl     r1,r1,12h                             
08058C22 4288     cmp     r0,r1                                 
08058C24 D900     bls     8058C28h                              
08058C26 2501     mov     r5,1h                                 
08058C28 2D00     cmp     r5,0h                                 
08058C2A D010     beq     8058C4Eh                              
08058C2C 2280     mov     r2,80h                                
08058C2E 0092     lsl     r2,r2,2h                              
08058C30 1C10     mov     r0,r2                                 
08058C32 8030     strh    r0,[r6]                               
08058C34 E00B     b       8058C4Eh                              
08058C36 0000     lsl     r0,r0,0h                              
08058C38 13B4     asr     r4,r6,0Eh                             
08058C3A 0300     lsl     r0,r0,0Ch                             
08058C3C 13B8     asr     r0,r7,0Eh                             
08058C3E 0300     lsl     r0,r0,0Ch                             
08058C40 00F8     lsl     r0,r7,3h                              
08058C42 0300     lsl     r0,r0,0Ch                             
08058C44 13B6     asr     r6,r6,0Eh                             
08058C46 0300     lsl     r0,r0,0Ch                             
08058C48 13BA     asr     r2,r7,0Eh                             
08058C4A 0300     lsl     r0,r0,0Ch                             
08058C4C 2700     mov     r7,0h                                 
08058C4E 4E0A     ldr     r6,=300006Eh                          
08058C50 2F00     cmp     r7,0h                                 
08058C52 D107     bne     8058C64h                              
08058C54 4909     ldr     r1,=30013B6h                          
08058C56 480A     ldr     r0,=30013BAh                          
08058C58 8800     ldrh    r0,[r0]                               
08058C5A 8008     strh    r0,[r1]                               
08058C5C 4909     ldr     r1,=30013B4h                          
08058C5E 480A     ldr     r0,=30013B8h                          
08058C60 8800     ldrh    r0,[r0]                               
08058C62 8008     strh    r0,[r1]                               
08058C64 4663     mov     r3,r12                                
08058C66 8A59     ldrh    r1,[r3,12h]                           
08058C68 4808     ldr     r0,=0FFFFh                            
08058C6A 4281     cmp     r1,r0                                 
08058C6C D112     bne     8058C94h                              
08058C6E 4908     ldr     r1,=300006Ch                          
08058C70 2000     mov     r0,0h                                 
08058C72 8008     strh    r0,[r1]                               
08058C74 8030     strh    r0,[r6]                               
08058C76 E01C     b       8058CB2h                              
08058C78 006E     lsl     r6,r5,1h                              
08058C7A 0300     lsl     r0,r0,0Ch                             
08058C7C 13B6     asr     r6,r6,0Eh                             
08058C7E 0300     lsl     r0,r0,0Ch                             
08058C80 13BA     asr     r2,r7,0Eh                             
08058C82 0300     lsl     r0,r0,0Ch                             
08058C84 13B4     asr     r4,r6,0Eh                             
08058C86 0300     lsl     r0,r0,0Ch                             
08058C88 13B8     asr     r0,r7,0Eh                             
08058C8A 0300     lsl     r0,r0,0Ch                             
08058C8C FFFF     bl      lr+0FFEh                              
08058C8E 0000     lsl     r0,r0,0h                              
08058C90 006C     lsl     r4,r5,1h                              
08058C92 0300     lsl     r0,r0,0Ch                             
08058C94 4808     ldr     r0,=300551Ch                          
08058C96 78C0     ldrb    r0,[r0,3h]                            
08058C98 0600     lsl     r0,r0,18h                             
08058C9A 1600     asr     r0,r0,18h                             
08058C9C 4661     mov     r1,r12                                
08058C9E 8A49     ldrh    r1,[r1,12h]                           
08058CA0 1840     add     r0,r0,r1                              
08058CA2 2200     mov     r2,0h                                 
08058CA4 5EB1     ldsh    r1,[r6,r2]                            
08058CA6 1845     add     r5,r0,r1                              
08058CA8 2D00     cmp     r5,0h                                 
08058CAA DA00     bge     8058CAEh                              
08058CAC 2500     mov     r5,0h                                 
08058CAE 4803     ldr     r0,=300006Ch                          
08058CB0 8005     strh    r5,[r0]                               
08058CB2 BCF0     pop     r4-r7                                 
08058CB4 BC01     pop     r0                                    
08058CB6 4700     bx      r0                                    
08058CB8 551C     strb    r4,[r3,r4]                            
08058CBA 0300     lsl     r0,r0,0Ch                             
08058CBC 006C     lsl     r4,r5,1h                              
08058CBE 0300     lsl     r0,r0,0Ch                             
08058CC0 B500     push    r14                                   
08058CC2 4804     ldr     r0,=30054F4h                          
08058CC4 7801     ldrb    r1,[r0]                               
08058CC6 1C02     mov     r2,r0                                 
08058CC8 2901     cmp     r1,1h                                 
08058CCA D105     bne     8058CD8h                              
08058CCC 7851     ldrb    r1,[r2,1h]                            
08058CCE 2007     mov     r0,7h                                 
08058CD0 E006     b       8058CE0h                              
08058CD2 0000     lsl     r0,r0,0h                              
08058CD4 54F4     strb    r4,[r6,r3]                            
08058CD6 0300     lsl     r0,r0,0Ch                             
08058CD8 2902     cmp     r1,2h                                 
08058CDA D108     bne     8058CEEh                              
08058CDC 7851     ldrb    r1,[r2,1h]                            
08058CDE 2003     mov     r0,3h                                 
08058CE0 4008     and     r0,r1                                 
08058CE2 2800     cmp     r0,0h                                 
08058CE4 D117     bne     8058D16h                              
08058CE6 8890     ldrh    r0,[r2,4h]                            
08058CE8 3001     add     r0,1h                                 
08058CEA 8090     strh    r0,[r2,4h]                            
08058CEC E013     b       8058D16h                              
08058CEE 2903     cmp     r1,3h                                 
08058CF0 D107     bne     8058D02h                              
08058CF2 7851     ldrb    r1,[r2,1h]                            
08058CF4 2007     mov     r0,7h                                 
08058CF6 4008     and     r0,r1                                 
08058CF8 2800     cmp     r0,0h                                 
08058CFA D10C     bne     8058D16h                              
08058CFC 88D0     ldrh    r0,[r2,6h]                            
08058CFE 3001     add     r0,1h                                 
08058D00 E008     b       8058D14h                              
08058D02 2904     cmp     r1,4h                                 
08058D04 D107     bne     8058D16h                              
08058D06 7851     ldrb    r1,[r2,1h]                            
08058D08 2007     mov     r0,7h                                 
08058D0A 4008     and     r0,r1                                 
08058D0C 2800     cmp     r0,0h                                 
08058D0E D102     bne     8058D16h                              
08058D10 88D0     ldrh    r0,[r2,6h]                            
08058D12 3801     sub     r0,1h                                 
08058D14 80D0     strh    r0,[r2,6h]                            
08058D16 7850     ldrb    r0,[r2,1h]                            
08058D18 3001     add     r0,1h                                 
08058D1A 7050     strb    r0,[r2,1h]                            
08058D1C BC01     pop     r0                                    
08058D1E 4700     bx      r0                                    
08058D20 B500     push    r14                                   
08058D22 2300     mov     r3,0h                                 
08058D24 2200     mov     r2,0h                                 
08058D26 4804     ldr     r0,=30000BCh                          
08058D28 7980     ldrb    r0,[r0,6h]                            
08058D2A 280A     cmp     r0,0Ah                                
08058D2C D833     bhi     8058D96h                              
08058D2E 0080     lsl     r0,r0,2h                              
08058D30 4902     ldr     r1,=8058D40h                          
08058D32 1840     add     r0,r0,r1                              
08058D34 6800     ldr     r0,[r0]                               
08058D36 4687     mov     r15,r0                                
08058D38 00BC     lsl     r4,r7,2h                              
08058D3A 0300     lsl     r0,r0,0Ch                             
08058D3C 8D40     ldrh    r0,[r0,2Ah]                           
08058D3E 0805     lsr     r5,r0,20h                             
08058D40 8D96     ldrh    r6,[r2,2Ch]                           
08058D42 0805     lsr     r5,r0,20h                             
08058D44 8D6C     ldrh    r4,[r5,2Ah]                           
08058D46 0805     lsr     r5,r0,20h                             
08058D48 8D70     ldrh    r0,[r6,2Ah]                           
08058D4A 0805     lsr     r5,r0,20h                             
08058D4C 8D76     ldrh    r6,[r6,2Ah]                           
08058D4E 0805     lsr     r5,r0,20h                             
08058D50 8D7C     ldrh    r4,[r7,2Ah]                           
08058D52 0805     lsr     r5,r0,20h                             
08058D54 8D82     ldrh    r2,[r0,2Ch]                           
08058D56 0805     lsr     r5,r0,20h                             
08058D58 8D88     ldrh    r0,[r1,2Ch]                           
08058D5A 0805     lsr     r5,r0,20h                             
08058D5C 8D92     ldrh    r2,[r2,2Ch]                           
08058D5E 0805     lsr     r5,r0,20h                             
08058D60 8D92     ldrh    r2,[r2,2Ch]                           
08058D62 0805     lsr     r5,r0,20h                             
08058D64 8D8E     ldrh    r6,[r1,2Ch]                           
08058D66 0805     lsr     r5,r0,20h                             
08058D68 8D88     ldrh    r0,[r1,2Ch]                           
08058D6A 0805     lsr     r5,r0,20h                             
08058D6C 2202     mov     r2,2h                                 
08058D6E E011     b       8058D94h                              
08058D70 2200     mov     r2,0h                                 
08058D72 2302     mov     r3,2h                                 
08058D74 E00F     b       8058D96h                              
08058D76 2202     mov     r2,2h                                 
08058D78 2302     mov     r3,2h                                 
08058D7A E00C     b       8058D96h                              
08058D7C 2201     mov     r2,1h                                 
08058D7E 2302     mov     r3,2h                                 
08058D80 E009     b       8058D96h                              
08058D82 2202     mov     r2,2h                                 
08058D84 2301     mov     r3,1h                                 
08058D86 E006     b       8058D96h                              
08058D88 2201     mov     r2,1h                                 
08058D8A 2301     mov     r3,1h                                 
08058D8C E003     b       8058D96h                              
08058D8E 2203     mov     r2,3h                                 
08058D90 E000     b       8058D94h                              
08058D92 2201     mov     r2,1h                                 
08058D94 2300     mov     r3,0h                                 
08058D96 0418     lsl     r0,r3,10h                             
08058D98 4310     orr     r0,r2                                 
08058D9A BC02     pop     r1                                    
08058D9C 4708     bx      r1                                    
08058D9E 0000     lsl     r0,r0,0h                              
08058DA0 B500     push    r14                                   
08058DA2 F7FFFFBD bl      8058D20h                              
08058DA6 1C03     mov     r3,r0                                 
08058DA8 20FF     mov     r0,0FFh                               
08058DAA 4018     and     r0,r3                                 
08058DAC 141B     asr     r3,r3,10h                             
08058DAE 2800     cmp     r0,0h                                 
08058DB0 D01E     beq     8058DF0h                              
08058DB2 2801     cmp     r0,1h                                 
08058DB4 D108     bne     8058DC8h                              
08058DB6 4902     ldr     r1,=30013C0h                          
08058DB8 4802     ldr     r0,=30013B8h                          
08058DBA 8800     ldrh    r0,[r0]                               
08058DBC 3880     sub     r0,80h                                
08058DBE E016     b       8058DEEh                              
08058DC0 13C0     asr     r0,r0,0Fh                             
08058DC2 0300     lsl     r0,r0,0Ch                             
08058DC4 13B8     asr     r0,r7,0Eh                             
08058DC6 0300     lsl     r0,r0,0Ch                             
08058DC8 2802     cmp     r0,2h                                 
08058DCA D109     bne     8058DE0h                              
08058DCC 4902     ldr     r1,=30013C0h                          
08058DCE 4803     ldr     r0,=30013B8h                          
08058DD0 8800     ldrh    r0,[r0]                               
08058DD2 3880     sub     r0,80h                                
08058DD4 1040     asr     r0,r0,1h                              
08058DD6 E00A     b       8058DEEh                              
08058DD8 13C0     asr     r0,r0,0Fh                             
08058DDA 0300     lsl     r0,r0,0Ch                             
08058DDC 13B8     asr     r0,r7,0Eh                             
08058DDE 0300     lsl     r0,r0,0Ch                             
08058DE0 2803     cmp     r0,3h                                 
08058DE2 D105     bne     8058DF0h                              
08058DE4 490E     ldr     r1,=30013C0h                          
08058DE6 480F     ldr     r0,=30013B8h                          
08058DE8 8800     ldrh    r0,[r0]                               
08058DEA 3880     sub     r0,80h                                
08058DEC 1080     asr     r0,r0,2h                              
08058DEE 8008     strh    r0,[r1]                               
08058DF0 490D     ldr     r1,=30000BCh                          
08058DF2 7E88     ldrb    r0,[r1,1Ah]                           
08058DF4 2800     cmp     r0,0h                                 
08058DF6 D039     beq     8058E6Ch                              
08058DF8 480C     ldr     r0,=300009Ch                          
08058DFA 8BC0     ldrh    r0,[r0,1Eh]                           
08058DFC 380C     sub     r0,0Ch                                
08058DFE 0182     lsl     r2,r0,6h                              
08058E00 7E49     ldrb    r1,[r1,19h]                           
08058E02 2002     mov     r0,2h                                 
08058E04 4008     and     r0,r1                                 
08058E06 2180     mov     r1,80h                                
08058E08 00C9     lsl     r1,r1,3h                              
08058E0A 2800     cmp     r0,0h                                 
08058E0C D001     beq     8058E12h                              
08058E0E 2180     mov     r1,80h                                
08058E10 0109     lsl     r1,r1,4h                              
08058E12 4807     ldr     r0,=0FFFFFD80h                        
08058E14 1809     add     r1,r1,r0                              
08058E16 2B00     cmp     r3,0h                                 
08058E18 D10C     bne     8058E34h                              
08058E1A 2100     mov     r1,0h                                 
08058E1C 2200     mov     r2,0h                                 
08058E1E E015     b       8058E4Ch                              
08058E20 13C0     asr     r0,r0,0Fh                             
08058E22 0300     lsl     r0,r0,0Ch                             
08058E24 13B8     asr     r0,r7,0Eh                             
08058E26 0300     lsl     r0,r0,0Ch                             
08058E28 00BC     lsl     r4,r7,2h                              
08058E2A 0300     lsl     r0,r0,0Ch                             
08058E2C 009C     lsl     r4,r3,2h                              
08058E2E 0300     lsl     r0,r0,0Ch                             
08058E30 FD80     bl      lr+0B00h                              
08058E32 FFFF     bl      lr+0FFEh                              
08058E34 2B01     cmp     r3,1h                                 
08058E36 D105     bne     8058E44h                              
08058E38 4801     ldr     r0,=30013BAh                          
08058E3A 8800     ldrh    r0,[r0]                               
08058E3C 1A12     sub     r2,r2,r0                              
08058E3E E005     b       8058E4Ch                              
08058E40 13BA     asr     r2,r7,0Eh                             
08058E42 0300     lsl     r0,r0,0Ch                             
08058E44 4804     ldr     r0,=30013BAh                          
08058E46 8800     ldrh    r0,[r0]                               
08058E48 1A10     sub     r0,r2,r0                              
08058E4A 1082     asr     r2,r0,2h                              
08058E4C 1A89     sub     r1,r1,r2                              
08058E4E 2900     cmp     r1,0h                                 
08058E50 DD06     ble     8058E60h                              
08058E52 4802     ldr     r0,=30013C2h                          
08058E54 8001     strh    r1,[r0]                               
08058E56 E02F     b       8058EB8h                              
08058E58 13BA     asr     r2,r7,0Eh                             
08058E5A 0300     lsl     r0,r0,0Ch                             
08058E5C 13C2     asr     r2,r0,0Fh                             
08058E5E 0300     lsl     r0,r0,0Ch                             
08058E60 4901     ldr     r1,=30013C2h                          
08058E62 2000     mov     r0,0h                                 
08058E64 E027     b       8058EB6h                              
08058E66 0000     lsl     r0,r0,0h                              
08058E68 13C2     asr     r2,r0,0Fh                             
08058E6A 0300     lsl     r0,r0,0Ch                             
08058E6C 2B00     cmp     r3,0h                                 
08058E6E D105     bne     8058E7Ch                              
08058E70 4801     ldr     r0,=30013C2h                          
08058E72 8003     strh    r3,[r0]                               
08058E74 E020     b       8058EB8h                              
08058E76 0000     lsl     r0,r0,0h                              
08058E78 13C2     asr     r2,r0,0Fh                             
08058E7A 0300     lsl     r0,r0,0Ch                             

030017C6 0000     lsl     r0,r0,0h                              
030017C8 B510     push    r4,r14                                
030017CA 0400     lsl     r0,r0,10h                             
030017CC 0C04     lsr     r4,r0,10h                             
030017CE 0409     lsl     r1,r1,10h                             
030017D0 4B07     ldr     r3,=30000DCh                          
030017D2 2200     mov     r2,0h                                 
030017D4 801A     strh    r2,[r3]                               
030017D6 805A     strh    r2,[r3,2h]                            
030017D8 0D83     lsr     r3,r0,16h                             
030017DA 0D8A     lsr     r2,r1,16h                             
030017DC 4805     ldr     r0,=300009Ch                          
030017DE 8BC1     ldrh    r1,[r0,1Eh]                           
030017E0 428B     cmp     r3,r1                                 
030017E2 D202     bcs     30017EAh                              
030017E4 8B80     ldrh    r0,[r0,1Ch]                           
030017E6 4282     cmp     r2,r0                                 
030017E8 D306     bcc     30017F8h                              
030017EA 2000     mov     r0,0h                                 
030017EC E009     b       3001802h                              
030017EE 0000     lsl     r0,r0,0h                              
030017F0 00DC     lsl     r4,r3,3h                              
030017F2 0300     lsl     r0,r0,0Ch                             
030017F4 009C     lsl     r4,r3,2h                              
030017F6 0300     lsl     r0,r0,0Ch                             
030017F8 1C20     mov     r0,r4                                 
030017FA 1C19     mov     r1,r3                                 
030017FC 2300     mov     r3,0h                                 
030017FE F000F803 bl      3001808h                              
03001802 BC10     pop     r4                                    
03001804 BC02     pop     r1                                    
03001806 4708     bx      r1                                    
03001808 B5F0     push    r4-r7,r14                             
0300180A 0400     lsl     r0,r0,10h                             
0300180C 0C07     lsr     r7,r0,10h                             
0300180E 0409     lsl     r1,r1,10h                             
03001810 0C09     lsr     r1,r1,10h                             
03001812 0412     lsl     r2,r2,10h                             
03001814 0C12     lsr     r2,r2,10h                             
03001816 061B     lsl     r3,r3,18h                             
03001818 0E1E     lsr     r6,r3,18h                             
0300181A 4C0B     ldr     r4,=3005450h                          
0300181C 4B0B     ldr     r3,=300009Ch                          
0300181E 8B98     ldrh    r0,[r3,1Ch]                           
03001820 4348     mul     r0,r1                                 
03001822 1880     add     r0,r0,r2                              
03001824 6999     ldr     r1,[r3,18h]                           
03001826 0040     lsl     r0,r0,1h                              
03001828 1840     add     r0,r0,r1                              
0300182A 8800     ldrh    r0,[r0]                               
0300182C 68A1     ldr     r1,[r4,8h]                            
0300182E 0040     lsl     r0,r0,1h                              
03001830 1840     add     r0,r0,r1                              
03001832 8805     ldrh    r5,[r0]                               
03001834 2D00     cmp     r5,0h                                 
03001836 D00D     beq     3001854h                              
03001838 2D0F     cmp     r5,0Fh                                
0300183A DC0B     bgt     3001854h                              
0300183C 4904     ldr     r1,=83458E4h                          
0300183E 0068     lsl     r0,r5,1h                              
03001840 1840     add     r0,r0,r1                              
03001842 8804     ldrh    r4,[r0]                               
03001844 E007     b       3001856h                              
03001846 0000     lsl     r0,r0,0h                              
03001848 5450     strb    r0,[r2,r1]                            
0300184A 0300     lsl     r0,r0,0Ch                             
0300184C 009C     lsl     r4,r3,2h                              
0300184E 0300     lsl     r0,r0,0Ch                             
03001850 58E4     ldr     r4,[r4,r3]                            
03001852 0834     lsr     r4,r6,20h                             
03001854 2400     mov     r4,0h                                 
03001856 2E00     cmp     r6,0h                                 
03001858 D10C     bne     3001874h                              
0300185A 1E60     sub     r0,r4,1                               
0300185C 2801     cmp     r0,1h                                 
0300185E D809     bhi     3001874h                              
03001860 480A     ldr     r0,=30013D4h                          
03001862 7800     ldrb    r0,[r0]                               
03001864 281D     cmp     r0,1Dh                                
03001866 D005     beq     3001874h                              
03001868 1C20     mov     r0,r4                                 
0300186A F000F83B bl      30018E4h                              
0300186E 2800     cmp     r0,0h                                 
03001870 D000     beq     3001874h                              
03001872 2400     mov     r4,0h                                 
03001874 4806     ldr     r0,=30000DCh                          
03001876 8004     strh    r4,[r0]                               
03001878 2400     mov     r4,0h                                 
0300187A 1C2A     mov     r2,r5                                 
0300187C 3A40     sub     r2,40h                                
0300187E 1C05     mov     r5,r0                                 
03001880 2A03     cmp     r2,3h                                 
03001882 D809     bhi     3001898h                              
03001884 4903     ldr     r1,=8345924h                          
03001886 0050     lsl     r0,r2,1h                              
03001888 1840     add     r0,r0,r1                              
0300188A E022     b       30018D2h                              
0300188C 13D4     asr     r4,r2,0Fh                             
0300188E 0300     lsl     r0,r0,0Ch                             
03001890 00DC     lsl     r4,r3,3h                              
03001892 0300     lsl     r0,r0,0Ch                             
03001894 5924     ldr     r4,[r4,r4]                            
03001896 0834     lsr     r4,r6,20h                             
03001898 490A     ldr     r1,=30000BCh                          
0300189A 7848     ldrb    r0,[r1,1h]                            
0300189C 2800     cmp     r0,0h                                 
0300189E D019     beq     30018D4h                              
030018A0 7D08     ldrb    r0,[r1,14h]                           
030018A2 2800     cmp     r0,0h                                 
030018A4 D016     beq     30018D4h                              
030018A6 2807     cmp     r0,7h                                 
030018A8 D814     bhi     30018D4h                              
030018AA 4B07     ldr     r3,=8345904h                          
030018AC 0081     lsl     r1,r0,2h                              
030018AE 1C98     add     r0,r3,2                               
030018B0 180A     add     r2,r1,r0                              
030018B2 8810     ldrh    r0,[r2]                               
030018B4 2800     cmp     r0,0h                                 
030018B6 D00B     beq     30018D0h                              
030018B8 4804     ldr     r0,=300006Ch                          
030018BA 8800     ldrh    r0,[r0]                               
030018BC 42B8     cmp     r0,r7                                 
030018BE D807     bhi     30018D0h                              
030018C0 8814     ldrh    r4,[r2]                               
030018C2 E007     b       30018D4h                              
030018C4 00BC     lsl     r4,r7,2h                              
030018C6 0300     lsl     r0,r0,0Ch                             
030018C8 5904     ldr     r4,[r0,r4]                            
030018CA 0834     lsr     r4,r6,20h                             
030018CC 006C     lsl     r4,r5,1h                              
030018CE 0300     lsl     r0,r0,0Ch                             
030018D0 18C8     add     r0,r1,r3                              
030018D2 8804     ldrh    r4,[r0]                               
030018D4 806C     strh    r4,[r5,2h]                            
030018D6 8828     ldrh    r0,[r5]                               
030018D8 0400     lsl     r0,r0,10h                             
030018DA 8869     ldrh    r1,[r5,2h]                            
030018DC 4308     orr     r0,r1                                 
030018DE BCF0     pop     r4-r7                                 
030018E0 BC02     pop     r1                                    
030018E2 4708     bx      r1                                    
030018E4 B5F0     push    r4-r7,r14                             
030018E6 464F     mov     r7,r9                                 
030018E8 4646     mov     r6,r8                                 
030018EA B4C0     push    r6,r7                                 
030018EC 480E     ldr     r0,=3000198h                          
030018EE 2100     mov     r1,0h                                 
030018F0 7081     strb    r1,[r0,2h]                            
030018F2 2200     mov     r2,0h                                 
030018F4 8001     strh    r1,[r0]                               
030018F6 70C2     strb    r2,[r0,3h]                            
030018F8 2400     mov     r4,0h                                 
030018FA 2508     mov     r5,8h                                 
030018FC 480B     ldr     r0,=3000054h                          
030018FE 4681     mov     r9,r0                                 
03001900 490B     ldr     r1,=8345934h                          
03001902 4688     mov     r8,r1                                 
03001904 4646     mov     r6,r8                                 
03001906 3644     add     r6,44h                                
03001908 2740     mov     r7,40h                                
0300190A 4808     ldr     r0,=3000054h                          
0300190C 4908     ldr     r1,=8345934h                          
0300190E 1879     add     r1,r7,r1                              
03001910 7800     ldrb    r0,[r0]                               
03001912 780A     ldrb    r2,[r1]                               
03001914 4290     cmp     r0,r2                                 
03001916 D10F     bne     3001938h                              
03001918 4806     ldr     r0,=3000055h                          
0300191A 7800     ldrb    r0,[r0]                               
0300191C 7849     ldrb    r1,[r1,1h]                            
0300191E 4288     cmp     r0,r1                                 
03001920 D10A     bne     3001938h                              
03001922 2401     mov     r4,1h                                 
03001924 E016     b       3001954h                              
03001926 0000     lsl     r0,r0,0h                              
03001928 0198     lsl     r0,r3,6h                              
0300192A 0300     lsl     r0,r0,0Ch                             
0300192C 0054     lsl     r4,r2,1h                              
0300192E 0300     lsl     r0,r0,0Ch                             
03001930 5934     ldr     r4,[r6,r4]                            
03001932 0834     lsr     r4,r6,20h                             
03001934 0055     lsl     r5,r2,1h                              
03001936 0300     lsl     r0,r0,0Ch                             
03001938 4649     mov     r1,r9                                 
0300193A 7808     ldrb    r0,[r1]                               
0300193C 7832     ldrb    r2,[r6]                               
0300193E 4290     cmp     r0,r2                                 
03001940 D106     bne     3001950h                              
03001942 480B     ldr     r0,=0h                                
03001944 0000     lsl     r0,r0,0h                              
03001946 0000     lsl     r0,r0,0h                              
03001948 0000     lsl     r0,r0,0h                              
0300194A 0000     lsl     r0,r0,0h                              
0300194C 0000     lsl     r0,r0,0h                              
0300194E 0000     lsl     r0,r0,0h                              
03001950 0000     lsl     r0,r0,0h                              
03001952 0000     lsl     r0,r0,0h                              
03001954 0000     lsl     r0,r0,0h                              
03001956 0000     lsl     r0,r0,0h                              
03001958 0000     lsl     r0,r0,0h                              
0300195A 0000     lsl     r0,r0,0h                              
0300195C 0000     lsl     r0,r0,0h                              
0300195E 0000     lsl     r0,r0,0h                              
03001960 0000     lsl     r0,r0,0h                              
03001962 0000     lsl     r0,r0,0h                              
03001964 0000     lsl     r0,r0,0h                              
03001966 0000     lsl     r0,r0,0h                              
03001968 0000     lsl     r0,r0,0h                              
0300196A 0000     lsl     r0,r0,0h                              
0300196C 0000     lsl     r0,r0,0h                              
0300196E 0000     lsl     r0,r0,0h                              
03001970 0000     lsl     r0,r0,0h                              
03001972 0000     lsl     r0,r0,0h                              
03001974 0000     lsl     r0,r0,0h                              
03001976 0000     lsl     r0,r0,0h                              
03001978 0000     lsl     r0,r0,0h                              
0300197A 0000     lsl     r0,r0,0h                              
0300197C 0000     lsl     r0,r0,0h                              
0300197E 0000     lsl     r0,r0,0h                              
03001980 0000     lsl     r0,r0,0h                              
03001982 0000     lsl     r0,r0,0h                              
03001984 0000     lsl     r0,r0,0h                              
03001986 0000     lsl     r0,r0,0h                              
03001988 0000     lsl     r0,r0,0h                              
0300198A 0000     lsl     r0,r0,0h                              
0300198C 0000     lsl     r0,r0,0h                              
0300198E 0000     lsl     r0,r0,0h                              
03001990 0000     lsl     r0,r0,0h                              
03001992 0000     lsl     r0,r0,0h                              
03001994 0000     lsl     r0,r0,0h                              
03001996 0000     lsl     r0,r0,0h                              
03001998 0000     lsl     r0,r0,0h                              
0300199A 0000     lsl     r0,r0,0h                              
0300199C 0000     lsl     r0,r0,0h                              
0300199E 0000     lsl     r0,r0,0h                              
030019A0 0000     lsl     r0,r0,0h                              
030019A2 0000     lsl     r0,r0,0h                              
030019A4 0000     lsl     r0,r0,0h                              
030019A6 0000     lsl     r0,r0,0h                              
030019A8 0000     lsl     r0,r0,0h                              
030019AA 0000     lsl     r0,r0,0h                              
030019AC 0000     lsl     r0,r0,0h                              
030019AE 0000     lsl     r0,r0,0h                              
030019B0 0000     lsl     r0,r0,0h                              
030019B2 0000     lsl     r0,r0,0h                              
030019B4 0000     lsl     r0,r0,0h                              
030019B6 0300     lsl     r0,r0,0Ch                             
030019B8 0003     lsl     r3,r0,0h                              
030019BA 0000     lsl     r0,r0,0h                              
030019BC 0000     lsl     r0,r0,0h                              
030019BE 0000     lsl     r0,r0,0h                              
030019C0 0000     lsl     r0,r0,0h                              
030019C2 0000     lsl     r0,r0,0h                              
030019C4 0000     lsl     r0,r0,0h                              
030019C6 0300     lsl     r0,r0,0Ch                             
030019C8 0003     lsl     r3,r0,0h                              
030019CA 0000     lsl     r0,r0,0h                              
030019CC 0000     lsl     r0,r0,0h                              
030019CE 0000     lsl     r0,r0,0h                              
030019D0 0000     lsl     r0,r0,0h                              
030019D2 0000     lsl     r0,r0,0h                              
030019D4 0000     lsl     r0,r0,0h                              
030019D6 0300     lsl     r0,r0,0Ch                             
030019D8 0003     lsl     r3,r0,0h                              
030019DA 0000     lsl     r0,r0,0h                              
030019DC 0000     lsl     r0,r0,0h                              
030019DE 0000     lsl     r0,r0,0h                              
030019E0 0000     lsl     r0,r0,0h                              
030019E2 0000     lsl     r0,r0,0h                              
030019E4 0000     lsl     r0,r0,0h                              
030019E6 0300     lsl     r0,r0,0Ch                             
030019E8 0003     lsl     r3,r0,0h                              
030019EA 0000     lsl     r0,r0,0h                              
030019EC 0000     lsl     r0,r0,0h                              
030019EE 0000     lsl     r0,r0,0h                              
030019F0 0000     lsl     r0,r0,0h                              
030019F2 0000     lsl     r0,r0,0h                              
030019F4 0000     lsl     r0,r0,0h                              
030019F6 0300     lsl     r0,r0,0Ch                             
030019F8 0003     lsl     r3,r0,0h                              
030019FA 0000     lsl     r0,r0,0h                              
030019FC 0000     lsl     r0,r0,0h                              
030019FE 0000     lsl     r0,r0,0h                              
03001A00 0000     lsl     r0,r0,0h                              
03001A02 0000     lsl     r0,r0,0h                              
03001A04 0000     lsl     r0,r0,0h                              
03001A06 0300     lsl     r0,r0,0Ch                             
03001A08 0003     lsl     r3,r0,0h                              
03001A0A 0000     lsl     r0,r0,0h                              
03001A0C 0000     lsl     r0,r0,0h                              
03001A0E 0000     lsl     r0,r0,0h                              
03001A10 0000     lsl     r0,r0,0h                              
03001A12 0000     lsl     r0,r0,0h                              
03001A14 0000     lsl     r0,r0,0h                              
03001A16 0300     lsl     r0,r0,0Ch                             
03001A18 0003     lsl     r3,r0,0h                              
03001A1A 0000     lsl     r0,r0,0h                              
03001A1C 0000     lsl     r0,r0,0h                              
03001A1E 0000     lsl     r0,r0,0h                              
03001A20 0000     lsl     r0,r0,0h                              
03001A22 0000     lsl     r0,r0,0h                              
03001A24 0000     lsl     r0,r0,0h                              
03001A26 0300     lsl     r0,r0,0Ch                             
03001A28 0003     lsl     r3,r0,0h                              
03001A2A 0000     lsl     r0,r0,0h                              
03001A2C 0000     lsl     r0,r0,0h                              
03001A2E 0000     lsl     r0,r0,0h                              
03001A30 0000     lsl     r0,r0,0h                              
03001A32 0000     lsl     r0,r0,0h                              
03001A34 0000     lsl     r0,r0,0h                              
03001A36 0300     lsl     r0,r0,0Ch                             
03001A38 0003     lsl     r3,r0,0h                              
03001A3A 0000     lsl     r0,r0,0h                              
03001A3C 0000     lsl     r0,r0,0h                              
03001A3E 0000     lsl     r0,r0,0h                              
03001A40 0000     lsl     r0,r0,0h                              
03001A42 0000     lsl     r0,r0,0h                              
03001A44 0000     lsl     r0,r0,0h                              
03001A46 0300     lsl     r0,r0,0Ch                             
03001A48 0003     lsl     r3,r0,0h                              
03001A4A 0000     lsl     r0,r0,0h                              
03001A4C 0000     lsl     r0,r0,0h                              
03001A4E 0000     lsl     r0,r0,0h                              
03001A50 0000     lsl     r0,r0,0h                              
03001A52 0000     lsl     r0,r0,0h                              
03001A54 0000     lsl     r0,r0,0h                              
03001A56 0300     lsl     r0,r0,0Ch                             
03001A58 0003     lsl     r3,r0,0h                              
03001A5A 0000     lsl     r0,r0,0h                              
03001A5C 0000     lsl     r0,r0,0h                              
03001A5E 0000     lsl     r0,r0,0h                              
03001A60 0000     lsl     r0,r0,0h                              
03001A62 0000     lsl     r0,r0,0h                              
03001A64 0000     lsl     r0,r0,0h                              
03001A66 0300     lsl     r0,r0,0Ch                             
03001A68 0003     lsl     r3,r0,0h                              
03001A6A 0000     lsl     r0,r0,0h                              
03001A6C 0000     lsl     r0,r0,0h                              
03001A6E 0000     lsl     r0,r0,0h                              
03001A70 0000     lsl     r0,r0,0h                              
03001A72 0000     lsl     r0,r0,0h                              
03001A74 0000     lsl     r0,r0,0h                              
03001A76 0300     lsl     r0,r0,0Ch                             
03001A78 0003     lsl     r3,r0,0h                              
03001A7A 0000     lsl     r0,r0,0h                              
03001A7C 0000     lsl     r0,r0,0h                              
03001A7E 0000     lsl     r0,r0,0h                              
03001A80 0000     lsl     r0,r0,0h                              
03001A82 0000     lsl     r0,r0,0h                              
03001A84 0000     lsl     r0,r0,0h                              
03001A86 0300     lsl     r0,r0,0Ch                             
03001A88 0003     lsl     r3,r0,0h                              
03001A8A 0000     lsl     r0,r0,0h                              
03001A8C 0000     lsl     r0,r0,0h                              
03001A8E 0000     lsl     r0,r0,0h                              
03001A90 0000     lsl     r0,r0,0h                              
03001A92 0000     lsl     r0,r0,0h                              
03001A94 0000     lsl     r0,r0,0h                              
03001A96 0300     lsl     r0,r0,0Ch                             
03001A98 0003     lsl     r3,r0,0h                              
03001A9A 0000     lsl     r0,r0,0h                              
03001A9C 0000     lsl     r0,r0,0h                              
03001A9E 0000     lsl     r0,r0,0h                              
03001AA0 0000     lsl     r0,r0,0h                              
03001AA2 0000     lsl     r0,r0,0h                              
03001AA4 0000     lsl     r0,r0,0h                              
03001AA6 0300     lsl     r0,r0,0Ch                             
03001AA8 0003     lsl     r3,r0,0h                              
03001AAA 0000     lsl     r0,r0,0h                              
03001AAC 0000     lsl     r0,r0,0h                              
03001AAE 0000     lsl     r0,r0,0h                              
03001AB0 0000     lsl     r0,r0,0h                              
03001AB2 0000     lsl     r0,r0,0h                              
03001AB4 0000     lsl     r0,r0,0h                              
03001AB6 0300     lsl     r0,r0,0Ch                             
03001AB8 0003     lsl     r3,r0,0h                              
03001ABA 0000     lsl     r0,r0,0h                              
03001ABC 0260     lsl     r0,r4,9h                              
03001ABE 01E0     lsl     r0,r4,7h                              
03001AC0 0000     lsl     r0,r0,0h                              
03001AC2 0000     lsl     r0,r0,0h                              
03001AC4 0202     lsl     r2,r0,8h                              
03001AC6 4301     orr     r1,r0                                 
03001AC8 0003     lsl     r3,r0,0h                              
03001ACA 0000     lsl     r0,r0,0h                              
03001ACC 0000     lsl     r0,r0,0h                              
03001ACE 0000     lsl     r0,r0,0h                              
03001AD0 0000     lsl     r0,r0,0h                              
03001AD2 0000     lsl     r0,r0,0h                              
03001AD4 0000     lsl     r0,r0,0h                              
03001AD6 0300     lsl     r0,r0,0Ch                             
03001AD8 0003     lsl     r3,r0,0h                              
03001ADA 0000     lsl     r0,r0,0h                              
03001ADC 0000     lsl     r0,r0,0h                              
03001ADE 0000     lsl     r0,r0,0h                              
03001AE0 0000     lsl     r0,r0,0h                              
03001AE2 0000     lsl     r0,r0,0h                              
03001AE4 0000     lsl     r0,r0,0h                              
03001AE6 0000     lsl     r0,r0,0h                              
03001AE8 0000     lsl     r0,r0,0h                              
03001AEA 0000     lsl     r0,r0,0h                              
03001AEC 000C     lsl     r4,r1,0h                              
03001AEE 01D0     lsl     r0,r2,7h                              
03001AF0 0000     lsl     r0,r0,0h                              
03001AF2 0000     lsl     r0,r0,0h                              
03001AF4 0002     lsl     r2,r0,0h                              
03001AF6 410D     asr     r5,r1                                 
03001AF8 0004     lsl     r4,r0,0h                              
03001AFA 0000     lsl     r0,r0,0h                              
03001AFC 0018     lsl     r0,r3,0h                              
03001AFE 01D0     lsl     r0,r2,7h                              
03001B00 0000     lsl     r0,r0,0h                              
03001B02 0000     lsl     r0,r0,0h                              
03001B04 0002     lsl     r2,r0,0h                              
03001B06 0100     lsl     r0,r0,4h                              
03001B08 0004     lsl     r4,r0,0h                              
03001B0A 0000     lsl     r0,r0,0h                              
03001B0C 01A4     lsl     r4,r4,6h                              
03001B0E 0364     lsl     r4,r4,0Dh                             
03001B10 0000     lsl     r0,r0,0h                              
03001B12 0000     lsl     r0,r0,0h                              
03001B14 0002     lsl     r2,r0,0h                              
03001B16 4119     asr     r1,r3                                 
03001B18 0004     lsl     r4,r0,0h                              
03001B1A 0000     lsl     r0,r0,0h                              
03001B1C 0198     lsl     r0,r3,6h                              
03001B1E 0220     lsl     r0,r4,8h                              
03001B20 0000     lsl     r0,r0,0h                              
03001B22 0000     lsl     r0,r0,0h                              
03001B24 0003     lsl     r3,r0,0h                              
03001B26 0012     lsl     r2,r2,0h                              
03001B28 0004     lsl     r4,r0,0h                              
03001B2A 0000     lsl     r0,r0,0h                              
03001B2C 0130     lsl     r0,r6,4h                              
03001B2E 0018     lsl     r0,r3,0h                              
03001B30 0000     lsl     r0,r0,0h                              
03001B32 0000     lsl     r0,r0,0h                              
03001B34 0302     lsl     r2,r0,0Ch                             
03001B36 4303     orr     r3,r0                                 
03001B38 0004     lsl     r4,r0,0h                              
03001B3A 0000     lsl     r0,r0,0h                              
03001B3C 0130     lsl     r0,r6,4h                              
03001B3E 0388     lsl     r0,r1,0Eh                             
03001B40 0000     lsl     r0,r0,0h                              
03001B42 0000     lsl     r0,r0,0h                              
03001B44 0302     lsl     r2,r0,0Ch                             
03001B46 4304     orr     r4,r0                                 
03001B48 0004     lsl     r4,r0,0h                              
03001B4A 0000     lsl     r0,r0,0h                              
03001B4C 0048     lsl     r0,r1,1h                              
03001B4E 01D0     lsl     r0,r2,7h                              
03001B50 0000     lsl     r0,r0,0h                              
03001B52 0000     lsl     r0,r0,0h                              
03001B54 0302     lsl     r2,r0,0Ch                             
03001B56 4301     orr     r1,r0                                 
03001B58 0004     lsl     r4,r0,0h                              
03001B5A 0000     lsl     r0,r0,0h                              
03001B5C 0218     lsl     r0,r3,8h                              
03001B5E 01D0     lsl     r0,r2,7h                              
03001B60 0000     lsl     r0,r0,0h                              
03001B62 0000     lsl     r0,r0,0h                              
03001B64 0302     lsl     r2,r0,0Ch                             
03001B66 6302     str     r2,[r0,30h]                           
03001B68 0004     lsl     r4,r0,0h                              
03001B6A 0000     lsl     r0,r0,0h                              
03001B6C 009C     lsl     r4,r3,2h                              
03001B6E 0280     lsl     r0,r0,0Ah                             
03001B70 0000     lsl     r0,r0,0h                              
03001B72 0000     lsl     r0,r0,0h                              
03001B74 0000     lsl     r0,r0,0h                              
03001B76 4210     tst     r0,r2                                 
03001B78 0004     lsl     r4,r0,0h                              
03001B7A 0000     lsl     r0,r0,0h                              
03001B7C 0148     lsl     r0,r1,5h                              
03001B7E 01F0     lsl     r0,r6,7h                              
03001B80 0000     lsl     r0,r0,0h                              
03001B82 0000     lsl     r0,r0,0h                              
03001B84 0000     lsl     r0,r0,0h                              
03001B86 4201     tst     r1,r0                                 
03001B88 0004     lsl     r4,r0,0h                              
03001B8A 0000     lsl     r0,r0,0h                              
03001B8C 01CC     lsl     r4,r1,7h                              
03001B8E 016C     lsl     r4,r5,5h                              
03001B90 0000     lsl     r0,r0,0h                              
03001B92 0000     lsl     r0,r0,0h                              
03001B94 0000     lsl     r0,r0,0h                              
03001B96 4202     tst     r2,r0                                 
03001B98 0004     lsl     r4,r0,0h                              
03001B9A 0000     lsl     r0,r0,0h                              
03001B9C 01B8     lsl     r0,r7,6h                              
03001B9E 0248     lsl     r0,r1,9h                              
03001BA0 0000     lsl     r0,r0,0h                              
03001BA2 0000     lsl     r0,r0,0h                              
03001BA4 0000     lsl     r0,r0,0h                              
03001BA6 4203     tst     r3,r0                                 
03001BA8 0004     lsl     r4,r0,0h                              
03001BAA 0000     lsl     r0,r0,0h                              
03001BAC 01F8     lsl     r0,r7,7h                              
03001BAE 0240     lsl     r0,r0,9h                              
03001BB0 0000     lsl     r0,r0,0h                              
03001BB2 0000     lsl     r0,r0,0h                              
03001BB4 0000     lsl     r0,r0,0h                              
03001BB6 4204     tst     r4,r0                                 
03001BB8 0004     lsl     r4,r0,0h                              
03001BBA 0000     lsl     r0,r0,0h                              
03001BBC 015C     lsl     r4,r3,5h                              
03001BBE 0114     lsl     r4,r2,4h                              
03001BC0 0000     lsl     r0,r0,0h                              
03001BC2 0000     lsl     r0,r0,0h                              

