
;5080a处
08050724>B5F0     push    r4-r7,lr
08050726 4657     mov     r7,r10
08050728 464E     mov     r6,r9
0805072A 4645     mov     r5,r8
0805072C B4E0     push    r5-r7
0805072E B081     add     sp,-4h
08050730 1C04     mov     r4,r0        ;敌人数据坐标
08050732 9809     ldr     r0,[sp,24h]  ;33
08050734 0409     lsl     r1,r1,10h
08050736 0C0F     lsr     r7,r1,10h    ;弹丸Y坐标
08050738 0412     lsl     r2,r2,10h
0805073A 0C12     lsr     r2,r2,10h    ;弹丸X坐标
0805073C 4690     mov     r8,r2
0805073E 041B     lsl     r3,r3,10h    ;弹丸的攻击力
08050740 0C1E     lsr     r6,r3,10h
08050742 46B2     mov     r10,r6
08050744 0600     lsl     r0,r0,18h
08050746 0E05     lsr     r5,r0,18h
08050748 9500     str     r5,[sp]
0805074A 2000     mov     r0,0h
0805074C 4681     mov     r9,r0
0805074E 1C20     mov     r0,r4
08050750 3032     add     r0,32h
08050752 7801     ldrb    r1,[r0]      ;检查敌人的碰撞属性
08050754 2008     mov     r0,8h
08050756 4008     and     r0,r1
08050758 2800     cmp     r0,0h
0805075A D008     beq     @@Pass
0805075C 1C20     mov     r0,r4
0805075E F7FFFEB5 bl      80504CCh  ;弹药不显示无效的无敌
08050762 1C38     mov     r0,r7
08050764 4641     mov     r1,r8
08050766 1C2A     mov     r2,r5
08050768 F003FCC0 bl      80540ECh
0805076C E054     b       @@end

@@Pass:
0805076E 2540     mov     r5,40h
08050770 1C28     mov     r0,r5
08050772 4008     and     r0,r1
08050774 2800     cmp     r0,0h
08050776 D008     beq     @@Pass2
08050778 1C20     mov     r0,r4
0805077A F7FFFE97 bl      80504ACh  ;弹药显示无效的无敌
0805077E 1C38     mov     r0,r7
08050780 4641     mov     r1,r8
08050782 222F     mov     r2,2Fh
08050784 F003FCB2 bl      80540ECh
08050788 E046     b       @@end

@@Pass2:
0805078A 1C20     mov     r0,r4
0805078C F7FFFDF0 bl      8050370h  ;获取精灵的弱点和冰冻系数
08050790 0401     lsl     r1,r0,10h
08050792 0C0A     lsr     r2,r1,10h
08050794 2002     mov     r0,2h
08050796 4010     and     r0,r2     
08050798 2800     cmp     r0,0h     ;检查是否有光束弱点
0805079A D01D     beq     @@Pass3
0805079C 1C10     mov     r0,r2
0805079E 4028     and     r0,r5
080507A0 2800     cmp     r0,0h
080507A2 D014     beq     @@Can'tFrozen1
080507A4 0E09     lsr     r1,r1,18h
080507A6 4806     ldr     r0,=3000C77h  ;1字节循环数
080507A8 7800     ldrb    r0,[r0]       ;读取
080507AA 4008     and     r0,r1         ;和冰冻难度系数and
080507AC 2800     cmp     r0,0h
080507AE D109     bne     @@NoFrozen
080507B0 1C20     mov     r0,r4
080507B2 1C31     mov     r1,r6
080507B4 F7FFFDF4 bl      80503A0h      ;冰光束处理伤害
080507B8 0600     lsl     r0,r0,18h     ;返回冰冻的时间
080507BA 0E00     lsr     r0,r0,18h
080507BC E011     b       80507E2h
.pool

@@NoFrozen:
080507C4 1C20     mov     r0,r4
080507C6 1C31     mov     r1,r6
080507C8 F7FFFE2C bl      8050424h     ;非冰光束处理伤害
080507CC E00A     b       80507E4h

@@Can'tFrozen1:
080507CE 1C20     mov     r0,r4
080507D0 4651     mov     r1,r10
080507D2 F7FFFE27 bl      8050424h
080507D6 E005     b       80507E4h

@@Pass3:                            ;无光束弱点
080507D8 1C10     mov     r0,r2
080507DA 4028     and     r0,r5     ;检查是否会被冰冻
080507DC 2800     cmp     r0,0h
080507DE D007     beq     @@Can'tFrozen
080507E0 20F0     mov     r0,0F0h
080507E2 4681     mov     r9,r0
080507E4 1C38     mov     r0,r7
080507E6 4641     mov     r1,r8
080507E8 9A00     ldr     r2,[sp]
080507EA F003FC7F bl      80540ECh
080507EE E007     b       @@Peer

@@Can'tFrozen:
080507F0 1C20     mov     r0,r4
080507F2 F7FFFE6B bl      80504CCh  ;弹药不显示无效的无敌
080507F6 1C38     mov     r0,r7
080507F8 4641     mov     r1,r8
080507FA 222F     mov     r2,2Fh 
080507FC F003FC76 bl      80540ECh  ;攻击无效的泵点特效

@@Peer:
08050800 4648     mov     r0,r9
08050802 2800     cmp     r0,0h
08050804 D008     beq     @@end
08050806 1C20     mov     r0,r4
08050808 4649     mov     r1,r9
0805080A F7FFFF77 bl      80506FCh  ;冰冻时间写入例程
0805080E 1C38     mov     r0,r7
08050810 4641     mov     r1,r8
08050812 2228     mov     r2,28h
08050814 F003FC6A bl      80540ECh

@@end:
08050818 B001     add     sp,4h
0805081A BC38     pop     r3-r5
0805081C 4698     mov     r8,r3
0805081E 46A1     mov     r9,r4
08050820 46AA     mov     r10,r5
08050822 BCF0     pop     r4-r7
08050824 BC01     pop     r0
08050826 4700     bx      r0


08050828 B5F0     push    r4-r7,lr
0805082A 4657     mov     r7,r10
0805082C 464E     mov     r6,r9
0805082E 4645     mov     r5,r8
08050830 B4E0     push    r5-r7
08050832 B081     add     sp,-4h
08050834 1C04     mov     r4,r0
08050836 9809     ldr     r0,[sp,24h]
08050838 0409     lsl     r1,r1,10h
0805083A 0C0E     lsr     r6,r1,10h
0805083C 0412     lsl     r2,r2,10h
0805083E 0C17     lsr     r7,r2,10h
08050840 041B     lsl     r3,r3,10h
08050842 0C1B     lsr     r3,r3,10h
08050844 4698     mov     r8,r3
08050846 4641     mov     r1,r8
08050848 9100     str     r1,[sp]
0805084A 0600     lsl     r0,r0,18h
0805084C 0E05     lsr     r5,r0,18h
0805084E 46AA     mov     r10,r5
08050850 2000     mov     r0,0h
08050852 4681     mov     r9,r0
08050854 1C20     mov     r0,r4
08050856 3032     add     r0,32h
08050858 7801     ldrb    r1,[r0]
0805085A 2008     mov     r0,8h
0805085C 4008     and     r0,r1
0805085E 2800     cmp     r0,0h
08050860 D008     beq     8050874h
08050862 1C20     mov     r0,r4
08050864 F7FFFE32 bl      80504CCh
08050868 1C30     mov     r0,r6
0805086A 1C39     mov     r1,r7
0805086C 1C2A     mov     r2,r5
0805086E F003FC3D bl      80540ECh
08050872 E047     b       8050904h
08050874 2540     mov     r5,40h
08050876 1C28     mov     r0,r5
08050878 4008     and     r0,r1
0805087A 2800     cmp     r0,0h
0805087C D008     beq     8050890h
0805087E 1C20     mov     r0,r4
08050880 F7FFFE14 bl      80504ACh
08050884 1C30     mov     r0,r6
08050886 1C39     mov     r1,r7
08050888 222F     mov     r2,2Fh
0805088A F003FC2F bl      80540ECh
0805088E E039     b       8050904h
08050890 1C20     mov     r0,r4
08050892 F7FFFD6D bl      8050370h
08050896 0400     lsl     r0,r0,10h
08050898 0C01     lsr     r1,r0,10h
0805089A 2003     mov     r0,3h
0805089C 4008     and     r0,r1
0805089E 2800     cmp     r0,0h
080508A0 D010     beq     80508C4h
080508A2 1C08     mov     r0,r1
080508A4 4028     and     r0,r5
080508A6 2800     cmp     r0,0h
080508A8 D007     beq     80508BAh
080508AA 1C20     mov     r0,r4
080508AC 4641     mov     r1,r8
080508AE F7FFFD77 bl      80503A0h
080508B2 0600     lsl     r0,r0,18h
080508B4 0E00     lsr     r0,r0,18h
080508B6 4681     mov     r9,r0
080508B8 E00A     b       80508D0h
080508BA 1C20     mov     r0,r4
080508BC 9900     ldr     r1,[sp]
080508BE F7FFFDB1 bl      8050424h
080508C2 E005     b       80508D0h
080508C4 1C08     mov     r0,r1
080508C6 4028     and     r0,r5
080508C8 2800     cmp     r0,0h
080508CA D007     beq     80508DCh
080508CC 21F0     mov     r1,0F0h
080508CE 4689     mov     r9,r1
080508D0 1C30     mov     r0,r6
080508D2 1C39     mov     r1,r7
080508D4 4652     mov     r2,r10
080508D6 F003FC09 bl      80540ECh
080508DA E007     b       80508ECh
080508DC 1C20     mov     r0,r4
080508DE F7FFFDF5 bl      80504CCh
080508E2 1C30     mov     r0,r6
080508E4 1C39     mov     r1,r7
080508E6 222F     mov     r2,2Fh
080508E8 F003FC00 bl      80540ECh
080508EC 4648     mov     r0,r9
080508EE 2800     cmp     r0,0h
080508F0 D008     beq     8050904h
080508F2 1C20     mov     r0,r4
080508F4 4649     mov     r1,r9
080508F6 F7FFFF01 bl      80506FCh
080508FA 1C30     mov     r0,r6
080508FC 1C39     mov     r1,r7
080508FE 2229     mov     r2,29h
08050900 F003FBF4 bl      80540ECh
08050904 B001     add     sp,4h
08050906 BC38     pop     r3-r5
08050908 4698     mov     r8,r3
0805090A 46A1     mov     r9,r4
0805090C 46AA     mov     r10,r5
0805090E BCF0     pop     r4-r7
08050910 BC01     pop     r0
08050912 4700     bx      r0
08050914 B570     push    r4-r6,lr
08050916 1C0C     mov     r4,r1
08050918 0612     lsl     r2,r2,18h
0805091A 0E15     lsr     r5,r2,18h
0805091C 2600     mov     r6,0h
0805091E 2200     mov     r2,0h
08050920 2107     mov     r1,7h
08050922 7461     strb    r1,[r4,11h]
08050924 74E2     strb    r2,[r4,13h]
08050926 7821     ldrb    r1,[r4]
08050928 23EF     mov     r3,0EFh
0805092A 400B     and     r3,r1
0805092C 2108     mov     r1,8h
0805092E 430B     orr     r3,r1
08050930 4333     orr     r3,r6
08050932 7023     strb    r3,[r4]
08050934 73A2     strb    r2,[r4,0Eh]
08050936 81A2     strh    r2,[r4,0Ch]
08050938 8961     ldrh    r1,[r4,0Ah]
0805093A 8880     ldrh    r0,[r0,4h]
0805093C 4281     cmp     r1,r0
0805093E D902     bls     8050946h
08050940 2040     mov     r0,40h
08050942 4303     orr     r3,r0
08050944 E001     b       805094Ah
08050946 20BF     mov     r0,0BFh
08050948 4003     and     r3,r0
0805094A 7023     strb    r3,[r4]
0805094C 2D0D     cmp     r5,0Dh
0805094E D107     bne     8050960h
08050950 4802     ldr     r0,=8327018h
08050952 6060     str     r0,[r4,4h]
08050954 20FC     mov     r0,0FCh
08050956 F7B2F867 bl      8002A28h
0805095A E006     b       805096Ah
0805095C 7018     strb    r0,[r3]
0805095E 0832     lsr     r2,r6,20h
08050960 4803     ldr     r0,=8326FD0h
08050962 6060     str     r0,[r4,4h]
08050964 20F9     mov     r0,0F9h
08050966 F7B2F85F bl      8002A28h
0805096A BC70     pop     r4-r6
0805096C BC01     pop     r0
0805096E 4700     bx      r0
08050970 6FD0     ldr     r0,[r2,7Ch]
08050972 0832     lsr     r2,r6,20h
08050974 B530     push    r4,r5,lr
08050976 1C03     mov     r3,r0
08050978 0609     lsl     r1,r1,18h
0805097A 0E0C     lsr     r4,r1,18h
0805097C 2500     mov     r5,0h
0805097E 2100     mov     r1,0h
08050980 2007     mov     r0,7h
08050982 7458     strb    r0,[r3,11h]
08050984 74D9     strb    r1,[r3,13h]
08050986 7818     ldrb    r0,[r3]
08050988 22EF     mov     r2,0EFh
0805098A 4002     and     r2,r0
0805098C 2008     mov     r0,8h
0805098E 4302     orr     r2,r0
08050990 432A     orr     r2,r5
08050992 701A     strb    r2,[r3]
08050994 7399     strb    r1,[r3,0Eh]
08050996 8199     strh    r1,[r3,0Ch]
08050998 4903     ldr     r1,=3000738h
0805099A 8958     ldrh    r0,[r3,0Ah]
0805099C 8889     ldrh    r1,[r1,4h]
0805099E 4288     cmp     r0,r1
080509A0 D904     bls     80509ACh
080509A2 2040     mov     r0,40h
080509A4 4302     orr     r2,r0
080509A6 E003     b       80509B0h
080509A8 0738     lsl     r0,r7,1Ch
080509AA 0300     lsl     r0,r0,0Ch
080509AC 20BF     mov     r0,0BFh
080509AE 4002     and     r2,r0
080509B0 701A     strb    r2,[r3]
080509B2 2C0D     cmp     r4,0Dh
080509B4 D108     bne     80509C8h
080509B6 4803     ldr     r0,=8327018h
080509B8 6058     str     r0,[r3,4h]
080509BA 20FC     mov     r0,0FCh
080509BC F7B2F834 bl      8002A28h
080509C0 E007     b       80509D2h
080509C2 0000     lsl     r0,r0,0h
080509C4 7018     strb    r0,[r3]
080509C6 0832     lsr     r2,r6,20h
080509C8 4803     ldr     r0,=8326FD0h
080509CA 6058     str     r0,[r3,4h]
080509CC 20F9     mov     r0,0F9h
080509CE F7B2F82B bl      8002A28h
080509D2 BC30     pop     r4,r5
080509D4 BC01     pop     r0
080509D6 4700     bx      r0
080509D8 6FD0     ldr     r0,[r2,7Ch]
080509DA 0832     lsr     r2,r6,20h
080509DC B5F0     push    r4-r7,lr
080509DE 4657     mov     r7,r10
080509E0 464E     mov     r6,r9
080509E2 4645     mov     r5,r8
080509E4 B4E0     push    r5-r7
080509E6 1C04     mov     r4,r0
080509E8 1C0F     mov     r7,r1
080509EA 0412     lsl     r2,r2,10h
080509EC 0C15     lsr     r5,r2,10h
080509EE 46AA     mov     r10,r5
080509F0 041B     lsl     r3,r3,10h
080509F2 0C1E     lsr     r6,r3,10h
080509F4 46B1     mov     r9,r6
080509F6 3032     add     r0,32h
080509F8 7801     ldrb    r1,[r0]
080509FA 2008     mov     r0,8h
080509FC 4680     mov     r8,r0
080509FE 4008     and     r0,r1
08050A00 2800     cmp     r0,0h
08050A02 D003     beq     8050A0Ch
08050A04 1C20     mov     r0,r4
08050A06 F7FFFD61 bl      80504CCh
08050A0A E014     b       8050A36h
08050A0C 2040     mov     r0,40h
08050A0E 4008     and     r0,r1
08050A10 2800     cmp     r0,0h
08050A12 D005     beq     8050A20h
08050A14 1C20     mov     r0,r4
08050A16 F7FFFD49 bl      80504ACh
08050A1A 1C28     mov     r0,r5
08050A1C 1C31     mov     r1,r6
08050A1E E015     b       8050A4Ch
08050A20 1C20     mov     r0,r4
08050A22 F7FFFCA5 bl      8050370h
08050A26 4641     mov     r1,r8
08050A28 4001     and     r1,r0
08050A2A 2900     cmp     r1,0h
08050A2C D009     beq     8050A42h
08050A2E 1C20     mov     r0,r4
08050A30 2114     mov     r1,14h
08050A32 F7FFFCF7 bl      8050424h
08050A36 1C28     mov     r0,r5
08050A38 1C31     mov     r1,r6
08050A3A 2230     mov     r2,30h
08050A3C F003FB56 bl      80540ECh
08050A40 E00D     b       8050A5Eh
08050A42 1C20     mov     r0,r4
08050A44 F7FFFD42 bl      80504CCh
08050A48 4650     mov     r0,r10
08050A4A 4649     mov     r1,r9
08050A4C 222F     mov     r2,2Fh
08050A4E F003FB4D bl      80540ECh
08050A52 1C20     mov     r0,r4
08050A54 1C39     mov     r1,r7
08050A56 220C     mov     r2,0Ch
08050A58 F7FFFF5C bl      8050914h
08050A5C E007     b       8050A6Eh
08050A5E 7C78     ldrb    r0,[r7,11h]
08050A60 2800     cmp     r0,0h
08050A62 D102     bne     8050A6Ah
08050A64 1C38     mov     r0,r7
08050A66 F001F885 bl      8051B74h
08050A6A 2000     mov     r0,0h
08050A6C 7038     strb    r0,[r7]
08050A6E BC38     pop     r3-r5
08050A70 4698     mov     r8,r3
08050A72 46A1     mov     r9,r4
08050A74 46AA     mov     r10,r5
08050A76 BCF0     pop     r4-r7
08050A78 BC01     pop     r0
08050A7A 4700     bx      r0
08050A7C B5F0     push    r4-r7,lr
08050A7E 464F     mov     r7,r9
08050A80 4646     mov     r6,r8
08050A82 B4C0     push    r6,r7
08050A84 1C04     mov     r4,r0
08050A86 1C0F     mov     r7,r1
08050A88 0412     lsl     r2,r2,10h
08050A8A 0C15     lsr     r5,r2,10h
08050A8C 46A9     mov     r9,r5
08050A8E 041B     lsl     r3,r3,10h
08050A90 0C1E     lsr     r6,r3,10h
08050A92 46B0     mov     r8,r6
08050A94 3032     add     r0,32h
08050A96 7801     ldrb    r1,[r0]
08050A98 2008     mov     r0,8h
08050A9A 4008     and     r0,r1
08050A9C 2800     cmp     r0,0h
08050A9E D003     beq     8050AA8h
08050AA0 1C20     mov     r0,r4
08050AA2 F7FFFD13 bl      80504CCh
08050AA6 E014     b       8050AD2h
08050AA8 2040     mov     r0,40h
08050AAA 4008     and     r0,r1
08050AAC 2800     cmp     r0,0h
08050AAE D005     beq     8050ABCh
08050AB0 1C20     mov     r0,r4
08050AB2 F7FFFCFB bl      80504ACh
08050AB6 1C28     mov     r0,r5
08050AB8 1C31     mov     r1,r6
08050ABA E015     b       8050AE8h
08050ABC 1C20     mov     r0,r4
08050ABE F7FFFC57 bl      8050370h
08050AC2 210C     mov     r1,0Ch
08050AC4 4001     and     r1,r0
08050AC6 2900     cmp     r1,0h
08050AC8 D009     beq     8050ADEh
08050ACA 1C20     mov     r0,r4
08050ACC 2164     mov     r1,64h
08050ACE F7FFFCA9 bl      8050424h
08050AD2 1C28     mov     r0,r5
08050AD4 1C31     mov     r1,r6
08050AD6 2231     mov     r2,31h
08050AD8 F003FB08 bl      80540ECh
08050ADC E00D     b       8050AFAh
08050ADE 1C20     mov     r0,r4
08050AE0 F7FFFCF4 bl      80504CCh
08050AE4 4648     mov     r0,r9
08050AE6 4641     mov     r1,r8
08050AE8 222F     mov     r2,2Fh
08050AEA F003FAFF bl      80540ECh
08050AEE 1C20     mov     r0,r4
08050AF0 1C39     mov     r1,r7
08050AF2 220D     mov     r2,0Dh
08050AF4 F7FFFF0E bl      8050914h
08050AF8 E007     b       8050B0Ah
08050AFA 7C78     ldrb    r0,[r7,11h]
08050AFC 2800     cmp     r0,0h
08050AFE D102     bne     8050B06h
08050B00 1C38     mov     r0,r7
08050B02 F001F8DF bl      8051CC4h
08050B06 2000     mov     r0,0h
08050B08 7038     strb    r0,[r7]
08050B0A BC18     pop     r3,r4
08050B0C 4698     mov     r8,r3
08050B0E 46A1     mov     r9,r4
08050B10 BCF0     pop     r4-r7
08050B12 BC01     pop     r0
08050B14 4700     bx      r0
08050B16 0000     lsl     r0,r0,0h
08050B18 B510     push    r4,lr
08050B1A 1C04     mov     r4,r0
08050B1C 3032     add     r0,32h
08050B1E 7801     ldrb    r1,[r0]
08050B20 2040     mov     r0,40h
08050B22 4008     and     r0,r1
08050B24 2800     cmp     r0,0h
08050B26 D003     beq     8050B30h
08050B28 1C20     mov     r0,r4
08050B2A F7FFFCBF bl      80504ACh
08050B2E E016     b       8050B5Eh
08050B30 2008     mov     r0,8h
08050B32 4008     and     r0,r1
08050B34 2800     cmp     r0,0h
08050B36 D003     beq     8050B40h
08050B38 1C20     mov     r0,r4
08050B3A F7FFFCC7 bl      80504CCh
08050B3E E00E     b       8050B5Eh
08050B40 1C20     mov     r0,r4
08050B42 F7FFFC15 bl      8050370h
08050B46 2102     mov     r1,2h
08050B48 4001     and     r1,r0
08050B4A 2900     cmp     r1,0h
08050B4C D004     beq     8050B58h
08050B4E 1C20     mov     r0,r4
08050B50 2108     mov     r1,8h
08050B52 F7FFFC67 bl      8050424h
08050B56 E002     b       8050B5Eh
08050B58 1C20     mov     r0,r4
08050B5A F7FFFCB7 bl      80504CCh
08050B5E BC10     pop     r4
08050B60 BC01     pop     r0
08050B62 4700     bx      r0
08050B64 B510     push    r4,lr
08050B66 1C04     mov     r4,r0
08050B68 7C60     ldrb    r0,[r4,11h]
08050B6A 2802     cmp     r0,2h
08050B6C D10E     bne     8050B8Ch
08050B6E 4806     ldr     r0,=3000079h
08050B70 2107     mov     r1,7h
08050B72 7001     strb    r1,[r0]
08050B74 1C20     mov     r0,r4
08050B76 F7FEFF61 bl      804FA3Ch
08050B7A 2800     cmp     r0,0h
08050B7C D110     bne     8050BA0h
08050B7E 1C20     mov     r0,r4
08050B80 2114     mov     r1,14h
08050B82 F7FEFEE7 bl      804F954h
08050B86 E059     b       8050C3Ch
08050B88 0079     lsl     r1,r7,1h
08050B8A 0300     lsl     r0,r0,0Ch
08050B8C 2801     cmp     r0,1h
08050B8E D119     bne     8050BC4h
08050B90 4807     ldr     r0,=3000079h
08050B92 2107     mov     r1,7h
08050B94 7001     strb    r1,[r0]
08050B96 1C20     mov     r0,r4
08050B98 F7FEFF50 bl      804FA3Ch
08050B9C 2800     cmp     r0,0h
08050B9E D009     beq     8050BB4h
08050BA0 2000     mov     r0,0h
08050BA2 7020     strb    r0,[r4]
08050BA4 8920     ldrh    r0,[r4,8h]
08050BA6 8961     ldrh    r1,[r4,0Ah]
08050BA8 222A     mov     r2,2Ah
08050BAA F003FA9F bl      80540ECh
08050BAE E04E     b       8050C4Eh
08050BB0 0079     lsl     r1,r7,1h
08050BB2 0300     lsl     r0,r0,0Ch
08050BB4 7C60     ldrb    r0,[r4,11h]
08050BB6 3001     add     r0,1h
08050BB8 7460     strb    r0,[r4,11h]
08050BBA 1C20     mov     r0,r4
08050BBC 2110     mov     r1,10h
08050BBE F7FEFEC9 bl      804F954h
08050BC2 E03B     b       8050C3Ch
08050BC4 7C20     ldrb    r0,[r4,10h]
08050BC6 2804     cmp     r0,4h
08050BC8 D820     bhi     8050C0Ch
08050BCA 0080     lsl     r0,r0,2h
08050BCC 4901     ldr     r1,=8050BD8h
08050BCE 1840     add     r0,r0,r1
08050BD0 6800     ldr     r0,[r0]
08050BD2 4687     mov     r15,r0
08050BD4 0BD8     lsr     r0,r3,0Fh
08050BD6 0805     lsr     r5,r0,20h
08050BD8 0C0C     lsr     r4,r1,10h
08050BDA 0805     lsr     r5,r0,20h
08050BDC 0BF4     lsr     r4,r6,0Fh
08050BDE 0805     lsr     r5,r0,20h
08050BE0 0BEC     lsr     r4,r5,0Fh
08050BE2 0805     lsr     r5,r0,20h
08050BE4 0C04     lsr     r4,r0,10h
08050BE6 0805     lsr     r5,r0,20h
08050BE8 0BFC     lsr     r4,r7,0Fh
08050BEA 0805     lsr     r5,r0,20h
08050BEC 7821     ldrb    r1,[r4]
08050BEE 2020     mov     r0,20h
08050BF0 4308     orr     r0,r1
08050BF2 7020     strb    r0,[r4]
08050BF4 4800     ldr     r0,=8327AA8h
08050BF6 E00A     b       8050C0Eh
08050BF8 7AA8     ldrb    r0,[r5,0Ah]
08050BFA 0832     lsr     r2,r6,20h
08050BFC 7821     ldrb    r1,[r4]
08050BFE 2020     mov     r0,20h
08050C00 4308     orr     r0,r1
08050C02 7020     strb    r0,[r4]
08050C04 4800     ldr     r0,=8327AC0h
08050C06 E002     b       8050C0Eh
08050C08 7AC0     ldrb    r0,[r0,0Bh]
08050C0A 0832     lsr     r2,r6,20h
08050C0C 4811     ldr     r0,=8327A90h
08050C0E 6060     str     r0,[r4,4h]
08050C10 2200     mov     r2,0h
08050C12 2040     mov     r0,40h
08050C14 74A0     strb    r0,[r4,12h]
08050C16 7821     ldrb    r1,[r4]
08050C18 20FB     mov     r0,0FBh
08050C1A 4008     and     r0,r1
08050C1C 7020     strb    r0,[r4]
08050C1E 73A2     strb    r2,[r4,0Eh]
08050C20 81A2     strh    r2,[r4,0Ch]
08050C22 490D     ldr     r1,=0FFF8h
08050C24 82A1     strh    r1,[r4,14h]
08050C26 2008     mov     r0,8h
08050C28 82E0     strh    r0,[r4,16h]
08050C2A 8321     strh    r1,[r4,18h]
08050C2C 8360     strh    r0,[r4,1Ah]
08050C2E 2001     mov     r0,1h
08050C30 7460     strb    r0,[r4,11h]
08050C32 1C20     mov     r0,r4
08050C34 2107     mov     r1,7h
08050C36 222A     mov     r2,2Ah
08050C38 F7FFF886 bl      804FD48h
08050C3C 7CE0     ldrb    r0,[r4,13h]
08050C3E 3001     add     r0,1h
08050C40 74E0     strb    r0,[r4,13h]
08050C42 0600     lsl     r0,r0,18h
08050C44 0E00     lsr     r0,r0,18h
08050C46 280C     cmp     r0,0Ch
08050C48 D901     bls     8050C4Eh
08050C4A 2000     mov     r0,0h
08050C4C 7020     strb    r0,[r4]
08050C4E BC10     pop     r4
08050C50 BC01     pop     r0
08050C52 4700     bx      r0
08050C54 7A90     ldrb    r0,[r2,0Ah]
08050C56 0832     lsr     r2,r6,20h
08050C58 FFF80000 ????
08050C5A 0000     lsl     r0,r0,0h
08050C5C B510     push    r4,lr
08050C5E 1C04     mov     r4,r0
08050C60 7C60     ldrb    r0,[r4,11h]
08050C62 2802     cmp     r0,2h
08050C64 D10E     bne     8050C84h
08050C66 4806     ldr     r0,=3000079h
08050C68 2107     mov     r1,7h
08050C6A 7001     strb    r1,[r0]
08050C6C 1C20     mov     r0,r4
08050C6E F7FEFEE5 bl      804FA3Ch
08050C72 2800     cmp     r0,0h
08050C74 D110     bne     8050C98h
08050C76 1C20     mov     r0,r4
08050C78 2118     mov     r1,18h
08050C7A F7FEFE6B bl      804F954h
08050C7E E059     b       8050D34h
08050C80 0079     lsl     r1,r7,1h
08050C82 0300     lsl     r0,r0,0Ch
08050C84 2801     cmp     r0,1h
08050C86 D119     bne     8050CBCh
08050C88 4807     ldr     r0,=3000079h
08050C8A 2107     mov     r1,7h
08050C8C 7001     strb    r1,[r0]
08050C8E 1C20     mov     r0,r4
08050C90 F7FEFED4 bl      804FA3Ch
08050C94 2800     cmp     r0,0h
08050C96 D009     beq     8050CACh
08050C98 2000     mov     r0,0h
08050C9A 7020     strb    r0,[r4]
08050C9C 8920     ldrh    r0,[r4,8h]
08050C9E 8961     ldrh    r1,[r4,0Ah]
08050CA0 222B     mov     r2,2Bh
08050CA2 F003FA23 bl      80540ECh
08050CA6 E048     b       8050D3Ah
08050CA8 0079     lsl     r1,r7,1h
08050CAA 0300     lsl     r0,r0,0Ch
08050CAC 7C60     ldrb    r0,[r4,11h]
08050CAE 3001     add     r0,1h
08050CB0 7460     strb    r0,[r4,11h]
08050CB2 1C20     mov     r0,r4
08050CB4 2110     mov     r1,10h
08050CB6 F7FEFE4D bl      804F954h
08050CBA E03B     b       8050D34h
08050CBC 7C20     ldrb    r0,[r4,10h]
08050CBE 2804     cmp     r0,4h
08050CC0 D820     bhi     8050D04h
08050CC2 0080     lsl     r0,r0,2h
08050CC4 4901     ldr     r1,=8050CD0h
08050CC6 1840     add     r0,r0,r1
08050CC8 6800     ldr     r0,[r0]
08050CCA 4687     mov     r15,r0
08050CCC 0CD0     lsr     r0,r2,13h
08050CCE 0805     lsr     r5,r0,20h
08050CD0 0D04     lsr     r4,r0,14h
08050CD2 0805     lsr     r5,r0,20h
08050CD4 0CEC     lsr     r4,r5,13h
08050CD6 0805     lsr     r5,r0,20h
08050CD8 0CE4     lsr     r4,r4,13h
08050CDA 0805     lsr     r5,r0,20h
08050CDC 0CFC     lsr     r4,r7,13h
08050CDE 0805     lsr     r5,r0,20h
08050CE0 0CF4     lsr     r4,r6,13h
08050CE2 0805     lsr     r5,r0,20h
08050CE4 7821     ldrb    r1,[r4]
08050CE6 2020     mov     r0,20h
08050CE8 4308     orr     r0,r1
08050CEA 7020     strb    r0,[r4]
08050CEC 4800     ldr     r0,=8328460h
08050CEE E00A     b       8050D06h
08050CF0 8460     strh    r0,[r4,22h]
08050CF2 0832     lsr     r2,r6,20h
08050CF4 7821     ldrb    r1,[r4]
08050CF6 2020     mov     r0,20h
08050CF8 4308     orr     r0,r1
08050CFA 7020     strb    r0,[r4]
08050CFC 4800     ldr     r0,=8328478h
08050CFE E002     b       8050D06h
08050D00 8478     strh    r0,[r7,22h]
08050D02 0832     lsr     r2,r6,20h
08050D04 480E     ldr     r0,=8328448h
08050D06 6060     str     r0,[r4,4h]
08050D08 2200     mov     r2,0h
08050D0A 2040     mov     r0,40h
08050D0C 74A0     strb    r0,[r4,12h]
08050D0E 7821     ldrb    r1,[r4]
08050D10 20FB     mov     r0,0FBh
08050D12 4008     and     r0,r1
08050D14 7020     strb    r0,[r4]
08050D16 73A2     strb    r2,[r4,0Eh]
08050D18 81A2     strh    r2,[r4,0Ch]
08050D1A 490A     ldr     r1,=0FFF4h
08050D1C 82A1     strh    r1,[r4,14h]
08050D1E 200C     mov     r0,0Ch
08050D20 82E0     strh    r0,[r4,16h]
08050D22 8321     strh    r1,[r4,18h]
08050D24 8360     strh    r0,[r4,1Ah]
08050D26 2001     mov     r0,1h
08050D28 7460     strb    r0,[r4,11h]
08050D2A 1C20     mov     r0,r4
08050D2C 2107     mov     r1,7h
08050D2E 222B     mov     r2,2Bh
08050D30 F7FFF80A bl      804FD48h
08050D34 7CE0     ldrb    r0,[r4,13h]
08050D36 3001     add     r0,1h
08050D38 74E0     strb    r0,[r4,13h]
08050D3A BC10     pop     r4
08050D3C BC01     pop     r0
08050D3E 4700     bx      r0
08050D40 8448     strh    r0,[r1,22h]
08050D42 0832     lsr     r2,r6,20h
08050D44 FFF40000 ????
08050D46 0000     lsl     r0,r0,0h
08050D48 B510     push    r4,lr
08050D4A 1C04     mov     r4,r0
08050D4C 7C60     ldrb    r0,[r4,11h]
08050D4E 2802     cmp     r0,2h
08050D50 D11C     bne     8050D8Ch
08050D52 480A     ldr     r0,=3000079h
08050D54 2107     mov     r1,7h
08050D56 7001     strb    r1,[r0]
08050D58 1C20     mov     r0,r4
08050D5A F7FEFE6F bl      804FA3Ch
08050D5E 2800     cmp     r0,0h
08050D60 D11E     bne     8050DA0h
08050D62 1C20     mov     r0,r4
08050D64 211A     mov     r1,1Ah
08050D66 F7FEFDF5 bl      804F954h
08050D6A 7821     ldrb    r1,[r4]
08050D6C 2040     mov     r0,40h
08050D6E 4008     and     r0,r1
08050D70 2800     cmp     r0,0h
08050D72 D005     beq     8050D80h
08050D74 1C20     mov     r0,r4
08050D76 2117     mov     r1,17h
08050D78 E004     b       8050D84h
08050D7A 0000     lsl     r0,r0,0h
08050D7C 0079     lsl     r1,r7,1h
08050D7E 0300     lsl     r0,r0,0Ch
08050D80 1C20     mov     r0,r4
08050D82 2116     mov     r1,16h
08050D84 2203     mov     r2,3h
08050D86 F7FEFF57 bl      804FC38h
08050D8A E057     b       8050E3Ch
08050D8C 2801     cmp     r0,1h
08050D8E D119     bne     8050DC4h
08050D90 4807     ldr     r0,=3000079h
08050D92 2107     mov     r1,7h
08050D94 7001     strb    r1,[r0]
08050D96 1C20     mov     r0,r4
08050D98 F7FEFE50 bl      804FA3Ch
08050D9C 2800     cmp     r0,0h
08050D9E D009     beq     8050DB4h
08050DA0 2000     mov     r0,0h
08050DA2 7020     strb    r0,[r4]
08050DA4 8920     ldrh    r0,[r4,8h]
08050DA6 8961     ldrh    r1,[r4,0Ah]
08050DA8 222C     mov     r2,2Ch
08050DAA F003F99F bl      80540ECh
08050DAE E053     b       8050E58h
08050DB0 0079     lsl     r1,r7,1h
08050DB2 0300     lsl     r0,r0,0Ch
08050DB4 7C60     ldrb    r0,[r4,11h]
08050DB6 3001     add     r0,1h
08050DB8 7460     strb    r0,[r4,11h]
08050DBA 1C20     mov     r0,r4
08050DBC 2110     mov     r1,10h
08050DBE F7FEFDC9 bl      804F954h
08050DC2 E03B     b       8050E3Ch
08050DC4 7C20     ldrb    r0,[r4,10h]
08050DC6 2804     cmp     r0,4h
08050DC8 D820     bhi     8050E0Ch
08050DCA 0080     lsl     r0,r0,2h
08050DCC 4901     ldr     r1,=8050DD8h
08050DCE 1840     add     r0,r0,r1
08050DD0 6800     ldr     r0,[r0]
08050DD2 4687     mov     r15,r0
08050DD4 0DD8     lsr     r0,r3,17h
08050DD6 0805     lsr     r5,r0,20h
08050DD8 0E0C     lsr     r4,r1,18h
08050DDA 0805     lsr     r5,r0,20h
08050DDC 0DF4     lsr     r4,r6,17h
08050DDE 0805     lsr     r5,r0,20h
08050DE0 0DEC     lsr     r4,r5,17h
08050DE2 0805     lsr     r5,r0,20h
08050DE4 0E04     lsr     r4,r0,18h
08050DE6 0805     lsr     r5,r0,20h
08050DE8 0DFC     lsr     r4,r7,17h
08050DEA 0805     lsr     r5,r0,20h
08050DEC 7821     ldrb    r1,[r4]
08050DEE 2020     mov     r0,20h
08050DF0 4308     orr     r0,r1
08050DF2 7020     strb    r0,[r4]
08050DF4 4800     ldr     r0,=8328E44h
08050DF6 E00A     b       8050E0Eh
08050DF8 8E44     ldrh    r4,[r0,32h]
08050DFA 0832     lsr     r2,r6,20h
08050DFC 7821     ldrb    r1,[r4]
08050DFE 2020     mov     r0,20h
08050E00 4308     orr     r0,r1
08050E02 7020     strb    r0,[r4]
08050E04 4800     ldr     r0,=8328E5Ch
08050E06 E002     b       8050E0Eh
08050E08 8E5C     ldrh    r4,[r3,32h]
08050E0A 0832     lsr     r2,r6,20h
08050E0C 4814     ldr     r0,=8328E2Ch
08050E0E 6060     str     r0,[r4,4h]
08050E10 2200     mov     r2,0h
08050E12 2040     mov     r0,40h
08050E14 74A0     strb    r0,[r4,12h]
08050E16 7821     ldrb    r1,[r4]
08050E18 20FB     mov     r0,0FBh
08050E1A 4008     and     r0,r1
08050E1C 7020     strb    r0,[r4]
08050E1E 73A2     strb    r2,[r4,0Eh]
08050E20 81A2     strh    r2,[r4,0Ch]
08050E22 4910     ldr     r1,=0FFECh
08050E24 82A1     strh    r1,[r4,14h]
08050E26 2014     mov     r0,14h
08050E28 82E0     strh    r0,[r4,16h]
08050E2A 8321     strh    r1,[r4,18h]
08050E2C 8360     strh    r0,[r4,1Ah]
08050E2E 2001     mov     r0,1h
08050E30 7460     strb    r0,[r4,11h]
08050E32 1C20     mov     r0,r4
08050E34 2107     mov     r1,7h
08050E36 222C     mov     r2,2Ch
08050E38 F7FEFF86 bl      804FD48h
08050E3C 7CE0     ldrb    r0,[r4,13h]
08050E3E 1C42     add     r2,r0,1
08050E40 74E2     strb    r2,[r4,13h]
08050E42 4809     ldr     r0,=3001530h
08050E44 7B40     ldrb    r0,[r0,0Dh]
08050E46 2101     mov     r1,1h
08050E48 4001     and     r1,r0
08050E4A 2900     cmp     r1,0h
08050E4C D104     bne     8050E58h
08050E4E 0610     lsl     r0,r2,18h
08050E50 0E00     lsr     r0,r0,18h
08050E52 280C     cmp     r0,0Ch
08050E54 D900     bls     8050E58h
08050E56 7021     strb    r1,[r4]
08050E58 BC10     pop     r4
08050E5A BC01     pop     r0
08050E5C 4700     bx      r0
08050E5E 0000     lsl     r0,r0,0h
08050E60 8E2C     ldrh    r4,[r5,30h]
08050E62 0832     lsr     r2,r6,20h
08050E64 FFEC0000 ????
08050E66 0000     lsl     r0,r0,0h
08050E68 1530     asr     r0,r6,14h
08050E6A 0300     lsl     r0,r0,0Ch
08050E6C B5F0     push    r4-r7,lr
08050E6E 4647     mov     r7,r8
08050E70 B480     push    r7
08050E72 1C02     mov     r2,r0
08050E74 2500     mov     r5,0h
08050E76 2707     mov     r7,7h
08050E78 8914     ldrh    r4,[r2,8h]
08050E7A 8956     ldrh    r6,[r2,0Ah]
08050E7C 7C10     ldrb    r0,[r2,10h]
08050E7E 2804     cmp     r0,4h
08050E80 D900     bls     8050E84h
08050E82 E0C5     b       8051010h
08050E84 0080     lsl     r0,r0,2h
08050E86 4902     ldr     r1,=8050E94h
08050E88 1840     add     r0,r0,r1
08050E8A 6800     ldr     r0,[r0]
08050E8C 4687     mov     r15,r0
08050E8E 0000     lsl     r0,r0,0h
08050E90 0E94     lsr     r4,r2,1Ah
08050E92 0805     lsr     r5,r0,20h
08050E94 1010     asr     r0,r2,20h
08050E96 0805     lsr     r5,r0,20h
08050E98 0F3C     lsr     r4,r7,1Ch
08050E9A 0805     lsr     r5,r0,20h
08050E9C 0EA8     lsr     r0,r5,1Ah
08050E9E 0805     lsr     r5,r0,20h
08050EA0 0FD0     lsr     r0,r2,1Fh
08050EA2 0805     lsr     r5,r0,20h
08050EA4 0FD0     lsr     r0,r2,1Fh
08050EA6 0805     lsr     r5,r0,20h
08050EA8 7811     ldrb    r1,[r2]
08050EAA 2040     mov     r0,40h
08050EAC 4008     and     r0,r1
08050EAE 2800     cmp     r0,0h
08050EB0 D022     beq     8050EF8h
08050EB2 4810     ldr     r0,=3000079h
08050EB4 4680     mov     r8,r0
08050EB6 7007     strb    r7,[r0]
08050EB8 1C20     mov     r0,r4
08050EBA 1C31     mov     r1,r6
08050EBC F7FEFDAC bl      804FA18h
08050EC0 2800     cmp     r0,0h
08050EC2 D002     beq     8050ECAh
08050EC4 1C68     add     r0,r5,1
08050EC6 0600     lsl     r0,r0,18h
08050EC8 0E05     lsr     r5,r0,18h
08050ECA 4640     mov     r0,r8
08050ECC 7007     strb    r7,[r0]
08050ECE 1C20     mov     r0,r4
08050ED0 382D     sub     r0,2Dh
08050ED2 1C31     mov     r1,r6
08050ED4 312D     add     r1,2Dh
08050ED6 F7FEFD9F bl      804FA18h
08050EDA 2800     cmp     r0,0h
08050EDC D002     beq     8050EE4h
08050EDE 1C68     add     r0,r5,1
08050EE0 0600     lsl     r0,r0,18h
08050EE2 0E05     lsr     r5,r0,18h
08050EE4 4640     mov     r0,r8
08050EE6 7007     strb    r7,[r0]
08050EE8 1C20     mov     r0,r4
08050EEA 302D     add     r0,2Dh
08050EEC 1C31     mov     r1,r6
08050EEE 392D     sub     r1,2Dh
08050EF0 E0AB     b       805104Ah
08050EF2 0000     lsl     r0,r0,0h
08050EF4 0079     lsl     r1,r7,1h
08050EF6 0300     lsl     r0,r0,0Ch
08050EF8 480F     ldr     r0,=3000079h
08050EFA 4680     mov     r8,r0
08050EFC 7007     strb    r7,[r0]
08050EFE 1C20     mov     r0,r4
08050F00 1C31     mov     r1,r6
08050F02 F7FEFD89 bl      804FA18h
08050F06 2800     cmp     r0,0h
08050F08 D002     beq     8050F10h
08050F0A 1C68     add     r0,r5,1
08050F0C 0600     lsl     r0,r0,18h
08050F0E 0E05     lsr     r5,r0,18h
08050F10 4640     mov     r0,r8
08050F12 7007     strb    r7,[r0]
08050F14 1C20     mov     r0,r4
08050F16 382D     sub     r0,2Dh
08050F18 1C31     mov     r1,r6
08050F1A 392D     sub     r1,2Dh
08050F1C F7FEFD7C bl      804FA18h
08050F20 2800     cmp     r0,0h
08050F22 D002     beq     8050F2Ah
