08020578 B5F0     push    r4-r7,r14                               
0802057A B084     add     sp,-10h                                 
0802057C 4D08     ldr     r5,=30006BCh                            
0802057E 8829     ldrh    r1,[r5]                                 
08020580 2080     mov     r0,80h                                  
08020582 4008     and     r0,r1                                   
08020584 2800     cmp     r0,0h                                   
08020586 D002     beq     802058Eh                                
08020588 4806     ldr     r0,=0FF7Fh                              
0802058A 4008     and     r0,r1                                   
0802058C 8028     strh    r0,[r5]                                 
0802058E 1C28     mov     r0,r5                                   
08020590 302D     add     r0,2Dh                                  
08020592 7800     ldrb    r0,[r0]                                 
08020594 2802     cmp     r0,2h                                   
08020596 D007     beq     80205A8h                                
08020598 2803     cmp     r0,3h                                   
0802059A D018     beq     80205CEh                                
0802059C E03A     b       8020614h                                
0802059E 0000     lsl     r0,r0,0h                                
080205A0 06BC     lsl     r4,r7,1Ah                               
080205A2 0300     lsl     r0,r0,0Ch                               
080205A4 FF7F     bl      lr+0EFEh                                
080205A6 0000     lsl     r0,r0,0h                                
080205A8 7F69     ldrb    r1,[r5,1Dh]                             
080205AA 1C28     mov     r0,r5                                   
080205AC 3023     add     r0,23h                                  
080205AE 7803     ldrb    r3,[r0]                                 
080205B0 3007     add     r0,7h                                   
080205B2 7800     ldrb    r0,[r0]                                 
080205B4 9000     str     r0,[sp]                                 
080205B6 8868     ldrh    r0,[r5,2h]                              
080205B8 3040     add     r0,40h                                  
080205BA 9001     str     r0,[sp,4h]                              
080205BC 88A8     ldrh    r0,[r5,4h]                              
080205BE 9002     str     r0,[sp,8h]                              
080205C0 2000     mov     r0,0h                                   
080205C2 9003     str     r0,[sp,0Ch]                             
080205C4 2038     mov     r0,38h                                  
080205C6 2200     mov     r2,0h                                   
080205C8 F7EFFB6C bl      800FCA4h                                
080205CC E022     b       8020614h                                
080205CE 7F69     ldrb    r1,[r5,1Dh]                             
080205D0 1C2F     mov     r7,r5                                   
080205D2 3723     add     r7,23h                                  
080205D4 783B     ldrb    r3,[r7]                                 
080205D6 1C2E     mov     r6,r5                                   
080205D8 362A     add     r6,2Ah                                  
080205DA 7830     ldrb    r0,[r6]                                 
080205DC 9000     str     r0,[sp]                                 
080205DE 8868     ldrh    r0,[r5,2h]                              
080205E0 3040     add     r0,40h                                  
080205E2 9001     str     r0,[sp,4h]                              
080205E4 88A8     ldrh    r0,[r5,4h]                              
080205E6 3040     add     r0,40h                                  
080205E8 9002     str     r0,[sp,8h]                              
080205EA 2400     mov     r4,0h                                   
080205EC 9403     str     r4,[sp,0Ch]                             
080205EE 2038     mov     r0,38h                                  
080205F0 2200     mov     r2,0h                                   
080205F2 F7EFFB57 bl      800FCA4h                                
080205F6 7F69     ldrb    r1,[r5,1Dh]                             
080205F8 783B     ldrb    r3,[r7]                                 
080205FA 7830     ldrb    r0,[r6]                                 
080205FC 9000     str     r0,[sp]                                 
080205FE 8868     ldrh    r0,[r5,2h]                              
08020600 3040     add     r0,40h                                  
08020602 9001     str     r0,[sp,4h]                              
08020604 88A8     ldrh    r0,[r5,4h]                              
08020606 3840     sub     r0,40h                                  
08020608 9002     str     r0,[sp,8h]                              
0802060A 9403     str     r4,[sp,0Ch]                             
0802060C 2038     mov     r0,38h                                  
0802060E 2200     mov     r2,0h                                   
08020610 F7EFFB48 bl      800FCA4h                                
08020614 B004     add     sp,10h                                  
08020616 BCF0     pop     r4-r7                                   
08020618 BC01     pop     r0                                      
0802061A 4700     bx      r0  

;pose 0                                    
0802061C B500     push    r14                                     
0802061E 4809     ldr     r0,=30006BCh                            
08020620 1C02     mov     r2,r0                                   
08020622 3224     add     r2,24h                                  
08020624 7811     ldrb    r1,[r2]      ;读取pose                           
08020626 1C03     mov     r3,r0                                   
08020628 2900     cmp     r1,0h                                   
0802062A D118     bne     @@PoseNoZero                                
0802062C 302A     add     r0,2Ah                                  
0802062E 7800     ldrb    r0,[r0]      ;读取6e7 默认24                             
08020630 3820     sub     r0,20h                                  
08020632 0600     lsl     r0,r0,18h                               
08020634 0E00     lsr     r0,r0,18h                               
08020636 282F     cmp     r0,2Fh                                  
08020638 D806     bhi     @@MoreThan2F+20                                
0802063A 1C19     mov     r1,r3                                   
0802063C 312D     add     r1,2Dh                                  
0802063E 2001     mov     r0,1h                                   
08020640 7008     strb    r0,[r1]      ;产卵次数写入1                           
08020642 E004     b       @@Goto                                

@@MoreThan2F+20:                               
08020648 1C18     mov     r0,r3                                   
0802064A 302D     add     r0,2Dh                                  
0802064C 7001     strb    r1,[r0]      ;产卵次数写入0

@@Goto:                                
0802064E 1C19     mov     r1,r3                                   
08020650 3124     add     r1,24h                                  
08020652 2001     mov     r0,1h                                   
08020654 7008     strb    r0,[r1]      ;pose写入1                            
08020656 8858     ldrh    r0,[r3,2h]                              
08020658 3820     sub     r0,20h                                  
0802065A 8058     strh    r0,[r3,2h]   ;Y坐标向上半格                           
0802065C E008     b       @@Goto2 

@@PoseNoZero:                               
0802065E 1C19     mov     r1,r3                                   
08020660 312D     add     r1,2Dh                                  
08020662 7808     ldrb    r0,[r1]      ;读取产卵次数                           
08020664 3001     add     r0,1h                                   
08020666 7008     strb    r0,[r1]      ;加1再写入                           
08020668 205A     mov     r0,5Ah                                  
0802066A 7010     strb    r0,[r2]      ;pose写入5A                           
0802066C 202C     mov     r0,2Ch                                  
0802066E 80D8     strh    r0,[r3,6h]   ;Y备份写入2C用来计数

@@Goto2:                              
08020670 1C18     mov     r0,r3                                   
08020672 302D     add     r0,2Dh                                  
08020674 7800     ldrb    r0,[r0]      ;读取产卵次数                            
08020676 2800     cmp     r0,0h                                   
08020678 D112     bne     @@SpawnTimeNoZero                                
0802067A 8819     ldrh    r1,[r3]                                 
0802067C 2280     mov     r2,80h                                  
0802067E 0212     lsl     r2,r2,8h                                
08020680 1C10     mov     r0,r2                                   
08020682 2200     mov     r2,0h                                   
08020684 4308     orr     r0,r1                                   
08020686 8018     strh    r0,[r3]      ;取向写入8000                            
08020688 1C19     mov     r1,r3                                   
0802068A 3122     add     r1,22h                                  
0802068C 200C     mov     r0,0Ch                                  
0802068E 7008     strb    r0,[r1]      ;6DE写入C                            
08020690 1C18     mov     r0,r3                                   
08020692 3025     add     r0,25h                                  
08020694 7002     strb    r2,[r0]      ;属性写入0                           
08020696 4801     ldr     r0,=82F5B18h ;极小的时候                           
08020698 E00A     b       @@Peer                                

@@SpawnTimeNoZero:                               
080206A0 1C19     mov     r1,r3                                   
080206A2 3122     add     r1,22h                                  
080206A4 2004     mov     r0,4h                                   
080206A6 7008     strb    r0,[r1]      ;6DE写入4                           
080206A8 3103     add     r1,3h                                   
080206AA 200B     mov     r0,0Bh                                  
080206AC 7008     strb    r0,[r1]      ;属性写入B                           
080206AE 480C     ldr     r0,=82F5B60h ;正常的样子

@@Peer:                            
080206B0 6198     str     r0,[r3,18h]  ;OAM写入                           
080206B2 4A0C     ldr     r2,=82E4D4Ch                            
080206B4 7F59     ldrb    r1,[r3,1Dh]  ;读取ID                           
080206B6 00C8     lsl     r0,r1,3h                                
080206B8 1A40     sub     r0,r0,r1                                
080206BA 0040     lsl     r0,r0,1h                                
080206BC 1880     add     r0,r0,r2                                
080206BE 8800     ldrh    r0,[r0]                                 
080206C0 2200     mov     r2,0h                                   
080206C2 8298     strh    r0,[r3,14h]  ;写入血量                           
080206C4 1C18     mov     r0,r3                                   
080206C6 302B     add     r0,2Bh                                  
080206C8 2100     mov     r1,0h                                   
080206CA 7002     strb    r2,[r0]      ;无敌时间写入0                             
080206CC 3002     add     r0,2h                                   
080206CE 7800     ldrb    r0,[r0]      ;读取产卵次数                           
080206D0 2801     cmp     r0,1h                                   
080206D2 D018     beq     @@SpawnTimeOne                                
080206D4 2801     cmp     r0,1h                                   
080206D6 DC07     bgt     @@SpawnTimeMoreThan1                               
080206D8 2800     cmp     r0,0h                                   
080206DA D008     beq     @@SpawnTimeZero                                
080206DC E050     b       @@Peer2                                

@@SpawnTimeMoreThan1:                               
080206E8 2802     cmp     r0,2h                                   
080206EA D029     beq     @@SpawnTimeTwo                                
080206EC E048     b       @@Peer2 

@@SpawnTimeZero:                               
080206EE 1C1A     mov     r2,r3                                   
080206F0 3234     add     r2,34h                                  
080206F2 7810     ldrb    r0,[r2]     ;读取6F1                              
080206F4 2102     mov     r1,2h                                   
080206F6 4308     orr     r0,r1                                   
080206F8 7010     strb    r0,[r2]     ;orr2再写入                            
080206FA 8818     ldrh    r0,[r3]                                 
080206FC 2180     mov     r1,80h                                  
080206FE 4308     orr     r0,r1       ;取向orr80                            
08020700 8018     strh    r0,[r3]     ;再写入                            
08020702 20A0     mov     r0,0A0h                                 
08020704 E00A     b       @@Peer3 

@@SpawnTimeOne:                               
08020706 1C1A     mov     r2,r3                                   
08020708 3234     add     r2,34h      ;读取6F1                             
0802070A 7810     ldrb    r0,[r2]                                 
0802070C 2102     mov     r1,2h                                   
0802070E 4308     orr     r0,r1                                   
08020710 7010     strb    r0,[r2]     ;orr2再写入                            
08020712 8818     ldrh    r0,[r3]                                 
08020714 2180     mov     r1,80h                                  
08020716 4308     orr     r0,r1                                   
08020718 8018     strh    r0,[r3]     ;取向orr80再写入                             
0802071A 2080     mov     r0,80h      

@@Peer3:                            
0802071C 8258     strh    r0,[r3,12h] ;写入6CE                            
0802071E 1C18     mov     r0,r3                                   
08020720 3027     add     r0,27h                                  
08020722 2108     mov     r1,8h       ;视野判定上写入8                            
08020724 7001     strb    r1,[r0]                                 
08020726 3001     add     r0,1h                                   
08020728 7001     strb    r1,[r0]     ;视野判定左右写入8                            
0802072A 3001     add     r0,1h                                   
0802072C 7001     strb    r1,[r0]     ;视野判定下写入8                            
0802072E 4903     ldr     r1,=0FFE8h                              
08020730 8159     strh    r1,[r3,0Ah]                             
08020732 2018     mov     r0,18h                                  
08020734 8198     strh    r0,[r3,0Ch]                             
08020736 81D9     strh    r1,[r3,0Eh]                             
08020738 8218     strh    r0,[r3,10h]  ;四面分界                           
0802073A E041     b       80207C0h                                

@@SpawnTimeTwo:                               
08020740 1C1A     mov     r2,r3                                   
08020742 3234     add     r2,34h                                  
08020744 7810     ldrb    r0,[r2]                                 
08020746 2102     mov     r1,2h                                   
08020748 4308     orr     r0,r1                                   
0802074A 7010     strb    r0,[r2]                                 
0802074C 8818     ldrh    r0,[r3]                                 
0802074E 2180     mov     r1,80h                                  
08020750 4308     orr     r0,r1                                   
08020752 8018     strh    r0,[r3]                                 
08020754 2080     mov     r0,80h                                  
08020756 0040     lsl     r0,r0,1h                                
08020758 8258     strh    r0,[r3,12h]                             
0802075A 1C18     mov     r0,r3                                   
0802075C 3027     add     r0,27h                                  
0802075E 2110     mov     r1,10h                                  
08020760 7001     strb    r1,[r0]                                 
08020762 3001     add     r0,1h                                   
08020764 7001     strb    r1,[r0]                                 
08020766 3001     add     r0,1h                                   
08020768 7001     strb    r1,[r0]                                 
0802076A 4904     ldr     r1,=0FFE0h                              
0802076C 8159     strh    r1,[r3,0Ah]                             
0802076E 2020     mov     r0,20h                                  
08020770 8198     strh    r0,[r3,0Ch]                             
08020772 81D9     strh    r1,[r3,0Eh]                             
08020774 8218     strh    r0,[r3,10h]                             
08020776 8A99     ldrh    r1,[r3,14h]                             
08020778 0048     lsl     r0,r1,1h                                
0802077A E01F     b       80207BCh                                

@@Peer2:                                
08020780 1C1A     mov     r2,r3                                   
08020782 3234     add     r2,34h                                  
08020784 7811     ldrb    r1,[r2]                                 
08020786 20FD     mov     r0,0FDh                                 
08020788 4008     and     r0,r1                                   
0802078A 7010     strb    r0,[r2]                                 
0802078C 8819     ldrh    r1,[r3]                                 
0802078E 2281     mov     r2,81h                                  
08020790 01D2     lsl     r2,r2,7h                                
08020792 1C10     mov     r0,r2                                   
08020794 4308     orr     r0,r1                                   
08020796 8018     strh    r0,[r3]                                 
08020798 4813     ldr     r0,=1FFh                                
0802079A 8258     strh    r0,[r3,12h]                             
0802079C 1C18     mov     r0,r3                                   
0802079E 3027     add     r0,27h                                  
080207A0 2120     mov     r1,20h                                  
080207A2 7001     strb    r1,[r0]                                 
080207A4 3001     add     r0,1h                                   
080207A6 7001     strb    r1,[r0]                                 
080207A8 3001     add     r0,1h                                   
080207AA 7001     strb    r1,[r0]                                 
080207AC 490F     ldr     r1,=0FFE0h                              
080207AE 8159     strh    r1,[r3,0Ah]                             
080207B0 2088     mov     r0,88h                                  
080207B2 8198     strh    r0,[r3,0Ch]                             
080207B4 81D9     strh    r1,[r3,0Eh]                             
080207B6 8218     strh    r0,[r3,10h]                             
080207B8 8A99     ldrh    r1,[r3,14h]                             
080207BA 00C8     lsl     r0,r1,3h  

                              
080207BC 1840     add     r0,r0,r1                                
080207BE 8298     strh    r0,[r3,14h]                             
080207C0 2000     mov     r0,0h                                   
080207C2 7718     strb    r0,[r3,1Ch]                             
080207C4 82D8     strh    r0,[r3,16h]                             
080207C6 8819     ldrh    r1,[r3]                                 
080207C8 4809     ldr     r0,=0FFFBh                              
080207CA 4008     and     r0,r1                                   
080207CC 8018     strh    r0,[r3]                                 
080207CE 1C18     mov     r0,r3                                   
080207D0 3034     add     r0,34h                                  
080207D2 7801     ldrb    r1,[r0]                                 
080207D4 2002     mov     r0,2h                                   
080207D6 4008     and     r0,r1                                   
080207D8 2800     cmp     r0,0h                                   
080207DA D003     beq     @@end                                
080207DC 1C19     mov     r1,r3                                   
080207DE 3136     add     r1,36h                                  
080207E0 2001     mov     r0,1h                                   
080207E2 7008     strb    r0,[r1]                                 
080207E4 BC01     pop     r0                                      
080207E6 4700     bx      r0                                      

;pose 1
080207F4 B500     push    r14                                     
080207F6 4A09     ldr     r2,=30006BCh                            
080207F8 1C10     mov     r0,r2                                   
080207FA 3024     add     r0,24h                                  
080207FC 2102     mov     r1,2h                                   
080207FE 7001     strb    r1,[r0]   ;pose写入2h                              
08020800 3009     add     r0,9h                                   
08020802 7800     ldrb    r0,[r0]   ;读取产卵次数                              
08020804 2800     cmp     r0,0h                                   
08020806 D10D     bne     @@SpawnTimeNoZero                                
08020808 4805     ldr     r0,=30007F0h  ;随机数                          
0802080A 7800     ldrb    r0,[r0]                                 
0802080C 0680     lsl     r0,r0,1Ah                               
0802080E 0E00     lsr     r0,r0,18h     ;乘4                          
08020810 1C11     mov     r1,r2                                   
08020812 3130     add     r1,30h                                  
08020814 7008     strb    r0,[r1]       ;写入6ED                          
08020816 3101     add     r1,1h                                   
08020818 E00A     b       @@Peer                                

@@SpawnTimeNoZero:                             
08020824 4804     ldr     r0,=3000070h                            
08020826 7A81     ldrb    r1,[r0,0Ah]  ;和BG1相关                            
08020828 2003     mov     r0,3h                                   
0802082A 4008     and     r0,r1        ;和3and                           
0802082C 1C11     mov     r1,r2                                   
0802082E 3121     add     r1,21h 

@@Peer:                                 
08020830 7008     strb    r0,[r1]      ;写入6EE 或6DD                             
08020832 BC01     pop     r0                                      
08020834 4700     bx      r0                                      

;pose 2                               
0802083C B5F0     push    r4-r7,r14                               
0802083E 4C16     ldr     r4,=30006BCh                            
08020840 1C20     mov     r0,r4                                   
08020842 302D     add     r0,2Dh                                  
08020844 7800     ldrb    r0,[r0]      ;产卵值读取                             
08020846 2800     cmp     r0,0h                                   
08020848 D12E     bne     @@SpawnTimeNoZero                                
0802084A 1C25     mov     r5,r4                                   
0802084C 3531     add     r5,31h                                  
0802084E 7829     ldrb    r1,[r5]      ;读取6ee                           
08020850 4B12     ldr     r3,=82F4818h ;速度数值初始地址?                           
08020852 0048     lsl     r0,r1,1h                                
08020854 18C0     add     r0,r0,r3                                
08020856 8802     ldrh    r2,[r0]      ;读取速度值                            
08020858 2600     mov     r6,0h                                   
0802085A 5F80     ldsh    r0,[r0,r6]   ;读取速度值带负数                           
0802085C 4E10     ldr     r6,=7FFFh                               
0802085E 42B0     cmp     r0,r6                                   
08020860 D101     bne     @@SpeedNo7FFF 
;-------------------------------------速度值的读取已经见底                               
08020862 881A     ldrh    r2,[r3]      ;读取速度的初始值                           
08020864 2100     mov     r1,0h        ;速度读取累计数值归0

@@SpeedNo7FFF:                                 
08020866 1C48     add     r0,r1,1      ;速度读取累计值加1                           
08020868 7028     strb    r0,[r5]      ;再写入                           
0802086A 8860     ldrh    r0,[r4,2h]   ;读取Y坐标                           
0802086C 1880     add     r0,r0,r2     ;加上数值再写入                           
0802086E 8060     strh    r0,[r4,2h]                              
08020870 1C25     mov     r5,r4                                   
08020872 3530     add     r5,30h                                  
08020874 7829     ldrb    r1,[r5]      ;读取随机数的四倍                           
08020876 4B0B     ldr     r3,=82F489Ah                            
08020878 0048     lsl     r0,r1,1h     ;乘以2                           
0802087A 18C0     add     r0,r0,r3     ;加上偏移值                           
0802087C 8802     ldrh    r2,[r0]      ;读取数值                           
0802087E 2700     mov     r7,0h                                   
08020880 5FC0     ldsh    r0,[r0,r7]   ;读取带符号的数值                           
08020882 42B0     cmp     r0,r6        ;和另一处的数值比较                           
08020884 D101     bne     802088Ah                                
08020886 881A     ldrh    r2,[r3]      ;读取初始数值                           
08020888 2100     mov     r1,0h        ;随机数归零                           
0802088A 1C48     add     r0,r1,1                                 
0802088C 7028     strb    r0,[r5]                                 
0802088E 88A0     ldrh    r0,[r4,4h]                              
08020890 1880     add     r0,r0,r2                                
08020892 80A0     strh    r0,[r4,4h]                              
08020894 E013     b       80208BEh                                
08020896 0000     lsl     r0,r0,0h                                
08020898 06BC     lsl     r4,r7,1Ah                               
0802089A 0300     lsl     r0,r0,0Ch                               
0802089C 4818     ldr     r0,=0E00A4008h                          
0802089E 082F     lsr     r7,r5,20h                               
080208A0 7FFF     ldrb    r7,[r7,1Fh]                             
080208A2 0000     lsl     r0,r0,0h                                
080208A4 489A     ldr     r0,=8897809h                            
080208A6 082F     lsr     r7,r5,20h                               
080208A8 21A0     mov     r1,0A0h                                 
080208AA 0089     lsl     r1,r1,2h                                
080208AC 1C08     mov     r0,r1                                   
080208AE F7F1F939 bl      8011B24h                                
080208B2 2800     cmp     r0,0h                                   
080208B4 D003     beq     80208BEh                                
080208B6 1C21     mov     r1,r4       ;具体就是设置初始的位置浮动?

@@SpawnTimeNoZero:                                  
080208B8 3124     add     r1,24h                                  
080208BA 2017     mov     r0,17h                                  
080208BC 7008     strb    r0,[r1]                                 
080208BE BCF0     pop     r4-r7                                   
080208C0 BC01     pop     r0                                      
080208C2 4700     bx      r0  

;pose17                                    
080208C4 B510     push    r4,r14                                  
080208C6 4C0F     ldr     r4,=30006BCh                            
080208C8 1C20     mov     r0,r4                                   
080208CA 302F     add     r0,2Fh                                  
080208CC 2100     mov     r1,0h                                   
080208CE 7001     strb    r1,[r0]    ;6ec写入0                             
080208D0 3001     add     r0,1h                                   
080208D2 2201     mov     r2,1h                                   
080208D4 7002     strb    r2,[r0]    ;6ed写入1                             
080208D6 3802     sub     r0,2h                                   
080208D8 7001     strb    r1,[r0]    ;6eb写入0 附加敌人槽                             
080208DA 3003     add     r0,3h                                   
080208DC 7002     strb    r2,[r0]    ;6ee写入1                             
080208DE 8121     strh    r1,[r4,8h] ;X备份坐标写入0                             
080208E0 1C21     mov     r1,r4                                   
080208E2 3124     add     r1,24h                                  
080208E4 2018     mov     r0,18h     ;pose写入18h                              
080208E6 7008     strb    r0,[r1]                                 
080208E8 F7F0FE40 bl      801156Ch                                
080208EC 8862     ldrh    r2,[r4,2h]     ;读取敌人Y坐标                         
080208EE 4906     ldr     r1,=3001244h                            
080208F0 2326     mov     r3,26h                                  
080208F2 5EC8     ldsh    r0,[r1,r3]    ;samus上部分界数据                          
080208F4 8B09     ldrh    r1,[r1,18h]   ;samus的Y坐标数据                          
080208F6 1840     add     r0,r0,r1      ;两者相加                          
080208F8 4282     cmp     r2,r0         ;敌人Y坐标和samus最上部比较                          
080208FA DD09     ble     @@EnemyatUp                                
080208FC 8821     ldrh    r1,[r4]       ;读取取向                          
080208FE 4803     ldr     r0,=0FBFFh                              
08020900 4008     and     r0,r1         ;取向and fbff                          
08020902 E00A     b       @@end                                

@@EnemyatUp:                               
08020910 8820     ldrh    r0,[r4]                                 
08020912 2280     mov     r2,80h                                  
08020914 00D2     lsl     r2,r2,3h                                
08020916 1C11     mov     r1,r2                                   
08020918 4308     orr     r0,r1         ;取向orr400

@@end:                                  
0802091A 8020     strh    r0,[r4]                                 
0802091C BC10     pop     r4                                      
0802091E BC01     pop     r0                                      
08020920 4700     bx      r0                                      

;pose18                                
08020924 B5F0     push    r4-r7,r14                               
08020926 4657     mov     r7,r10                                  
08020928 464E     mov     r6,r9                                   
0802092A 4645     mov     r5,r8                                   
0802092C B4E0     push    r5-r7                                   
0802092E 4925     ldr     r1,=30006BCh                            
08020930 8848     ldrh    r0,[r1,2h]                              
08020932 4680     mov     r8,r0        ;Y坐标给r8                           
08020934 888A     ldrh    r2,[r1,4h]                              
08020936 4691     mov     r9,r2        ;X坐标给r9                           
08020938 2510     mov     r5,10h                                  
0802093A 1C08     mov     r0,r1                                   
0802093C 3023     add     r0,23h                                  
0802093E 7800     ldrb    r0,[r0]      ;读取主精灵序号                           
08020940 3001     add     r0,1h                                   
08020942 0600     lsl     r0,r0,18h                               
08020944 0E04     lsr     r4,r0,18h    ;主精灵序号加1给r4                            
08020946 468C     mov     r12,r1                                  
08020948 2C17     cmp     r4,17h       ;读取精灵序号加1的值                           
0802094A D862     bhi     @@DataOver                                
0802094C 4B1E     ldr     r3,=3000140h                            
0802094E 469A     mov     r10,r3    

@@Loop:                              
08020950 00E2     lsl     r2,r4,3h                                
08020952 1B10     sub     r0,r2,r4                                
08020954 00C0     lsl     r0,r0,3h                                
08020956 4651     mov     r1,r10                                  
08020958 1843     add     r3,r0,r1                                
0802095A 8819     ldrh    r1,[r3]      ;读取下一个精灵的取向                           
0802095C 2001     mov     r0,1h                                   
0802095E 4008     and     r0,r1                                   
08020960 1C16     mov     r6,r2                                   
08020962 2800     cmp     r0,0h        ;检查是否是活着的?                            
08020964 D050     beq     @@Add        ;否则下一个                        
08020966 1C18     mov     r0,r3                                   
08020968 3034     add     r0,34h                                  
0802096A 7801     ldrb    r1,[r0]                                  
0802096C 2080     mov     r0,80h       ;读取碰撞属性                           
0802096E 4008     and     r0,r1                                   
08020970 2800     cmp     r0,0h        ;检查是主精灵?                           
08020972 D149     bne     @@Add        ;否则下一个                        
08020974 7F58     ldrb    r0,[r3,1Dh]  ;检查ID                           
08020976 281B     cmp     r0,1Bh       ;不是吸血细胞则下一个                           
08020978 D146     bne     @@Add                                
0802097A 1C18     mov     r0,r3                                   
0802097C 302D     add     r0,2Dh       ;读取产卵次数                           
0802097E 7800     ldrb    r0,[r0]                                 
08020980 2800     cmp     r0,0h        ;为0则下一个                           
08020982 D041     beq     @@Add                                
08020984 885F     ldrh    r7,[r3,2h]   ;读取坐标                           
08020986 889A     ldrh    r2,[r3,4h]                              
08020988 4640     mov     r0,r8                                   
0802098A 1941     add     r1,r0,r5     ;当前Y坐标加10h                           
0802098C 1B78     sub     r0,r7,r5     ;检测Y坐标减10h                           
0802098E 4281     cmp     r1,r0                                   
08020990 DD3A     ble     @@Add        ;小于或等则下一个                        
08020992 4640     mov     r0,r8                                   
08020994 1B41     sub     r1,r0,r5                                
08020996 1978     add     r0,r7,r5                                
08020998 4281     cmp     r1,r0                                   
0802099A DA35     bge     @@Add                                
0802099C 4648     mov     r0,r9                                   
0802099E 1941     add     r1,r0,r5                                
080209A0 1B50     sub     r0,r2,r5                                
080209A2 4281     cmp     r1,r0                                   
080209A4 DD30     ble     @@Add                                
080209A6 4648     mov     r0,r9                                   
080209A8 1B41     sub     r1,r0,r5                                
080209AA 1950     add     r0,r2,r5                                
080209AC 4281     cmp     r1,r0                                   
080209AE DA2B     bge     @@Add                                
080209B0 1C18     mov     r0,r3                                   
080209B2 3032     add     r0,32h                                  
080209B4 7800     ldrb    r0,[r0]                                 
080209B6 2800     cmp     r0,0h        ;检查冰冻为0                           
080209B8 D12B     bne     @@DataOver                                
080209BA 45B8     cmp     r8,r7        ;原Y坐标比测Y坐标                           
080209BC D906     bls     80209CCh                                
080209BE 1F38     sub     r0,r7,4                                 
080209C0 E005     b       80209CEh                                
080209C2 0000     lsl     r0,r0,0h                                
080209C4 06BC     lsl     r4,r7,1Ah                               
080209C6 0300     lsl     r0,r0,0Ch                               
080209C8 0140     lsl     r0,r0,5h                                
080209CA 0300     lsl     r0,r0,0Ch                               
080209CC 1D38     add     r0,r7,4      ;小于                           
080209CE 8058     strh    r0,[r3,2h]                              
080209D0 4591     cmp     r9,r2                                   
080209D2 D905     bls     80209E0h                                
080209D4 1B31     sub     r1,r6,r4                                
080209D6 00C9     lsl     r1,r1,3h                                
080209D8 4451     add     r1,r10                                  
080209DA 8888     ldrh    r0,[r1,4h]                              
080209DC 3804     sub     r0,4h                                   
080209DE E004     b       80209EAh                                
080209E0 1B31     sub     r1,r6,r4                                
080209E2 00C9     lsl     r1,r1,3h                                
080209E4 4451     add     r1,r10                                  
080209E6 8888     ldrh    r0,[r1,4h]                              
080209E8 3004     add     r0,4h                                   
080209EA 8088     strh    r0,[r1,4h]                              
080209EC 1B32     sub     r2,r6,r4                                
080209EE 00D2     lsl     r2,r2,3h                                
080209F0 4452     add     r2,r10                                  
080209F2 8811     ldrh    r1,[r2]                                 
080209F4 2380     mov     r3,80h                                  
080209F6 009B     lsl     r3,r3,2h                                
080209F8 1C18     mov     r0,r3                                   
080209FA 4041     eor     r1,r0                                   
080209FC 2380     mov     r3,80h                                  
080209FE 00DB     lsl     r3,r3,3h                                
08020A00 1C18     mov     r0,r3                                   
08020A02 4041     eor     r1,r0                                   
08020A04 8011     strh    r1,[r2]                                 
08020A06 E004     b       @@DataOver 

@@Add:                               
08020A08 1C60     add     r0,r4,1                                 
08020A0A 0600     lsl     r0,r0,18h                               
08020A0C 0E04     lsr     r4,r0,18h                               
08020A0E 2C17     cmp     r4,17h                                  
08020A10 D99E     bls     @@Loop 

@@DateOver:                               
08020A12 4660     mov     r0,r12                                  
08020A14 8801     ldrh    r1,[r0]                                 
08020A16 2080     mov     r0,80h                                  
08020A18 0100     lsl     r0,r0,4h                                
08020A1A 4008     and     r0,r1                                   
08020A1C 2800     cmp     r0,0h       ;取向检测有无800h                            
08020A1E D00B     beq     @@No800     
;------------------------------------取向有800                           
08020A20 4660     mov     r0,r12                                  
08020A22 302F     add     r0,2Fh                                  
08020A24 2200     mov     r2,0h                                   
08020A26 7002     strb    r2,[r0]     ;6EB写入0                            
08020A28 3001     add     r0,1h                                   
08020A2A 2101     mov     r1,1h                                   
08020A2C 7001     strb    r1,[r0]     ;6ec写入1 速度归1?                           
08020A2E 3802     sub     r0,2h                                   
08020A30 7002     strb    r2,[r0]     ;6eA写入0                            
08020A32 3003     add     r0,3h                                   
08020A34 7001     strb    r1,[r0]     ;6ed写入1                            
08020A36 E0ED     b       @@end  

@@No800:                              
08020A38 4660     mov     r0,r12                                  
08020A3A 302D     add     r0,2Dh                                  
08020A3C 7800     ldrb    r0,[r0]                                 
08020A3E 2803     cmp     r0,3h       ;读取产卵次数                            
08020A40 D10C     bne     @@SpawnTimesThree                                
08020A42 4805     ldr     r0,=3001244h                            
08020A44 8B01     ldrh    r1,[r0,18h] ;sa 的Y坐标                            
08020A46 3988     sub     r1,88h      ;向上两格多                            
08020A48 0409     lsl     r1,r1,10h                               
08020A4A 0C0F     lsr     r7,r1,10h   ;给R7                            
08020A4C 8AC0     ldrh    r0,[r0,16h] ;sa X坐标                            
08020A4E 3840     sub     r0,40h      ;向左一格                            
08020A50 0400     lsl     r0,r0,10h                               
08020A52 0C02     lsr     r2,r0,10h                               
08020A54 E008     b       @@Peer                                

@@SpawnTimesThree:                              
08020A5C 4913     ldr     r1,=3001244h                            
08020A5E 8B08     ldrh    r0,[r1,18h]                             
08020A60 3848     sub     r0,48h                                  
08020A62 0400     lsl     r0,r0,10h                               
08020A64 0C07     lsr     r7,r0,10h                               
08020A66 8ACA     ldrh    r2,[r1,16h]

@@Peer:                             
08020A68 261E     mov     r6,1Eh                                  
08020A6A 4663     mov     r3,r12                                  
08020A6C 8819     ldrh    r1,[r3]                                 
08020A6E 2480     mov     r4,80h                                  
08020A70 00A4     lsl     r4,r4,2h                                
08020A72 1C20     mov     r0,r4                                   
08020A74 4008     and     r0,r1      ;取向and200                              
08020A76 2800     cmp     r0,0h                                   
08020A78 D034     beq     @@No200    
;-----------------------------------------取向有200                            
08020A7A 332F     add     r3,2Fh                                  
08020A7C 7818     ldrb    r0,[r3]                                 
08020A7E 2800     cmp     r0,0h      ;读取6EB                             
08020A80 D116     bne     @@6EBNo0   ;不为0则跳转                             
08020A82 4660     mov     r0,r12                                  
08020A84 8881     ldrh    r1,[r0,4h] ;读取X坐标                             
08020A86 1F10     sub     r0,r2,4    ;SA x向左4h                             
08020A88 4281     cmp     r1,r0                                    
08020A8A DC35     bgt     8020AF8h   ;意味着在右边,所以不再向右                             
08020A8C 4661     mov     r1,r12                                  
08020A8E 3130     add     r1,30h                                  
08020A90 7808     ldrb    r0,[r1]    ;6EC作为速度?                             
08020A92 281D     cmp     r0,1Dh     ;                              
08020A94 D801     bhi     8020A9Ah                                
08020A96 3001     add     r0,1h                                   
08020A98 7008     strb    r0,[r1]                                 
08020A9A 7808     ldrb    r0,[r1]                                 
08020A9C 0880     lsr     r0,r0,2h                                
08020A9E 4661     mov     r1,r12                                  
08020AA0 8889     ldrh    r1,[r1,4h]                              
08020AA2 1840     add     r0,r0,r1                                
08020AA4 4662     mov     r2,r12                                  
08020AA6 8090     strh    r0,[r2,4h]  ;敌向右追的X写入                             
08020AA8 E058     b       8020B5Ch                                

@@6EBNo0:                              
08020AB0 1E41     sub     r1,r0,1                                 
08020AB2 7019     strb    r1,[r3]                                 
08020AB4 0608     lsl     r0,r1,18h                               
08020AB6 0E02     lsr     r2,r0,18h                               
08020AB8 2A00     cmp     r2,0h                                   
08020ABA D006     beq     8020ACAh                                
08020ABC 0E80     lsr     r0,r0,1Ah                               
08020ABE 4663     mov     r3,r12                                  
08020AC0 889B     ldrh    r3,[r3,4h]                              
08020AC2 18C0     add     r0,r0,r3                                
08020AC4 4661     mov     r1,r12                                  
08020AC6 8088     strh    r0,[r1,4h]                              
08020AC8 E048     b       8020B5Ch                                
08020ACA 4663     mov     r3,r12                                  
08020ACC 8819     ldrh    r1,[r3]                                 
08020ACE 4804     ldr     r0,=0FDFFh                              
08020AD0 4008     and     r0,r1                                   
08020AD2 8018     strh    r0,[r3]                                 
08020AD4 4661     mov     r1,r12                                  
08020AD6 3130     add     r1,30h                                  
08020AD8 2001     mov     r0,1h                                   
08020ADA 7008     strb    r0,[r1]                                 
08020ADC E036     b       8020B4Ch                                
08020ADE 0000     lsl     r0,r0,0h                                
08020AE0 FDFF     bl      lr+0BFEh                                
08020AE2 0000     lsl     r0,r0,0h 

@@No200:                               
08020AE4 4663     mov     r3,r12                                  
08020AE6 332F     add     r3,2Fh                                  
08020AE8 7818     ldrb    r0,[r3]                                 
08020AEA 2800     cmp     r0,0h                                   
08020AEC D117     bne     8020B1Eh                                
08020AEE 4660     mov     r0,r12                                  
08020AF0 8881     ldrh    r1,[r0,4h]                              
08020AF2 1D10     add     r0,r2,4                                 
08020AF4 4281     cmp     r1,r0                                   
08020AF6 DA04     bge     8020B02h                                
08020AF8 4660     mov     r0,r12                                  
08020AFA 3030     add     r0,30h                                  
08020AFC 7800     ldrb    r0,[r0]                                 
08020AFE 7018     strb    r0,[r3]                                 
08020B00 E02C     b       8020B5Ch                                
08020B02 4661     mov     r1,r12                                  
08020B04 3130     add     r1,30h                                  
08020B06 7808     ldrb    r0,[r1]                                 
08020B08 281D     cmp     r0,1Dh                                  
08020B0A D801     bhi     8020B10h                                
08020B0C 3001     add     r0,1h                                   
08020B0E 7008     strb    r0,[r1]                                 
08020B10 7809     ldrb    r1,[r1]                                 
08020B12 0889     lsr     r1,r1,2h                                
08020B14 4662     mov     r2,r12                                  
08020B16 8890     ldrh    r0,[r2,4h]                              
08020B18 1A40     sub     r0,r0,r1                                
08020B1A 8090     strh    r0,[r2,4h]    ;敌向左追的X写入                          
08020B1C E01E     b       8020B5Ch                                
08020B1E 1E41     sub     r1,r0,1                                 
08020B20 7019     strb    r1,[r3]                                 
08020B22 0608     lsl     r0,r1,18h                               
08020B24 0E02     lsr     r2,r0,18h                               
08020B26 2A00     cmp     r2,0h                                   
08020B28 D006     beq     8020B38h                                
08020B2A 1C01     mov     r1,r0                                   
08020B2C 0E89     lsr     r1,r1,1Ah                               
08020B2E 4663     mov     r3,r12                                  
08020B30 8898     ldrh    r0,[r3,4h]                              
08020B32 1A40     sub     r0,r0,r1                                
08020B34 8098     strh    r0,[r3,4h]                              
08020B36 E011     b       8020B5Ch                                
08020B38 4660     mov     r0,r12                                  
08020B3A 8801     ldrh    r1,[r0]                                 
08020B3C 1C20     mov     r0,r4                                   
08020B3E 4308     orr     r0,r1                                   
08020B40 4661     mov     r1,r12                                  
08020B42 8008     strh    r0,[r1]                                 
08020B44 3130     add     r1,30h                                  
08020B46 2001     mov     r0,1h                                   
08020B48 7008     strb    r0,[r1]                                 
08020B4A 4663     mov     r3,r12                                  
08020B4C 8918     ldrh    r0,[r3,8h]                              
08020B4E 3001     add     r0,1h                                   
08020B50 8118     strh    r0,[r3,8h]                              
08020B52 0400     lsl     r0,r0,10h                               
08020B54 0C00     lsr     r0,r0,10h                               
08020B56 2803     cmp     r0,3h                                   
08020B58 D900     bls     8020B5Ch                                
08020B5A 811A     strh    r2,[r3,8h]                              
08020B5C 4662     mov     r2,r12                                  
08020B5E 8814     ldrh    r4,[r2]                                 
08020B60 2580     mov     r5,80h                                  
08020B62 00ED     lsl     r5,r5,3h                                
08020B64 1C28     mov     r0,r5                                   
08020B66 4020     and     r0,r4                                   
08020B68 2800     cmp     r0,0h                                   
08020B6A D027     beq     8020BBCh                                
08020B6C 1C13     mov     r3,r2                                   
08020B6E 332E     add     r3,2Eh                                  
08020B70 7818     ldrb    r0,[r3]                                 
08020B72 2800     cmp     r0,0h                                   
08020B74 D110     bne     8020B98h                                
08020B76 8851     ldrh    r1,[r2,2h]                              
08020B78 1F38     sub     r0,r7,4                                 
08020B7A 4281     cmp     r1,r0                                   
08020B7C DC27     bgt     8020BCEh                                
08020B7E 1C11     mov     r1,r2                                   
08020B80 3131     add     r1,31h                                  
08020B82 7808     ldrb    r0,[r1]                                 
08020B84 42B0     cmp     r0,r6                                   
08020B86 D201     bcs     8020B8Ch                                
08020B88 3001     add     r0,1h                                   
08020B8A 7008     strb    r0,[r1]                                 
08020B8C 7808     ldrb    r0,[r1]                                 
08020B8E 0880     lsr     r0,r0,2h                                
08020B90 8851     ldrh    r1,[r2,2h]                              
08020B92 1840     add     r0,r0,r1                                
08020B94 8050     strh    r0,[r2,2h]  ;向下追的Y写入                            
08020B96 E03D     b       @@end                                
08020B98 1E41     sub     r1,r0,1                                 
08020B9A 7019     strb    r1,[r3]                                 
08020B9C 0608     lsl     r0,r1,18h                               
08020B9E 2800     cmp     r0,0h                                   
08020BA0 D004     beq     8020BACh                                
08020BA2 0E80     lsr     r0,r0,1Ah                               
08020BA4 8853     ldrh    r3,[r2,2h]                              
08020BA6 18C0     add     r0,r0,r3                                
08020BA8 8050     strh    r0,[r2,2h]                              
08020BAA E033     b       @@end                                
08020BAC 4802     ldr     r0,=0FBFFh                              
08020BAE 4020     and     r0,r4                                   
08020BB0 8010     strh    r0,[r2]                                 
08020BB2 1C11     mov     r1,r2                                   
08020BB4 E02B     b       8020C0Eh                                
08020BB6 0000     lsl     r0,r0,0h                                
08020BB8 FBFF     bl      lr+7FEh                                 
08020BBA 0000     lsl     r0,r0,0h                                
08020BBC 1C13     mov     r3,r2                                   
08020BBE 332E     add     r3,2Eh                                  
08020BC0 7818     ldrb    r0,[r3]                                 
08020BC2 2800     cmp     r0,0h                                   
08020BC4 D112     bne     8020BECh                                
08020BC6 8851     ldrh    r1,[r2,2h]                              
08020BC8 1D38     add     r0,r7,4                                 
08020BCA 4281     cmp     r1,r0                                   
08020BCC DA04     bge     8020BD8h                                
08020BCE 1C10     mov     r0,r2                                   
08020BD0 3031     add     r0,31h                                  
08020BD2 7800     ldrb    r0,[r0]                                 
08020BD4 7018     strb    r0,[r3]                                 
08020BD6 E01D     b       @@end                                
08020BD8 1C11     mov     r1,r2                                   
08020BDA 3131     add     r1,31h                                  
08020BDC 7808     ldrb    r0,[r1]                                 
08020BDE 42B0     cmp     r0,r6                                   
08020BE0 D201     bcs     8020BE6h                                
08020BE2 3001     add     r0,1h                                   
08020BE4 7008     strb    r0,[r1]                                 
08020BE6 7809     ldrb    r1,[r1]                                 
08020BE8 0889     lsr     r1,r1,2h                                
08020BEA E006     b       8020BFAh                                
08020BEC 1E41     sub     r1,r0,1                                 
08020BEE 7019     strb    r1,[r3]                                 
08020BF0 0608     lsl     r0,r1,18h                               
08020BF2 2800     cmp     r0,0h                                   
08020BF4 D005     beq     8020C02h                                
08020BF6 1C01     mov     r1,r0                                   
08020BF8 0E89     lsr     r1,r1,1Ah                               
08020BFA 8850     ldrh    r0,[r2,2h]                              
08020BFC 1A40     sub     r0,r0,r1                                
08020BFE 8050     strh    r0,[r2,2h]  ;向上追的Y写入                            
08020C00 E008     b       @@end                                
08020C02 4660     mov     r0,r12                                  
08020C04 8801     ldrh    r1,[r0]                                 
08020C06 1C28     mov     r0,r5                                   
08020C08 4308     orr     r0,r1                                   
08020C0A 4661     mov     r1,r12                                  
08020C0C 8008     strh    r0,[r1]                                 
08020C0E 3131     add     r1,31h                                  
08020C10 2001     mov     r0,1h                                   
08020C12 7008     strb    r0,[r1] 

@@end:                                
08020C14 BC38     pop     r3-r5                                   
08020C16 4698     mov     r8,r3                                   
08020C18 46A1     mov     r9,r4                                   
08020C1A 46AA     mov     r10,r5                                  
08020C1C BCF0     pop     r4-r7                                   
08020C1E BC01     pop     r0                                      
08020C20 4700     bx      r0                                      
/////////////////////////////////////////////////////////////
;吸血细胞主程序                               
08020C24 B510     push    r4,r14                                  
08020C26 4C09     ldr     r4,=30006BCh                            
08020C28 1C20     mov     r0,r4                                   
08020C2A 302C     add     r0,2Ch                                  
08020C2C 7801     ldrb    r1,[r0]   ;被击打后计数 6e9                              
08020C2E 207F     mov     r0,7Fh                                  
08020C30 4008     and     r0,r1                                   
08020C32 2804     cmp     r0,4h                                   
08020C34 D102     bne     @@PassSound                                
08020C36 4806     ldr     r0,=15Fh                                
08020C38 F7E1FE0C bl      8002854h  ;播放奇怪的声音

@@PassSound:                              
08020C3C 1C20     mov     r0,r4                                   
08020C3E 3032     add     r0,32h                                  
08020C40 7800     ldrb    r0,[r0]   ;读取6ef 碰撞属性?                              
08020C42 2800     cmp     r0,0h                                   
08020C44 D006     beq     @@PassFrozen                                
08020C46 F7F1F8FD bl      8011E44h  ;冰冻例程                             
08020C4A E0EF     b       @@end                                
        
@@PassFrozen:		
08020C54 1C20     mov     r0,r4                                   
08020C56 3024     add     r0,24h                                  
08020C58 7800     ldrb    r0,[r0]   ;读取pose                               
08020C5A 285B     cmp     r0,5Bh                                  
08020C5C D900     bls     @@PoseBl                                
08020C5E E0DB     b       @@OtherPose  

@@PoseBl:                             
08020C60 0080     lsl     r0,r0,2h                                
08020C62 4902     ldr     r1,=PoseTable                            
08020C64 1840     add     r0,r0,r1                                
08020C66 6800     ldr     r0,[r0]                                 
08020C68 4687     mov     r15,r0                                  

PoseTable:
.word 8020de0h  ;0
.word 8020de6h  ;1
.word 8020dech  ;2
.word 8020e18h  
.word 8020e18h
.word 8020e18h
.word 8020e18h
.word 8020e18h
.word 8020e18h
.word 8020e18h
.word 8020e18h
.word 8020e18h
.word 8020e18h
.word 8020e18h
.word 8020e18h
.word 8020e18h
.word 8020e18h
.word 8020e18h
.word 8020e18h
.word 8020e18h
.word 8020e18h
.word 8020e18h
.word 8020e18h
.word 8020df2h ;17
.word 8020df6h ;18
.word 8020e18h
.word 8020e18h
.word 8020e18h
.word 8020e18h
.word 8020e18h
.word 8020e18h
.word 8020e18h
.word 8020e18h
.word 8020e18h
.word 8020e18h
.word 8020e18h
.word 8020e18h
.word 8020e18h
.word 8020e18h
.word 8020e18h
.word 8020e18h
.word 8020e18h
.word 8020e18h
.word 8020e18h
.word 8020e18h
.word 8020e18h
.word 8020e18h
.word 8020e18h
.word 8020e18h
.word 8020e18h
.word 8020e18h
.word 8020e18h
.word 8020e18h
.word 8020e18h
.word 8020e18h
.word 8020e18h
.word 8020e18h
.word 8020e18h
.word 8020e18h
.word 8020e18h
.word 8020e18h
.word 8020e18h
.word 8020e18h
.word 8020e18h
.word 8020e18h
.word 8020e18h
.word 8020e18h
.word 8020e18h
.word 8020e18h
.word 8020e18h
.word 8020e18h
.word 8020e18h
.word 8020e18h
.word 8020e18h
.word 8020e18h
.word 8020e18h
.word 8020e18h
.word 8020e18h
.word 8020e18h
.word 8020e18h
.word 8020e18h
.word 8020e18h
.word 8020e18h
.word 8020e18h
.word 8020e18h
.word 8020e18h
.word 8020e18h
.word 8020dfch ;57
.word 8020e00h ;58
.word 8020e06h ;59
.word 8020e0ah ;5a
.word 8020e10h ;5b

                              
08020DE0 F7FFFC1C bl      802061Ch    ;0                              
08020DE4 E018     b       8020E18h                                
08020DE6 F7FFFD05 bl      80207F4h    ;1                           
08020DEA E015     b       8020E18h                                
08020DEC F7FFFD26 bl      802083Ch    ;2                             
08020DF0 E012     b       8020E18h                                
08020DF2 F7FFFD67 bl      80208C4h    ;17                            
08020DF6 F7FFFD95 bl      8020924h    ;18                            
08020DFA E00D     b       8020E18h                                
08020DFC F040FC60 bl      80616C0h    ;57                            
08020E00 F040FC74 bl      80616ECh    ;58                            
08020E04 E008     b       8020E18h                                
08020E06 F7FFFC09 bl      802061Ch    ;59                            
08020E0A F041FA63 bl      80622D4h    ;5A                            
08020E0E E003     b       8020E18h                                
08020E10 F7FFFBB2 bl      8020578h    ;5B                            
08020E14 F040FD90 bl      8061938h    ;5C

@@OtherPose:                               
08020E18 4A06     ldr     r2,=30006BCh                            
08020E1A 8811     ldrh    r1,[r2]                                 
08020E1C 2080     mov     r0,80h                                  
08020E1E 0100     lsl     r0,r0,4h                                
08020E20 4008     and     r0,r1       ;取向and 800                            
08020E22 2800     cmp     r0,0h                                   
08020E24 D002     beq     @@end                                
08020E26 4804     ldr     r0,=0F7FFh                              
08020E28 4008     and     r0,r1       ;去掉800                             
08020E2A 8010     strh    r0,[r2]     ;再写入

@@end:                                
08020E2C BC10     pop     r4                                      
08020E2E BC01     pop     r0                                      
08020E30 4700     bx      r0                                      

                             
08020E38 F7FF     ????                                            
08020E3A 0000     lsl     r0,r0,0h                                
08020E3C B570     push    r4-r6,r14                               
08020E3E 490F     ldr     r1,=30006BCh                            
08020E40 1C08     mov     r0,r1                                   
08020E42 3030     add     r0,30h                                  
08020E44 7802     ldrb    r2,[r0]                                 
08020E46 1E50     sub     r0,r2,1                                 
08020E48 0600     lsl     r0,r0,18h                               
08020E4A 0E00     lsr     r0,r0,18h                               
08020E4C 1C0E     mov     r6,r1                                   
08020E4E 2803     cmp     r0,3h                                   
08020E50 D84B     bhi     8020EEAh                                
08020E52 0780     lsl     r0,r0,1Eh                               
08020E54 0E02     lsr     r2,r0,18h                               
08020E56 2501     mov     r5,1h                                   
08020E58 1C33     mov     r3,r6                                   
08020E5A 3331     add     r3,31h                                  
08020E5C 7818     ldrb    r0,[r3]                                 
08020E5E 1C41     add     r1,r0,1                                 
08020E60 7019     strb    r1,[r3]                                 
08020E62 0600     lsl     r0,r0,18h                               
08020E64 0E00     lsr     r0,r0,18h                               
08020E66 2830     cmp     r0,30h                                  
08020E68 D024     beq     8020EB4h                                
08020E6A 2830     cmp     r0,30h                                  
08020E6C DC0B     bgt     8020E86h                                
08020E6E 2810     cmp     r0,10h                                  
08020E70 D013     beq     8020E9Ah                                
08020E72 2810     cmp     r0,10h                                  
08020E74 DC04     bgt     8020E80h                                
08020E76 2800     cmp     r0,0h                                   
08020E78 D023     beq     8020EC2h                                
08020E7A E029     b       8020ED0h                                
08020E7C 06BC     lsl     r4,r7,1Ah                               
08020E7E 0300     lsl     r0,r0,0Ch                               
08020E80 2820     cmp     r0,20h                                  
08020E82 D011     beq     8020EA8h                                
08020E84 E024     b       8020ED0h                                
08020E86 2850     cmp     r0,50h                                  
08020E88 D007     beq     8020E9Ah                                
08020E8A 2850     cmp     r0,50h                                  
08020E8C DC02     bgt     8020E94h                                
08020E8E 2840     cmp     r0,40h                                  
08020E90 D00A     beq     8020EA8h                                
08020E92 E01D     b       8020ED0h                                
08020E94 2860     cmp     r0,60h                                  
08020E96 D013     beq     8020EC0h                                
08020E98 E01A     b       8020ED0h                                
08020E9A 0051     lsl     r1,r2,1h                                
08020E9C 4801     ldr     r0,=82F78FCh                            
08020E9E 180C     add     r4,r1,r0                                
08020EA0 E017     b       8020ED2h                                
08020EA2 0000     lsl     r0,r0,0h                                
08020EA4 78FC     ldrb    r4,[r7,3h]                              
08020EA6 082F     lsr     r7,r5,20h                               
08020EA8 0051     lsl     r1,r2,1h                                
08020EAA 4801     ldr     r0,=82F791Ch                            
08020EAC 180C     add     r4,r1,r0                                
08020EAE E010     b       8020ED2h                                
08020EB0 791C     ldrb    r4,[r3,4h]                              
08020EB2 082F     lsr     r7,r5,20h                               
08020EB4 0051     lsl     r1,r2,1h                                
08020EB6 4801     ldr     r0,=82F793Ch                            
08020EB8 180C     add     r4,r1,r0                                
08020EBA E00A     b       8020ED2h                                
08020EBC 793C     ldrb    r4,[r7,4h]                              
08020EBE 082F     lsr     r7,r5,20h                               
08020EC0 701D     strb    r5,[r3]                                 
08020EC2 0051     lsl     r1,r2,1h                                
08020EC4 4801     ldr     r0,=82F78DCh                            
08020EC6 180C     add     r4,r1,r0                                
08020EC8 E003     b       8020ED2h                                
08020ECA 0000     lsl     r0,r0,0h                                
08020ECC 78DC     ldrb    r4,[r3,3h]                              
08020ECE 082F     lsr     r7,r5,20h                               
08020ED0 2500     mov     r5,0h                                   
08020ED2 2D00     cmp     r5,0h                                   
08020ED4 D009     beq     8020EEAh                                
08020ED6 4906     ldr     r1,=40000D4h                            
08020ED8 600C     str     r4,[r1]                                 
08020EDA 7FF0     ldrb    r0,[r6,1Fh]                             
08020EDC 0140     lsl     r0,r0,5h                                
08020EDE 4A05     ldr     r2,=5000310h                            
08020EE0 1880     add     r0,r0,r2                                
08020EE2 6048     str     r0,[r1,4h]                              
08020EE4 4804     ldr     r0,=80000008h                           
08020EE6 6088     str     r0,[r1,8h]                              
08020EE8 6888     ldr     r0,[r1,8h]                              
08020EEA BC70     pop     r4-r6                                   
08020EEC BC01     pop     r0                                      
08020EEE 4700     bx      r0                                      
08020EF0 00D4     lsl     r4,r2,3h                                
08020EF2 0400     lsl     r0,r0,10h                               
08020EF4 0310     lsl     r0,r2,0Ch                               
08020EF6 0500     lsl     r0,r0,14h                               
08020EF8 0008     lsl     r0,r1,0h                                
08020EFA 8000     strh    r0,[r0]                                 
08020EFC B5F0     push    r4-r7,r14                               
08020EFE B083     add     sp,-0Ch                                 
08020F00 4C16     ldr     r4,=30006BCh                            
08020F02 1C22     mov     r2,r4                                   
08020F04 3234     add     r2,34h                                  
08020F06 7811     ldrb    r1,[r2]                                 
08020F08 2001     mov     r0,1h                                   
08020F0A 2300     mov     r3,0h                                   
08020F0C 4308     orr     r0,r1                                   
08020F0E 7010     strb    r0,[r2]                                 
08020F10 1C20     mov     r0,r4                                   
08020F12 3025     add     r0,25h                                  
08020F14 7003     strb    r3,[r0]                                 
08020F16 1C21     mov     r1,r4                                   
08020F18 3127     add     r1,27h                                  
08020F1A 2008     mov     r0,8h                                   
08020F1C 7008     strb    r0,[r1]                                 
08020F1E 3101     add     r1,1h                                   
08020F20 2028     mov     r0,28h                                  
08020F22 7008     strb    r0,[r1]                                 
08020F24 3101     add     r1,1h                                   
08020F26 2018     mov     r0,18h                                  
08020F28 7008     strb    r0,[r1]                                 
08020F2A 2200     mov     r2,0h                                   
08020F2C 490C     ldr     r1,=0FFFCh                              
08020F2E 8161     strh    r1,[r4,0Ah]                             
08020F30 2004     mov     r0,4h                                   
08020F32 81A0     strh    r0,[r4,0Ch]                             
08020F34 81E1     strh    r1,[r4,0Eh]                             
08020F36 8220     strh    r0,[r4,10h]                             
08020F38 1C21     mov     r1,r4                                   
08020F3A 3121     add     r1,21h                                  
08020F3C 2001     mov     r0,1h                                   
08020F3E 7008     strb    r0,[r1]                                 
08020F40 7722     strb    r2,[r4,1Ch]                             
08020F42 82E3     strh    r3,[r4,16h]                             
08020F44 1C20     mov     r0,r4                                   
08020F46 3031     add     r0,31h                                  
08020F48 7002     strb    r2,[r0]                                 
08020F4A 4806     ldr     r0,=300002Ch                            
08020F4C 7800     ldrb    r0,[r0]                                 
08020F4E 2803     cmp     r0,3h                                   
08020F50 D011     beq     8020F76h                                
08020F52 2803     cmp     r0,3h                                   
08020F54 DC08     bgt     8020F68h                                
08020F56 2802     cmp     r0,2h                                   
08020F58 D00B     beq     8020F72h                                
08020F5A E012     b       8020F82h                                
08020F5C 06BC     lsl     r4,r7,1Ah                               
08020F5E 0300     lsl     r0,r0,0Ch                               
08020F60 FFFC     bl      lr+0FF8h                                
08020F62 0000     lsl     r0,r0,0h                                
08020F64 002C     lsl     r4,r5,0h                                
08020F66 0300     lsl     r0,r0,0Ch                               
08020F68 2804     cmp     r0,4h                                   
08020F6A D008     beq     8020F7Eh                                
08020F6C 2805     cmp     r0,5h                                   
08020F6E D004     beq     8020F7Ah                                
08020F70 E007     b       8020F82h                                
08020F72 2601     mov     r6,1h                                   
08020F74 E006     b       8020F84h                                
08020F76 2602     mov     r6,2h                                   
08020F78 E004     b       8020F84h                                
08020F7A 2603     mov     r6,3h                                   
08020F7C E002     b       8020F84h                                
08020F7E 2604     mov     r6,4h                                   
08020F80 E000     b       8020F84h                                
08020F82 2605     mov     r6,5h                                   
08020F84 4D16     ldr     r5,=30006BCh                            
08020F86 1C28     mov     r0,r5                                   
08020F88 3030     add     r0,30h                                  
08020F8A 2700     mov     r7,0h                                   
08020F8C 7006     strb    r6,[r0]                                 
08020F8E 2000     mov     r0,0h                                   
08020F90 F053FFEE bl      8074F70h                                
08020F94 2800     cmp     r0,0h                                   
08020F96 D143     bne     8021020h                                
08020F98 4812     ldr     r0,=82F789Ch                            
08020F9A 61A8     str     r0,[r5,18h]                             
08020F9C 1C29     mov     r1,r5                                   
08020F9E 3124     add     r1,24h                                  
08020FA0 201E     mov     r0,1Eh                                  
08020FA2 7008     strb    r0,[r1]                                 
08020FA4 1C28     mov     r0,r5                                   
08020FA6 302A     add     r0,2Ah                                  
08020FA8 7800     ldrb    r0,[r0]                                 
08020FAA 2601     mov     r6,1h                                   
08020FAC 4006     and     r6,r0                                   
08020FAE 2E00     cmp     r6,0h                                   
08020FB0 D01A     beq     8020FE8h                                
08020FB2 7FEA     ldrb    r2,[r5,1Fh]                             
08020FB4 1C2C     mov     r4,r5                                   
08020FB6 3423     add     r4,23h                                  
08020FB8 7823     ldrb    r3,[r4]                                 
08020FBA 8868     ldrh    r0,[r5,2h]                              
08020FBC 9000     str     r0,[sp]                                 
08020FBE 88A8     ldrh    r0,[r5,4h]                              
08020FC0 3890     sub     r0,90h                                  
08020FC2 9001     str     r0,[sp,4h]                              
08020FC4 9702     str     r7,[sp,8h]                              
08020FC6 2025     mov     r0,25h                                  
08020FC8 2101     mov     r1,1h                                   
08020FCA F7EEFD89 bl      800FAE0h                                
08020FCE 7FEA     ldrb    r2,[r5,1Fh]                             
08020FD0 7823     ldrb    r3,[r4]                                 
08020FD2 8868     ldrh    r0,[r5,2h]                              
08020FD4 9000     str     r0,[sp]                                 
08020FD6 88A8     ldrh    r0,[r5,4h]                              
08020FD8 3890     sub     r0,90h                                  
08020FDA 9001     str     r0,[sp,4h]                              
08020FDC 9702     str     r7,[sp,8h]                              
08020FDE E01A     b       8021016h                                
08020FE0 06BC     lsl     r4,r7,1Ah                               
08020FE2 0300     lsl     r0,r0,0Ch                               
08020FE4 789C     ldrb    r4,[r3,2h]                              
08020FE6 082F     lsr     r7,r5,20h                               
08020FE8 7FEA     ldrb    r2,[r5,1Fh]                             
08020FEA 1C2F     mov     r7,r5                                   
08020FEC 3723     add     r7,23h                                  
08020FEE 783B     ldrb    r3,[r7]                                 
08020FF0 8868     ldrh    r0,[r5,2h]                              
08020FF2 9000     str     r0,[sp]                                 
08020FF4 88A8     ldrh    r0,[r5,4h]                              
08020FF6 3090     add     r0,90h                                  
08020FF8 9001     str     r0,[sp,4h]                              
08020FFA 2440     mov     r4,40h                                  
08020FFC 9402     str     r4,[sp,8h]                              
08020FFE 2025     mov     r0,25h                                  
08021000 2101     mov     r1,1h                                   
08021002 F7EEFD6D bl      800FAE0h                                
08021006 7FEA     ldrb    r2,[r5,1Fh]                             
08021008 783B     ldrb    r3,[r7]                                 
0802100A 8868     ldrh    r0,[r5,2h]                              
0802100C 9000     str     r0,[sp]                                 
0802100E 88A8     ldrh    r0,[r5,4h]                              
08021010 3090     add     r0,90h                                  
08021012 9001     str     r0,[sp,4h]                              
08021014 9402     str     r4,[sp,8h]                              
08021016 2012     mov     r0,12h                                  
08021018 2101     mov     r1,1h                                   
0802101A F7EEFD61 bl      800FAE0h                                
0802101E E048     b       80210B2h                                
08021020 4815     ldr     r0,=82F788Ch                            
08021022 61A8     str     r0,[r5,18h]                             
08021024 1C28     mov     r0,r5                                   
08021026 302E     add     r0,2Eh                                  
08021028 2201     mov     r2,1h                                   
0802102A 7002     strb    r2,[r0]                                 
0802102C 1C29     mov     r1,r5                                   
0802102E 3124     add     r1,24h                                  
08021030 2002     mov     r0,2h                                   
08021032 7008     strb    r0,[r1]                                 
08021034 1C28     mov     r0,r5                                   
08021036 302A     add     r0,2Ah                                  
08021038 7800     ldrb    r0,[r0]                                 
0802103A 1C16     mov     r6,r2                                   
0802103C 4006     and     r6,r0                                   
0802103E 2E00     cmp     r6,0h                                   
08021040 D01C     beq     802107Ch                                
08021042 7FEA     ldrb    r2,[r5,1Fh]                             
08021044 1C2C     mov     r4,r5                                   
08021046 3423     add     r4,23h                                  
08021048 7823     ldrb    r3,[r4]                                 
0802104A 8868     ldrh    r0,[r5,2h]                              
0802104C 9000     str     r0,[sp]                                 
0802104E 88A8     ldrh    r0,[r5,4h]                              
08021050 3890     sub     r0,90h                                  
08021052 9001     str     r0,[sp,4h]                              
08021054 9702     str     r7,[sp,8h]                              
08021056 2025     mov     r0,25h                                  
08021058 2100     mov     r1,0h                                   
0802105A F7EEFD41 bl      800FAE0h                                
0802105E 7FEA     ldrb    r2,[r5,1Fh]                             
08021060 7823     ldrb    r3,[r4]                                 
08021062 8868     ldrh    r0,[r5,2h]                              
08021064 9000     str     r0,[sp]                                 
08021066 88A8     ldrh    r0,[r5,4h]                              
08021068 3890     sub     r0,90h                                  
0802106A 9001     str     r0,[sp,4h]                              
0802106C 9702     str     r7,[sp,8h]                              
0802106E 2012     mov     r0,12h                                  
08021070 2100     mov     r1,0h                                   
08021072 F7EEFD35 bl      800FAE0h                                
08021076 E01C     b       80210B2h                                
08021078 788C     ldrb    r4,[r1,2h]                              
0802107A 082F     lsr     r7,r5,20h                               
0802107C 7FEA     ldrb    r2,[r5,1Fh]                             
0802107E 1C2F     mov     r7,r5                                   
08021080 3723     add     r7,23h                                  
08021082 783B     ldrb    r3,[r7]                                 
08021084 8868     ldrh    r0,[r5,2h]                              
08021086 9000     str     r0,[sp]                                 
08021088 88A8     ldrh    r0,[r5,4h]                              
0802108A 3090     add     r0,90h                                  
0802108C 9001     str     r0,[sp,4h]                              
0802108E 2440     mov     r4,40h                                  
08021090 9402     str     r4,[sp,8h]                              
08021092 2025     mov     r0,25h                                  
08021094 2100     mov     r1,0h                                   
08021096 F7EEFD23 bl      800FAE0h                                
0802109A 7FEA     ldrb    r2,[r5,1Fh]                             
0802109C 783B     ldrb    r3,[r7]                                 
0802109E 8868     ldrh    r0,[r5,2h]                              
080210A0 9000     str     r0,[sp]                                 
080210A2 88A8     ldrh    r0,[r5,4h]                              
080210A4 3090     add     r0,90h                                  
080210A6 9001     str     r0,[sp,4h]                              
080210A8 9402     str     r4,[sp,8h]                              
080210AA 2012     mov     r0,12h                                  
080210AC 2100     mov     r1,0h                                   
080210AE F7EEFD17 bl      800FAE0h                                
080210B2 4803     ldr     r0,=30006BCh                            
080210B4 302F     add     r0,2Fh                                  
080210B6 7006     strb    r6,[r0]                                 
080210B8 B003     add     sp,0Ch                                  
080210BA BCF0     pop     r4-r7                                   
080210BC BC01     pop     r0                                      
080210BE 4700     bx      r0                                      
080210C0 06BC     lsl     r4,r7,1Ah                               
080210C2 0300     lsl     r0,r0,0Ch                               
080210C4 4806     ldr     r0,=30006BCh                            
080210C6 4907     ldr     r1,=82F788Ch                            
080210C8 6181     str     r1,[r0,18h]                             
080210CA 2100     mov     r1,0h                                   
080210CC 7701     strb    r1,[r0,1Ch]                             
080210CE 82C1     strh    r1,[r0,16h]                             
080210D0 1C02     mov     r2,r0                                   
080210D2 322E     add     r2,2Eh                                  
080210D4 2101     mov     r1,1h                                   
080210D6 7011     strb    r1,[r2]                                 
080210D8 3024     add     r0,24h                                  
080210DA 2102     mov     r1,2h                                   
080210DC 7001     strb    r1,[r0]                                 
080210DE 4770     bx      r14                                     
080210E0 06BC     lsl     r4,r7,1Ah                               
080210E2 0300     lsl     r0,r0,0Ch                               
080210E4 788C     ldrb    r4,[r1,2h]                              
080210E6 082F     lsr     r7,r5,20h                               
080210E8 B500     push    r14                                     
080210EA F008FFE5 bl      802A0B8h                                
080210EE 2800     cmp     r0,0h                                   
080210F0 D01A     beq     8021128h                                
080210F2 4B0A     ldr     r3,=30006BCh                            
080210F4 1C19     mov     r1,r3                                   
080210F6 312E     add     r1,2Eh                                  
080210F8 7808     ldrb    r0,[r1]                                 
080210FA 3801     sub     r0,1h                                   
080210FC 7008     strb    r0,[r1]                                 
080210FE 0600     lsl     r0,r0,18h                               
08021100 0E02     lsr     r2,r0,18h                               
08021102 2A00     cmp     r2,0h                                   
08021104 D114     bne     8021130h                                
08021106 390A     sub     r1,0Ah                                  
08021108 2018     mov     r0,18h                                  
0802110A 7008     strb    r0,[r1]                                 
0802110C 4804     ldr     r0,=82F783Ch                            
0802110E 6198     str     r0,[r3,18h]                             
08021110 771A     strb    r2,[r3,1Ch]                             
08021112 82DA     strh    r2,[r3,16h]                             
08021114 4803     ldr     r0,=101h                                
08021116 F7E1FAF9 bl      800270Ch                                
0802111A E009     b       8021130h                                
0802111C 06BC     lsl     r4,r7,1Ah                               
0802111E 0300     lsl     r0,r0,0Ch                               
08021120 783C     ldrb    r4,[r7]                                 
08021122 082F     lsr     r7,r5,20h                               
08021124 0101     lsl     r1,r0,4h                                
08021126 0000     lsl     r0,r0,0h                                
08021128 4802     ldr     r0,=30006BCh                            
0802112A 302E     add     r0,2Eh                                  
0802112C 2101     mov     r1,1h                                   
0802112E 7001     strb    r1,[r0]                                 
08021130 BC01     pop     r0                                      
08021132 4700     bx      r0                                      
08021134 06BC     lsl     r4,r7,1Ah                               
08021136 0300     lsl     r0,r0,0Ch                               
08021138 B500     push    r14                                     
0802113A F7F0FBFB bl      8011934h                                
0802113E 2800     cmp     r0,0h                                   
08021140 D009     beq     8021156h                                
08021142 4906     ldr     r1,=30006BCh                            
08021144 1C0A     mov     r2,r1                                   
08021146 3224     add     r2,24h                                  
08021148 2300     mov     r3,0h                                   
0802114A 201A     mov     r0,1Ah                                  
0802114C 7010     strb    r0,[r2]                                 
0802114E 4804     ldr     r0,=82F789Ch                            
08021150 6188     str     r0,[r1,18h]                             
08021152 770B     strb    r3,[r1,1Ch]                             
08021154 82CB     strh    r3,[r1,16h]                             
08021156 BC01     pop     r0                                      
08021158 4700     bx      r0                                      
0802115A 0000     lsl     r0,r0,0h                                
0802115C 06BC     lsl     r4,r7,1Ah                               
0802115E 0300     lsl     r0,r0,0Ch                               
08021160 789C     ldrb    r4,[r3,2h]                              
08021162 082F     lsr     r7,r5,20h                               
08021164 B510     push    r4,r14                                  
08021166 2400     mov     r4,0h                                   
08021168 F008FFA6 bl      802A0B8h                                
0802116C 1C03     mov     r3,r0                                   
0802116E 2B00     cmp     r3,0h                                   
08021170 D04A     beq     8021208h                                
08021172 F7F1FA55 bl      8012620h                                
08021176 2800     cmp     r0,0h                                   
08021178 D153     bne     8021222h                                
0802117A 480C     ldr     r0,=3001244h                            
0802117C 7881     ldrb    r1,[r0,2h]                              
0802117E 1C02     mov     r2,r0                                   
08021180 2900     cmp     r1,0h                                   
08021182 D14E     bne     8021222h                                
08021184 490A     ldr     r1,=30006BCh                            
08021186 8888     ldrh    r0,[r1,4h]                              
08021188 82D0     strh    r0,[r2,16h]                             
0802118A 7950     ldrb    r0,[r2,5h]                              
0802118C 2800     cmp     r0,0h                                   
0802118E D001     beq     8021194h                                
08021190 2000     mov     r0,0h                                   
08021192 7150     strb    r0,[r2,5h]                              
08021194 1C08     mov     r0,r1                                   
08021196 302F     add     r0,2Fh                                  
08021198 7800     ldrb    r0,[r0]                                 
0802119A 2800     cmp     r0,0h                                   
0802119C D00A     beq     80211B4h                                
0802119E 8A51     ldrh    r1,[r2,12h]                             
080211A0 2010     mov     r0,10h                                  
080211A2 4008     and     r0,r1                                   
080211A4 2800     cmp     r0,0h                                   
080211A6 D00B     beq     80211C0h                                
080211A8 E00C     b       80211C4h                                
080211AA 0000     lsl     r0,r0,0h                                
080211AC 1244     asr     r4,r0,9h                                
080211AE 0300     lsl     r0,r0,0Ch                               
080211B0 06BC     lsl     r4,r7,1Ah                               
080211B2 0300     lsl     r0,r0,0Ch                               
080211B4 8A51     ldrh    r1,[r2,12h]                             
080211B6 2020     mov     r0,20h                                  
080211B8 4008     and     r0,r1                                   
080211BA 2800     cmp     r0,0h                                   
080211BC D000     beq     80211C0h                                
080211BE 2401     mov     r4,1h                                   
080211C0 2C00     cmp     r4,0h                                   
080211C2 D00B     beq     80211DCh                                
080211C4 4804     ldr     r0,=828FD04h                            
080211C6 7811     ldrb    r1,[r2]                                 
080211C8 0089     lsl     r1,r1,2h                                
080211CA 1809     add     r1,r1,r0                                
080211CC 6809     ldr     r1,[r1]                                 
080211CE 2022     mov     r0,22h                                  
080211D0 F082F92E bl      80A3430h                                
080211D4 E00A     b       80211ECh                                
080211D6 0000     lsl     r0,r0,0h                                
080211D8 FD04     bl      lr+0A08h                                
080211DA 0828     lsr     r0,r5,20h                               
080211DC 4808     ldr     r0,=828FD04h                            
080211DE 7811     ldrb    r1,[r2]                                 
080211E0 0089     lsl     r1,r1,2h                                
080211E2 1809     add     r1,r1,r0                                
080211E4 6809     ldr     r1,[r1]                                 
080211E6 2021     mov     r0,21h                                  
080211E8 F082F922 bl      80A3430h                                
080211EC 4905     ldr     r1,=30006BCh                            
080211EE 1C0A     mov     r2,r1                                   
080211F0 3224     add     r2,24h                                  
080211F2 2038     mov     r0,38h                                  
080211F4 7010     strb    r0,[r2]                                 
080211F6 312E     add     r1,2Eh                                  
080211F8 2010     mov     r0,10h                                  
080211FA 7008     strb    r0,[r1]                                 
080211FC E011     b       8021222h                                
080211FE 0000     lsl     r0,r0,0h                                
08021200 FD04     bl      lr+0A08h                                
08021202 0828     lsr     r0,r5,20h                               
08021204 06BC     lsl     r4,r7,1Ah                               
08021206 0300     lsl     r0,r0,0Ch                               
08021208 4907     ldr     r1,=30006BCh                            
0802120A 1C0A     mov     r2,r1                                   
0802120C 3224     add     r2,24h                                  
0802120E 201C     mov     r0,1Ch                                  
08021210 7010     strb    r0,[r2]                                 
08021212 4806     ldr     r0,=82F7864h                            
08021214 6188     str     r0,[r1,18h]                             
08021216 770B     strb    r3,[r1,1Ch]                             
08021218 82CB     strh    r3,[r1,16h]                             
0802121A 2081     mov     r0,81h                                  
0802121C 0040     lsl     r0,r0,1h                                
0802121E F7E1FA75 bl      800270Ch                                
08021222 BC10     pop     r4                                      
08021224 BC01     pop     r0                                      
08021226 4700     bx      r0                                      
08021228 06BC     lsl     r4,r7,1Ah                               
0802122A 0300     lsl     r0,r0,0Ch                               
0802122C 7864     ldrb    r4,[r4,1h]                              
0802122E 082F     lsr     r7,r5,20h                               
08021230 B500     push    r14                                     
08021232 F7F0FB7F bl      8011934h                                
08021236 2800     cmp     r0,0h                                   
08021238 D001     beq     802123Eh                                
0802123A F7FFFF43 bl      80210C4h                                
0802123E BC01     pop     r0                                      
08021240 4700     bx      r0                                      
08021242 0000     lsl     r0,r0,0h                                
08021244 B500     push    r14                                     
08021246 4908     ldr     r1,=30006BCh                            
08021248 1C0A     mov     r2,r1                                   
0802124A 322E     add     r2,2Eh                                  
0802124C 7810     ldrb    r0,[r2]                                 
0802124E 3801     sub     r0,1h                                   
08021250 7010     strb    r0,[r2]                                 
08021252 0600     lsl     r0,r0,18h                               
08021254 2800     cmp     r0,0h                                   
08021256 D105     bne     8021264h                                
08021258 1C08     mov     r0,r1                                   
0802125A 3024     add     r0,24h                                  
0802125C 213A     mov     r1,3Ah                                  
0802125E 7001     strb    r1,[r0]                                 
08021260 20B4     mov     r0,0B4h                                 
08021262 7010     strb    r0,[r2]                                 
08021264 BC01     pop     r0                                      
08021266 4700     bx      r0                                      
08021268 06BC     lsl     r4,r7,1Ah                               
0802126A 0300     lsl     r0,r0,0Ch                               
0802126C B500     push    r14                                     
0802126E 4908     ldr     r1,=30006BCh                            
08021270 1C0A     mov     r2,r1                                   
08021272 322E     add     r2,2Eh                                  
08021274 7810     ldrb    r0,[r2]                                 
08021276 3801     sub     r0,1h                                   
08021278 7010     strb    r0,[r2]                                 
0802127A 0600     lsl     r0,r0,18h                               
0802127C 2800     cmp     r0,0h                                   
0802127E D105     bne     802128Ch                                
08021280 1C08     mov     r0,r1                                   
08021282 3024     add     r0,24h                                  
08021284 213C     mov     r1,3Ch                                  
08021286 7001     strb    r1,[r0]                                 
08021288 2014     mov     r0,14h                                  
0802128A 7010     strb    r0,[r2]                                 
0802128C BC01     pop     r0                                      
0802128E 4700     bx      r0                                      
08021290 06BC     lsl     r4,r7,1Ah                               
08021292 0300     lsl     r0,r0,0Ch                               
08021294 B510     push    r4,r14                                  
08021296 4C10     ldr     r4,=30006BCh                            
08021298 1C21     mov     r1,r4                                   
0802129A 312E     add     r1,2Eh                                  
0802129C 7808     ldrb    r0,[r1]                                 
0802129E 3801     sub     r0,1h                                   
080212A0 7008     strb    r0,[r1]                                 
080212A2 0600     lsl     r0,r0,18h                               
080212A4 2800     cmp     r0,0h                                   
080212A6 D114     bne     80212D2h                                
080212A8 2000     mov     r0,0h                                   
080212AA F009FABD bl      802A828h                                
080212AE 490B     ldr     r1,=828FD04h                            
080212B0 480B     ldr     r0,=3001244h                            
080212B2 7800     ldrb    r0,[r0]                                 
080212B4 0080     lsl     r0,r0,2h                                
080212B6 1840     add     r0,r0,r1                                
080212B8 6801     ldr     r1,[r0]                                 
080212BA 2000     mov     r0,0h                                   
080212BC F082F8B8 bl      80A3430h                                
080212C0 4908     ldr     r1,=3001348h                            
080212C2 22FA     mov     r2,0FAh                                 
080212C4 0092     lsl     r2,r2,2h                                
080212C6 1C10     mov     r0,r2                                   
080212C8 8008     strh    r0,[r1]                                 
080212CA 1C21     mov     r1,r4                                   
080212CC 3124     add     r1,24h                                  
080212CE 201E     mov     r0,1Eh                                  
080212D0 7008     strb    r0,[r1]                                 
080212D2 BC10     pop     r4                                      
080212D4 BC01     pop     r0                                      
080212D6 4700     bx      r0                                      
080212D8 06BC     lsl     r4,r7,1Ah                               
080212DA 0300     lsl     r0,r0,0Ch                               
080212DC FD04     bl      lr+0A08h                                
080212DE 0828     lsr     r0,r5,20h                               
080212E0 1244     asr     r4,r0,9h                                
080212E2 0300     lsl     r0,r0,0Ch                               
080212E4 1348     asr     r0,r1,0Dh                               
080212E6 0300     lsl     r0,r0,0Ch                               
080212E8 B530     push    r4,r5,r14                               
080212EA 4818     ldr     r0,=30006BCh                            
080212EC 4684     mov     r12,r0                                  
080212EE 4662     mov     r2,r12                                  
080212F0 3234     add     r2,34h                                  
080212F2 7811     ldrb    r1,[r2]                                 
080212F4 2001     mov     r0,1h                                   
080212F6 2400     mov     r4,0h                                   
080212F8 4308     orr     r0,r1                                   
080212FA 7010     strb    r0,[r2]                                 
080212FC 4665     mov     r5,r12                                  
080212FE 8829     ldrh    r1,[r5]                                 
08021300 4813     ldr     r0,=0FFFBh                              
08021302 4008     and     r0,r1                                   
08021304 2200     mov     r2,0h                                   
08021306 8028     strh    r0,[r5]                                 
08021308 4660     mov     r0,r12                                  
0802130A 3025     add     r0,25h                                  
0802130C 7002     strb    r2,[r0]                                 
0802130E 4661     mov     r1,r12                                  
08021310 3127     add     r1,27h                                  
08021312 2030     mov     r0,30h                                  
08021314 7008     strb    r0,[r1]                                 
08021316 4660     mov     r0,r12                                  
08021318 3028     add     r0,28h                                  
0802131A 7002     strb    r2,[r0]                                 
0802131C 3102     add     r1,2h                                   
0802131E 2018     mov     r0,18h                                  
08021320 7008     strb    r0,[r1]                                 
08021322 490C     ldr     r1,=0FFFCh                              
08021324 8169     strh    r1,[r5,0Ah]                             
08021326 2304     mov     r3,4h                                   
08021328 2004     mov     r0,4h                                   
0802132A 81A8     strh    r0,[r5,0Ch]                             
0802132C 81E9     strh    r1,[r5,0Eh]                             
0802132E 8228     strh    r0,[r5,10h]                             
08021330 4660     mov     r0,r12                                  
08021332 3022     add     r0,22h                                  
08021334 7003     strb    r3,[r0]                                 
08021336 4808     ldr     r0,=82F7754h                            
08021338 61A8     str     r0,[r5,18h]                             
0802133A 772A     strb    r2,[r5,1Ch]                             
0802133C 82EC     strh    r4,[r5,16h]                             
0802133E 7FA8     ldrb    r0,[r5,1Eh]                             
08021340 2800     cmp     r0,0h                                   
08021342 D00B     beq     802135Ch                                
08021344 4661     mov     r1,r12                                  
08021346 3124     add     r1,24h                                  
08021348 201E     mov     r0,1Eh                                  
0802134A E00A     b       8021362h                                
0802134C 06BC     lsl     r4,r7,1Ah                               
0802134E 0300     lsl     r0,r0,0Ch                               
08021350 FFFB     bl      lr+0FF6h                                
08021352 0000     lsl     r0,r0,0h                                
08021354 FFFC     bl      lr+0FF8h                                
08021356 0000     lsl     r0,r0,0h                                
08021358 7754     strb    r4,[r2,1Dh]                             
0802135A 082F     lsr     r7,r5,20h                               
0802135C 4661     mov     r1,r12                                  
0802135E 3124     add     r1,24h                                  
08021360 2002     mov     r0,2h                                   
08021362 7008     strb    r0,[r1]                                 
08021364 BC30     pop     r4,r5                                   
08021366 BC01     pop     r0                                      
08021368 4700     bx      r0                                      
0802136A 0000     lsl     r0,r0,0h                                
0802136C B500     push    r14                                     
0802136E 4A0D     ldr     r2,=3000140h                            
08021370 4B0D     ldr     r3,=30006BCh                            
08021372 1C18     mov     r0,r3                                   
08021374 3023     add     r0,23h                                  
08021376 7801     ldrb    r1,[r0]                                 
08021378 00C8     lsl     r0,r1,3h                                
0802137A 1A40     sub     r0,r0,r1                                
0802137C 00C0     lsl     r0,r0,3h                                
0802137E 1880     add     r0,r0,r2                                
08021380 3024     add     r0,24h                                  
08021382 7800     ldrb    r0,[r0]                                 
08021384 283A     cmp     r0,3Ah                                  
08021386 D10B     bne     80213A0h                                
08021388 4808     ldr     r0,=82F7764h                            
0802138A 6198     str     r0,[r3,18h]                             
0802138C 2000     mov     r0,0h                                   
0802138E 7718     strb    r0,[r3,1Ch]                             
08021390 82D8     strh    r0,[r3,16h]                             
08021392 1C19     mov     r1,r3                                   
08021394 3124     add     r1,24h                                  
08021396 2018     mov     r0,18h                                  
08021398 7008     strb    r0,[r1]                                 
0802139A 30F7     add     r0,0F7h                                 
0802139C F7E1F9B6 bl      800270Ch                                
080213A0 BC01     pop     r0                                      
080213A2 4700     bx      r0                                      
080213A4 0140     lsl     r0,r0,5h                                
080213A6 0300     lsl     r0,r0,0Ch                               
080213A8 06BC     lsl     r4,r7,1Ah                               
080213AA 0300     lsl     r0,r0,0Ch                               
080213AC 7764     strb    r4,[r4,1Dh]                             
080213AE 082F     lsr     r7,r5,20h                               
080213B0 B500     push    r14                                     
080213B2 F7F0FABF bl      8011934h                                
080213B6 2800     cmp     r0,0h                                   
080213B8 D018     beq     80213ECh                                
080213BA 490D     ldr     r1,=30006BCh                            
080213BC 480D     ldr     r0,=82F78ACh                            
080213BE 6188     str     r0,[r1,18h]                             
080213C0 2000     mov     r0,0h                                   
080213C2 7708     strb    r0,[r1,1Ch]                             
080213C4 82C8     strh    r0,[r1,16h]                             
080213C6 3124     add     r1,24h                                  
080213C8 201A     mov     r0,1Ah                                  
080213CA 7008     strb    r0,[r1]                                 
080213CC 2001     mov     r0,1h                                   
080213CE F053FDCF bl      8074F70h                                
080213D2 4909     ldr     r1,=828FD04h                            
080213D4 4809     ldr     r0,=3001244h                            
080213D6 7800     ldrb    r0,[r0]                                 
080213D8 0080     lsl     r0,r0,2h                                
080213DA 1840     add     r0,r0,r1                                
080213DC 6801     ldr     r1,[r0]                                 
080213DE 2034     mov     r0,34h                                  
080213E0 F082F826 bl      80A3430h                                
080213E4 2087     mov     r0,87h                                  
080213E6 0040     lsl     r0,r0,1h                                
080213E8 F7E1F990 bl      800270Ch                                
080213EC BC01     pop     r0                                      
080213EE 4700     bx      r0                                      
080213F0 06BC     lsl     r4,r7,1Ah                               
080213F2 0300     lsl     r0,r0,0Ch                               
080213F4 78AC     ldrb    r4,[r5,2h]                              
080213F6 082F     lsr     r7,r5,20h                               
080213F8 FD04     bl      lr+0A08h                                
080213FA 0828     lsr     r0,r5,20h                               
080213FC 1244     asr     r4,r0,9h                                
080213FE 0300     lsl     r0,r0,0Ch                               
08021400 B500     push    r14                                     
08021402 4A0D     ldr     r2,=3000140h                            
08021404 4B0D     ldr     r3,=30006BCh                            
08021406 1C18     mov     r0,r3                                   
08021408 3023     add     r0,23h                                  
0802140A 7801     ldrb    r1,[r0]                                 
0802140C 00C8     lsl     r0,r1,3h                                
0802140E 1A40     sub     r0,r0,r1                                
08021410 00C0     lsl     r0,r0,3h                                
08021412 1880     add     r0,r0,r2                                
08021414 3024     add     r0,24h                                  
08021416 7800     ldrb    r0,[r0]                                 
08021418 283C     cmp     r0,3Ch                                  
0802141A D10B     bne     8021434h                                
0802141C 4808     ldr     r0,=82F780Ch                            
0802141E 6198     str     r0,[r3,18h]                             
08021420 2000     mov     r0,0h                                   
08021422 7718     strb    r0,[r3,1Ch]                             
08021424 82D8     strh    r0,[r3,16h]                             
08021426 1C19     mov     r1,r3                                   
08021428 3124     add     r1,24h                                  
0802142A 201C     mov     r0,1Ch                                  
0802142C 7008     strb    r0,[r1]                                 
0802142E 30F4     add     r0,0F4h                                 
08021430 F7E1F96C bl      800270Ch                                
08021434 BC01     pop     r0                                      
08021436 4700     bx      r0                                      
08021438 0140     lsl     r0,r0,5h                                
0802143A 0300     lsl     r0,r0,0Ch                               
0802143C 06BC     lsl     r4,r7,1Ah                               
0802143E 0300     lsl     r0,r0,0Ch                               
08021440 780C     ldrb    r4,[r1]                                 
08021442 082F     lsr     r7,r5,20h                               
08021444 B500     push    r14                                     
08021446 F7F0FA75 bl      8011934h                                
0802144A 2800     cmp     r0,0h                                   
0802144C D008     beq     8021460h                                
0802144E 4905     ldr     r1,=30006BCh                            
08021450 4805     ldr     r0,=82F7754h                            
08021452 6188     str     r0,[r1,18h]                             
08021454 2000     mov     r0,0h                                   
08021456 7708     strb    r0,[r1,1Ch]                             
08021458 82C8     strh    r0,[r1,16h]                             
0802145A 3124     add     r1,24h                                  
0802145C 201E     mov     r0,1Eh                                  
0802145E 7008     strb    r0,[r1]                                 
08021460 BC01     pop     r0                                      
08021462 4700     bx      r0                                      
08021464 06BC     lsl     r4,r7,1Ah                               
08021466 0300     lsl     r0,r0,0Ch                               
08021468 7754     strb    r4,[r2,1Dh]                             
0802146A 082F     lsr     r7,r5,20h                               
0802146C B510     push    r4,r14                                  
0802146E 4819     ldr     r0,=30006BCh                            
08021470 4684     mov     r12,r0                                  
08021472 4662     mov     r2,r12                                  
08021474 3234     add     r2,34h                                  
08021476 7811     ldrb    r1,[r2]                                 
08021478 2001     mov     r0,1h                                   
0802147A 2300     mov     r3,0h                                   
0802147C 4308     orr     r0,r1                                   
0802147E 7010     strb    r0,[r2]                                 
08021480 4664     mov     r4,r12                                  
08021482 8821     ldrh    r1,[r4]                                 
08021484 4814     ldr     r0,=0FFFBh                              
08021486 4008     and     r0,r1                                   
08021488 2200     mov     r2,0h                                   
0802148A 8020     strh    r0,[r4]                                 
0802148C 4660     mov     r0,r12                                  
0802148E 3025     add     r0,25h                                  
08021490 7002     strb    r2,[r0]                                 
08021492 4661     mov     r1,r12                                  
08021494 3127     add     r1,27h                                  
08021496 2030     mov     r0,30h                                  
08021498 7008     strb    r0,[r1]                                 
0802149A 4660     mov     r0,r12                                  
0802149C 3028     add     r0,28h                                  
0802149E 7002     strb    r2,[r0]                                 
080214A0 3102     add     r1,2h                                   
080214A2 2018     mov     r0,18h                                  
080214A4 7008     strb    r0,[r1]                                 
080214A6 490D     ldr     r1,=0FFFCh                              
080214A8 8161     strh    r1,[r4,0Ah]                             
080214AA 2004     mov     r0,4h                                   
080214AC 81A0     strh    r0,[r4,0Ch]                             
080214AE 81E1     strh    r1,[r4,0Eh]                             
080214B0 8220     strh    r0,[r4,10h]                             
080214B2 7722     strb    r2,[r4,1Ch]                             
080214B4 82E3     strh    r3,[r4,16h]                             
080214B6 4661     mov     r1,r12                                  
080214B8 3122     add     r1,22h                                  
080214BA 2003     mov     r0,3h                                   
080214BC 7008     strb    r0,[r1]                                 
080214BE 7FA0     ldrb    r0,[r4,1Eh]                             
080214C0 2800     cmp     r0,0h                                   
080214C2 D00F     beq     80214E4h                                
080214C4 4660     mov     r0,r12                                  
080214C6 3024     add     r0,24h                                  
080214C8 211A     mov     r1,1Ah                                  
080214CA 7001     strb    r1,[r0]                                 
080214CC 4804     ldr     r0,=82F77E4h                            
080214CE 61A0     str     r0,[r4,18h]                             
080214D0 E00F     b       80214F2h                                
080214D2 0000     lsl     r0,r0,0h                                
080214D4 06BC     lsl     r4,r7,1Ah                               
080214D6 0300     lsl     r0,r0,0Ch                               
080214D8 FFFB     bl      lr+0FF6h                                
080214DA 0000     lsl     r0,r0,0h                                
080214DC FFFC     bl      lr+0FF8h                                
080214DE 0000     lsl     r0,r0,0h                                
080214E0 77E4     strb    r4,[r4,1Fh]                             
080214E2 082F     lsr     r7,r5,20h                               
080214E4 4660     mov     r0,r12                                  
080214E6 3024     add     r0,24h                                  
080214E8 2102     mov     r1,2h                                   
080214EA 7001     strb    r1,[r0]                                 
080214EC 4802     ldr     r0,=82F7794h                            
080214EE 4661     mov     r1,r12                                  
080214F0 6188     str     r0,[r1,18h]                             
080214F2 BC10     pop     r4                                      
080214F4 BC01     pop     r0                                      
080214F6 4700     bx      r0                                      
080214F8 7794     strb    r4,[r2,1Eh]                             
080214FA 082F     lsr     r7,r5,20h                               
080214FC B500     push    r14                                     
080214FE 4B0F     ldr     r3,=30006BCh                            
08021500 1C18     mov     r0,r3                                   
08021502 3023     add     r0,23h                                  
08021504 7801     ldrb    r1,[r0]                                 
08021506 4A0E     ldr     r2,=3000140h                            
08021508 00C8     lsl     r0,r1,3h                                
0802150A 1A40     sub     r0,r0,r1                                
0802150C 00C0     lsl     r0,r0,3h                                
0802150E 1881     add     r1,r0,r2                                
08021510 1C08     mov     r0,r1                                   
08021512 3024     add     r0,24h                                  
08021514 7800     ldrb    r0,[r0]                                 
08021516 283A     cmp     r0,3Ah                                  
08021518 D10D     bne     8021536h                                
0802151A 1C08     mov     r0,r1                                   
0802151C 302E     add     r0,2Eh                                  
0802151E 7800     ldrb    r0,[r0]                                 
08021520 288C     cmp     r0,8Ch                                  
08021522 D808     bhi     8021536h                                
08021524 4807     ldr     r0,=82F77BCh                            
08021526 6198     str     r0,[r3,18h]                             
08021528 2000     mov     r0,0h                                   
0802152A 7718     strb    r0,[r3,1Ch]                             
0802152C 82D8     strh    r0,[r3,16h]                             
0802152E 1C19     mov     r1,r3                                   
08021530 3124     add     r1,24h                                  
08021532 2018     mov     r0,18h                                  
08021534 7008     strb    r0,[r1]                                 
08021536 BC01     pop     r0                                      
08021538 4700     bx      r0                                      
0802153A 0000     lsl     r0,r0,0h                                
0802153C 06BC     lsl     r4,r7,1Ah                               
0802153E 0300     lsl     r0,r0,0Ch                               
08021540 0140     lsl     r0,r0,5h                                
08021542 0300     lsl     r0,r0,0Ch                               
08021544 77BC     strb    r4,[r7,1Eh]                             
08021546 082F     lsr     r7,r5,20h                               
08021548 B500     push    r14                                     
0802154A 4A0C     ldr     r2,=3000140h                            
0802154C 4B0C     ldr     r3,=30006BCh                            
0802154E 1C18     mov     r0,r3                                   
08021550 3023     add     r0,23h                                  
08021552 7801     ldrb    r1,[r0]                                 
08021554 00C8     lsl     r0,r1,3h                                
08021556 1A40     sub     r0,r0,r1                                
08021558 00C0     lsl     r0,r0,3h                                
0802155A 1880     add     r0,r0,r2                                
0802155C 3024     add     r0,24h                                  
0802155E 7800     ldrb    r0,[r0]                                 
08021560 283C     cmp     r0,3Ch                                  
08021562 D108     bne     8021576h                                
08021564 4807     ldr     r0,=82F77E4h                            
08021566 6198     str     r0,[r3,18h]                             
08021568 2000     mov     r0,0h                                   
0802156A 7718     strb    r0,[r3,1Ch]                             
0802156C 82D8     strh    r0,[r3,16h]                             
0802156E 1C19     mov     r1,r3                                   
08021570 3124     add     r1,24h                                  
08021572 201A     mov     r0,1Ah                                  
08021574 7008     strb    r0,[r1]                                 
08021576 BC01     pop     r0                                      
08021578 4700     bx      r0                                      
0802157A 0000     lsl     r0,r0,0h                                
0802157C 0140     lsl     r0,r0,5h                                
0802157E 0300     lsl     r0,r0,0Ch                               
08021580 06BC     lsl     r4,r7,1Ah                               
08021582 0300     lsl     r0,r0,0Ch                               
08021584 77E4     strb    r4,[r4,1Fh]                             
08021586 082F     lsr     r7,r5,20h                               
08021588 B500     push    r14                                     
0802158A 4807     ldr     r0,=30006BCh                            
0802158C 1C02     mov     r2,r0                                   
0802158E 3226     add     r2,26h                                  
08021590 2101     mov     r1,1h                                   
08021592 7011     strb    r1,[r2]                                 
08021594 3024     add     r0,24h                                  
08021596 7800     ldrb    r0,[r0]                                 
08021598 283C     cmp     r0,3Ch                                  
0802159A D900     bls     802159Eh                                
0802159C E09C     b       80216D8h                                
0802159E 0080     lsl     r0,r0,2h                                
080215A0 4902     ldr     r1,=80215B0h                            
080215A2 1840     add     r0,r0,r1                                
080215A4 6800     ldr     r0,[r0]                                 
080215A6 4687     mov     r15,r0                                  
080215A8 06BC     lsl     r4,r7,1Ah                               
080215AA 0300     lsl     r0,r0,0Ch                               
080215AC 15B0     asr     r0,r6,16h                               
080215AE 0802     lsr     r2,r0,20h                               
080215B0 16A4     asr     r4,r4,1Ah                               
080215B2 0802     lsr     r2,r0,20h                               
080215B4 16AA     asr     r2,r5,1Ah                               
080215B6 0802     lsr     r2,r0,20h                               
080215B8 16B0     asr     r0,r6,1Ah                               
080215BA 0802     lsr     r2,r0,20h                               
080215BC 16D8     asr     r0,r3,1Bh                               
080215BE 0802     lsr     r2,r0,20h                               
080215C0 16D8     asr     r0,r3,1Bh                               
080215C2 0802     lsr     r2,r0,20h                               
080215C4 16D8     asr     r0,r3,1Bh                               
080215C6 0802     lsr     r2,r0,20h                               
080215C8 16D8     asr     r0,r3,1Bh                               
080215CA 0802     lsr     r2,r0,20h                               
080215CC 16D8     asr     r0,r3,1Bh                               
080215CE 0802     lsr     r2,r0,20h                               
080215D0 16D8     asr     r0,r3,1Bh                               
080215D2 0802     lsr     r2,r0,20h                               
080215D4 16D8     asr     r0,r3,1Bh                               
080215D6 0802     lsr     r2,r0,20h                               
080215D8 16D8     asr     r0,r3,1Bh                               
080215DA 0802     lsr     r2,r0,20h                               
080215DC 16D8     asr     r0,r3,1Bh                               
080215DE 0802     lsr     r2,r0,20h                               
080215E0 16D8     asr     r0,r3,1Bh                               
080215E2 0802     lsr     r2,r0,20h                               
080215E4 16D8     asr     r0,r3,1Bh                               
080215E6 0802     lsr     r2,r0,20h                               
080215E8 16D8     asr     r0,r3,1Bh                               
080215EA 0802     lsr     r2,r0,20h                               
080215EC 16D8     asr     r0,r3,1Bh                               
080215EE 0802     lsr     r2,r0,20h                               
080215F0 16D8     asr     r0,r3,1Bh                               
080215F2 0802     lsr     r2,r0,20h                               
080215F4 16D8     asr     r0,r3,1Bh                               
080215F6 0802     lsr     r2,r0,20h                               
080215F8 16D8     asr     r0,r3,1Bh                               
080215FA 0802     lsr     r2,r0,20h                               
080215FC 16D8     asr     r0,r3,1Bh                               
080215FE 0802     lsr     r2,r0,20h                               
08021600 16D8     asr     r0,r3,1Bh                               
08021602 0802     lsr     r2,r0,20h                               
08021604 16D8     asr     r0,r3,1Bh                               
08021606 0802     lsr     r2,r0,20h                               
08021608 16D8     asr     r0,r3,1Bh                               
0802160A 0802     lsr     r2,r0,20h                               
0802160C 16D8     asr     r0,r3,1Bh                               
0802160E 0802     lsr     r2,r0,20h                               
08021610 16B6     asr     r6,r6,1Ah                               
08021612 0802     lsr     r2,r0,20h                               
08021614 16D8     asr     r0,r3,1Bh                               
08021616 0802     lsr     r2,r0,20h                               
08021618 16BC     asr     r4,r7,1Ah                               
0802161A 0802     lsr     r2,r0,20h                               
0802161C 16D8     asr     r0,r3,1Bh                               
0802161E 0802     lsr     r2,r0,20h                               
08021620 16C2     asr     r2,r0,1Bh                               
08021622 0802     lsr     r2,r0,20h                               
08021624 16D8     asr     r0,r3,1Bh                               
08021626 0802     lsr     r2,r0,20h                               
08021628 16D8     asr     r0,r3,1Bh                               
0802162A 0802     lsr     r2,r0,20h                               
0802162C 16D8     asr     r0,r3,1Bh                               
0802162E 0802     lsr     r2,r0,20h                               
08021630 16D8     asr     r0,r3,1Bh                               
08021632 0802     lsr     r2,r0,20h                               
08021634 16D8     asr     r0,r3,1Bh                               
08021636 0802     lsr     r2,r0,20h                               
08021638 16D8     asr     r0,r3,1Bh                               
0802163A 0802     lsr     r2,r0,20h                               
0802163C 16D8     asr     r0,r3,1Bh                               
0802163E 0802     lsr     r2,r0,20h                               
08021640 16D8     asr     r0,r3,1Bh                               
08021642 0802     lsr     r2,r0,20h                               
08021644 16D8     asr     r0,r3,1Bh                               
08021646 0802     lsr     r2,r0,20h                               
08021648 16D8     asr     r0,r3,1Bh                               
0802164A 0802     lsr     r2,r0,20h                               
0802164C 16D8     asr     r0,r3,1Bh                               
0802164E 0802     lsr     r2,r0,20h                               
08021650 16D8     asr     r0,r3,1Bh                               
08021652 0802     lsr     r2,r0,20h                               
08021654 16D8     asr     r0,r3,1Bh                               
08021656 0802     lsr     r2,r0,20h                               
08021658 16D8     asr     r0,r3,1Bh                               
0802165A 0802     lsr     r2,r0,20h                               
0802165C 16D8     asr     r0,r3,1Bh                               
0802165E 0802     lsr     r2,r0,20h                               
08021660 16D8     asr     r0,r3,1Bh                               
08021662 0802     lsr     r2,r0,20h                               
08021664 16D8     asr     r0,r3,1Bh                               
08021666 0802     lsr     r2,r0,20h                               
08021668 16D8     asr     r0,r3,1Bh                               
0802166A 0802     lsr     r2,r0,20h                               
0802166C 16D8     asr     r0,r3,1Bh                               
0802166E 0802     lsr     r2,r0,20h                               
08021670 16D8     asr     r0,r3,1Bh                               
08021672 0802     lsr     r2,r0,20h                               
08021674 16D8     asr     r0,r3,1Bh                               
08021676 0802     lsr     r2,r0,20h                               
08021678 16D8     asr     r0,r3,1Bh                               
0802167A 0802     lsr     r2,r0,20h                               
0802167C 16D8     asr     r0,r3,1Bh                               
0802167E 0802     lsr     r2,r0,20h                               
08021680 16D8     asr     r0,r3,1Bh                               
08021682 0802     lsr     r2,r0,20h                               
08021684 16D8     asr     r0,r3,1Bh                               
08021686 0802     lsr     r2,r0,20h                               
08021688 16D8     asr     r0,r3,1Bh                               
0802168A 0802     lsr     r2,r0,20h                               
0802168C 16D8     asr     r0,r3,1Bh                               
0802168E 0802     lsr     r2,r0,20h                               
08021690 16C8     asr     r0,r1,1Bh                               
08021692 0802     lsr     r2,r0,20h                               
08021694 16D8     asr     r0,r3,1Bh                               
08021696 0802     lsr     r2,r0,20h                               
08021698 16CE     asr     r6,r1,1Bh                               
0802169A 0802     lsr     r2,r0,20h                               
0802169C 16D8     asr     r0,r3,1Bh                               
0802169E 0802     lsr     r2,r0,20h                               
080216A0 16D4     asr     r4,r2,1Bh                               
080216A2 0802     lsr     r2,r0,20h                               
080216A4 F7FFFC2A bl      8020EFCh                                
080216A8 E016     b       80216D8h                                
080216AA F7FFFD0B bl      80210C4h                                
080216AE E013     b       80216D8h                                
080216B0 F7FFFD1A bl      80210E8h                                
080216B4 E010     b       80216D8h                                
080216B6 F7FFFD3F bl      8021138h                                
080216BA E00D     b       80216D8h                                
080216BC F7FFFD52 bl      8021164h                                
080216C0 E00A     b       80216D8h                                
080216C2 F7FFFDB5 bl      8021230h                                
080216C6 E007     b       80216D8h                                
080216C8 F7FFFDBC bl      8021244h                                
080216CC E004     b       80216D8h                                
080216CE F7FFFDCD bl      802126Ch                                
080216D2 E001     b       80216D8h                                
080216D4 F7FFFDDE bl      8021294h                                
080216D8 F7FFFBB0 bl      8020E3Ch                                
080216DC BC01     pop     r0                                      
080216DE 4700     bx      r0                                      
080216E0 B500     push    r14                                     
080216E2 4807     ldr     r0,=30006BCh                            
080216E4 1C02     mov     r2,r0                                   
080216E6 3226     add     r2,26h                                  
080216E8 2101     mov     r1,1h                                   
080216EA 7011     strb    r1,[r2]                                 
080216EC 3024     add     r0,24h                                  
080216EE 7800     ldrb    r0,[r0]                                 
080216F0 281C     cmp     r0,1Ch                                  
080216F2 D851     bhi     8021798h                                
080216F4 0080     lsl     r0,r0,2h                                
080216F6 4903     ldr     r1,=8021708h                            
080216F8 1840     add     r0,r0,r1                                
080216FA 6800     ldr     r0,[r0]                                 
080216FC 4687     mov     r15,r0                                  
080216FE 0000     lsl     r0,r0,0h                                
08021700 06BC     lsl     r4,r7,1Ah                               
08021702 0300     lsl     r0,r0,0Ch                               
08021704 1708     asr     r0,r1,1Ch                               
08021706 0802     lsr     r2,r0,20h                               
08021708 177C     asr     r4,r7,1Dh                               
0802170A 0802     lsr     r2,r0,20h                               
0802170C 1798     asr     r0,r3,1Eh                               
0802170E 0802     lsr     r2,r0,20h                               
08021710 1782     asr     r2,r0,1Eh                               
08021712 0802     lsr     r2,r0,20h                               
08021714 1798     asr     r0,r3,1Eh                               
08021716 0802     lsr     r2,r0,20h                               
08021718 1798     asr     r0,r3,1Eh                               
0802171A 0802     lsr     r2,r0,20h                               
0802171C 1798     asr     r0,r3,1Eh                               
0802171E 0802     lsr     r2,r0,20h                               
08021720 1798     asr     r0,r3,1Eh                               
08021722 0802     lsr     r2,r0,20h                               
08021724 1798     asr     r0,r3,1Eh                               
08021726 0802     lsr     r2,r0,20h                               
08021728 1798     asr     r0,r3,1Eh                               
0802172A 0802     lsr     r2,r0,20h                               
0802172C 1798     asr     r0,r3,1Eh                               
0802172E 0802     lsr     r2,r0,20h                               
08021730 1798     asr     r0,r3,1Eh                               
08021732 0802     lsr     r2,r0,20h                               
08021734 1798     asr     r0,r3,1Eh                               
08021736 0802     lsr     r2,r0,20h                               
08021738 1798     asr     r0,r3,1Eh                               
0802173A 0802     lsr     r2,r0,20h                               
0802173C 1798     asr     r0,r3,1Eh                               
0802173E 0802     lsr     r2,r0,20h                               
08021740 1798     asr     r0,r3,1Eh                               
08021742 0802     lsr     r2,r0,20h                               
08021744 1798     asr     r0,r3,1Eh                               
08021746 0802     lsr     r2,r0,20h                               
08021748 1798     asr     r0,r3,1Eh                               
0802174A 0802     lsr     r2,r0,20h                               
0802174C 1798     asr     r0,r3,1Eh                               
0802174E 0802     lsr     r2,r0,20h                               
08021750 1798     asr     r0,r3,1Eh                               
08021752 0802     lsr     r2,r0,20h                               
08021754 1798     asr     r0,r3,1Eh                               
08021756 0802     lsr     r2,r0,20h                               
08021758 1798     asr     r0,r3,1Eh                               
0802175A 0802     lsr     r2,r0,20h                               
0802175C 1798     asr     r0,r3,1Eh                               
0802175E 0802     lsr     r2,r0,20h                               
08021760 1798     asr     r0,r3,1Eh                               
08021762 0802     lsr     r2,r0,20h                               
08021764 1798     asr     r0,r3,1Eh                               
08021766 0802     lsr     r2,r0,20h                               
08021768 1788     asr     r0,r1,1Eh                               
0802176A 0802     lsr     r2,r0,20h                               
0802176C 1798     asr     r0,r3,1Eh                               
0802176E 0802     lsr     r2,r0,20h                               
08021770 178E     asr     r6,r1,1Eh                               
08021772 0802     lsr     r2,r0,20h                               
08021774 1798     asr     r0,r3,1Eh                               
08021776 0802     lsr     r2,r0,20h                               
08021778 1794     asr     r4,r2,1Eh                               
0802177A 0802     lsr     r2,r0,20h                               
0802177C F7FFFDB4 bl      80212E8h                                
08021780 E00A     b       8021798h                                
08021782 F7FFFDF3 bl      802136Ch                                
08021786 E007     b       8021798h                                
08021788 F7FFFE12 bl      80213B0h                                
0802178C E004     b       8021798h                                
0802178E F7FFFE37 bl      8021400h                                
08021792 E001     b       8021798h                                
08021794 F7FFFE56 bl      8021444h                                
08021798 BC01     pop     r0                                      
0802179A 4700     bx      r0                                      
0802179C B500     push    r14                                     
0802179E 4807     ldr     r0,=30006BCh                            
080217A0 1C02     mov     r2,r0                                   
080217A2 3226     add     r2,26h                                  
080217A4 2101     mov     r1,1h                                   
080217A6 7011     strb    r1,[r2]                                 
080217A8 3024     add     r0,24h                                  
080217AA 7800     ldrb    r0,[r0]                                 
080217AC 2802     cmp     r0,2h                                   
080217AE D00D     beq     80217CCh                                
080217B0 2802     cmp     r0,2h                                   
080217B2 DC05     bgt     80217C0h                                
080217B4 2800     cmp     r0,0h                                   
080217B6 D006     beq     80217C6h                                
080217B8 E00D     b       80217D6h                                
080217BA 0000     lsl     r0,r0,0h                                
080217BC 06BC     lsl     r4,r7,1Ah                               
080217BE 0300     lsl     r0,r0,0Ch                               
080217C0 2818     cmp     r0,18h                                  
080217C2 D006     beq     80217D2h                                
080217C4 E007     b       80217D6h                                
080217C6 F7FFFE51 bl      802146Ch                                
080217CA E004     b       80217D6h                                
080217CC F7FFFE96 bl      80214FCh                                
080217D0 E001     b       80217D6h                                
080217D2 F7FFFEB9 bl      8021548h                                
080217D6 BC01     pop     r0                                      
080217D8 4700     bx      r0                                      
080217DA 0000     lsl     r0,r0,0h                                
080217DC B510     push    r4,r14                                  
080217DE 4816     ldr     r0,=30006BCh                            
080217E0 4684     mov     r12,r0                                  
080217E2 3025     add     r0,25h                                  
080217E4 2300     mov     r3,0h                                   
080217E6 7003     strb    r3,[r0]                                 
080217E8 4662     mov     r2,r12                                  
080217EA 3234     add     r2,34h                                  
080217EC 7811     ldrb    r1,[r2]                                 
080217EE 2001     mov     r0,1h                                   
080217F0 4308     orr     r0,r1                                   
080217F2 7010     strb    r0,[r2]                                 
080217F4 4660     mov     r0,r12                                  
080217F6 3027     add     r0,27h                                  
080217F8 2110     mov     r1,10h                                  
080217FA 7001     strb    r1,[r0]                                 
080217FC 3001     add     r0,1h                                   
080217FE 7001     strb    r1,[r0]                                 
08021800 4661     mov     r1,r12                                  
08021802 3129     add     r1,29h                                  
08021804 2080     mov     r0,80h                                  
08021806 7008     strb    r0,[r1]                                 
08021808 2200     mov     r2,0h                                   
0802180A 490C     ldr     r1,=0FFFCh                              
0802180C 4664     mov     r4,r12                                  
0802180E 8161     strh    r1,[r4,0Ah]                             
08021810 2004     mov     r0,4h                                   
08021812 81A0     strh    r0,[r4,0Ch]                             
08021814 81E1     strh    r1,[r4,0Eh]                             
08021816 8220     strh    r0,[r4,10h]                             
08021818 7722     strb    r2,[r4,1Ch]                             
0802181A 82E3     strh    r3,[r4,16h]                             
0802181C 4661     mov     r1,r12                                  
0802181E 312E     add     r1,2Eh                                  
08021820 2007     mov     r0,7h                                   
08021822 7008     strb    r0,[r1]                                 
08021824 390A     sub     r1,0Ah                                  
08021826 2002     mov     r0,2h                                   
08021828 7008     strb    r0,[r1]                                 
0802182A 7FA0     ldrb    r0,[r4,1Eh]                             
0802182C 280B     cmp     r0,0Bh                                  
0802182E D909     bls     8021844h                                
08021830 4803     ldr     r0,=82F875Ch                            
08021832 61A0     str     r0,[r4,18h]                             
08021834 E009     b       802184Ah                                
08021836 0000     lsl     r0,r0,0h                                
08021838 06BC     lsl     r4,r7,1Ah                               
0802183A 0300     lsl     r0,r0,0Ch                               
0802183C FFFC     bl      lr+0FF8h                                
0802183E 0000     lsl     r0,r0,0h                                
08021840 875C     strh    r4,[r3,3Ah]                             
08021842 082F     lsr     r7,r5,20h                               
08021844 4802     ldr     r0,=82F87FCh                            
08021846 4661     mov     r1,r12                                  
08021848 6188     str     r0,[r1,18h]                             
0802184A BC10     pop     r4                                      
0802184C BC01     pop     r0                                      
0802184E 4700     bx      r0                                      
08021850 87FC     strh    r4,[r7,3Eh]                             
08021852 082F     lsr     r7,r5,20h                               
08021854 B570     push    r4-r6,r14                               
08021856 4D0A     ldr     r5,=30006BCh                            
08021858 1C2E     mov     r6,r5                                   
0802185A 362E     add     r6,2Eh                                  
0802185C 7831     ldrb    r1,[r6]                                 
0802185E 1C0C     mov     r4,r1                                   
08021860 2C00     cmp     r4,0h                                   
08021862 D011     beq     8021888h                                
08021864 7F28     ldrb    r0,[r5,1Ch]                             
08021866 3801     sub     r0,1h                                   
08021868 7728     strb    r0,[r5,1Ch]                             
0802186A 1E48     sub     r0,r1,1                                 
0802186C 7030     strb    r0,[r6]                                 
0802186E 0600     lsl     r0,r0,18h                               
08021870 2800     cmp     r0,0h                                   
08021872 D121     bne     80218B8h                                
08021874 8829     ldrh    r1,[r5]                                 
08021876 4803     ldr     r0,=0FFFBh                              
08021878 4008     and     r0,r1                                   
0802187A 8028     strh    r0,[r5]                                 
0802187C E01C     b       80218B8h                                
0802187E 0000     lsl     r0,r0,0h                                
08021880 06BC     lsl     r4,r7,1Ah                               
08021882 0300     lsl     r0,r0,0Ch                               
08021884 FFFB     bl      lr+0FF6h                                
08021886 0000     lsl     r0,r0,0h                                
08021888 F7F0F854 bl      8011934h                                
0802188C 2800     cmp     r0,0h                                   
0802188E D013     beq     80218B8h                                
08021890 772C     strb    r4,[r5,1Ch]                             
08021892 82EC     strh    r4,[r5,16h]                             
08021894 1C28     mov     r0,r5                                   
08021896 3024     add     r0,24h                                  
08021898 2118     mov     r1,18h                                  
0802189A 7001     strb    r1,[r0]                                 
0802189C 7FA8     ldrb    r0,[r5,1Eh]                             
0802189E 280B     cmp     r0,0Bh                                  
080218A0 D906     bls     80218B0h                                
080218A2 4802     ldr     r0,=82F874Ch                            
080218A4 61A8     str     r0,[r5,18h]                             
080218A6 203C     mov     r0,3Ch                                  
080218A8 E005     b       80218B6h                                
080218AA 0000     lsl     r0,r0,0h                                
080218AC 874C     strh    r4,[r1,3Ah]                             
080218AE 082F     lsr     r7,r5,20h                               
080218B0 4803     ldr     r0,=82F87ECh                            
080218B2 61A8     str     r0,[r5,18h]                             
080218B4 2078     mov     r0,78h                                  
080218B6 7030     strb    r0,[r6]                                 
080218B8 BC70     pop     r4-r6                                   
080218BA BC01     pop     r0                                      
080218BC 4700     bx      r0                                      
080218BE 0000     lsl     r0,r0,0h                                
080218C0 87EC     strh    r4,[r5,3Eh]                             
080218C2 082F     lsr     r7,r5,20h                               
080218C4 B500     push    r14                                     
080218C6 4A0A     ldr     r2,=30006BCh                            
080218C8 1C11     mov     r1,r2                                   
080218CA 312E     add     r1,2Eh                                  
080218CC 7808     ldrb    r0,[r1]                                 
080218CE 3801     sub     r0,1h                                   
080218D0 7008     strb    r0,[r1]                                 
080218D2 0600     lsl     r0,r0,18h                               
080218D4 0E00     lsr     r0,r0,18h                               
080218D6 2800     cmp     r0,0h                                   
080218D8 D110     bne     80218FCh                                
080218DA 7710     strb    r0,[r2,1Ch]                             
080218DC 82D0     strh    r0,[r2,16h]                             
080218DE 1C10     mov     r0,r2                                   
080218E0 3024     add     r0,24h                                  
080218E2 211A     mov     r1,1Ah                                  
080218E4 7001     strb    r1,[r0]                                 
080218E6 7F90     ldrb    r0,[r2,1Eh]                             
080218E8 280B     cmp     r0,0Bh                                  
080218EA D905     bls     80218F8h                                
080218EC 4801     ldr     r0,=82F87A4h                            
080218EE E004     b       80218FAh                                
080218F0 06BC     lsl     r4,r7,1Ah                               
080218F2 0300     lsl     r0,r0,0Ch                               
080218F4 87A4     strh    r4,[r4,3Ch]                             
080218F6 082F     lsr     r7,r5,20h                               
080218F8 4801     ldr     r0,=82F883Ch                            
080218FA 6190     str     r0,[r2,18h]                             
080218FC BC01     pop     r0                                      
080218FE 4700     bx      r0                                      
08021900 883C     ldrh    r4,[r7]                                 
08021902 082F     lsr     r7,r5,20h                               
08021904 B500     push    r14                                     
08021906 F7F0F815 bl      8011934h                                
0802190A 2800     cmp     r0,0h                                   
0802190C D002     beq     8021914h                                
0802190E 4902     ldr     r1,=30006BCh                            
08021910 2000     mov     r0,0h                                   
08021912 8008     strh    r0,[r1]                                 
08021914 BC01     pop     r0                                      
08021916 4700     bx      r0                                      
08021918 06BC     lsl     r4,r7,1Ah                               
0802191A 0300     lsl     r0,r0,0Ch                               
0802191C B500     push    r14                                     
0802191E 4807     ldr     r0,=30006BCh                            
08021920 1C02     mov     r2,r0                                   
08021922 3226     add     r2,26h                                  
08021924 2101     mov     r1,1h                                   
08021926 7011     strb    r1,[r2]                                 
08021928 3024     add     r0,24h                                  
0802192A 7800     ldrb    r0,[r0]                                 
0802192C 2802     cmp     r0,2h                                   
0802192E D00F     beq     8021950h                                
08021930 2802     cmp     r0,2h                                   
08021932 DC05     bgt     8021940h                                
08021934 2800     cmp     r0,0h                                   
08021936 D008     beq     802194Ah                                
08021938 E012     b       8021960h                                
0802193A 0000     lsl     r0,r0,0h                                
0802193C 06BC     lsl     r4,r7,1Ah                               
0802193E 0300     lsl     r0,r0,0Ch                               
08021940 2818     cmp     r0,18h                                  
08021942 D008     beq     8021956h                                
08021944 281A     cmp     r0,1Ah                                  
08021946 D009     beq     802195Ch                                
08021948 E00A     b       8021960h                                
0802194A F7FFFF47 bl      80217DCh                                
0802194E E007     b       8021960h                                
08021950 F7FFFF80 bl      8021854h                                
08021954 E004     b       8021960h                                
08021956 F7FFFFB5 bl      80218C4h                                
0802195A E001     b       8021960h                                
0802195C F7FFFFD2 bl      8021904h                                
08021960 4803     ldr     r0,=30006BCh                            
08021962 7F81     ldrb    r1,[r0,1Eh]                             
08021964 1C02     mov     r2,r0                                   
08021966 290B     cmp     r1,0Bh                                  
08021968 D904     bls     8021974h                                
0802196A 2036     mov     r0,36h                                  
0802196C E003     b       8021976h                                
0802196E 0000     lsl     r0,r0,0h                                
08021970 06BC     lsl     r4,r7,1Ah                               
08021972 0300     lsl     r0,r0,0Ch                               
08021974 2098     mov     r0,98h                                  
08021976 8050     strh    r0,[r2,2h]                              
08021978 2078     mov     r0,78h                                  
0802197A 8090     strh    r0,[r2,4h]                              
0802197C BC01     pop     r0                                      
0802197E 4700     bx      r0                                      
08021980 B510     push    r4,r14                                  
08021982 F7F0FF49 bl      8012818h                                
08021986 4A09     ldr     r2,=30006BCh                            
08021988 1C10     mov     r0,r2                                   
0802198A 3034     add     r0,34h                                  
0802198C 7801     ldrb    r1,[r0]                                 
0802198E 2002     mov     r0,2h                                   
08021990 4008     and     r0,r1                                   
08021992 2800     cmp     r0,0h                                   
08021994 D00C     beq     80219B0h                                
08021996 8811     ldrh    r1,[r2]                                 
08021998 2080     mov     r0,80h                                  
0802199A 0180     lsl     r0,r0,6h                                
0802199C 4008     and     r0,r1                                   
0802199E 0400     lsl     r0,r0,10h                               
080219A0 0C00     lsr     r0,r0,10h                               
080219A2 2800     cmp     r0,0h                                   
080219A4 D104     bne     80219B0h                                
080219A6 8010     strh    r0,[r2]                                 
080219A8 E03A     b       8021A20h                                
080219AA 0000     lsl     r0,r0,0h                                
080219AC 06BC     lsl     r4,r7,1Ah                               
080219AE 0300     lsl     r0,r0,0Ch                               
080219B0 4B16     ldr     r3,=30006BCh                            
080219B2 1C19     mov     r1,r3                                   
080219B4 3125     add     r1,25h                                  
080219B6 2400     mov     r4,0h                                   
080219B8 2002     mov     r0,2h                                   
080219BA 7008     strb    r0,[r1]                                 
080219BC 1C18     mov     r0,r3                                   
080219BE 302D     add     r0,2Dh                                  
080219C0 7004     strb    r4,[r0]                                 
080219C2 3806     sub     r0,6h                                   
080219C4 2218     mov     r2,18h                                  
080219C6 7002     strb    r2,[r0]                                 
080219C8 3103     add     r1,3h                                   
080219CA 2004     mov     r0,4h                                   
080219CC 7008     strb    r0,[r1]                                 
080219CE 3101     add     r1,1h                                   
080219D0 2008     mov     r0,8h                                   
080219D2 7008     strb    r0,[r1]                                 
080219D4 480E     ldr     r0,=0FFB0h                              
080219D6 8158     strh    r0,[r3,0Ah]                             
080219D8 819C     strh    r4,[r3,0Ch]                             
080219DA 3038     add     r0,38h                                  
080219DC 81D8     strh    r0,[r3,0Eh]                             
080219DE 821A     strh    r2,[r3,10h]                             
080219E0 4A0C     ldr     r2,=82E4D4Ch                            
080219E2 7F59     ldrb    r1,[r3,1Dh]                             
080219E4 00C8     lsl     r0,r1,3h                                
080219E6 1A40     sub     r0,r0,r1                                
080219E8 0040     lsl     r0,r0,1h                                
080219EA 1880     add     r0,r0,r2                                
080219EC 8800     ldrh    r0,[r0]                                 
080219EE 8298     strh    r0,[r3,14h]                             
080219F0 1C19     mov     r1,r3                                   
080219F2 3124     add     r1,24h                                  
080219F4 7808     ldrb    r0,[r1]                                 
080219F6 2859     cmp     r0,59h                                  
080219F8 D110     bne     8021A1Ch                                
080219FA 4807     ldr     r0,=82F9220h                            
080219FC 6198     str     r0,[r3,18h]                             
080219FE 2000     mov     r0,0h                                   
08021A00 7718     strb    r0,[r3,1Ch]                             
08021A02 82DC     strh    r4,[r3,16h]                             
08021A04 205A     mov     r0,5Ah                                  
08021A06 7008     strb    r0,[r1]                                 
08021A08 202C     mov     r0,2Ch                                  
08021A0A E008     b       8021A1Eh                                
08021A0C 06BC     lsl     r4,r7,1Ah                               
08021A0E 0300     lsl     r0,r0,0Ch                               
08021A10 FFB0     bl      lr+0F60h                                
08021A12 0000     lsl     r0,r0,0h                                
08021A14 4D4C     ldr     r5,=0D10F2802h                          
08021A16 082E     lsr     r6,r5,20h                               
08021A18 9220     str     r2,[sp,80h]                             
08021A1A 082F     lsr     r7,r5,20h                               
08021A1C 8858     ldrh    r0,[r3,2h]                              
08021A1E 80D8     strh    r0,[r3,6h]                              
08021A20 BC10     pop     r4                                      
08021A22 BC01     pop     r0                                      
08021A24 4700     bx      r0                                      
08021A26 0000     lsl     r0,r0,0h                                
08021A28 4904     ldr     r1,=30006BCh                            
08021A2A 4805     ldr     r0,=82F9248h                            
08021A2C 6188     str     r0,[r1,18h]                             
08021A2E 2000     mov     r0,0h                                   
08021A30 7708     strb    r0,[r1,1Ch]                             
08021A32 82C8     strh    r0,[r1,16h]                             
08021A34 3124     add     r1,24h                                  
08021A36 2002     mov     r0,2h                                   
08021A38 7008     strb    r0,[r1]                                 
08021A3A 4770     bx      r14                                     
08021A3C 06BC     lsl     r4,r7,1Ah                               
08021A3E 0300     lsl     r0,r0,0Ch                               
08021A40 9248     str     r2,[sp,120h]                            
08021A42 082F     lsr     r7,r5,20h                               
08021A44 B500     push    r14                                     
08021A46 4B0E     ldr     r3,=30006BCh                            
08021A48 8819     ldrh    r1,[r3]                                 
08021A4A 2080     mov     r0,80h                                  
08021A4C 0180     lsl     r0,r0,6h                                
08021A4E 4008     and     r0,r1                                   
08021A50 2800     cmp     r0,0h                                   
08021A52 D113     bne     8021A7Ch                                
08021A54 4A0B     ldr     r2,=3001244h                            
08021A56 8B11     ldrh    r1,[r2,18h]                             
08021A58 8858     ldrh    r0,[r3,2h]                              
08021A5A 30C8     add     r0,0C8h                                 
08021A5C 4281     cmp     r1,r0                                   
08021A5E DD0D     ble     8021A7Ch                                
08021A60 8AD2     ldrh    r2,[r2,16h]                             
08021A62 8899     ldrh    r1,[r3,4h]                              
08021A64 1C08     mov     r0,r1                                   
08021A66 3896     sub     r0,96h                                  
08021A68 4282     cmp     r2,r0                                   
08021A6A DD07     ble     8021A7Ch                                
08021A6C 1C08     mov     r0,r1                                   
08021A6E 3096     add     r0,96h                                  
08021A70 4282     cmp     r2,r0                                   
08021A72 DA03     bge     8021A7Ch                                
08021A74 1C19     mov     r1,r3                                   
08021A76 3124     add     r1,24h                                  
08021A78 2017     mov     r0,17h                                  
08021A7A 7008     strb    r0,[r1]                                 
08021A7C BC01     pop     r0                                      
08021A7E 4700     bx      r0                                      
08021A80 06BC     lsl     r4,r7,1Ah                               
08021A82 0300     lsl     r0,r0,0Ch                               
08021A84 1244     asr     r4,r0,9h                                
08021A86 0300     lsl     r0,r0,0Ch                               
08021A88 4802     ldr     r0,=30006BCh                            
08021A8A 3024     add     r0,24h                                  
08021A8C 2118     mov     r1,18h                                  
08021A8E 7001     strb    r1,[r0]                                 
08021A90 4770     bx      r14                                     
08021A92 0000     lsl     r0,r0,0h                                
08021A94 06BC     lsl     r4,r7,1Ah                               
08021A96 0300     lsl     r0,r0,0Ch                               
08021A98 B500     push    r14                                     
08021A9A F7EFFF67 bl      801196Ch                                
08021A9E 2800     cmp     r0,0h                                   
08021AA0 D003     beq     8021AAAh                                
08021AA2 4803     ldr     r0,=30006BCh                            
08021AA4 3024     add     r0,24h                                  
08021AA6 2129     mov     r1,29h                                  
08021AA8 7001     strb    r1,[r0]                                 
08021AAA BC01     pop     r0                                      
08021AAC 4700     bx      r0                                      
08021AAE 0000     lsl     r0,r0,0h                                
08021AB0 06BC     lsl     r4,r7,1Ah                               
08021AB2 0300     lsl     r0,r0,0Ch                               
08021AB4 B500     push    r14                                     
08021AB6 4A0B     ldr     r2,=30006BCh                            
08021AB8 480B     ldr     r0,=82F9260h                            
08021ABA 6190     str     r0,[r2,18h]                             
08021ABC 2000     mov     r0,0h                                   
08021ABE 7710     strb    r0,[r2,1Ch]                             
08021AC0 2100     mov     r1,0h                                   
08021AC2 82D0     strh    r0,[r2,16h]                             
08021AC4 1C10     mov     r0,r2                                   
08021AC6 302E     add     r0,2Eh                                  
08021AC8 7001     strb    r1,[r0]                                 
08021ACA 3003     add     r0,3h                                   
08021ACC 7001     strb    r1,[r0]                                 
08021ACE 1C11     mov     r1,r2                                   
08021AD0 3124     add     r1,24h                                  
08021AD2 202A     mov     r0,2Ah                                  
08021AD4 7008     strb    r0,[r1]                                 
08021AD6 20ED     mov     r0,0EDh                                 
08021AD8 0040     lsl     r0,r0,1h                                
08021ADA F7E0FE17 bl      800270Ch                                
08021ADE BC01     pop     r0                                      
08021AE0 4700     bx      r0                                      
08021AE2 0000     lsl     r0,r0,0h                                
08021AE4 06BC     lsl     r4,r7,1Ah                               
08021AE6 0300     lsl     r0,r0,0Ch                               
08021AE8 9260     str     r2,[sp,180h]                            
08021AEA 082F     lsr     r7,r5,20h                               
08021AEC B5F0     push    r4-r7,r14                               
08021AEE 4C0A     ldr     r4,=30006BCh                            
08021AF0 1C26     mov     r6,r4                                   
08021AF2 362E     add     r6,2Eh                                  
08021AF4 7830     ldrb    r0,[r6]                                 
08021AF6 2800     cmp     r0,0h                                   
08021AF8 D066     beq     8021BC8h                                
08021AFA 8860     ldrh    r0,[r4,2h]                              
08021AFC 3864     sub     r0,64h                                  
08021AFE 88A1     ldrh    r1,[r4,4h]                              
08021B00 F7EFFC46 bl      8011390h                                
08021B04 4805     ldr     r0,=30007A5h                            
08021B06 7800     ldrb    r0,[r0]                                 
08021B08 2800     cmp     r0,0h                                   
08021B0A D009     beq     8021B20h                                
08021B0C 1C21     mov     r1,r4                                   
08021B0E 3124     add     r1,24h                                  
08021B10 202B     mov     r0,2Bh                                  
08021B12 7008     strb    r0,[r1]                                 
08021B14 E08B     b       8021C2Eh                                
08021B16 0000     lsl     r0,r0,0h                                
08021B18 06BC     lsl     r4,r7,1Ah                               
08021B1A 0300     lsl     r0,r0,0Ch                               
08021B1C 07A5     lsl     r5,r4,1Eh                               
08021B1E 0300     lsl     r0,r0,0Ch                               
08021B20 8860     ldrh    r0,[r4,2h]                              
08021B22 3006     add     r0,6h                                   
08021B24 8060     strh    r0,[r4,2h]                              
08021B26 8865     ldrh    r5,[r4,2h]                              
08021B28 88A4     ldrh    r4,[r4,4h]                              
08021B2A 7830     ldrb    r0,[r6]                                 
08021B2C 2801     cmp     r0,1h                                   
08021B2E D10B     bne     8021B48h                                
08021B30 1C2A     mov     r2,r5                                   
08021B32 3A0A     sub     r2,0Ah                                  
08021B34 2000     mov     r0,0h                                   
08021B36 2111     mov     r1,11h                                  
08021B38 1C23     mov     r3,r4                                   
08021B3A F7F2FB89 bl      8014250h                                
08021B3E 1C2A     mov     r2,r5                                   
08021B40 3A10     sub     r2,10h                                  
08021B42 1C23     mov     r3,r4                                   
08021B44 330C     add     r3,0Ch                                  
08021B46 E01F     b       8021B88h                                
08021B48 2802     cmp     r0,2h                                   
08021B4A D10F     bne     8021B6Ch                                
08021B4C 1C2A     mov     r2,r5                                   
08021B4E 3A28     sub     r2,28h                                  
08021B50 1C23     mov     r3,r4                                   
08021B52 3B10     sub     r3,10h                                  
08021B54 2000     mov     r0,0h                                   
08021B56 2113     mov     r1,13h                                  
08021B58 F7F2FB7A bl      8014250h                                
08021B5C 1C2A     mov     r2,r5                                   
08021B5E 3A1E     sub     r2,1Eh                                  
08021B60 2000     mov     r0,0h                                   
08021B62 2104     mov     r1,4h                                   
08021B64 1C23     mov     r3,r4                                   
08021B66 F7F2FB73 bl      8014250h                                
08021B6A E024     b       8021BB6h                                
08021B6C 2804     cmp     r0,4h                                   
08021B6E D110     bne     8021B92h                                
08021B70 1C2A     mov     r2,r5                                   
08021B72 3A3C     sub     r2,3Ch                                  
08021B74 1C23     mov     r3,r4                                   
08021B76 3B14     sub     r3,14h                                  
08021B78 2000     mov     r0,0h                                   
08021B7A 2111     mov     r1,11h                                  
08021B7C F7F2FB68 bl      8014250h                                
08021B80 1C2A     mov     r2,r5                                   
08021B82 3A46     sub     r2,46h                                  
08021B84 1C23     mov     r3,r4                                   
08021B86 331E     add     r3,1Eh                                  
08021B88 2000     mov     r0,0h                                   
08021B8A 2112     mov     r1,12h                                  
08021B8C F7F2FB60 bl      8014250h                                
08021B90 E011     b       8021BB6h                                
08021B92 2806     cmp     r0,6h                                   
08021B94 D10F     bne     8021BB6h                                
08021B96 1C2A     mov     r2,r5                                   
08021B98 3A5C     sub     r2,5Ch                                  
08021B9A 1C23     mov     r3,r4                                   
08021B9C 3314     add     r3,14h                                  
08021B9E 2000     mov     r0,0h                                   
08021BA0 2113     mov     r1,13h                                  
08021BA2 F7F2FB55 bl      8014250h                                
08021BA6 1C2A     mov     r2,r5                                   
08021BA8 3A64     sub     r2,64h                                  
08021BAA 1C23     mov     r3,r4                                   
08021BAC 3B1E     sub     r3,1Eh                                  
08021BAE 2000     mov     r0,0h                                   
08021BB0 2104     mov     r1,4h                                   
08021BB2 F7F2FB4D bl      8014250h                                
08021BB6 4903     ldr     r1,=30006BCh                            
08021BB8 312E     add     r1,2Eh                                  
08021BBA 7808     ldrb    r0,[r1]                                 
08021BBC 3001     add     r0,1h                                   
08021BBE 7008     strb    r0,[r1]                                 
08021BC0 E035     b       8021C2Eh                                
08021BC2 0000     lsl     r0,r0,0h                                
08021BC4 06BC     lsl     r4,r7,1Ah                               
08021BC6 0300     lsl     r0,r0,0Ch                               
08021BC8 8860     ldrh    r0,[r4,2h]                              
08021BCA 88A1     ldrh    r1,[r4,4h]                              
08021BCC F7EFFAD2 bl      8011174h                                
08021BD0 1C01     mov     r1,r0                                   
08021BD2 4806     ldr     r0,=30007A4h                            
08021BD4 7800     ldrb    r0,[r0]                                 
08021BD6 2800     cmp     r0,0h                                   
08021BD8 D00C     beq     8021BF4h                                
08021BDA 8061     strh    r1,[r4,2h]                              
08021BDC 2001     mov     r0,1h                                   
08021BDE 7030     strb    r0,[r6]                                 
08021BE0 88A0     ldrh    r0,[r4,4h]                              
08021BE2 8120     strh    r0,[r4,8h]                              
08021BE4 4802     ldr     r0,=1DBh                                
08021BE6 F7E0FD91 bl      800270Ch                                
08021BEA E020     b       8021C2Eh                                
08021BEC 07A4     lsl     r4,r4,1Eh                               
08021BEE 0300     lsl     r0,r0,0Ch                               
08021BF0 01DB     lsl     r3,r3,7h                                
08021BF2 0000     lsl     r0,r0,0h                                
08021BF4 1C26     mov     r6,r4                                   
08021BF6 3631     add     r6,31h                                  
08021BF8 7832     ldrb    r2,[r6]                                 
08021BFA 4D08     ldr     r5,=82F887Ch                            
08021BFC 0050     lsl     r0,r2,1h                                
08021BFE 1940     add     r0,r0,r5                                
08021C00 8803     ldrh    r3,[r0]                                 
08021C02 2700     mov     r7,0h                                   
08021C04 5FC1     ldsh    r1,[r0,r7]                              
08021C06 4806     ldr     r0,=7FFFh                               
08021C08 4281     cmp     r1,r0                                   
08021C0A D10B     bne     8021C24h                                
08021C0C 1E51     sub     r1,r2,1                                 
08021C0E 0049     lsl     r1,r1,1h                                
08021C10 1949     add     r1,r1,r5                                
08021C12 8860     ldrh    r0,[r4,2h]                              
08021C14 8809     ldrh    r1,[r1]                                 
08021C16 1840     add     r0,r0,r1                                
08021C18 E008     b       8021C2Ch                                
08021C1A 0000     lsl     r0,r0,0h                                
08021C1C 887C     ldrh    r4,[r7,2h]                              
08021C1E 082F     lsr     r7,r5,20h                               
08021C20 7FFF     ldrb    r7,[r7,1Fh]                             
08021C22 0000     lsl     r0,r0,0h                                
08021C24 1C50     add     r0,r2,1                                 
08021C26 7030     strb    r0,[r6]                                 
08021C28 8860     ldrh    r0,[r4,2h]                              
08021C2A 18C0     add     r0,r0,r3                                
08021C2C 8060     strh    r0,[r4,2h]                              
08021C2E BCF0     pop     r4-r7                                   
08021C30 BC01     pop     r0                                      
08021C32 4700     bx      r0                                      
08021C34 4806     ldr     r0,=30006BCh                            
08021C36 4907     ldr     r1,=82F92C8h                            
08021C38 6181     str     r1,[r0,18h]                             
08021C3A 2100     mov     r1,0h                                   
08021C3C 7701     strb    r1,[r0,1Ch]                             
08021C3E 82C1     strh    r1,[r0,16h]                             
08021C40 1C02     mov     r2,r0                                   
08021C42 322E     add     r2,2Eh                                  
08021C44 213C     mov     r1,3Ch                                  
08021C46 7011     strb    r1,[r2]                                 
08021C48 3024     add     r0,24h                                  
08021C4A 212C     mov     r1,2Ch                                  
08021C4C 7001     strb    r1,[r0]                                 
08021C4E 4770     bx      r14                                     
08021C50 06BC     lsl     r4,r7,1Ah                               
08021C52 0300     lsl     r0,r0,0Ch                               
08021C54 92C8     str     r2,[sp,320h]                            
08021C56 082F     lsr     r7,r5,20h                               
08021C58 B510     push    r4,r14                                  
08021C5A 4C04     ldr     r4,=30006BCh                            
08021C5C 1C21     mov     r1,r4                                   
08021C5E 312E     add     r1,2Eh                                  
08021C60 7808     ldrb    r0,[r1]                                 
08021C62 2800     cmp     r0,0h                                   
08021C64 D004     beq     8021C70h                                
08021C66 3801     sub     r0,1h                                   
08021C68 E011     b       8021C8Eh                                
08021C6A 0000     lsl     r0,r0,0h                                
08021C6C 06BC     lsl     r4,r7,1Ah                               
08021C6E 0300     lsl     r0,r0,0Ch                               
08021C70 8923     ldrh    r3,[r4,8h]                              
08021C72 1C19     mov     r1,r3                                   
08021C74 39C0     sub     r1,0C0h                                 
08021C76 4808     ldr     r0,=3001244h                            
08021C78 8AC2     ldrh    r2,[r0,16h]                             
08021C7A 4291     cmp     r1,r2                                   
08021C7C DA08     bge     8021C90h                                
08021C7E 1C18     mov     r0,r3                                   
08021C80 30C0     add     r0,0C0h                                 
08021C82 4282     cmp     r2,r0                                   
08021C84 DA04     bge     8021C90h                                
08021C86 80A2     strh    r2,[r4,4h]                              
08021C88 1C21     mov     r1,r4                                   
08021C8A 3124     add     r1,24h                                  
08021C8C 202D     mov     r0,2Dh                                  
08021C8E 7008     strb    r0,[r1]                                 
08021C90 BC10     pop     r4                                      
08021C92 BC01     pop     r0                                      
08021C94 4700     bx      r0                                      
08021C96 0000     lsl     r0,r0,0h                                
08021C98 1244     asr     r4,r0,9h                                
08021C9A 0300     lsl     r0,r0,0Ch                               
08021C9C 4A09     ldr     r2,=30006BCh                            
08021C9E 480A     ldr     r0,=82F92C8h                            
08021CA0 6190     str     r0,[r2,18h]                             
08021CA2 2000     mov     r0,0h                                   
08021CA4 7710     strb    r0,[r2,1Ch]                             
08021CA6 2100     mov     r1,0h                                   
08021CA8 82D0     strh    r0,[r2,16h]                             
08021CAA 1C13     mov     r3,r2                                   
08021CAC 332E     add     r3,2Eh                                  
08021CAE 201F     mov     r0,1Fh                                  
08021CB0 7018     strb    r0,[r3]                                 
08021CB2 1C10     mov     r0,r2                                   
08021CB4 302F     add     r0,2Fh                                  
08021CB6 7001     strb    r1,[r0]                                 
08021CB8 1C11     mov     r1,r2                                   
08021CBA 3124     add     r1,24h                                  
08021CBC 202E     mov     r0,2Eh                                  
08021CBE 7008     strb    r0,[r1]                                 
08021CC0 4770     bx      r14                                     
08021CC2 0000     lsl     r0,r0,0h                                
08021CC4 06BC     lsl     r4,r7,1Ah                               
08021CC6 0300     lsl     r0,r0,0Ch                               
08021CC8 92C8     str     r2,[sp,320h]                            
08021CCA 082F     lsr     r7,r5,20h                               
08021CCC B5F0     push    r4-r7,r14                               
08021CCE 4C0A     ldr     r4,=30006BCh                            
08021CD0 1C25     mov     r5,r4                                   
08021CD2 352F     add     r5,2Fh                                  
08021CD4 7828     ldrb    r0,[r5]                                 
08021CD6 2800     cmp     r0,0h                                   
08021CD8 D118     bne     8021D0Ch                                
08021CDA 8860     ldrh    r0,[r4,2h]                              
08021CDC 3870     sub     r0,70h                                  
08021CDE 88A1     ldrh    r1,[r4,4h]                              
08021CE0 F7EFFB56 bl      8011390h                                
08021CE4 4805     ldr     r0,=30007A5h                            
08021CE6 7801     ldrb    r1,[r0]                                 
08021CE8 20F0     mov     r0,0F0h                                 
08021CEA 4008     and     r0,r1                                   
08021CEC 2800     cmp     r0,0h                                   
08021CEE D007     beq     8021D00h                                
08021CF0 8860     ldrh    r0,[r4,2h]                              
08021CF2 3804     sub     r0,4h                                   
08021CF4 8060     strh    r0,[r4,2h]                              
08021CF6 E0B9     b       8021E6Ch                                
08021CF8 06BC     lsl     r4,r7,1Ah                               
08021CFA 0300     lsl     r0,r0,0Ch                               
08021CFC 07A5     lsl     r5,r4,1Eh                               
08021CFE 0300     lsl     r0,r0,0Ch                               
08021D00 7828     ldrb    r0,[r5]                                 
08021D02 3001     add     r0,1h                                   
08021D04 7028     strb    r0,[r5]                                 
08021D06 4811     ldr     r0,=1DBh                                
08021D08 F7E0FD00 bl      800270Ch                                
08021D0C 4910     ldr     r1,=30006BCh                            
08021D0E 884A     ldrh    r2,[r1,2h]                              
08021D10 1C10     mov     r0,r2                                   
08021D12 3820     sub     r0,20h                                  
08021D14 0400     lsl     r0,r0,10h                               
08021D16 0C04     lsr     r4,r0,10h                               
08021D18 1C27     mov     r7,r4                                   
08021D1A 888D     ldrh    r5,[r1,4h]                              
08021D1C 1C2E     mov     r6,r5                                   
08021D1E 1C0B     mov     r3,r1                                   
08021D20 332E     add     r3,2Eh                                  
08021D22 7818     ldrb    r0,[r3]                                 
08021D24 2800     cmp     r0,0h                                   
08021D26 D046     beq     8021DB6h                                
08021D28 3801     sub     r0,1h                                   
08021D2A 7018     strb    r0,[r3]                                 
08021D2C 0600     lsl     r0,r0,18h                               
08021D2E 0E00     lsr     r0,r0,18h                               
08021D30 281E     cmp     r0,1Eh                                  
08021D32 D10F     bne     8021D54h                                
08021D34 3C60     sub     r4,60h                                  
08021D36 2000     mov     r0,0h                                   
08021D38 2111     mov     r1,11h                                  
08021D3A 1C22     mov     r2,r4                                   
08021D3C 1C2B     mov     r3,r5                                   
08021D3E F7F2FA87 bl      8014250h                                
08021D42 1C2B     mov     r3,r5                                   
08021D44 3310     add     r3,10h                                  
08021D46 2000     mov     r0,0h                                   
08021D48 2112     mov     r1,12h                                  
08021D4A E030     b       8021DAEh                                
08021D4C 01DB     lsl     r3,r3,7h                                
08021D4E 0000     lsl     r0,r0,0h                                
08021D50 06BC     lsl     r4,r7,1Ah                               
08021D52 0300     lsl     r0,r0,0Ch                               
08021D54 2814     cmp     r0,14h                                  
08021D56 D10E     bne     8021D76h                                
08021D58 3C40     sub     r4,40h                                  
08021D5A 1C2B     mov     r3,r5                                   
08021D5C 3B10     sub     r3,10h                                  
08021D5E 2000     mov     r0,0h                                   
08021D60 2113     mov     r1,13h                                  
08021D62 1C22     mov     r2,r4                                   
08021D64 F7F2FA74 bl      8014250h                                
08021D68 2000     mov     r0,0h                                   
08021D6A 2104     mov     r1,4h                                   
08021D6C 1C22     mov     r2,r4                                   
08021D6E 1C2B     mov     r3,r5                                   
08021D70 F7F2FA6E bl      8014250h                                
08021D74 E07A     b       8021E6Ch                                
08021D76 280E     cmp     r0,0Eh                                  
08021D78 D10C     bne     8021D94h                                
08021D7A 3C20     sub     r4,20h                                  
08021D7C 1C2B     mov     r3,r5                                   
08021D7E 3308     add     r3,8h                                   
08021D80 2000     mov     r0,0h                                   
08021D82 2111     mov     r1,11h                                  
08021D84 1C22     mov     r2,r4                                   
08021D86 F7F2FA63 bl      8014250h                                
08021D8A 1C2B     mov     r3,r5                                   
08021D8C 3B10     sub     r3,10h                                  
08021D8E 2000     mov     r0,0h                                   
08021D90 2112     mov     r1,12h                                  
08021D92 E00C     b       8021DAEh                                
08021D94 2806     cmp     r0,6h                                   
08021D96 D169     bne     8021E6Ch                                
08021D98 1C2B     mov     r3,r5                                   
08021D9A 3B08     sub     r3,8h                                   
08021D9C 2000     mov     r0,0h                                   
08021D9E 2113     mov     r1,13h                                  
08021DA0 1C22     mov     r2,r4                                   
08021DA2 F7F2FA55 bl      8014250h                                
08021DA6 1C2B     mov     r3,r5                                   
08021DA8 3310     add     r3,10h                                  
08021DAA 2000     mov     r0,0h                                   
08021DAC 2104     mov     r1,4h                                   
08021DAE 1C22     mov     r2,r4                                   
08021DB0 F7F2FA4E bl      8014250h                                
08021DB4 E05A     b       8021E6Ch                                
08021DB6 1E50     sub     r0,r2,1                                 
08021DB8 8048     strh    r0,[r1,2h]                              
08021DBA 1C08     mov     r0,r1                                   
08021DBC 302F     add     r0,2Fh                                  
08021DBE 7800     ldrb    r0,[r0]                                 
08021DC0 2801     cmp     r0,1h                                   
08021DC2 D109     bne     8021DD8h                                
08021DC4 3C60     sub     r4,60h                                  
08021DC6 2000     mov     r0,0h                                   
08021DC8 2111     mov     r1,11h                                  
08021DCA 1C22     mov     r2,r4                                   
08021DCC 1C2B     mov     r3,r5                                   
08021DCE F7F2FA3F bl      8014250h                                
08021DD2 1C2B     mov     r3,r5                                   
08021DD4 3310     add     r3,10h                                  
08021DD6 E01C     b       8021E12h                                
08021DD8 2808     cmp     r0,8h                                   
08021DDA D10E     bne     8021DFAh                                
08021DDC 3C40     sub     r4,40h                                  
08021DDE 1C2B     mov     r3,r5                                   
08021DE0 3B10     sub     r3,10h                                  
08021DE2 2000     mov     r0,0h                                   
08021DE4 2113     mov     r1,13h                                  
08021DE6 1C22     mov     r2,r4                                   
08021DE8 F7F2FA32 bl      8014250h                                
08021DEC 2000     mov     r0,0h                                   
08021DEE 2104     mov     r1,4h                                   
08021DF0 1C22     mov     r2,r4                                   
08021DF2 1C2B     mov     r3,r5                                   
08021DF4 F7F2FA2C bl      8014250h                                
08021DF8 E026     b       8021E48h                                
08021DFA 2810     cmp     r0,10h                                  
08021DFC D10F     bne     8021E1Eh                                
08021DFE 3C20     sub     r4,20h                                  
08021E00 1C2B     mov     r3,r5                                   
08021E02 3308     add     r3,8h                                   
08021E04 2000     mov     r0,0h                                   
08021E06 2111     mov     r1,11h                                  
08021E08 1C22     mov     r2,r4                                   
08021E0A F7F2FA21 bl      8014250h                                
08021E0E 1C2B     mov     r3,r5                                   
08021E10 3B10     sub     r3,10h                                  
08021E12 2000     mov     r0,0h                                   
08021E14 2112     mov     r1,12h                                  
08021E16 1C22     mov     r2,r4                                   
08021E18 F7F2FA1A bl      8014250h                                
08021E1C E014     b       8021E48h                                
08021E1E 2818     cmp     r0,18h                                  
08021E20 D10E     bne     8021E40h                                
08021E22 1C33     mov     r3,r6                                   
08021E24 3B08     sub     r3,8h                                   
08021E26 2000     mov     r0,0h                                   
08021E28 2113     mov     r1,13h                                  
08021E2A 1C3A     mov     r2,r7                                   
08021E2C F7F2FA10 bl      8014250h                                
08021E30 1C33     mov     r3,r6                                   
08021E32 3310     add     r3,10h                                  
08021E34 2000     mov     r0,0h                                   
08021E36 2104     mov     r1,4h                                   
08021E38 1C3A     mov     r2,r7                                   
08021E3A F7F2FA09 bl      8014250h                                
08021E3E E003     b       8021E48h                                
08021E40 281E     cmp     r0,1Eh                                  
08021E42 D901     bls     8021E48h                                
08021E44 1E90     sub     r0,r2,2                                 
08021E46 8048     strh    r0,[r1,2h]                              
08021E48 4C0A     ldr     r4,=30006BCh                            
08021E4A 1C21     mov     r1,r4                                   
08021E4C 312F     add     r1,2Fh                                  
08021E4E 7808     ldrb    r0,[r1]                                 
08021E50 3001     add     r0,1h                                   
08021E52 7008     strb    r0,[r1]                                 
08021E54 8860     ldrh    r0,[r4,2h]                              
08021E56 88A1     ldrh    r1,[r4,4h]                              
08021E58 F7EFFA9A bl      8011390h                                
08021E5C 4806     ldr     r0,=30007A5h                            
08021E5E 7800     ldrb    r0,[r0]                                 
08021E60 2800     cmp     r0,0h                                   
08021E62 D103     bne     8021E6Ch                                
08021E64 1C21     mov     r1,r4                                   
08021E66 3124     add     r1,24h                                  
08021E68 202F     mov     r0,2Fh                                  
08021E6A 7008     strb    r0,[r1]                                 
08021E6C BCF0     pop     r4-r7                                   
08021E6E BC01     pop     r0                                      
08021E70 4700     bx      r0                                      
08021E72 0000     lsl     r0,r0,0h                                
08021E74 06BC     lsl     r4,r7,1Ah                               
08021E76 0300     lsl     r0,r0,0Ch                               
08021E78 07A5     lsl     r5,r4,1Eh                               
08021E7A 0300     lsl     r0,r0,0Ch                               
08021E7C B500     push    r14                                     
08021E7E 4805     ldr     r0,=30006BCh                            
08021E80 3024     add     r0,24h                                  
08021E82 2130     mov     r1,30h                                  
08021E84 7001     strb    r1,[r0]                                 
08021E86 20ED     mov     r0,0EDh                                 
08021E88 0040     lsl     r0,r0,1h                                
08021E8A F7E0FC3F bl      800270Ch                                
08021E8E BC01     pop     r0                                      
08021E90 4700     bx      r0                                      
08021E92 0000     lsl     r0,r0,0h                                
08021E94 06BC     lsl     r4,r7,1Ah                               
08021E96 0300     lsl     r0,r0,0Ch                               
08021E98 B510     push    r4,r14                                  
08021E9A 4C09     ldr     r4,=30006BCh                            
08021E9C 8860     ldrh    r0,[r4,2h]                              
08021E9E 3880     sub     r0,80h                                  
08021EA0 88A1     ldrh    r1,[r4,4h]                              
08021EA2 F7EFFA75 bl      8011390h                                
08021EA6 4807     ldr     r0,=30007A5h                            
08021EA8 7800     ldrb    r0,[r0]                                 
08021EAA 2800     cmp     r0,0h                                   
08021EAC D10C     bne     8021EC8h                                
08021EAE 8861     ldrh    r1,[r4,2h]                              
08021EB0 88E0     ldrh    r0,[r4,6h]                              
08021EB2 4288     cmp     r0,r1                                   
08021EB4 D208     bcs     8021EC8h                                
08021EB6 1C08     mov     r0,r1                                   
08021EB8 3810     sub     r0,10h                                  
08021EBA 8060     strh    r0,[r4,2h]                              
08021EBC E00A     b       8021ED4h                                
08021EBE 0000     lsl     r0,r0,0h                                
08021EC0 06BC     lsl     r4,r7,1Ah                               
08021EC2 0300     lsl     r0,r0,0Ch                               
08021EC4 07A5     lsl     r5,r4,1Eh                               
08021EC6 0300     lsl     r0,r0,0Ch                               
08021EC8 4804     ldr     r0,=30006BCh                            
08021ECA 88C1     ldrh    r1,[r0,6h]                              
08021ECC 8041     strh    r1,[r0,2h]                              
08021ECE 3024     add     r0,24h                                  
08021ED0 2101     mov     r1,1h                                   
08021ED2 7001     strb    r1,[r0]                                 
08021ED4 BC10     pop     r4                                      
08021ED6 BC01     pop     r0                                      
08021ED8 4700     bx      r0                                      
08021EDA 0000     lsl     r0,r0,0h                                
08021EDC 06BC     lsl     r4,r7,1Ah                               
08021EDE 0300     lsl     r0,r0,0Ch                               
08021EE0 B500     push    r14                                     
08021EE2 4904     ldr     r1,=30006BCh                            
08021EE4 1C08     mov     r0,r1                                   
08021EE6 3032     add     r0,32h                                  
08021EE8 7800     ldrb    r0,[r0]                                 
08021EEA 2800     cmp     r0,0h                                   
08021EEC D004     beq     8021EF8h                                
08021EEE F7EFFFA9 bl      8011E44h                                
08021EF2 E0F7     b       80220E4h                                
08021EF4 06BC     lsl     r4,r7,1Ah                               
08021EF6 0300     lsl     r0,r0,0Ch                               
08021EF8 1C08     mov     r0,r1                                   
08021EFA 3024     add     r0,24h                                  
08021EFC 7800     ldrb    r0,[r0]                                 
08021EFE 285B     cmp     r0,5Bh                                  
08021F00 D900     bls     8021F04h                                
08021F02 E0EF     b       80220E4h                                
08021F04 0080     lsl     r0,r0,2h                                
08021F06 4902     ldr     r1,=8021F14h                            
08021F08 1840     add     r0,r0,r1                                
08021F0A 6800     ldr     r0,[r0]                                 
08021F0C 4687     mov     r15,r0                                  
08021F0E 0000     lsl     r0,r0,0h                                
08021F10 1F14     sub     r4,r2,4                                 
08021F12 0802     lsr     r2,r0,20h                               
08021F14 2084     mov     r0,84h                                  
08021F16 0802     lsr     r2,r0,20h                               
08021F18 2088     mov     r0,88h                                  
08021F1A 0802     lsr     r2,r0,20h                               
08021F1C 208C     mov     r0,8Ch                                  
08021F1E 0802     lsr     r2,r0,20h                               
08021F20 20E4     mov     r0,0E4h                                 
08021F22 0802     lsr     r2,r0,20h                               
08021F24 20E4     mov     r0,0E4h                                 
08021F26 0802     lsr     r2,r0,20h                               
08021F28 20E4     mov     r0,0E4h                                 
08021F2A 0802     lsr     r2,r0,20h                               
08021F2C 20E4     mov     r0,0E4h                                 
08021F2E 0802     lsr     r2,r0,20h                               
08021F30 20E4     mov     r0,0E4h                                 
08021F32 0802     lsr     r2,r0,20h                               
08021F34 20E4     mov     r0,0E4h                                 
08021F36 0802     lsr     r2,r0,20h                               
08021F38 20E4     mov     r0,0E4h                                 
08021F3A 0802     lsr     r2,r0,20h                               
08021F3C 20E4     mov     r0,0E4h                                 
08021F3E 0802     lsr     r2,r0,20h                               
08021F40 20E4     mov     r0,0E4h                                 
08021F42 0802     lsr     r2,r0,20h                               
08021F44 20E4     mov     r0,0E4h                                 
08021F46 0802     lsr     r2,r0,20h                               
08021F48 20E4     mov     r0,0E4h                                 
08021F4A 0802     lsr     r2,r0,20h                               
08021F4C 20E4     mov     r0,0E4h                                 
08021F4E 0802     lsr     r2,r0,20h                               
08021F50 20E4     mov     r0,0E4h                                 
08021F52 0802     lsr     r2,r0,20h                               
08021F54 20E4     mov     r0,0E4h                                 
08021F56 0802     lsr     r2,r0,20h                               
08021F58 20E4     mov     r0,0E4h                                 
08021F5A 0802     lsr     r2,r0,20h                               
08021F5C 20E4     mov     r0,0E4h                                 
08021F5E 0802     lsr     r2,r0,20h                               
08021F60 20E4     mov     r0,0E4h                                 
08021F62 0802     lsr     r2,r0,20h                               
08021F64 20E4     mov     r0,0E4h                                 
08021F66 0802     lsr     r2,r0,20h                               
08021F68 20E4     mov     r0,0E4h                                 
08021F6A 0802     lsr     r2,r0,20h                               
08021F6C 20E4     mov     r0,0E4h                                 
08021F6E 0802     lsr     r2,r0,20h                               
08021F70 2092     mov     r0,92h                                  
08021F72 0802     lsr     r2,r0,20h                               
08021F74 2096     mov     r0,96h                                  
08021F76 0802     lsr     r2,r0,20h                               
08021F78 20E4     mov     r0,0E4h                                 
08021F7A 0802     lsr     r2,r0,20h                               
08021F7C 20E4     mov     r0,0E4h                                 
08021F7E 0802     lsr     r2,r0,20h                               
08021F80 20E4     mov     r0,0E4h                                 
08021F82 0802     lsr     r2,r0,20h                               
08021F84 20E4     mov     r0,0E4h                                 
08021F86 0802     lsr     r2,r0,20h                               
08021F88 20E4     mov     r0,0E4h                                 
08021F8A 0802     lsr     r2,r0,20h                               
08021F8C 20E4     mov     r0,0E4h                                 
08021F8E 0802     lsr     r2,r0,20h                               
08021F90 20E4     mov     r0,0E4h                                 
08021F92 0802     lsr     r2,r0,20h                               
08021F94 20E4     mov     r0,0E4h                                 
08021F96 0802     lsr     r2,r0,20h                               
08021F98 20E4     mov     r0,0E4h                                 
08021F9A 0802     lsr     r2,r0,20h                               
08021F9C 20E4     mov     r0,0E4h                                 
08021F9E 0802     lsr     r2,r0,20h                               
08021FA0 20E4     mov     r0,0E4h                                 
08021FA2 0802     lsr     r2,r0,20h                               
08021FA4 20E4     mov     r0,0E4h                                 
08021FA6 0802     lsr     r2,r0,20h                               
08021FA8 20E4     mov     r0,0E4h                                 
08021FAA 0802     lsr     r2,r0,20h                               
08021FAC 20E4     mov     r0,0E4h                                 
08021FAE 0802     lsr     r2,r0,20h                               
08021FB0 20E4     mov     r0,0E4h                                 
08021FB2 0802     lsr     r2,r0,20h                               
08021FB4 20E4     mov     r0,0E4h                                 
08021FB6 0802     lsr     r2,r0,20h                               
08021FB8 209C     mov     r0,9Ch                                  
08021FBA 0802     lsr     r2,r0,20h                               
08021FBC 20A0     mov     r0,0A0h                                 
08021FBE 0802     lsr     r2,r0,20h                               
08021FC0 20A6     mov     r0,0A6h                                 
08021FC2 0802     lsr     r2,r0,20h                               
08021FC4 20AA     mov     r0,0AAh                                 
08021FC6 0802     lsr     r2,r0,20h                               
08021FC8 20B0     mov     r0,0B0h                                 
08021FCA 0802     lsr     r2,r0,20h                               
08021FCC 20B4     mov     r0,0B4h                                 
08021FCE 0802     lsr     r2,r0,20h                               
08021FD0 20BA     mov     r0,0BAh                                 
08021FD2 0802     lsr     r2,r0,20h                               
08021FD4 20BE     mov     r0,0BEh                                 
08021FD6 0802     lsr     r2,r0,20h                               
08021FD8 20E4     mov     r0,0E4h                                 
08021FDA 0802     lsr     r2,r0,20h                               
08021FDC 20E4     mov     r0,0E4h                                 
08021FDE 0802     lsr     r2,r0,20h                               
08021FE0 20E4     mov     r0,0E4h                                 
08021FE2 0802     lsr     r2,r0,20h                               
08021FE4 20E4     mov     r0,0E4h                                 
08021FE6 0802     lsr     r2,r0,20h                               
08021FE8 20E4     mov     r0,0E4h                                 
08021FEA 0802     lsr     r2,r0,20h                               
08021FEC 20E4     mov     r0,0E4h                                 
08021FEE 0802     lsr     r2,r0,20h                               
08021FF0 20E4     mov     r0,0E4h                                 
08021FF2 0802     lsr     r2,r0,20h                               
08021FF4 20E4     mov     r0,0E4h                                 
08021FF6 0802     lsr     r2,r0,20h                               
08021FF8 20E4     mov     r0,0E4h                                 
08021FFA 0802     lsr     r2,r0,20h                               
08021FFC 20E4     mov     r0,0E4h                                 
08021FFE 0802     lsr     r2,r0,20h                               
08022000 20E4     mov     r0,0E4h                                 
08022002 0802     lsr     r2,r0,20h                               
08022004 20E4     mov     r0,0E4h                                 
08022006 0802     lsr     r2,r0,20h                               
08022008 20E4     mov     r0,0E4h                                 
0802200A 0802     lsr     r2,r0,20h                               
0802200C 20E4     mov     r0,0E4h                                 
0802200E 0802     lsr     r2,r0,20h                               
08022010 20E4     mov     r0,0E4h                                 
08022012 0802     lsr     r2,r0,20h                               
08022014 20E4     mov     r0,0E4h                                 
08022016 0802     lsr     r2,r0,20h                               
08022018 20E4     mov     r0,0E4h                                 
0802201A 0802     lsr     r2,r0,20h                               
0802201C 20E4     mov     r0,0E4h                                 
0802201E 0802     lsr     r2,r0,20h                               
08022020 20E4     mov     r0,0E4h                                 
08022022 0802     lsr     r2,r0,20h                               
08022024 20E4     mov     r0,0E4h                                 
08022026 0802     lsr     r2,r0,20h                               
08022028 20E4     mov     r0,0E4h                                 
0802202A 0802     lsr     r2,r0,20h                               
0802202C 20E4     mov     r0,0E4h                                 
0802202E 0802     lsr     r2,r0,20h                               
08022030 20E4     mov     r0,0E4h                                 
08022032 0802     lsr     r2,r0,20h                               
08022034 20E4     mov     r0,0E4h                                 
08022036 0802     lsr     r2,r0,20h                               
08022038 20E4     mov     r0,0E4h                                 
0802203A 0802     lsr     r2,r0,20h                               
0802203C 20E4     mov     r0,0E4h                                 
0802203E 0802     lsr     r2,r0,20h                               
08022040 20E4     mov     r0,0E4h                                 
08022042 0802     lsr     r2,r0,20h                               
08022044 20E4     mov     r0,0E4h                                 
08022046 0802     lsr     r2,r0,20h                               
08022048 20E4     mov     r0,0E4h                                 
0802204A 0802     lsr     r2,r0,20h                               
0802204C 20E4     mov     r0,0E4h                                 
0802204E 0802     lsr     r2,r0,20h                               
08022050 20E4     mov     r0,0E4h                                 
08022052 0802     lsr     r2,r0,20h                               
08022054 20E4     mov     r0,0E4h                                 
08022056 0802     lsr     r2,r0,20h                               
08022058 20E4     mov     r0,0E4h                                 
0802205A 0802     lsr     r2,r0,20h                               
0802205C 20E4     mov     r0,0E4h                                 
0802205E 0802     lsr     r2,r0,20h                               
08022060 20E4     mov     r0,0E4h                                 
08022062 0802     lsr     r2,r0,20h                               
08022064 20E4     mov     r0,0E4h                                 
08022066 0802     lsr     r2,r0,20h                               
08022068 20E4     mov     r0,0E4h                                 
0802206A 0802     lsr     r2,r0,20h                               
0802206C 20E4     mov     r0,0E4h                                 
0802206E 0802     lsr     r2,r0,20h                               
08022070 20C4     mov     r0,0C4h                                 
08022072 0802     lsr     r2,r0,20h                               
08022074 20C8     mov     r0,0C8h                                 
08022076 0802     lsr     r2,r0,20h                               
08022078 20CE     mov     r0,0CEh                                 
0802207A 0802     lsr     r2,r0,20h                               
0802207C 20D2     mov     r0,0D2h                                 
0802207E 0802     lsr     r2,r0,20h                               
08022080 20D8     mov     r0,0D8h                                 
08022082 0802     lsr     r2,r0,20h                               
08022084 F7FFFC7C bl      8021980h                                
08022088 F7FFFCCE bl      8021A28h                                
0802208C F7FFFCDA bl      8021A44h                                
08022090 E028     b       80220E4h                                
08022092 F7FFFCF9 bl      8021A88h                                
08022096 F7FFFCFF bl      8021A98h                                
0802209A E023     b       80220E4h                                
0802209C F7FFFD0A bl      8021AB4h                                
080220A0 F7FFFD24 bl      8021AECh                                
080220A4 E01E     b       80220E4h                                
080220A6 F7FFFDC5 bl      8021C34h                                
080220AA F7FFFDD5 bl      8021C58h                                
080220AE E019     b       80220E4h                                
080220B0 F7FFFDF4 bl      8021C9Ch                                
080220B4 F7FFFE0A bl      8021CCCh                                
080220B8 E014     b       80220E4h                                
080220BA F7FFFEDF bl      8021E7Ch                                
080220BE F7FFFEEB bl      8021E98h                                
080220C2 E00F     b       80220E4h                                
080220C4 F03FFAFC bl      80616C0h                                
080220C8 F03FFB10 bl      80616ECh                                
080220CC E00A     b       80220E4h                                
080220CE F7FFFC57 bl      8021980h                                
080220D2 F040F8FF bl      80622D4h                                
080220D6 E005     b       80220E4h                                
080220D8 F03FFC2E bl      8061938h                                
080220DC 4902     ldr     r1,=30006BCh                            
080220DE 8848     ldrh    r0,[r1,2h]                              
080220E0 3820     sub     r0,20h                                  
080220E2 8048     strh    r0,[r1,2h]                              
080220E4 BC01     pop     r0                                      
080220E6 4700     bx      r0                                      
080220E8 06BC     lsl     r4,r7,1Ah                               
080220EA 0300     lsl     r0,r0,0Ch                               
080220EC B510     push    r4,r14                                  
080220EE 205A     mov     r0,5Ah                                  
080220F0 2182     mov     r1,82h                                  
080220F2 F7EFFD17 bl      8011B24h                                
080220F6 1C03     mov     r3,r0                                   
080220F8 2B00     cmp     r3,0h                                   
080220FA D01C     beq     8022136h                                
080220FC 4A04     ldr     r2,=30006BCh                            
080220FE 8811     ldrh    r1,[r2]                                 
08022100 2040     mov     r0,40h                                  
08022102 4008     and     r0,r1                                   
08022104 1C14     mov     r4,r2                                   
08022106 2800     cmp     r0,0h                                   
08022108 D004     beq     8022114h                                
0802210A 2B04     cmp     r3,4h                                   
0802210C D013     beq     8022136h                                
0802210E E003     b       8022118h                                
08022110 06BC     lsl     r4,r7,1Ah                               
08022112 0300     lsl     r0,r0,0Ch                               
08022114 2B08     cmp     r3,8h                                   
08022116 D00E     beq     8022136h                                
08022118 1C21     mov     r1,r4                                   
0802211A 3124     add     r1,24h                                  
0802211C 2200     mov     r2,0h                                   
0802211E 202A     mov     r0,2Ah                                  
08022120 7008     strb    r0,[r1]                                 
08022122 4806     ldr     r0,=82FB4C0h                            
08022124 61A0     str     r0,[r4,18h]                             
08022126 7722     strb    r2,[r4,1Ch]                             
08022128 82E2     strh    r2,[r4,16h]                             
0802212A 4805     ldr     r0,=0FFC0h                              
0802212C 8160     strh    r0,[r4,0Ah]                             
0802212E 3020     add     r0,20h                                  
08022130 81E0     strh    r0,[r4,0Eh]                             
08022132 2020     mov     r0,20h                                  
08022134 8220     strh    r0,[r4,10h]                             
08022136 BC10     pop     r4                                      
08022138 BC01     pop     r0                                      
0802213A 4700     bx      r0                                      
0802213C B4C0     push    r6,r7                                   
0802213E 082F     lsr     r7,r5,20h                               
08022140 FFC0     bl      lr+0F80h                                
08022142 0000     lsl     r0,r0,0h                                
08022144 4A0A     ldr     r2,=30006BCh                            
08022146 1C11     mov     r1,r2                                   
08022148 3125     add     r1,25h                                  
0802214A 2000     mov     r0,0h                                   
0802214C 7008     strb    r0,[r1]                                 
0802214E 1C10     mov     r0,r2                                   
08022150 3024     add     r0,24h                                  
08022152 2118     mov     r1,18h                                  
08022154 7001     strb    r1,[r0]                                 
08022156 4807     ldr     r0,=0FFE0h                              
08022158 8150     strh    r0,[r2,0Ah]                             
0802215A 8191     strh    r1,[r2,0Ch]                             
0802215C 81D0     strh    r0,[r2,0Eh]                             
0802215E 2020     mov     r0,20h                                  
08022160 8210     strh    r0,[r2,10h]                             
08022162 8811     ldrh    r1,[r2]                                 
08022164 2380     mov     r3,80h                                  
08022166 021B     lsl     r3,r3,8h                                
08022168 1C18     mov     r0,r3                                   
0802216A 4308     orr     r0,r1                                   
0802216C 8010     strh    r0,[r2]                                 
0802216E 4770     bx      r14                                     
08022170 06BC     lsl     r4,r7,1Ah                               
08022172 0300     lsl     r0,r0,0Ch                               
08022174 FFE0     bl      lr+0FC0h                                
08022176 0000     lsl     r0,r0,0h                                
08022178 4904     ldr     r1,=30006BCh                            
0802217A 2200     mov     r2,0h                                   
0802217C 4804     ldr     r0,=0FF98h                              
0802217E 8148     strh    r0,[r1,0Ah]                             
08022180 818A     strh    r2,[r1,0Ch]                             
08022182 3050     add     r0,50h                                  
08022184 81C8     strh    r0,[r1,0Eh]                             
08022186 2018     mov     r0,18h                                  
08022188 8208     strh    r0,[r1,10h]                             
0802218A 4770     bx      r14                                     
0802218C 06BC     lsl     r4,r7,1Ah                               
0802218E 0300     lsl     r0,r0,0Ch                               
08022190 FF98     bl      lr+0F30h                                
08022192 0000     lsl     r0,r0,0h                                
08022194 4A09     ldr     r2,=30006BCh                            
08022196 480A     ldr     r0,=82FB420h                            
08022198 6190     str     r0,[r2,18h]                             
0802219A 2000     mov     r0,0h                                   
0802219C 7710     strb    r0,[r2,1Ch]                             
0802219E 2100     mov     r1,0h                                   
080221A0 82D0     strh    r0,[r2,16h]                             
080221A2 1C10     mov     r0,r2                                   
080221A4 3025     add     r0,25h                                  
080221A6 7001     strb    r1,[r0]                                 
080221A8 4806     ldr     r0,=0FFE0h                              
080221AA 8150     strh    r0,[r2,0Ah]                             
080221AC 1C11     mov     r1,r2                                   
080221AE 312E     add     r1,2Eh                                  
080221B0 20B4     mov     r0,0B4h                                 
080221B2 7008     strb    r0,[r1]                                 
080221B4 390A     sub     r1,0Ah                                  
080221B6 2058     mov     r0,58h                                  
080221B8 7008     strb    r0,[r1]                                 
080221BA 4770     bx      r14                                     
080221BC 06BC     lsl     r4,r7,1Ah                               
080221BE 0300     lsl     r0,r0,0Ch                               
080221C0 B420     push    r5                                      
080221C2 082F     lsr     r7,r5,20h                               
080221C4 FFE0     bl      lr+0FC0h                                
080221C6 0000     lsl     r0,r0,0h                                
080221C8 B570     push    r4-r6,r14                               
080221CA B084     add     sp,-10h                                 
080221CC 4D1D     ldr     r5,=30006BCh                            
080221CE 1C28     mov     r0,r5                                   
080221D0 3026     add     r0,26h                                  
080221D2 2601     mov     r6,1h                                   
080221D4 7006     strb    r6,[r0]                                 
080221D6 1C2C     mov     r4,r5                                   
080221D8 342E     add     r4,2Eh                                  
080221DA 7820     ldrb    r0,[r4]                                 
080221DC 288C     cmp     r0,8Ch                                  
080221DE D111     bne     8022204h                                
080221E0 7F69     ldrb    r1,[r5,1Dh]                             
080221E2 1C28     mov     r0,r5                                   
080221E4 3023     add     r0,23h                                  
080221E6 7803     ldrb    r3,[r0]                                 
080221E8 3007     add     r0,7h                                   
080221EA 7800     ldrb    r0,[r0]                                 
080221EC 9000     str     r0,[sp]                                 
080221EE 8868     ldrh    r0,[r5,2h]                              
080221F0 3820     sub     r0,20h                                  
080221F2 9001     str     r0,[sp,4h]                              
080221F4 88A8     ldrh    r0,[r5,4h]                              
080221F6 9002     str     r0,[sp,8h]                              
080221F8 2000     mov     r0,0h                                   
080221FA 9003     str     r0,[sp,0Ch]                             
080221FC 2038     mov     r0,38h                                  
080221FE 2200     mov     r2,0h                                   
08022200 F7EDFD50 bl      800FCA4h                                
08022204 7820     ldrb    r0,[r4]                                 
08022206 3801     sub     r0,1h                                   
08022208 7020     strb    r0,[r4]                                 
0802220A 0600     lsl     r0,r0,18h                               
0802220C 0E01     lsr     r1,r0,18h                               
0802220E 2900     cmp     r1,0h                                   
08022210 D113     bne     802223Ah                                
08022212 480D     ldr     r0,=82FB5D0h                            
08022214 61A8     str     r0,[r5,18h]                             
08022216 7729     strb    r1,[r5,1Ch]                             
08022218 2400     mov     r4,0h                                   
0802221A 82E9     strh    r1,[r5,16h]                             
0802221C 4A0B     ldr     r2,=82E4D4Ch                            
0802221E 7F69     ldrb    r1,[r5,1Dh]                             
08022220 00C8     lsl     r0,r1,3h                                
08022222 1A40     sub     r0,r0,r1                                
08022224 0040     lsl     r0,r0,1h                                
08022226 1880     add     r0,r0,r2                                
08022228 8800     ldrh    r0,[r0]                                 
0802222A 82A8     strh    r0,[r5,14h]                             
0802222C F7FFFF8A bl      8022144h                                
08022230 1C28     mov     r0,r5                                   
08022232 3036     add     r0,36h                                  
08022234 7006     strb    r6,[r0]                                 
08022236 3816     sub     r0,16h                                  
08022238 7004     strb    r4,[r0]                                 
0802223A B004     add     sp,10h                                  
0802223C BC70     pop     r4-r6                                   
0802223E BC01     pop     r0                                      
08022240 4700     bx      r0                                      
08022242 0000     lsl     r0,r0,0h                                
08022244 06BC     lsl     r4,r7,1Ah                               
08022246 0300     lsl     r0,r0,0Ch                               
08022248 B5D0     push    r4,r6,r7,r14                            
0802224A 082F     lsr     r7,r5,20h                               
0802224C 4D4C     ldr     r5,=30007A4h                            
0802224E 082E     lsr     r6,r5,20h                               
08022250 B530     push    r4,r5,r14                               
08022252 4C0E     ldr     r4,=30006BCh                            
08022254 1C22     mov     r2,r4                                   
08022256 3224     add     r2,24h                                  
08022258 7815     ldrb    r5,[r2]                                 
0802225A 2D00     cmp     r5,0h                                   
0802225C D12A     bne     80222B4h                                
0802225E 1C20     mov     r0,r4                                   
08022260 302A     add     r0,2Ah                                  
08022262 7800     ldrb    r0,[r0]                                 
08022264 3820     sub     r0,20h                                  
08022266 0600     lsl     r0,r0,18h                               
08022268 0E00     lsr     r0,r0,18h                               
0802226A 282F     cmp     r0,2Fh                                  
0802226C D812     bhi     8022294h                                
0802226E 4808     ldr     r0,=82FB300h                            
08022270 61A0     str     r0,[r4,18h]                             
08022272 1C21     mov     r1,r4                                   
08022274 3125     add     r1,25h                                  
08022276 2002     mov     r0,2h                                   
08022278 7008     strb    r0,[r1]                                 
0802227A 2008     mov     r0,8h                                   
0802227C 7010     strb    r0,[r2]                                 
0802227E F7FFFF7B bl      8022178h                                
08022282 1C20     mov     r0,r4                                   
08022284 302E     add     r0,2Eh                                  
08022286 7005     strb    r5,[r0]                                 
08022288 E00E     b       80222A8h                                
0802228A 0000     lsl     r0,r0,0h                                
0802228C 06BC     lsl     r4,r7,1Ah                               
0802228E 0300     lsl     r0,r0,0Ch                               
08022290 B300     ????                                            
08022292 082F     lsr     r7,r5,20h                               
08022294 4806     ldr     r0,=82FB528h                            
08022296 61A0     str     r0,[r4,18h]                             
08022298 1C22     mov     r2,r4                                   
0802229A 3234     add     r2,34h                                  
0802229C 7811     ldrb    r1,[r2]                                 
0802229E 2002     mov     r0,2h                                   
080222A0 4308     orr     r0,r1                                   
080222A2 7010     strb    r0,[r2]                                 
080222A4 F7FFFF4E bl      8022144h                                
080222A8 F7EFF8F6 bl      8011498h                                
080222AC E017     b       80222DEh                                
080222AE 0000     lsl     r0,r0,0h                                
080222B0 B528     push    r3,r5,r14                               
080222B2 082F     lsr     r7,r5,20h                               
080222B4 4817     ldr     r0,=82FB258h                            
080222B6 61A0     str     r0,[r4,18h]                             
080222B8 1C20     mov     r0,r4                                   
080222BA 3025     add     r0,25h                                  
080222BC 2100     mov     r1,0h                                   
080222BE 7001     strb    r1,[r0]                                 
080222C0 201A     mov     r0,1Ah                                  
080222C2 7010     strb    r0,[r2]                                 
080222C4 4814     ldr     r0,=0FFE0h                              
080222C6 8160     strh    r0,[r4,0Ah]                             
080222C8 81A1     strh    r1,[r4,0Ch]                             
080222CA 3008     add     r0,8h                                   
080222CC 81E0     strh    r0,[r4,0Eh]                             
080222CE 2018     mov     r0,18h                                  
080222D0 8220     strh    r0,[r4,10h]                             
080222D2 8821     ldrh    r1,[r4]                                 
080222D4 4811     ldr     r0,=0FFDFh                              
080222D6 4008     and     r0,r1                                   
080222D8 4911     ldr     r1,=7FFFh                               
080222DA 4008     and     r0,r1                                   
080222DC 8020     strh    r0,[r4]                                 
080222DE 4B11     ldr     r3,=30006BCh                            
080222E0 2000     mov     r0,0h                                   
080222E2 7718     strb    r0,[r3,1Ch]                             
080222E4 2100     mov     r1,0h                                   
080222E6 82D8     strh    r0,[r3,16h]                             
080222E8 1C1A     mov     r2,r3                                   
080222EA 3227     add     r2,27h                                  
080222EC 2020     mov     r0,20h                                  
080222EE 7010     strb    r0,[r2]                                 
080222F0 1C18     mov     r0,r3                                   
080222F2 3028     add     r0,28h                                  
080222F4 7001     strb    r1,[r0]                                 
080222F6 1C19     mov     r1,r3                                   
080222F8 3129     add     r1,29h                                  
080222FA 2010     mov     r0,10h                                  
080222FC 7008     strb    r0,[r1]                                 
080222FE 4A0A     ldr     r2,=82E4D4Ch                            
08022300 7F59     ldrb    r1,[r3,1Dh]                             
08022302 00C8     lsl     r0,r1,3h                                
08022304 1A40     sub     r0,r0,r1                                
08022306 0040     lsl     r0,r0,1h                                
08022308 1880     add     r0,r0,r2                                
0802230A 8800     ldrh    r0,[r0]                                 
0802230C 8298     strh    r0,[r3,14h]                             
0802230E BC30     pop     r4,r5                                   
08022310 BC01     pop     r0                                      
08022312 4700     bx      r0                                      
08022314 B258     ????                                            
08022316 082F     lsr     r7,r5,20h                               
08022318 FFE0     bl      lr+0FC0h                                
0802231A 0000     lsl     r0,r0,0h                                
0802231C FFDF     bl      lr+0FBEh                                
0802231E 0000     lsl     r0,r0,0h                                
08022320 7FFF     ldrb    r7,[r7,1Fh]                             
08022322 0000     lsl     r0,r0,0h                                
08022324 06BC     lsl     r4,r7,1Ah                               
08022326 0300     lsl     r0,r0,0Ch                               
08022328 4D4C     ldr     r5,=4805B500h                           
0802232A 082E     lsr     r6,r5,20h                               
0802232C B5F0     push    r4-r7,r14                               
0802232E 4C0B     ldr     r4,=30006BCh                            
08022330 69A1     ldr     r1,[r4,18h]                             
08022332 480B     ldr     r0,=82FB5D0h                            
08022334 4281     cmp     r1,r0                                   
08022336 D117     bne     8022368h                                
08022338 F7EFFAFC bl      8011934h                                
0802233C 2800     cmp     r0,0h                                   
0802233E D100     bne     8022342h                                
08022340 E085     b       802244Eh                                
08022342 4808     ldr     r0,=82FB528h                            
08022344 61A0     str     r0,[r4,18h]                             
08022346 2000     mov     r0,0h                                   
08022348 7720     strb    r0,[r4,1Ch]                             
0802234A 82E0     strh    r0,[r4,16h]                             
0802234C 1C22     mov     r2,r4                                   
0802234E 3234     add     r2,34h                                  
08022350 7811     ldrb    r1,[r2]                                 
08022352 2002     mov     r0,2h                                   
08022354 4308     orr     r0,r1                                   
08022356 7010     strb    r0,[r2]                                 
08022358 E079     b       802244Eh                                
0802235A 0000     lsl     r0,r0,0h                                
0802235C 06BC     lsl     r4,r7,1Ah                               
0802235E 0300     lsl     r0,r0,0Ch                               
08022360 B5D0     push    r4,r6,r7,r14                            
08022362 082F     lsr     r7,r5,20h                               
08022364 B528     push    r3,r5,r14                               
08022366 082F     lsr     r7,r5,20h                               
08022368 F7EEFF98 bl      801129Ch                                
0802236C 4804     ldr     r0,=30007A4h                            
0802236E 7801     ldrb    r1,[r0]                                 
08022370 2900     cmp     r1,0h                                   
08022372 D107     bne     8022384h                                
08022374 1C21     mov     r1,r4                                   
08022376 3124     add     r1,24h                                  
08022378 2015     mov     r0,15h                                  
0802237A 7008     strb    r0,[r1]                                 
0802237C E067     b       802244Eh                                
0802237E 0000     lsl     r0,r0,0h                                
08022380 07A4     lsl     r4,r4,1Eh                               
08022382 0300     lsl     r0,r0,0Ch                               
08022384 25F0     mov     r5,0F0h                                 
08022386 1C28     mov     r0,r5                                   
08022388 4008     and     r0,r1                                   
0802238A 2800     cmp     r0,0h                                   
0802238C D05F     beq     802244Eh                                
0802238E 8821     ldrh    r1,[r4]                                 
08022390 2740     mov     r7,40h                                  
08022392 2040     mov     r0,40h                                  
08022394 4008     and     r0,r1                                   
08022396 2800     cmp     r0,0h                                   
08022398 D030     beq     80223FCh                                
0802239A 8860     ldrh    r0,[r4,2h]                              
0802239C 88A1     ldrh    r1,[r4,4h]                              
0802239E 3120     add     r1,20h                                  
080223A0 F7EEFFF6 bl      8011390h                                
080223A4 4E0A     ldr     r6,=30007A5h                            
080223A6 7831     ldrb    r1,[r6]                                 
080223A8 1C28     mov     r0,r5                                   
080223AA 4008     and     r0,r1                                   
080223AC 2800     cmp     r0,0h                                   
080223AE D00A     beq     80223C6h                                
080223B0 8860     ldrh    r0,[r4,2h]                              
080223B2 3810     sub     r0,10h                                  
080223B4 88A1     ldrh    r1,[r4,4h]                              
080223B6 3120     add     r1,20h                                  
080223B8 F7EEFFEA bl      8011390h                                
080223BC 7831     ldrb    r1,[r6]                                 
080223BE 200F     mov     r0,0Fh                                  
080223C0 4008     and     r0,r1                                   
080223C2 2800     cmp     r0,0h                                   
080223C4 D008     beq     80223D8h                                
080223C6 8821     ldrh    r1,[r4]                                 
080223C8 4802     ldr     r0,=0FFBFh                              
080223CA 4008     and     r0,r1                                   
080223CC 8020     strh    r0,[r4]                                 
080223CE E03E     b       802244Eh                                
080223D0 07A5     lsl     r5,r4,1Eh                               
080223D2 0300     lsl     r0,r0,0Ch                               
080223D4 FFBF     bl      lr+0F7Eh                                
080223D6 0000     lsl     r0,r0,0h                                
080223D8 4806     ldr     r0,=30007F0h                            
080223DA 7800     ldrb    r0,[r0]                                 
080223DC 2800     cmp     r0,0h                                   
080223DE D136     bne     802244Eh                                
080223E0 4805     ldr     r0,=3000002h                            
080223E2 8801     ldrh    r1,[r0]                                 
080223E4 2001     mov     r0,1h                                   
080223E6 4008     and     r0,r1                                   
080223E8 2800     cmp     r0,0h                                   
080223EA D030     beq     802244Eh                                
080223EC 88A0     ldrh    r0,[r4,4h]                              
080223EE 3004     add     r0,4h                                   
080223F0 E02C     b       802244Ch                                
080223F2 0000     lsl     r0,r0,0h                                
080223F4 07F0     lsl     r0,r6,1Fh                               
080223F6 0300     lsl     r0,r0,0Ch                               
080223F8 0002     lsl     r2,r0,0h                                
080223FA 0300     lsl     r0,r0,0Ch                               
080223FC 8860     ldrh    r0,[r4,2h]                              
080223FE 88A1     ldrh    r1,[r4,4h]                              
08022400 3920     sub     r1,20h                                  
08022402 F7EEFFC5 bl      8011390h                                
08022406 4E0A     ldr     r6,=30007A5h                            
08022408 7831     ldrb    r1,[r6]                                 
0802240A 1C28     mov     r0,r5                                   
0802240C 4008     and     r0,r1                                   
0802240E 2800     cmp     r0,0h                                   
08022410 D00A     beq     8022428h                                
08022412 8860     ldrh    r0,[r4,2h]                              
08022414 3810     sub     r0,10h                                  
08022416 88A1     ldrh    r1,[r4,4h]                              
08022418 3920     sub     r1,20h                                  
0802241A F7EEFFB9 bl      8011390h                                
0802241E 7831     ldrb    r1,[r6]                                 
08022420 200F     mov     r0,0Fh                                  
08022422 4008     and     r0,r1                                   
08022424 2800     cmp     r0,0h                                   
08022426 D005     beq     8022434h                                
08022428 8820     ldrh    r0,[r4]                                 
0802242A 4338     orr     r0,r7                                   
0802242C 8020     strh    r0,[r4]                                 
0802242E E00E     b       802244Eh                                
08022430 07A5     lsl     r5,r4,1Eh                               
08022432 0300     lsl     r0,r0,0Ch                               
08022434 4807     ldr     r0,=30007F0h                            
08022436 7800     ldrb    r0,[r0]                                 
08022438 2800     cmp     r0,0h                                   
0802243A D108     bne     802244Eh                                
0802243C 4806     ldr     r0,=3000002h                            
0802243E 8801     ldrh    r1,[r0]                                 
08022440 2001     mov     r0,1h                                   
08022442 4008     and     r0,r1                                   
08022444 2800     cmp     r0,0h                                   
08022446 D002     beq     802244Eh                                
08022448 88A0     ldrh    r0,[r4,4h]                              
0802244A 3804     sub     r0,4h                                   
0802244C 80A0     strh    r0,[r4,4h]                              
0802244E BCF0     pop     r4-r7                                   
08022450 BC01     pop     r0                                      
08022452 4700     bx      r0                                      
08022454 07F0     lsl     r0,r6,1Fh                               
08022456 0300     lsl     r0,r0,0Ch                               
08022458 0002     lsl     r2,r0,0h                                
0802245A 0300     lsl     r0,r0,0Ch                               
0802245C B500     push    r14                                     
0802245E 4805     ldr     r0,=30006BCh                            
08022460 8AC1     ldrh    r1,[r0,16h]                             
08022462 1C02     mov     r2,r0                                   
08022464 2911     cmp     r1,11h                                  
08022466 D109     bne     802247Ch                                
08022468 7F10     ldrb    r0,[r2,1Ch]                             
0802246A 2802     cmp     r0,2h                                   
0802246C D106     bne     802247Ch                                
0802246E 4802     ldr     r0,=0FF98h                              
08022470 8150     strh    r0,[r2,0Ah]                             
08022472 E01C     b       80224AEh                                
08022474 06BC     lsl     r4,r7,1Ah                               
08022476 0300     lsl     r0,r0,0Ch                               
08022478 FF98     bl      lr+0F30h                                
0802247A 0000     lsl     r0,r0,0h                                
0802247C 8AD0     ldrh    r0,[r2,16h]                             
0802247E 280D     cmp     r0,0Dh                                  
08022480 D10A     bne     8022498h                                
08022482 7F11     ldrb    r1,[r2,1Ch]                             
08022484 2902     cmp     r1,2h                                   
08022486 D107     bne     8022498h                                
08022488 4802     ldr     r0,=0FFC0h                              
0802248A 8150     strh    r0,[r2,0Ah]                             
0802248C 1C10     mov     r0,r2                                   
0802248E 3025     add     r0,25h                                  
08022490 7001     strb    r1,[r0]                                 
08022492 E00C     b       80224AEh                                
08022494 FFC0     bl      lr+0F80h                                
08022496 0000     lsl     r0,r0,0h                                
08022498 8AD0     ldrh    r0,[r2,16h]                             
0802249A 2807     cmp     r0,7h                                   
0802249C D107     bne     80224AEh                                
0802249E 7F10     ldrb    r0,[r2,1Ch]                             
080224A0 2803     cmp     r0,3h                                   
080224A2 D104     bne     80224AEh                                
080224A4 F7EFF84A bl      801153Ch                                
080224A8 4808     ldr     r0,=14Dh                                
080224AA F7E0F9D3 bl      8002854h                                
080224AE F7EFFA5D bl      801196Ch                                
080224B2 2800     cmp     r0,0h                                   
080224B4 D007     beq     80224C6h                                
080224B6 4906     ldr     r1,=30006BCh                            
080224B8 4806     ldr     r0,=0FFE8h                              
080224BA 81C8     strh    r0,[r1,0Eh]                             
080224BC 2018     mov     r0,18h                                  
080224BE 8208     strh    r0,[r1,10h]                             
080224C0 3124     add     r1,24h                                  
080224C2 2007     mov     r0,7h                                   
080224C4 7008     strb    r0,[r1]                                 
080224C6 BC01     pop     r0                                      
080224C8 4700     bx      r0                                      
080224CA 0000     lsl     r0,r0,0h                                
080224CC 014D     lsl     r5,r1,5h                                
080224CE 0000     lsl     r0,r0,0h                                
080224D0 06BC     lsl     r4,r7,1Ah                               
080224D2 0300     lsl     r0,r0,0Ch                               
080224D4 FFE8     bl      lr+0FD0h                                
080224D6 0000     lsl     r0,r0,0h                                
080224D8 B500     push    r14                                     
080224DA 4906     ldr     r1,=30006BCh                            
080224DC 4806     ldr     r0,=82FB300h                            
080224DE 6188     str     r0,[r1,18h]                             
080224E0 2000     mov     r0,0h                                   
080224E2 7708     strb    r0,[r1,1Ch]                             
080224E4 82C8     strh    r0,[r1,16h]                             
080224E6 3124     add     r1,24h                                  
080224E8 2008     mov     r0,8h                                   
080224EA 7008     strb    r0,[r1]                                 
080224EC F7FFFE44 bl      8022178h                                
080224F0 BC01     pop     r0                                      
080224F2 4700     bx      r0                                      
080224F4 06BC     lsl     r4,r7,1Ah                               
080224F6 0300     lsl     r0,r0,0Ch                               
080224F8 B300     ????                                            
080224FA 082F     lsr     r7,r5,20h                               
080224FC B500     push    r14                                     
080224FE F7EEFECD bl      801129Ch                                
08022502 4804     ldr     r0,=30007A4h                            
08022504 7800     ldrb    r0,[r0]                                 
08022506 2800     cmp     r0,0h                                   
08022508 D108     bne     802251Ch                                
0802250A 4803     ldr     r0,=30006BCh                            
0802250C 3024     add     r0,24h                                  
0802250E 2115     mov     r1,15h                                  
08022510 7001     strb    r1,[r0]                                 
08022512 E00D     b       8022530h                                
08022514 07A4     lsl     r4,r4,1Eh                               
08022516 0300     lsl     r0,r0,0Ch                               
08022518 06BC     lsl     r4,r7,1Ah                               
0802251A 0300     lsl     r0,r0,0Ch                               
0802251C F7EFFA26 bl      801196Ch                                
08022520 2800     cmp     r0,0h                                   
08022522 D003     beq     802252Ch                                
08022524 4803     ldr     r0,=30006BCh                            
08022526 3024     add     r0,24h                                  
08022528 2101     mov     r1,1h                                   
0802252A 7001     strb    r1,[r0]                                 
0802252C F7FFFDDE bl      80220ECh                                
08022530 BC01     pop     r0                                      
08022532 4700     bx      r0                                      
08022534 06BC     lsl     r4,r7,1Ah                               
08022536 0300     lsl     r0,r0,0Ch                               
08022538 4904     ldr     r1,=30006BCh                            
0802253A 4805     ldr     r0,=82FB328h                            
0802253C 6188     str     r0,[r1,18h]                             
0802253E 2000     mov     r0,0h                                   
08022540 7708     strb    r0,[r1,1Ch]                             
08022542 82C8     strh    r0,[r1,16h]                             
08022544 3124     add     r1,24h                                  
08022546 2002     mov     r0,2h                                   
08022548 7008     strb    r0,[r1]                                 
0802254A 4770     bx      r14                                     
0802254C 06BC     lsl     r4,r7,1Ah                               
0802254E 0300     lsl     r0,r0,0Ch                               
08022550 B328     ????                                            
08022552 082F     lsr     r7,r5,20h                               
08022554 B570     push    r4-r6,r14                               
08022556 F7EEFEA1 bl      801129Ch                                
0802255A 4809     ldr     r0,=30007A4h                            
0802255C 7801     ldrb    r1,[r0]                                 
0802255E 2900     cmp     r1,0h                                   
08022560 D126     bne     80225B0h                                
08022562 4A08     ldr     r2,=30006BCh                            
08022564 8811     ldrh    r1,[r2]                                 
08022566 2040     mov     r0,40h                                  
08022568 4008     and     r0,r1                                   
0802256A 2800     cmp     r0,0h                                   
0802256C D00C     beq     8022588h                                
0802256E 8850     ldrh    r0,[r2,2h]                              
08022570 230E     mov     r3,0Eh                                  
08022572 5ED1     ldsh    r1,[r2,r3]                              
08022574 8892     ldrh    r2,[r2,4h]                              
08022576 1889     add     r1,r1,r2                                

