080104F8 B5F0     push    r4-r7,r14                   
080104FA 1C04     mov     r4,r0                       
080104FC 1C0B     mov     r3,r1                       
080104FE 2500     mov     r5,0h                       
08010500 480E     ldr     r0,=3001530h                
08010502 7C81     ldrb    r1,[r0,12h]                 
08010504 1C07     mov     r7,r0                       
08010506 2902     cmp     r1,2h                       
08010508 D02C     beq     @@PassDamage    ;检查服装是否是零装甲                 
0801050A 1C22     mov     r2,r4                       
0801050C 3232     add     r2,32h          ;检查敌人的碰撞属性               
0801050E 7811     ldrb    r1,[r2]                     
08010510 2048     mov     r0,48h                      
08010512 4008     and     r0,r1                       
08010514 1C16     mov     r6,r2                       
08010516 2800     cmp     r0,0h                        
08010518 D124     bne     @@PassDamage    ;检查是否无敌                
0801051A 8821     ldrh    r1,[r4]                     
0801051C 2080     mov     r0,80h                      
0801051E 0200     lsl     r0,r0,8h                    
08010520 4008     and     r0,r1                       
08010522 2800     cmp     r0,0h                       
08010524 D11E     bne     @@PassDamage    ;检查判定是否无效化了                 
08010526 7958     ldrb    r0,[r3,5h]                  
08010528 2800     cmp     r0,0h           ;检查samus是否有加速的flag            
0801052A D00B     beq     @@NoSparkFlag                   
0801052C 7818     ldrb    r0,[r3]                     
0801052E 2822     cmp     r0,22h                      
08010530 D001     beq     @@Spark        ;检查是否是冲刺的动作            
08010532 2826     cmp     r0,26h         ;检查是否是球冲的动作            
08010534 D104     bne     @@NoSpark

@@Spark:                   
08010536 2501     mov     r5,1h          ;冲刺的话标记1             
08010538 E018     b       @@Peer                    
.pool

@@NoSpark:                  
08010540 2502     mov     r5,2h          ;有加速标记但是没有冲刺标记2             
08010542 E013     b       @@Peer

@@NoSparkFlag:                    
08010544 7818     ldrb    r0,[r3]                     
08010546 280B     cmp     r0,0Bh        ;检查姿势 旋转跳的开始                 
08010548 DB0A     blt     @@NoSpinJump                    
0801054A 280E     cmp     r0,0Eh                      
0801054C DD03     ble     @@SpinJump                    
0801054E 280F     cmp     r0,0Fh                      
08010550 D106     bne     @@NoSpinJump                    
08010552 2503     mov     r5,3h         ;旋转攻击的话标记3               
08010554 E00A     b       @@Peer 

@@SpinJump:                   
08010556 4804     ldr     r0,=3001414h                
08010558 7940     ldrb    r0,[r0,5h]                  
0801055A 283F     cmp     r0,3Fh        ;检查蓄力时间             
0801055C D900     bls     @@NoSpinJump                    
0801055E 2504     mov     r5,4h         ;蓄力时间达到标记4

@@NoSpinJump:                    
08010560 2D00     cmp     r5,0h                       
08010562 D103     bne     @@Peer  

@@PassDamage:                 
08010564 2000     mov     r0,0h                       
08010566 E09B     b       @@end                    
.pool

@@Peer:                  
0801056C 7831     ldrb    r1,[r6]                     
0801056E 2080     mov     r0,80h                      
08010570 4008     and     r0,r1                       
08010572 2800     cmp     r0,0h        ;检查是否是副精灵               
08010574 D004     beq     @@Nosub                       
08010576 4A01     ldr     r2,=82B1BE4h                
08010578 E003     b       @@Goto                    
.pool  

@@Nosub:                 
08010580 4A1E     ldr     r2,=82B0D68h 

@@Goto:               
08010582 7F61     ldrb    r1,[r4,1Dh]                 
08010584 00C8     lsl     r0,r1,3h                    
08010586 1840     add     r0,r0,r1                    
08010588 0040     lsl     r0,r0,1h    ;精灵ID的18倍                
0801058A 3204     add     r2,4h       ;加上4                
0801058C 1880     add     r0,r0,r2                    
0801058E 8801     ldrh    r1,[r0]     ;读取弱点                
08010590 2D03     cmp     r5,3h                       
08010592 D93B     bls     @@NoChangeJump                    
08010594 2003     mov     r0,3h                       
08010596 4001     and     r1,r0       ;检查弱点是否是光束和蓄力                
08010598 2900     cmp     r1,0h                       
0801059A D100     bne     @@ChangeJump                    
0801059C E07E     b       @@NoDamage  

@@ChangeJump:                  
0801059E 4918     ldr     r1,=3001414h                
080105A0 2000     mov     r0,0h                       
080105A2 7148     strb    r0,[r1,5h]  ;蓄力时间写入0               
080105A4 2102     mov     r1,2h                       
080105A6 7B7A     ldrb    r2,[r7,0Dh]                 
080105A8 1C13     mov     r3,r2                       
080105AA 2001     mov     r0,1h      ;检查长枪能力是否激活                 
080105AC 4010     and     r0,r2                       
080105AE 2800     cmp     r0,0h                       
080105B0 D000     beq     @@LongBeamPass                    
080105B2 2103     mov     r1,3h      ;攻击基础为3

@@LongBeamPass:                     
080105B4 2002     mov     r0,2h      ;检查冰冻枪能力是否激活                      
080105B6 4010     and     r0,r2                       
080105B8 2800     cmp     r0,0h                       
080105BA D002     beq     @@IceBeamPass                   
080105BC 1C48     add     r0,r1,1    ;攻击力再加1                 
080105BE 0400     lsl     r0,r0,10h                   
080105C0 0C01     lsr     r1,r0,10h 

@@IceBeamPass:                  
080105C2 2004     mov     r0,4h                       
080105C4 4002     and     r2,r0      ;检查波动枪能力是否激活                  
080105C6 2A00     cmp     r2,0h                       
080105C8 D002     beq     @@WaveBeamPass                    
080105CA 1C48     add     r0,r1,1                     
080105CC 0400     lsl     r0,r0,10h                   
080105CE 0C01     lsr     r1,r0,10h  ;攻击力再加1

@@WaveBeamPass:                   
080105D0 2008     mov     r0,8h                       
080105D2 4003     and     r3,r0      ;检查离子光束是否激活                 
080105D4 2B00     cmp     r3,0h                       
080105D6 D002     beq     @@PlasmaBeamPass                    
080105D8 1C48     add     r0,r1,1                     
080105DA 0400     lsl     r0,r0,10h                   
080105DC 0C01     lsr     r1,r0,10h  ;攻击力再加1

@@PlasmaBeamPass:                   
080105DE 0488     lsl     r0,r1,12h                   
080105E0 0C01     lsr     r1,r0,10h  ;最后的数乘以4                 
080105E2 1C20     mov     r0,r4                       
080105E4 F03FFF1E bl      8050424h   ;进入对敌人伤害的例程                
080105E8 0600     lsl     r0,r0,18h                   
080105EA 0E01     lsr     r1,r0,18h                   
080105EC 2900     cmp     r1,0h                       
080105EE D009     beq     @@SpriteNoDeath                    
080105F0 1C21     mov     r1,r4                       
080105F2 3124     add     r1,24h                      
080105F4 2066     mov     r0,66h                      
080105F6 7008     strb    r0,[r1]    ;敌人死亡的pose写入                 
080105F8 E051     b       @@WillEnd                    
.pool 
 
@@SpriteNoDeath: 
08010604 1C20     mov     r0,r4                       
08010606 3026     add     r0,26h                      
08010608 7001     strb    r1,[r0]   ;敌人待机值写入0                  
0801060A E047     b       @@NoDamage 

@@NoChangeJump:                   
0801060C 2020     mov     r0,20h                      
0801060E 4001     and     r1,r0     ;检查弱点是否有冲刺和旋转攻击                  
08010610 2900     cmp     r1,0h                       
08010612 D037     beq     @@NoSparkWeaknesses                    
08010614 2200     mov     r2,0h                       
08010616 2000     mov     r0,0h                       
08010618 82A0     strh    r0,[r4,14h]                 
0801061A 7831     ldrb    r1,[r6]                     
0801061C 2010     mov     r0,10h                      
0801061E 4308     orr     r0,r1                       
08010620 7030     strb    r0,[r6]   ;碰撞属性写入10                  
08010622 1C20     mov     r0,r4                       
08010624 3030     add     r0,30h                      
08010626 7002     strb    r2,[r0]   ;冰冻时间归零                  
08010628 3810     sub     r0,10h                       
0801062A 7002     strb    r2,[r0]   ;调色板号归零                  
0801062C 1C21     mov     r1,r4                       
0801062E 3131     add     r1,31h                      
08010630 7808     ldrb    r0,[r1]                     
08010632 2800     cmp     r0,0h     ;检查是否踩在敌人身上                  
08010634 D005     beq     @@NoFoodOnSprite                    
08010636 7858     ldrb    r0,[r3,1h]                  
08010638 2801     cmp     r0,1h     ;检查samus的踩人flag                  
0801063A D102     bne     @@NoFoodOnSprite                    
0801063C 2002     mov     r0,2h                       
0801063E 7058     strb    r0,[r3,1h];写入在空中的状态                  
08010640 700A     strb    r2,[r1]   ;归零

@@NoFoodOnSprite:                     
08010642 2D01     cmp     r5,1h     ;检查是否是冲刺中                    
08010644 D103     bne     @@NoSparking                   
08010646 1C21     mov     r1,r4                       
08010648 3124     add     r1,24h                      
0801064A 2063     mov     r0,63h    ;敌人的pose写入63                   
0801064C E008     b       @@Write 

@@NoSparking:                   
0801064E 2D02     cmp     r5,2h                       
08010650 D103     bne     @@ScrewAttack  ;检查是否在加速中                 
08010652 1C21     mov     r1,r4                       
08010654 3124     add     r1,24h                      
08010656 2064     mov     r0,64h    ;敌人的pose写入64                  
08010658 E002     b       @@Write

@@ScrewAttack:                   
0801065A 1C21     mov     r1,r4                       
0801065C 3124     add     r1,24h    ;旋转攻击死的话pose65                  
0801065E 2065     mov     r0,65h 

@@Write:                     
08010660 7008     strb    r0,[r1]                     
08010662 1C21     mov     r1,r4                       
08010664 3126     add     r1,26h                      
08010666 2001     mov     r0,1h                       
08010668 7008     strb    r0,[r1]   ;待机值写入1                   
0801066A 1C22     mov     r2,r4                       
0801066C 322B     add     r2,2Bh                      
0801066E 7811     ldrb    r1,[r2]   ;击晕时间读取                    
08010670 2080     mov     r0,80h                      
08010672 4008     and     r0,r1                       
08010674 2111     mov     r1,11h    ;去80                 
08010676 4308     orr     r0,r1                       
08010678 7010     strb    r0,[r2]   ;写入11h                   
0801067A 7831     ldrb    r1,[r6]                     
0801067C 2002     mov     r0,2h                       
0801067E 4308     orr     r0,r1     ;碰撞属性写入2                  
08010680 7030     strb    r0,[r6]                     
08010682 E00C     b       @@WillEnd

@@NoSparkWeaknesses:                    
08010684 1C22     mov     r2,r4                       
08010686 322B     add     r2,2Bh                      
08010688 7811     ldrb    r1,[r2]                     
0801068A 207F     mov     r0,7Fh                      
0801068C 4008     and     r0,r1                       
0801068E 2803     cmp     r0,3h    ;检查击晕时间是否大于等于3                   
08010690 D204     bcs     @@NoDamage                    
08010692 2080     mov     r0,80h                      
08010694 4008     and     r0,r1                       
08010696 2103     mov     r1,3h    ;去掉80                   
08010698 4308     orr     r0,r1                       
0801069A 7010     strb    r0,[r2]  ;再写入3

@@NoDamage:                     
0801069C 2500     mov     r5,0h 

@@WillEnd:                      
0801069E 1C28     mov     r0,r5 

@@end:                      
080106A0 BCF0     pop     r4-r7                       
080106A2 BC02     pop     r1                          
080106A4 4708     bx      r1                          
.pool
                    
080106A8 B500     push    r14                         
080106AA 4804     ldr     r0,=30013D4h                
080106AC 7800     ldrb    r0,[r0]                     
080106AE 281C     cmp     r0,1Ch                      
080106B0 DC06     bgt     80106C0h                    
080106B2 281A     cmp     r0,1Ah                      
080106B4 DB04     blt     80106C0h                    
080106B6 2001     mov     r0,1h                       
080106B8 E003     b       80106C2h                    
080106BA 0000     lsl     r0,r0,0h                    
080106BC 13D4     asr     r4,r2,0Fh                   
080106BE 0300     lsl     r0,r0,0Ch                   
080106C0 2000     mov     r0,0h                       
080106C2 BC02     pop     r1                          
080106C4 4708     bx      r1                          
080106C6 0000     lsl     r0,r0,0h                    
080106C8 B500     push    r14                         
080106CA 4804     ldr     r0,=30013D4h                
080106CC 7800     ldrb    r0,[r0]                     
080106CE 282B     cmp     r0,2Bh                      
080106D0 DC06     bgt     80106E0h                    
080106D2 2828     cmp     r0,28h                      
080106D4 DB04     blt     80106E0h                    
080106D6 2001     mov     r0,1h                       
080106D8 E003     b       80106E2h                    
080106DA 0000     lsl     r0,r0,0h                    
080106DC 13D4     asr     r4,r2,0Fh                   
080106DE 0300     lsl     r0,r0,0Ch                   
080106E0 2000     mov     r0,0h                       
080106E2 BC02     pop     r1                          
080106E4 4708     bx      r1                          
080106E6 0000     lsl     r0,r0,0h                    
080106E8 B570     push    r4-r6,r14                   
080106EA 0600     lsl     r0,r0,18h                   
080106EC 0E05     lsr     r5,r0,18h                   
080106EE 2400     mov     r4,0h                       
080106F0 4A10     ldr     r2,=30001ACh                
080106F2 21A8     mov     r1,0A8h                     
080106F4 00C9     lsl     r1,r1,3h                    
080106F6 1850     add     r0,r2,r1                    
080106F8 4282     cmp     r2,r0                       
080106FA D216     bcs     801072Ah                    
080106FC 1C06     mov     r6,r0                       
080106FE 1C13     mov     r3,r2                       
08010700 331D     add     r3,1Dh                      
08010702 8811     ldrh    r1,[r2]                     
08010704 2001     mov     r0,1h                       
08010706 4008     and     r0,r1                       
08010708 2800     cmp     r0,0h                       
0801070A D00A     beq     8010722h                    
0801070C 7D59     ldrb    r1,[r3,15h]                 
0801070E 2080     mov     r0,80h                      
08010710 4008     and     r0,r1                       
08010712 2800     cmp     r0,0h                       
08010714 D105     bne     8010722h                    
08010716 7818     ldrb    r0,[r3]                     
08010718 42A8     cmp     r0,r5                       
0801071A D102     bne     8010722h                    
0801071C 1C60     add     r0,r4,1                     
0801071E 0600     lsl     r0,r0,18h                   
08010720 0E04     lsr     r4,r0,18h                   
08010722 3338     add     r3,38h                      
08010724 3238     add     r2,38h                      
08010726 42B2     cmp     r2,r6                       
08010728 D3EB     bcc     8010702h                    
0801072A 1C20     mov     r0,r4                       
0801072C BC70     pop     r4-r6                       
0801072E BC02     pop     r1                          
08010730 4708     bx      r1                          
08010732 0000     lsl     r0,r0,0h                    
08010734 01AC     lsl     r4,r5,6h                    
08010736 0300     lsl     r0,r0,0Ch                   
08010738 B5F0     push    r4-r7,r14                   
0801073A 0600     lsl     r0,r0,18h                   
0801073C 0E06     lsr     r6,r0,18h                   
0801073E 2400     mov     r4,0h                       
08010740 4813     ldr     r0,=3000738h                
08010742 3023     add     r0,23h                      
08010744 7805     ldrb    r5,[r0]                     
08010746 4A13     ldr     r2,=30001ACh                
08010748 21A8     mov     r1,0A8h                     
0801074A 00C9     lsl     r1,r1,3h                    
0801074C 1850     add     r0,r2,r1                    
0801074E 4282     cmp     r2,r0                       
08010750 D219     bcs     8010786h                    
08010752 1C07     mov     r7,r0                       
08010754 1C13     mov     r3,r2                       
08010756 3323     add     r3,23h                      
08010758 8811     ldrh    r1,[r2]                     
0801075A 2001     mov     r0,1h                       
0801075C 4008     and     r0,r1                       
0801075E 2800     cmp     r0,0h                       
08010760 D00D     beq     801077Eh                    
08010762 7BD9     ldrb    r1,[r3,0Fh]                 
08010764 2080     mov     r0,80h                      
08010766 4008     and     r0,r1                       
08010768 2800     cmp     r0,0h                       
0801076A D008     beq     801077Eh                    
0801076C 7F50     ldrb    r0,[r2,1Dh]                 
0801076E 42B0     cmp     r0,r6                       
08010770 D105     bne     801077Eh                    
08010772 7818     ldrb    r0,[r3]                     
08010774 42A8     cmp     r0,r5                       
08010776 D102     bne     801077Eh                    
08010778 1C60     add     r0,r4,1                     
0801077A 0600     lsl     r0,r0,18h                   
0801077C 0E04     lsr     r4,r0,18h                   
0801077E 3338     add     r3,38h                      
08010780 3238     add     r2,38h                      
08010782 42BA     cmp     r2,r7                       
08010784 D3E8     bcc     8010758h                    
08010786 1C20     mov     r0,r4                       
08010788 BCF0     pop     r4-r7                       
0801078A BC02     pop     r1                          
0801078C 4708     bx      r1                          
0801078E 0000     lsl     r0,r0,0h                    
08010790 0738     lsl     r0,r7,1Ch                   
08010792 0300     lsl     r0,r0,0Ch                   
08010794 01AC     lsl     r4,r5,6h                    
08010796 0300     lsl     r0,r0,0Ch                   
08010798 B5F0     push    r4-r7,r14                   
0801079A 0600     lsl     r0,r0,18h                   
0801079C 0E06     lsr     r6,r0,18h                   
0801079E 2400     mov     r4,0h                       
080107A0 4813     ldr     r0,=3000738h                
080107A2 3023     add     r0,23h                      
080107A4 7805     ldrb    r5,[r0]                     
080107A6 4A13     ldr     r2,=30001ACh                
080107A8 21A8     mov     r1,0A8h                     
080107AA 00C9     lsl     r1,r1,3h                    
080107AC 1850     add     r0,r2,r1                    
080107AE 4282     cmp     r2,r0                       
080107B0 D219     bcs     80107E6h                    
080107B2 1C07     mov     r7,r0                       
080107B4 1C13     mov     r3,r2                       
080107B6 3323     add     r3,23h                      
080107B8 8811     ldrh    r1,[r2]                     
080107BA 2001     mov     r0,1h                       
080107BC 4008     and     r0,r1                       
080107BE 2800     cmp     r0,0h                       
080107C0 D00D     beq     80107DEh                    
080107C2 7BD9     ldrb    r1,[r3,0Fh]                 
080107C4 2080     mov     r0,80h                      
080107C6 4008     and     r0,r1                       
080107C8 2800     cmp     r0,0h                       
080107CA D108     bne     80107DEh                    
080107CC 7F50     ldrb    r0,[r2,1Dh]                 
080107CE 42B0     cmp     r0,r6                       
080107D0 D105     bne     80107DEh                    
080107D2 7818     ldrb    r0,[r3]                     
080107D4 42A8     cmp     r0,r5                       
080107D6 D102     bne     80107DEh                    
080107D8 1C60     add     r0,r4,1                     
080107DA 0600     lsl     r0,r0,18h                   
080107DC 0E04     lsr     r4,r0,18h                   
080107DE 3338     add     r3,38h                      
080107E0 3238     add     r2,38h                      
080107E2 42BA     cmp     r2,r7                       
080107E4 D3E8     bcc     80107B8h                    
080107E6 1C20     mov     r0,r4                       
080107E8 BCF0     pop     r4-r7                       
080107EA BC02     pop     r1                          
080107EC 4708     bx      r1                          
080107EE 0000     lsl     r0,r0,0h                    
080107F0 0738     lsl     r0,r7,1Ch                   
080107F2 0300     lsl     r0,r0,0Ch                   
080107F4 01AC     lsl     r4,r5,6h                    
080107F6 0300     lsl     r0,r0,0Ch                   
080107F8 B530     push    r4,r5,r14                   
080107FA 0600     lsl     r0,r0,18h                   
080107FC 0E05     lsr     r5,r0,18h                   
080107FE 2400     mov     r4,0h                       
08010800 4A0B     ldr     r2,=30001ACh                
08010802 21A8     mov     r1,0A8h                     
08010804 00C9     lsl     r1,r1,3h                    
08010806 1850     add     r0,r2,r1                    
08010808 4282     cmp     r2,r0                       
0801080A D21B     bcs     8010844h                    
0801080C 1C13     mov     r3,r2                       
0801080E 331D     add     r3,1Dh                      
08010810 8811     ldrh    r1,[r2]                     
08010812 2001     mov     r0,1h                       
08010814 4008     and     r0,r1                       
08010816 2800     cmp     r0,0h                       
08010818 D00C     beq     8010834h                    
0801081A 7D59     ldrb    r1,[r3,15h]                 
0801081C 2080     mov     r0,80h                      
0801081E 4008     and     r0,r1                       
08010820 2800     cmp     r0,0h                       
08010822 D107     bne     8010834h                    
08010824 7818     ldrb    r0,[r3]                     
08010826 42A8     cmp     r0,r5                       
08010828 D104     bne     8010834h                    
0801082A 1C20     mov     r0,r4                       
0801082C E00B     b       8010846h                    
0801082E 0000     lsl     r0,r0,0h                    
08010830 01AC     lsl     r4,r5,6h                    
08010832 0300     lsl     r0,r0,0Ch                   
08010834 1C60     add     r0,r4,1                     
08010836 0600     lsl     r0,r0,18h                   
08010838 0E04     lsr     r4,r0,18h                   
0801083A 3338     add     r3,38h                      
0801083C 3238     add     r2,38h                      
0801083E 4803     ldr     r0,=30006ECh                
08010840 4282     cmp     r2,r0                       
08010842 D3E5     bcc     8010810h                    
08010844 20FF     mov     r0,0FFh                     
08010846 BC30     pop     r4,r5                       
08010848 BC02     pop     r1                          
0801084A 4708     bx      r1                          
0801084C 06EC     lsl     r4,r5,1Bh                   
0801084E 0300     lsl     r0,r0,0Ch                   
08010850 B570     push    r4-r6,r14                   
08010852 0600     lsl     r0,r0,18h                   
08010854 0E06     lsr     r6,r0,18h                   
08010856 0609     lsl     r1,r1,18h                   
08010858 0E0D     lsr     r5,r1,18h                   
0801085A 2400     mov     r4,0h                       
0801085C 4B0C     ldr     r3,=30001ACh                
0801085E 21A8     mov     r1,0A8h                     
08010860 00C9     lsl     r1,r1,3h                    
08010862 1858     add     r0,r3,r1                    
08010864 4283     cmp     r3,r0                       
08010866 D21D     bcs     80108A4h                    
08010868 1C1A     mov     r2,r3                       
0801086A 321D     add     r2,1Dh                      
0801086C 8819     ldrh    r1,[r3]                     
0801086E 2001     mov     r0,1h                       
08010870 4008     and     r0,r1                       
08010872 2800     cmp     r0,0h                       
08010874 D00E     beq     8010894h                    
08010876 7D51     ldrb    r1,[r2,15h]                 
08010878 2080     mov     r0,80h                      
0801087A 4008     and     r0,r1                       
0801087C 2800     cmp     r0,0h                       
0801087E D009     beq     8010894h                    
08010880 7810     ldrb    r0,[r2]                     
08010882 42B0     cmp     r0,r6                       
08010884 D106     bne     8010894h                    
08010886 7850     ldrb    r0,[r2,1h]                  
08010888 42A8     cmp     r0,r5                       
0801088A D103     bne     8010894h                    
0801088C 1C20     mov     r0,r4                       
0801088E E00A     b       80108A6h                    
08010890 01AC     lsl     r4,r5,6h                    
08010892 0300     lsl     r0,r0,0Ch                   
08010894 1C60     add     r0,r4,1                     
08010896 0600     lsl     r0,r0,18h                   
08010898 0E04     lsr     r4,r0,18h                   
0801089A 3238     add     r2,38h                      
0801089C 3338     add     r3,38h                      
0801089E 4803     ldr     r0,=30006ECh                
080108A0 4283     cmp     r3,r0                       
080108A2 D3E3     bcc     801086Ch                    
080108A4 20FF     mov     r0,0FFh                     
080108A6 BC70     pop     r4-r6                       
080108A8 BC02     pop     r1                          
080108AA 4708     bx      r1                          
080108AC 06EC     lsl     r4,r5,1Bh                   
080108AE 0300     lsl     r0,r0,0Ch                   
080108B0 B5F0     push    r4-r7,r14                   
080108B2 480D     ldr     r0,=3000738h                
080108B4 3023     add     r0,23h                      
080108B6 7804     ldrb    r4,[r0]                     
080108B8 271F     mov     r7,1Fh                      
080108BA 4A0C     ldr     r2,=30001ACh                
080108BC 21A8     mov     r1,0A8h                     
080108BE 00C9     lsl     r1,r1,3h                    
080108C0 1850     add     r0,r2,r1                    
080108C2 4282     cmp     r2,r0                       
080108C4 D218     bcs     80108F8h                    
080108C6 2601     mov     r6,1h                       
080108C8 1C13     mov     r3,r2                       
080108CA 3323     add     r3,23h                      
080108CC 1C05     mov     r5,r0                       
080108CE 8811     ldrh    r1,[r2]                     
080108D0 1C30     mov     r0,r6                       
080108D2 4008     and     r0,r1                       
080108D4 2800     cmp     r0,0h                       
080108D6 D00B     beq     80108F0h                    
080108D8 7818     ldrb    r0,[r3]                     
080108DA 42A0     cmp     r0,r4                       
080108DC D108     bne     80108F0h                    
080108DE 7898     ldrb    r0,[r3,2h]                  
080108E0 42B8     cmp     r0,r7                       
080108E2 D305     bcc     80108F0h                    
080108E4 2001     mov     r0,1h                       
080108E6 E008     b       80108FAh                    
080108E8 0738     lsl     r0,r7,1Ch                   
080108EA 0300     lsl     r0,r0,0Ch                   
080108EC 01AC     lsl     r4,r5,6h                    
080108EE 0300     lsl     r0,r0,0Ch                   
080108F0 3338     add     r3,38h                      
080108F2 3238     add     r2,38h                      
080108F4 42AA     cmp     r2,r5                       
080108F6 D3EA     bcc     80108CEh                    
080108F8 2000     mov     r0,0h                       
080108FA BCF0     pop     r4-r7                       
080108FC BC02     pop     r1                          
080108FE 4708     bx      r1                          
08010900 B570     push    r4-r6,r14                   
08010902 2300     mov     r3,0h                       
08010904 261F     mov     r6,1Fh                      
08010906 4A0E     ldr     r2,=30001ACh                
08010908 21A8     mov     r1,0A8h                     
0801090A 00C9     lsl     r1,r1,3h                    
0801090C 1850     add     r0,r2,r1                    
0801090E 4282     cmp     r2,r0                       
08010910 D211     bcs     8010936h                    
08010912 2501     mov     r5,1h                       
08010914 1C04     mov     r4,r0                       
08010916 8811     ldrh    r1,[r2]                     
08010918 1C28     mov     r0,r5                       
0801091A 4008     and     r0,r1                       
0801091C 2800     cmp     r0,0h                       
0801091E D007     beq     8010930h                    
08010920 1C10     mov     r0,r2                       
08010922 3025     add     r0,25h                      
08010924 7800     ldrb    r0,[r0]                     
08010926 42B0     cmp     r0,r6                       
08010928 D302     bcc     8010930h                    
0801092A 1C58     add     r0,r3,1                     
0801092C 0600     lsl     r0,r0,18h                   
0801092E 0E03     lsr     r3,r0,18h                   
08010930 3238     add     r2,38h                      
08010932 42A2     cmp     r2,r4                       
08010934 D3EF     bcc     8010916h                    
08010936 1C18     mov     r0,r3                       
08010938 BC70     pop     r4-r6                       
0801093A BC02     pop     r1                          
0801093C 4708     bx      r1                          
0801093E 0000     lsl     r0,r0,0h                    
08010940 01AC     lsl     r4,r5,6h                    
08010942 0300     lsl     r0,r0,0Ch                   
08010944 B5F0     push    r4-r7,r14                   
08010946 4657     mov     r7,r10                      
08010948 464E     mov     r6,r9                       
0801094A 4645     mov     r5,r8                       
0801094C B4E0     push    r5-r7                       
0801094E B081     add     sp,-4h                      
08010950 9C09     ldr     r4,[sp,24h]                 
08010952 0400     lsl     r0,r0,10h                   
08010954 0C00     lsr     r0,r0,10h                   
08010956 4682     mov     r10,r0                      
08010958 0409     lsl     r1,r1,10h                   
0801095A 0C0D     lsr     r5,r1,10h                   
0801095C 1C2F     mov     r7,r5                       
0801095E 0612     lsl     r2,r2,18h                   
08010960 0E12     lsr     r2,r2,18h                   
08010962 9200     str     r2,[sp]                     
08010964 061B     lsl     r3,r3,18h                   
08010966 0E1B     lsr     r3,r3,18h                   
08010968 4698     mov     r8,r3                       
0801096A 0624     lsl     r4,r4,18h                   
0801096C 0E24     lsr     r4,r4,18h                   
0801096E 2000     mov     r0,0h                       
08010970 4681     mov     r9,r0                       
08010972 4911     ldr     r1,=3000738h                
08010974 468C     mov     r12,r1                      
08010976 8809     ldrh    r1,[r1]                     
08010978 2080     mov     r0,80h                      
0801097A 0080     lsl     r0,r0,2h                    
0801097C 4008     and     r0,r1                       
0801097E 0400     lsl     r0,r0,10h                   
08010980 0C06     lsr     r6,r0,10h                   
08010982 2E00     cmp     r6,0h                       
08010984 D027     beq     80109D6h                    
08010986 4662     mov     r2,r12                      
08010988 322D     add     r2,2Dh                      
0801098A 7810     ldrb    r0,[r2]                     
0801098C 2800     cmp     r0,0h                       
0801098E D115     bne     80109BCh                    
08010990 4666     mov     r6,r12                      
08010992 88B1     ldrh    r1,[r6,4h]                  
08010994 1F28     sub     r0,r5,4                     
08010996 4281     cmp     r1,r0                       
08010998 DC28     bgt     80109ECh                    
0801099A 4661     mov     r1,r12                      
0801099C 312E     add     r1,2Eh                      
0801099E 7808     ldrb    r0,[r1]                     
080109A0 4298     cmp     r0,r3                       
080109A2 D201     bcs     80109A8h                    
080109A4 3001     add     r0,1h                       
080109A6 7008     strb    r0,[r1]                     
080109A8 7808     ldrb    r0,[r1]                     
080109AA 4120     asr     r0,r4                       
080109AC 4661     mov     r1,r12                      
080109AE 8889     ldrh    r1,[r1,4h]                  
080109B0 1840     add     r0,r0,r1                    
080109B2 4662     mov     r2,r12                      
080109B4 8090     strh    r0,[r2,4h]                  
080109B6 E04D     b       8010A54h                    
080109B8 0738     lsl     r0,r7,1Ch                   
080109BA 0300     lsl     r0,r0,0Ch                   
080109BC 3801     sub     r0,1h                       
080109BE 7010     strb    r0,[r2]                     
080109C0 0600     lsl     r0,r0,18h                   
080109C2 2800     cmp     r0,0h                       
080109C4 D049     beq     8010A5Ah                    
080109C6 7810     ldrb    r0,[r2]                     
080109C8 4120     asr     r0,r4                       
080109CA 4663     mov     r3,r12                      
080109CC 889B     ldrh    r3,[r3,4h]                  
080109CE 18C0     add     r0,r0,r3                    
080109D0 4666     mov     r6,r12                      
080109D2 80B0     strh    r0,[r6,4h]                  
080109D4 E03E     b       8010A54h                    
080109D6 4662     mov     r2,r12                      
080109D8 322D     add     r2,2Dh                      
080109DA 7810     ldrb    r0,[r2]                     
080109DC 1C05     mov     r5,r0                       
080109DE 2D00     cmp     r5,0h                       
080109E0 D11E     bne     8010A20h                    
080109E2 4660     mov     r0,r12                      
080109E4 8883     ldrh    r3,[r0,4h]                  
080109E6 1D38     add     r0,r7,4                     
080109E8 4283     cmp     r3,r0                       
080109EA DA04     bge     80109F6h                    
080109EC 4660     mov     r0,r12                      
080109EE 302E     add     r0,2Eh                      
080109F0 7800     ldrb    r0,[r0]                     
080109F2 7010     strb    r0,[r2]                     
080109F4 E02E     b       8010A54h                    
080109F6 4661     mov     r1,r12                      
080109F8 312E     add     r1,2Eh                      
080109FA 7808     ldrb    r0,[r1]                     
080109FC 4540     cmp     r0,r8                       
080109FE D201     bcs     8010A04h                    
08010A00 3001     add     r0,1h                       
08010A02 7008     strb    r0,[r1]                     
08010A04 7808     ldrb    r0,[r1]                     
08010A06 4120     asr     r0,r4                       
08010A08 0400     lsl     r0,r0,10h                   
08010A0A 0C01     lsr     r1,r0,10h                   
08010A0C 1A59     sub     r1,r3,r1                    
08010A0E 2080     mov     r0,80h                      
08010A10 0200     lsl     r0,r0,8h                    
08010A12 4008     and     r0,r1                       
08010A14 2800     cmp     r0,0h                       
08010A16 D018     beq     8010A4Ah                    
08010A18 2101     mov     r1,1h                       
08010A1A 4689     mov     r9,r1                       
08010A1C 7015     strb    r5,[r2]                     
08010A1E E019     b       8010A54h                    
08010A20 3801     sub     r0,1h                       
08010A22 7010     strb    r0,[r2]                     
08010A24 0600     lsl     r0,r0,18h                   
08010A26 2800     cmp     r0,0h                       
08010A28 D012     beq     8010A50h                    
08010A2A 7810     ldrb    r0,[r2]                     
08010A2C 4120     asr     r0,r4                       
08010A2E 0400     lsl     r0,r0,10h                   
08010A30 0C01     lsr     r1,r0,10h                   
08010A32 4663     mov     r3,r12                      
08010A34 8898     ldrh    r0,[r3,4h]                  
08010A36 1A41     sub     r1,r0,r1                    
08010A38 2080     mov     r0,80h                      
08010A3A 0200     lsl     r0,r0,8h                    
08010A3C 4008     and     r0,r1                       
08010A3E 2800     cmp     r0,0h                       
08010A40 D003     beq     8010A4Ah                    
08010A42 2001     mov     r0,1h                       
08010A44 4681     mov     r9,r0                       
08010A46 7016     strb    r6,[r2]                     
08010A48 E004     b       8010A54h                    
08010A4A 4662     mov     r2,r12                      
08010A4C 8091     strh    r1,[r2,4h]                  
08010A4E E001     b       8010A54h                    
08010A50 2301     mov     r3,1h                       
08010A52 4699     mov     r9,r3                       
08010A54 464E     mov     r6,r9                       
08010A56 2E00     cmp     r6,0h                       
08010A58 D00B     beq     8010A72h                    
08010A5A 4661     mov     r1,r12                      
08010A5C 8808     ldrh    r0,[r1]                     
08010A5E 2280     mov     r2,80h                      
08010A60 0092     lsl     r2,r2,2h                    
08010A62 1C11     mov     r1,r2                       
08010A64 4048     eor     r0,r1                       
08010A66 4663     mov     r3,r12                      
08010A68 8018     strh    r0,[r3]                     
08010A6A 4661     mov     r1,r12                      
08010A6C 312E     add     r1,2Eh                      
08010A6E 2001     mov     r0,1h                       
08010A70 7008     strb    r0,[r1]                     
08010A72 2600     mov     r6,0h                       
08010A74 46B1     mov     r9,r6                       
08010A76 4660     mov     r0,r12                      
08010A78 8801     ldrh    r1,[r0]                     
08010A7A 2080     mov     r0,80h                      
08010A7C 00C0     lsl     r0,r0,3h                    
08010A7E 4008     and     r0,r1                       
08010A80 0400     lsl     r0,r0,10h                   
08010A82 0C03     lsr     r3,r0,10h                   
08010A84 2B00     cmp     r3,0h                       
08010A86 D02C     beq     8010AE2h                    
08010A88 4663     mov     r3,r12                      
08010A8A 332C     add     r3,2Ch                      
08010A8C 7818     ldrb    r0,[r3]                     
08010A8E 2800     cmp     r0,0h                       
08010A90 D11A     bne     8010AC8h                    
08010A92 4662     mov     r2,r12                      
08010A94 8851     ldrh    r1,[r2,2h]                  
08010A96 4650     mov     r0,r10                      
08010A98 3804     sub     r0,4h                       
08010A9A 4281     cmp     r1,r0                       
08010A9C DD04     ble     8010AA8h                    
08010A9E 4660     mov     r0,r12                      
08010AA0 302F     add     r0,2Fh                      
08010AA2 7800     ldrb    r0,[r0]                     
08010AA4 7018     strb    r0,[r3]                     
08010AA6 E060     b       8010B6Ah                    
08010AA8 4661     mov     r1,r12                      
08010AAA 312F     add     r1,2Fh                      
08010AAC 7808     ldrb    r0,[r1]                     
08010AAE 9B00     ldr     r3,[sp]                     
08010AB0 4298     cmp     r0,r3                       
08010AB2 D201     bcs     8010AB8h                    
08010AB4 3001     add     r0,1h                       
08010AB6 7008     strb    r0,[r1]                     
08010AB8 7808     ldrb    r0,[r1]                     
08010ABA 4120     asr     r0,r4                       
08010ABC 4664     mov     r4,r12                      
08010ABE 8864     ldrh    r4,[r4,2h]                  
08010AC0 1900     add     r0,r0,r4                    
08010AC2 4666     mov     r6,r12                      
08010AC4 8070     strh    r0,[r6,2h]                  
08010AC6 E050     b       8010B6Ah                    
08010AC8 3801     sub     r0,1h                       
08010ACA 7018     strb    r0,[r3]                     
08010ACC 0600     lsl     r0,r0,18h                   
08010ACE 2800     cmp     r0,0h                       
08010AD0 D04E     beq     8010B70h                    
08010AD2 7818     ldrb    r0,[r3]                     
08010AD4 4120     asr     r0,r4                       
08010AD6 4661     mov     r1,r12                      
08010AD8 8849     ldrh    r1,[r1,2h]                  
08010ADA 1840     add     r0,r0,r1                    
08010ADC 4662     mov     r2,r12                      
08010ADE 8050     strh    r0,[r2,2h]                  
08010AE0 E043     b       8010B6Ah                    
08010AE2 4662     mov     r2,r12                      
08010AE4 322C     add     r2,2Ch                      
08010AE6 7810     ldrb    r0,[r2]                     
08010AE8 1C05     mov     r5,r0                       
08010AEA 2D00     cmp     r5,0h                       
08010AEC D123     bne     8010B36h                    
08010AEE 4666     mov     r6,r12                      
08010AF0 8873     ldrh    r3,[r6,2h]                  
08010AF2 4650     mov     r0,r10                      
08010AF4 3004     add     r0,4h                       
08010AF6 4283     cmp     r3,r0                       
08010AF8 DA04     bge     8010B04h                    
08010AFA 4660     mov     r0,r12                      
08010AFC 302F     add     r0,2Fh                      
08010AFE 7800     ldrb    r0,[r0]                     
08010B00 7010     strb    r0,[r2]                     
08010B02 E032     b       8010B6Ah                    
08010B04 4661     mov     r1,r12                      
08010B06 312F     add     r1,2Fh                      
08010B08 7808     ldrb    r0,[r1]                     
08010B0A 9E00     ldr     r6,[sp]                     
08010B0C 42B0     cmp     r0,r6                       
08010B0E D201     bcs     8010B14h                    
08010B10 3001     add     r0,1h                       
08010B12 7008     strb    r0,[r1]                     
08010B14 7808     ldrb    r0,[r1]                     
08010B16 4120     asr     r0,r4                       
08010B18 0400     lsl     r0,r0,10h                   
08010B1A 0C01     lsr     r1,r0,10h                   
08010B1C 1A59     sub     r1,r3,r1                    
08010B1E 2080     mov     r0,80h                      
08010B20 0200     lsl     r0,r0,8h                    
08010B22 4008     and     r0,r1                       
08010B24 2800     cmp     r0,0h                       
08010B26 D003     beq     8010B30h                    
08010B28 2001     mov     r0,1h                       
08010B2A 4681     mov     r9,r0                       
08010B2C 7015     strb    r5,[r2]                     
08010B2E E01C     b       8010B6Ah                    
08010B30 4662     mov     r2,r12                      
08010B32 8051     strh    r1,[r2,2h]                  
08010B34 E019     b       8010B6Ah                    
08010B36 3801     sub     r0,1h                       
08010B38 7010     strb    r0,[r2]                     
08010B3A 0600     lsl     r0,r0,18h                   
08010B3C 2800     cmp     r0,0h                       
08010B3E D012     beq     8010B66h                    
08010B40 7810     ldrb    r0,[r2]                     
08010B42 4120     asr     r0,r4                       
08010B44 0400     lsl     r0,r0,10h                   
08010B46 0C01     lsr     r1,r0,10h                   
08010B48 4664     mov     r4,r12                      
08010B4A 8860     ldrh    r0,[r4,2h]                  
08010B4C 1A41     sub     r1,r0,r1                    
08010B4E 2080     mov     r0,80h                      
08010B50 0200     lsl     r0,r0,8h                    
08010B52 4008     and     r0,r1                       
08010B54 2800     cmp     r0,0h                       
08010B56 D003     beq     8010B60h                    
08010B58 2601     mov     r6,1h                       
08010B5A 46B1     mov     r9,r6                       
08010B5C 7013     strb    r3,[r2]                     
08010B5E E004     b       8010B6Ah                    
08010B60 4660     mov     r0,r12                      
08010B62 8041     strh    r1,[r0,2h]                  
08010B64 E001     b       8010B6Ah                    
08010B66 2101     mov     r1,1h                       
08010B68 4689     mov     r9,r1                       
08010B6A 464A     mov     r2,r9                       
08010B6C 2A00     cmp     r2,0h                       
08010B6E D00A     beq     8010B86h                    
08010B70 4663     mov     r3,r12                      
08010B72 8818     ldrh    r0,[r3]                     
08010B74 2480     mov     r4,80h                      
08010B76 00E4     lsl     r4,r4,3h                    
08010B78 1C21     mov     r1,r4                       
08010B7A 4048     eor     r0,r1                       
08010B7C 8018     strh    r0,[r3]                     
08010B7E 4661     mov     r1,r12                      
08010B80 312F     add     r1,2Fh                      
08010B82 2001     mov     r0,1h                       
08010B84 7008     strb    r0,[r1]                     
08010B86 B001     add     sp,4h                       
08010B88 BC38     pop     r3-r5                       
08010B8A 4698     mov     r8,r3                       
08010B8C 46A1     mov     r9,r4                       
08010B8E 46AA     mov     r10,r5                      
08010B90 BCF0     pop     r4-r7                       
08010B92 BC01     pop     r0                          
08010B94 4700     bx      r0                          
08010B96 0000     lsl     r0,r0,0h                    
08010B98 B5F0     push    r4-r7,r14                   
08010B9A 4647     mov     r7,r8                       
08010B9C B480     push    r7                          
08010B9E 9906     ldr     r1,[sp,18h]                 
08010BA0 0400     lsl     r0,r0,10h                   
08010BA2 0C00     lsr     r0,r0,10h                   
08010BA4 4680     mov     r8,r0                       
08010BA6 0612     lsl     r2,r2,18h                   
08010BA8 0E16     lsr     r6,r2,18h                   
08010BAA 061B     lsl     r3,r3,18h                   
08010BAC 0E1B     lsr     r3,r3,18h                   
08010BAE 0609     lsl     r1,r1,18h                   
08010BB0 0E0C     lsr     r4,r1,18h                   
08010BB2 480B     ldr     r0,=3000738h                
08010BB4 4684     mov     r12,r0                      
08010BB6 8801     ldrh    r1,[r0]                     
08010BB8 2080     mov     r0,80h                      
08010BBA 0080     lsl     r0,r0,2h                    
08010BBC 4008     and     r0,r1                       
08010BBE 2800     cmp     r0,0h                       
08010BC0 D010     beq     8010BE4h                    
08010BC2 4661     mov     r1,r12                      
08010BC4 312E     add     r1,2Eh                      
08010BC6 7808     ldrb    r0,[r1]                     
08010BC8 4298     cmp     r0,r3                       
08010BCA D201     bcs     8010BD0h                    
08010BCC 3001     add     r0,1h                       
08010BCE 7008     strb    r0,[r1]                     
08010BD0 7808     ldrb    r0,[r1]                     
08010BD2 4120     asr     r0,r4                       
08010BD4 4661     mov     r1,r12                      
08010BD6 8889     ldrh    r1,[r1,4h]                  
08010BD8 1840     add     r0,r0,r1                    
08010BDA 4662     mov     r2,r12                      
08010BDC E00E     b       8010BFCh                    
08010BDE 0000     lsl     r0,r0,0h                    
08010BE0 0738     lsl     r0,r7,1Ch                   
08010BE2 0300     lsl     r0,r0,0Ch                   
08010BE4 4661     mov     r1,r12                      
08010BE6 312E     add     r1,2Eh                      
08010BE8 7808     ldrb    r0,[r1]                     
08010BEA 4298     cmp     r0,r3                       
08010BEC D201     bcs     8010BF2h                    
08010BEE 3001     add     r0,1h                       
08010BF0 7008     strb    r0,[r1]                     
08010BF2 7809     ldrb    r1,[r1]                     
08010BF4 4121     asr     r1,r4                       
08010BF6 4662     mov     r2,r12                      
08010BF8 8890     ldrh    r0,[r2,4h]                  
08010BFA 1A40     sub     r0,r0,r1                    
08010BFC 8090     strh    r0,[r2,4h]                  
08010BFE 2700     mov     r7,0h                       
08010C00 4660     mov     r0,r12                      
08010C02 8801     ldrh    r1,[r0]                     
08010C04 2080     mov     r0,80h                      
08010C06 00C0     lsl     r0,r0,3h                    
08010C08 4008     and     r0,r1                       
08010C0A 0400     lsl     r0,r0,10h                   
08010C0C 0C03     lsr     r3,r0,10h                   
08010C0E 2B00     cmp     r3,0h                       
08010C10 D028     beq     8010C64h                    
08010C12 4662     mov     r2,r12                      
08010C14 322C     add     r2,2Ch                      
08010C16 7810     ldrb    r0,[r2]                     
08010C18 2800     cmp     r0,0h                       
08010C1A D116     bne     8010C4Ah                    
08010C1C 4665     mov     r5,r12                      
08010C1E 352F     add     r5,2Fh                      
08010C20 782B     ldrb    r3,[r5]                     
08010C22 42B3     cmp     r3,r6                       
08010C24 D207     bcs     8010C36h                    
08010C26 4660     mov     r0,r12                      
08010C28 8841     ldrh    r1,[r0,2h]                  
08010C2A 4640     mov     r0,r8                       
08010C2C 3804     sub     r0,4h                       
08010C2E 4281     cmp     r1,r0                       
08010C30 DC45     bgt     8010CBEh                    
08010C32 1C58     add     r0,r3,1                     
08010C34 7028     strb    r0,[r5]                     
08010C36 4660     mov     r0,r12                      
08010C38 302F     add     r0,2Fh                      
08010C3A 7800     ldrb    r0,[r0]                     
08010C3C 4120     asr     r0,r4                       
08010C3E 4661     mov     r1,r12                      
08010C40 8849     ldrh    r1,[r1,2h]                  
08010C42 1840     add     r0,r0,r1                    
08010C44 4662     mov     r2,r12                      
08010C46 8050     strh    r0,[r2,2h]                  
08010C48 E03F     b       8010CCAh                    
08010C4A 3801     sub     r0,1h                       
08010C4C 7010     strb    r0,[r2]                     
08010C4E 0600     lsl     r0,r0,18h                   
08010C50 2800     cmp     r0,0h                       
08010C52 D03C     beq     8010CCEh                    
08010C54 7810     ldrb    r0,[r2]                     
08010C56 4120     asr     r0,r4                       
08010C58 4664     mov     r4,r12                      
08010C5A 8864     ldrh    r4,[r4,2h]                  
08010C5C 1900     add     r0,r0,r4                    
08010C5E 4661     mov     r1,r12                      
08010C60 8048     strh    r0,[r1,2h]                  
08010C62 E032     b       8010CCAh                    
08010C64 4662     mov     r2,r12                      
08010C66 322C     add     r2,2Ch                      
08010C68 7810     ldrb    r0,[r2]                     
08010C6A 2800     cmp     r0,0h                       
08010C6C D115     bne     8010C9Ah                    
08010C6E 4665     mov     r5,r12                      
08010C70 352F     add     r5,2Fh                      
08010C72 782B     ldrb    r3,[r5]                     
08010C74 42B3     cmp     r3,r6                       
08010C76 D207     bcs     8010C88h                    
08010C78 4660     mov     r0,r12                      
08010C7A 8841     ldrh    r1,[r0,2h]                  
08010C7C 4640     mov     r0,r8                       
08010C7E 3004     add     r0,4h                       
08010C80 4281     cmp     r1,r0                       
08010C82 DB1C     blt     8010CBEh                    
08010C84 1C58     add     r0,r3,1                     
08010C86 7028     strb    r0,[r5]                     
08010C88 4660     mov     r0,r12                      
08010C8A 302F     add     r0,2Fh                      
08010C8C 7801     ldrb    r1,[r0]                     
08010C8E 4121     asr     r1,r4                       
08010C90 4662     mov     r2,r12                      
08010C92 8850     ldrh    r0,[r2,2h]                  
08010C94 1A40     sub     r0,r0,r1                    
08010C96 8050     strh    r0,[r2,2h]                  
08010C98 E017     b       8010CCAh                    
08010C9A 3801     sub     r0,1h                       
08010C9C 7010     strb    r0,[r2]                     
08010C9E 0600     lsl     r0,r0,18h                   
08010CA0 2800     cmp     r0,0h                       
08010CA2 D011     beq     8010CC8h                    
08010CA4 7810     ldrb    r0,[r2]                     
08010CA6 4120     asr     r0,r4                       
08010CA8 0400     lsl     r0,r0,10h                   
08010CAA 0C00     lsr     r0,r0,10h                   
08010CAC 4664     mov     r4,r12                      
08010CAE 8861     ldrh    r1,[r4,2h]                  
08010CB0 1A09     sub     r1,r1,r0                    
08010CB2 2080     mov     r0,80h                      
08010CB4 0200     lsl     r0,r0,8h                    
08010CB6 4008     and     r0,r1                       
08010CB8 2800     cmp     r0,0h                       
08010CBA D002     beq     8010CC2h                    
08010CBC 2701     mov     r7,1h                       
08010CBE 7013     strb    r3,[r2]                     
08010CC0 E003     b       8010CCAh                    
08010CC2 4660     mov     r0,r12                      
08010CC4 8041     strh    r1,[r0,2h]                  
08010CC6 E000     b       8010CCAh                    
08010CC8 2701     mov     r7,1h                       
08010CCA 2F00     cmp     r7,0h                       
08010CCC D00B     beq     8010CE6h                    
08010CCE 4661     mov     r1,r12                      
08010CD0 8808     ldrh    r0,[r1]                     
08010CD2 2280     mov     r2,80h                      
08010CD4 00D2     lsl     r2,r2,3h                    
08010CD6 1C11     mov     r1,r2                       
08010CD8 4048     eor     r0,r1                       
08010CDA 4664     mov     r4,r12                      
08010CDC 8020     strh    r0,[r4]                     
08010CDE 4661     mov     r1,r12                      
08010CE0 312F     add     r1,2Fh                      
08010CE2 2001     mov     r0,1h                       
08010CE4 7008     strb    r0,[r1]                     
08010CE6 BC08     pop     r3                          
08010CE8 4698     mov     r8,r3                       
08010CEA BCF0     pop     r4-r7                       
08010CEC BC01     pop     r0                          
08010CEE 4700     bx      r0                          
08010CF0 B500     push    r14                         
08010CF2 1C02     mov     r2,r0                       
08010CF4 1C13     mov     r3,r2                       
08010CF6 332B     add     r3,2Bh                      
08010CF8 7819     ldrb    r1,[r3]                     
08010CFA 207F     mov     r0,7Fh                      
08010CFC 4008     and     r0,r1                       
08010CFE 2800     cmp     r0,0h                       
08010D00 D02F     beq     8010D62h                    
08010D02 1E48     sub     r0,r1,1                     
08010D04 7018     strb    r0,[r3]                     
08010D06 0600     lsl     r0,r0,18h                   
08010D08 0E01     lsr     r1,r0,18h                   
08010D0A 2003     mov     r0,3h                       
08010D0C 4008     and     r0,r1                       
08010D0E 2800     cmp     r0,0h                       
08010D10 D127     bne     8010D62h                    
08010D12 2004     mov     r0,4h                       
08010D14 4008     and     r0,r1                       
08010D16 2800     cmp     r0,0h                       
08010D18 D00C     beq     8010D34h                    
08010D1A 8A90     ldrh    r0,[r2,14h]                 
08010D1C 2800     cmp     r0,0h                       
08010D1E D020     beq     8010D62h                    
08010D20 1C10     mov     r0,r2                       
08010D22 3033     add     r0,33h                      
08010D24 7800     ldrb    r0,[r0]                     
08010D26 7FD1     ldrb    r1,[r2,1Fh]                 
08010D28 1840     add     r0,r0,r1                    
08010D2A 210E     mov     r1,0Eh                      
08010D2C 1A09     sub     r1,r1,r0                    
08010D2E 1C10     mov     r0,r2                       
08010D30 3020     add     r0,20h                      
08010D32 E015     b       8010D60h                    
08010D34 8A90     ldrh    r0,[r2,14h]                 
08010D36 2800     cmp     r0,0h                       
08010D38 D013     beq     8010D62h                    
08010D3A 1C10     mov     r0,r2                       
08010D3C 3030     add     r0,30h                      
08010D3E 7800     ldrb    r0,[r0]                     
08010D40 2800     cmp     r0,0h                       
08010D42 D009     beq     8010D58h                    
08010D44 1C10     mov     r0,r2                       
08010D46 3033     add     r0,33h                      
08010D48 7800     ldrb    r0,[r0]                     
08010D4A 7FD1     ldrb    r1,[r2,1Fh]                 
08010D4C 1840     add     r0,r0,r1                    
08010D4E 210F     mov     r1,0Fh                      
08010D50 1A09     sub     r1,r1,r0                    
08010D52 1C10     mov     r0,r2                       
08010D54 3020     add     r0,20h                      
08010D56 E003     b       8010D60h                    
08010D58 1C10     mov     r0,r2                       
08010D5A 3034     add     r0,34h                      
08010D5C 7801     ldrb    r1,[r0]                     
08010D5E 3814     sub     r0,14h                      
08010D60 7001     strb    r1,[r0]                     
08010D62 BC01     pop     r0                          
08010D64 4700     bx      r0                          
08010D66 0000     lsl     r0,r0,0h                    
08010D68 B5F0     push    r4-r7,r14                   
08010D6A 0600     lsl     r0,r0,18h                   
08010D6C 0E07     lsr     r7,r0,18h                   
08010D6E 0609     lsl     r1,r1,18h                   
08010D70 0E0C     lsr     r4,r1,18h                   
08010D72 0412     lsl     r2,r2,10h                   
08010D74 0C15     lsr     r5,r2,10h                   
08010D76 041B     lsl     r3,r3,10h                   
08010D78 0C1E     lsr     r6,r3,10h                   
08010D7A 2C02     cmp     r4,2h                       
08010D7C D021     beq     8010DC2h                    
08010D7E 2C02     cmp     r4,2h                       
08010D80 DC02     bgt     8010D88h                    
08010D82 2C01     cmp     r4,1h                       
08010D84 D003     beq     8010D8Eh                    
08010D86 E07F     b       8010E88h                    
08010D88 2C03     cmp     r4,3h                       
08010D8A D043     beq     8010E14h                    
08010D8C E07C     b       8010E88h                    
08010D8E 4807     ldr     r0,=3000C77h                
08010D90 7801     ldrb    r1,[r0]                     
08010D92 1C20     mov     r0,r4                       
08010D94 4008     and     r0,r1                       
08010D96 2800     cmp     r0,0h                       
08010D98 D00A     beq     8010DB0h                    
08010D9A 1C2A     mov     r2,r5                       
08010D9C 3A08     sub     r2,8h                       
08010D9E 1C33     mov     r3,r6                       
08010DA0 3308     add     r3,8h                       
08010DA2 1C38     mov     r0,r7                       
08010DA4 2102     mov     r1,2h                       
08010DA6 F001F84F bl      8011E48h                    
08010DAA E06D     b       8010E88h                    
08010DAC 0C77     lsr     r7,r6,11h                   
08010DAE 0300     lsl     r0,r0,0Ch                   
08010DB0 1C2A     mov     r2,r5                       
08010DB2 3208     add     r2,8h                       
08010DB4 1C33     mov     r3,r6                       
08010DB6 3B08     sub     r3,8h                       
08010DB8 1C38     mov     r0,r7                       
08010DBA 2101     mov     r1,1h                       
08010DBC F001F844 bl      8011E48h                    
08010DC0 E062     b       8010E88h                    
08010DC2 480B     ldr     r0,=3000C77h                
08010DC4 7801     ldrb    r1,[r0]                     
08010DC6 2001     mov     r0,1h                       
08010DC8 4008     and     r0,r1                       
08010DCA 2800     cmp     r0,0h                       
08010DCC D012     beq     8010DF4h                    
08010DCE 1C2A     mov     r2,r5                       
08010DD0 3A08     sub     r2,8h                       
08010DD2 1C33     mov     r3,r6                       
08010DD4 3308     add     r3,8h                       
08010DD6 1C38     mov     r0,r7                       
08010DD8 2102     mov     r1,2h                       
08010DDA F001F835 bl      8011E48h                    
08010DDE 1C2A     mov     r2,r5                       
08010DE0 3208     add     r2,8h                       
08010DE2 1C33     mov     r3,r6                       
08010DE4 3B08     sub     r3,8h                       
08010DE6 1C38     mov     r0,r7                       
08010DE8 2104     mov     r1,4h                       
08010DEA F001F82D bl      8011E48h                    
08010DEE E04B     b       8010E88h                    
08010DF0 0C77     lsr     r7,r6,11h                   
08010DF2 0300     lsl     r0,r0,0Ch                   
08010DF4 1C2A     mov     r2,r5                       
08010DF6 3A08     sub     r2,8h                       
08010DF8 1C33     mov     r3,r6                       
08010DFA 3B08     sub     r3,8h                       
08010DFC 1C38     mov     r0,r7                       
08010DFE 2101     mov     r1,1h                       
08010E00 F001F822 bl      8011E48h                    
08010E04 1C33     mov     r3,r6                       
08010E06 3308     add     r3,8h                       
08010E08 1C38     mov     r0,r7                       
08010E0A 2103     mov     r1,3h                       
08010E0C 1C2A     mov     r2,r5                       
08010E0E F001F81B bl      8011E48h                    
08010E12 E039     b       8010E88h                    
08010E14 480F     ldr     r0,=3000C77h                
08010E16 7801     ldrb    r1,[r0]                     
08010E18 2001     mov     r0,1h                       
08010E1A 4008     and     r0,r1                       
08010E1C 2800     cmp     r0,0h                       
08010E1E D01B     beq     8010E58h                    
08010E20 1C2A     mov     r2,r5                       
08010E22 3A08     sub     r2,8h                       
08010E24 1C34     mov     r4,r6                       
08010E26 3C08     sub     r4,8h                       
08010E28 1C38     mov     r0,r7                       
08010E2A 2101     mov     r1,1h                       
08010E2C 1C23     mov     r3,r4                       
08010E2E F001F80B bl      8011E48h                    
08010E32 1C2A     mov     r2,r5                       
08010E34 3A10     sub     r2,10h                      
08010E36 1C33     mov     r3,r6                       
08010E38 3308     add     r3,8h                       
08010E3A 1C38     mov     r0,r7                       
08010E3C 2103     mov     r1,3h                       
08010E3E F001F803 bl      8011E48h                    
08010E42 1C2A     mov     r2,r5                       
08010E44 3208     add     r2,8h                       
08010E46 1C38     mov     r0,r7                       
08010E48 2104     mov     r1,4h                       
08010E4A 1C23     mov     r3,r4                       
08010E4C F000FFFC bl      8011E48h                    
08010E50 E01A     b       8010E88h                    
08010E52 0000     lsl     r0,r0,0h                    
08010E54 0C77     lsr     r7,r6,11h                   
08010E56 0300     lsl     r0,r0,0Ch                   
08010E58 1C2A     mov     r2,r5                       
08010E5A 3A10     sub     r2,10h                      
08010E5C 1C34     mov     r4,r6                       
08010E5E 3408     add     r4,8h                       
08010E60 1C38     mov     r0,r7                       
08010E62 2102     mov     r1,2h                       
08010E64 1C23     mov     r3,r4                       
08010E66 F000FFEF bl      8011E48h                    
08010E6A 1C2A     mov     r2,r5                       
08010E6C 3208     add     r2,8h                       
08010E6E 1C38     mov     r0,r7                       
08010E70 2103     mov     r1,3h                       
08010E72 1C23     mov     r3,r4                       
08010E74 F000FFE8 bl      8011E48h                    
08010E78 1C2A     mov     r2,r5                       
08010E7A 3210     add     r2,10h                      
08010E7C 1C33     mov     r3,r6                       
08010E7E 3B08     sub     r3,8h                       
08010E80 1C38     mov     r0,r7                       
08010E82 2104     mov     r1,4h                       
08010E84 F000FFE0 bl      8011E48h                    
08010E88 BCF0     pop     r4-r7                       
08010E8A BC01     pop     r0                          
08010E8C 4700     bx      r0                          
08010E8E 0000     lsl     r0,r0,0h                    
08010E90 B500     push    r14                         
08010E92 0600     lsl     r0,r0,18h                   
08010E94 0E03     lsr     r3,r0,18h                   
08010E96 4808     ldr     r0,=3001530h                
08010E98 88C1     ldrh    r1,[r0,6h]                  
08010E9A 1C02     mov     r2,r0                       
08010E9C 8810     ldrh    r0,[r2]                     
08010E9E 4281     cmp     r1,r0                       
08010EA0 D120     bne     8010EE4h                    
08010EA2 2001     mov     r0,1h                       
08010EA4 4018     and     r0,r3                       
08010EA6 2800     cmp     r0,0h                       
08010EA8 D008     beq     8010EBCh                    
08010EAA 8850     ldrh    r0,[r2,2h]                  
08010EAC 8911     ldrh    r1,[r2,8h]                  
08010EAE 4288     cmp     r0,r1                       
08010EB0 D904     bls     8010EBCh                    
08010EB2 201C     mov     r0,1Ch                      
08010EB4 E017     b       8010EE6h                    
08010EB6 0000     lsl     r0,r0,0h                    
08010EB8 1530     asr     r0,r6,14h                   
08010EBA 0300     lsl     r0,r0,0Ch                   
08010EBC 2002     mov     r0,2h                       
08010EBE 4018     and     r0,r3                       
08010EC0 2800     cmp     r0,0h                       
08010EC2 D005     beq     8010ED0h                    
08010EC4 7910     ldrb    r0,[r2,4h]                  
08010EC6 7A91     ldrb    r1,[r2,0Ah]                 
08010EC8 4288     cmp     r0,r1                       
08010ECA D901     bls     8010ED0h                    
08010ECC 201D     mov     r0,1Dh                      
08010ECE E00A     b       8010EE6h                    
08010ED0 2004     mov     r0,4h                       
08010ED2 4018     and     r0,r3                       
08010ED4 2800     cmp     r0,0h                       
08010ED6 D005     beq     8010EE4h                    
08010ED8 7950     ldrb    r0,[r2,5h]                  
08010EDA 7AD2     ldrb    r2,[r2,0Bh]                 
08010EDC 4290     cmp     r0,r2                       
08010EDE D901     bls     8010EE4h                    
08010EE0 201E     mov     r0,1Eh                      
08010EE2 E000     b       8010EE6h                    
08010EE4 2000     mov     r0,0h                       
08010EE6 BC02     pop     r1                          
08010EE8 4708     bx      r1                          
08010EEA 0000     lsl     r0,r0,0h                    
08010EEC B5F0     push    r4-r7,r14                   
08010EEE 464F     mov     r7,r9                       
08010EF0 4646     mov     r6,r8                       
08010EF2 B4C0     push    r6,r7                       
08010EF4 2700     mov     r7,0h                       
08010EF6 2000     mov     r0,0h                       
08010EF8 4681     mov     r9,r0                       
08010EFA 4810     ldr     r0,=3001530h                
08010EFC 88C1     ldrh    r1,[r0,6h]                  
08010EFE 4680     mov     r8,r0                       
08010F00 8802     ldrh    r2,[r0]                     
08010F02 4291     cmp     r1,r2                       
08010F04 D101     bne     8010F0Ah                    
08010F06 2001     mov     r0,1h                       
08010F08 4681     mov     r9,r0                       
08010F0A 480D     ldr     r0,=300083Ch                
08010F0C 7804     ldrb    r4,[r0]                     
08010F0E 0224     lsl     r4,r4,8h                    
08010F10 490C     ldr     r1,=3000C77h                
08010F12 480D     ldr     r0,=3000002h                
08010F14 8800     ldrh    r0,[r0]                     
08010F16 7809     ldrb    r1,[r1]                     
08010F18 1840     add     r0,r0,r1                    
08010F1A 1820     add     r0,r4,r0                    
08010F1C 0580     lsl     r0,r0,16h                   
08010F1E 0D84     lsr     r4,r0,16h                   
08010F20 2C00     cmp     r4,0h                       
08010F22 D100     bne     8010F26h                    
08010F24 2401     mov     r4,1h                       
08010F26 4809     ldr     r0,=3000738h                
08010F28 7F43     ldrb    r3,[r0,1Dh]                 
08010F2A 3032     add     r0,32h                      
08010F2C 7801     ldrb    r1,[r0]                     
08010F2E 2080     mov     r0,80h                      
08010F30 4008     and     r0,r1                       
08010F32 2800     cmp     r0,0h                       
08010F34 D00E     beq     8010F54h                    
08010F36 4A06     ldr     r2,=82B1BE4h                
08010F38 E00D     b       8010F56h                    
08010F3A 0000     lsl     r0,r0,0h                    
08010F3C 1530     asr     r0,r6,14h                   
08010F3E 0300     lsl     r0,r0,0Ch                   
08010F40 083C     lsr     r4,r7,20h                   
08010F42 0300     lsl     r0,r0,0Ch                   
08010F44 0C77     lsr     r7,r6,11h                   
08010F46 0300     lsl     r0,r0,0Ch                   
08010F48 0002     lsl     r2,r0,0h                    
08010F4A 0300     lsl     r0,r0,0Ch                   
08010F4C 0738     lsl     r0,r7,1Ch                   
08010F4E 0300     lsl     r0,r0,0Ch                   
08010F50 1BE4     sub     r4,r4,r7                    
08010F52 082B     lsr     r3,r5,20h                   
08010F54 4A19     ldr     r2,=82B0D68h                
08010F56 00D9     lsl     r1,r3,3h                    
08010F58 18C9     add     r1,r1,r3                    
08010F5A 0049     lsl     r1,r1,1h                    
08010F5C 1C10     mov     r0,r2                       
08010F5E 3008     add     r0,8h                       
08010F60 1808     add     r0,r1,r0                    
08010F62 8800     ldrh    r0,[r0]                     
08010F64 4684     mov     r12,r0                      
08010F66 1C10     mov     r0,r2                       
08010F68 300A     add     r0,0Ah                      
08010F6A 1808     add     r0,r1,r0                    
08010F6C 8806     ldrh    r6,[r0]                     
08010F6E 1C10     mov     r0,r2                       
08010F70 300C     add     r0,0Ch                      
08010F72 1808     add     r0,r1,r0                    
08010F74 8805     ldrh    r5,[r0]                     
08010F76 1C10     mov     r0,r2                       
08010F78 300E     add     r0,0Eh                      
08010F7A 1808     add     r0,r1,r0                    
08010F7C 8803     ldrh    r3,[r0]                     
08010F7E 1C10     mov     r0,r2                       
08010F80 3010     add     r0,10h                      
08010F82 1809     add     r1,r1,r0                    
08010F84 880A     ldrh    r2,[r1]                     
08010F86 2A00     cmp     r2,0h                       
08010F88 D01A     beq     8010FC0h                    
08010F8A 2080     mov     r0,80h                      
08010F8C 00C0     lsl     r0,r0,3h                    
08010F8E 1C01     mov     r1,r0                       
08010F90 1A88     sub     r0,r1,r2                    
08010F92 0400     lsl     r0,r0,10h                   
08010F94 0C02     lsr     r2,r0,10h                   
08010F96 0409     lsl     r1,r1,10h                   
08010F98 0C09     lsr     r1,r1,10h                   
08010F9A 428C     cmp     r4,r1                       
08010F9C D812     bhi     8010FC4h                    
08010F9E 4294     cmp     r4,r2                       
08010FA0 D910     bls     8010FC4h                    
08010FA2 4641     mov     r1,r8                       
08010FA4 7948     ldrb    r0,[r1,5h]                  
08010FA6 7ACA     ldrb    r2,[r1,0Bh]                 
08010FA8 4290     cmp     r0,r2                       
08010FAA D805     bhi     8010FB8h                    
08010FAC 4649     mov     r1,r9                       
08010FAE 2900     cmp     r1,0h                       
08010FB0 D034     beq     801101Ch                    
08010FB2 271B     mov     r7,1Bh                      
08010FB4 2800     cmp     r0,0h                       
08010FB6 D05D     beq     8011074h                    
08010FB8 271E     mov     r7,1Eh                      
08010FBA E05B     b       8011074h                    
08010FBC 0D68     lsr     r0,r5,15h                   
08010FBE 082B     lsr     r3,r5,20h                   
08010FC0 2280     mov     r2,80h                      
08010FC2 00D2     lsl     r2,r2,3h                    
08010FC4 2B00     cmp     r3,0h                       
08010FC6 D013     beq     8010FF0h                    
08010FC8 1AD0     sub     r0,r2,r3                    
08010FCA 0400     lsl     r0,r0,10h                   
08010FCC 0C03     lsr     r3,r0,10h                   
08010FCE 42A2     cmp     r2,r4                       
08010FD0 D30F     bcc     8010FF2h                    
08010FD2 429C     cmp     r4,r3                       
08010FD4 D90D     bls     8010FF2h                    
08010FD6 4642     mov     r2,r8                       
08010FD8 7910     ldrb    r0,[r2,4h]                  
08010FDA 7A91     ldrb    r1,[r2,0Ah]                 
08010FDC 4288     cmp     r0,r1                       
08010FDE D805     bhi     8010FECh                    
08010FE0 464A     mov     r2,r9                       
08010FE2 2A00     cmp     r2,0h                       
08010FE4 D01A     beq     801101Ch                    
08010FE6 271B     mov     r7,1Bh                      
08010FE8 2800     cmp     r0,0h                       
08010FEA D043     beq     8011074h                    
08010FEC 271D     mov     r7,1Dh                      
08010FEE E041     b       8011074h                    
08010FF0 1C13     mov     r3,r2                       
08010FF2 2D00     cmp     r5,0h                       
08010FF4 D014     beq     8011020h                    
08010FF6 1B58     sub     r0,r3,r5                    
08010FF8 0400     lsl     r0,r0,10h                   
08010FFA 0C05     lsr     r5,r0,10h                   
08010FFC 42A3     cmp     r3,r4                       
08010FFE D310     bcc     8011022h                    
08011000 42AC     cmp     r4,r5                       
08011002 D90E     bls     8011022h                    
08011004 4641     mov     r1,r8                       
08011006 8848     ldrh    r0,[r1,2h]                  
08011008 890A     ldrh    r2,[r1,8h]                  
0801100A 4290     cmp     r0,r2                       
0801100C D831     bhi     8011072h                    
0801100E 4649     mov     r1,r9                       
08011010 2900     cmp     r1,0h                       
08011012 D003     beq     801101Ch                    
08011014 271B     mov     r7,1Bh                      
08011016 2800     cmp     r0,0h                       
08011018 D02C     beq     8011074h                    
0801101A E02A     b       8011072h                    
0801101C 271A     mov     r7,1Ah                      
0801101E E029     b       8011074h                    
08011020 1C1D     mov     r5,r3                       
08011022 2E00     cmp     r6,0h                       
08011024 D010     beq     8011048h                    
08011026 1BA8     sub     r0,r5,r6                    
08011028 0400     lsl     r0,r0,10h                   
0801102A 0C06     lsr     r6,r0,10h                   
0801102C 42A5     cmp     r5,r4                       
0801102E D30C     bcc     801104Ah                    
08011030 42B4     cmp     r4,r6                       
08011032 D90A     bls     801104Ah                    
08011034 271A     mov     r7,1Ah                      
08011036 464A     mov     r2,r9                       
08011038 2A00     cmp     r2,0h                       
0801103A D01B     beq     8011074h                    
0801103C 4641     mov     r1,r8                       
0801103E 8848     ldrh    r0,[r1,2h]                  
08011040 890A     ldrh    r2,[r1,8h]                  
08011042 4290     cmp     r0,r2                       
08011044 D916     bls     8011074h                    
08011046 E014     b       8011072h                    
08011048 1C2E     mov     r6,r5                       
0801104A 4660     mov     r0,r12                      
0801104C 2800     cmp     r0,0h                       
0801104E D011     beq     8011074h                    
08011050 1A30     sub     r0,r6,r0                    
08011052 0400     lsl     r0,r0,10h                   
08011054 0C00     lsr     r0,r0,10h                   
08011056 4684     mov     r12,r0                      
08011058 42A6     cmp     r6,r4                       
0801105A D30B     bcc     8011074h                    
0801105C 4564     cmp     r4,r12                      
0801105E D909     bls     8011074h                    
08011060 271B     mov     r7,1Bh                      
08011062 4649     mov     r1,r9                       
08011064 2900     cmp     r1,0h                       
08011066 D005     beq     8011074h                    
08011068 4642     mov     r2,r8                       
0801106A 8850     ldrh    r0,[r2,2h]                  
0801106C 8911     ldrh    r1,[r2,8h]                  
0801106E 4288     cmp     r0,r1                       
08011070 D900     bls     8011074h                    
08011072 271C     mov     r7,1Ch                      
08011074 1C38     mov     r0,r7                       
08011076 BC18     pop     r3,r4                       
08011078 4698     mov     r8,r3                       
0801107A 46A1     mov     r9,r4                       
0801107C BCF0     pop     r4-r7                       
0801107E BC02     pop     r1                          
08011080 4708     bx      r1                          
08011082 0000     lsl     r0,r0,0h                    
08011084 B5F0     push    r4-r7,r14                   
08011086 4647     mov     r7,r8                       
08011088 B480     push    r7                          
0801108A B083     add     sp,-0Ch                     
0801108C 9C09     ldr     r4,[sp,24h]                 
0801108E 0600     lsl     r0,r0,18h                   
08011090 0E00     lsr     r0,r0,18h                   
08011092 4680     mov     r8,r0                       
08011094 0409     lsl     r1,r1,10h                   
08011096 0C0D     lsr     r5,r1,10h                   
08011098 0412     lsl     r2,r2,10h                   
0801109A 0C16     lsr     r6,r2,10h                   
0801109C 061B     lsl     r3,r3,18h                   
0801109E 0E1F     lsr     r7,r3,18h                   
080110A0 0624     lsl     r4,r4,18h                   
080110A2 0E22     lsr     r2,r4,18h                   
080110A4 4804     ldr     r0,=3000738h                
080110A6 3024     add     r0,24h                      
080110A8 7800     ldrb    r0,[r0]                     
080110AA 2864     cmp     r0,64h                      
080110AC D01C     beq     80110E8h                    
080110AE 2864     cmp     r0,64h                      
080110B0 DC04     bgt     80110BCh                    
080110B2 2863     cmp     r0,63h                      
080110B4 D007     beq     80110C6h                    
080110B6 E049     b       801114Ch                    
080110B8 0738     lsl     r0,r7,1Ch                   
080110BA 0300     lsl     r0,r0,0Ch                   
080110BC 2865     cmp     r0,65h                      
080110BE D025     beq     801110Ch                    
080110C0 2866     cmp     r0,66h                      
080110C2 D033     beq     801112Ch                    
080110C4 E042     b       801114Ch                    
080110C6 1C28     mov     r0,r5                       
080110C8 1C31     mov     r1,r6                       
080110CA 2224     mov     r2,24h                      
080110CC F043F80E bl      80540ECh                    
080110D0 2000     mov     r0,0h                       
080110D2 2103     mov     r1,3h                       
080110D4 1C2A     mov     r2,r5                       
080110D6 1C33     mov     r3,r6                       
080110D8 F7FFFE46 bl      8010D68h                    
080110DC 4801     ldr     r0,=131h                    
080110DE F7F1FC9B bl      8002A18h                    
080110E2 E079     b       80111D8h                    
080110E4 0131     lsl     r1,r6,4h                    
080110E6 0000     lsl     r0,r0,0h                    
080110E8 1C28     mov     r0,r5                       
080110EA 1C31     mov     r1,r6                       
080110EC 2226     mov     r2,26h                      
080110EE F042FFFD bl      80540ECh                    
080110F2 2000     mov     r0,0h                       
080110F4 2103     mov     r1,3h                       
080110F6 1C2A     mov     r2,r5                       
080110F8 1C33     mov     r3,r6                       
080110FA F7FFFE35 bl      8010D68h                    
080110FE 4802     ldr     r0,=133h                    
08011100 F7F1FC8A bl      8002A18h                    
08011104 E068     b       80111D8h                    
08011106 0000     lsl     r0,r0,0h                    
08011108 0133     lsl     r3,r6,4h                    
0801110A 0000     lsl     r0,r0,0h                    
0801110C 1C28     mov     r0,r5                       
0801110E 1C31     mov     r1,r6                       
08011110 2223     mov     r2,23h                      
08011112 F042FFEB bl      80540ECh                    
08011116 2000     mov     r0,0h                       
08011118 2103     mov     r1,3h                       
0801111A 1C2A     mov     r2,r5                       
0801111C 1C33     mov     r3,r6                       
0801111E F7FFFE23 bl      8010D68h                    
08011122 2098     mov     r0,98h                      
08011124 0040     lsl     r0,r0,1h                    
08011126 F7F1FC77 bl      8002A18h                    
0801112A E055     b       80111D8h                    
0801112C 1C28     mov     r0,r5                       
0801112E 1C31     mov     r1,r6                       
08011130 2225     mov     r2,25h                      
08011132 F042FFDB bl      80540ECh                    
08011136 2000     mov     r0,0h                       
08011138 2103     mov     r1,3h                       
0801113A 1C2A     mov     r2,r5                       
0801113C 1C33     mov     r3,r6                       
0801113E F7FFFE13 bl      8010D68h                    
08011142 2099     mov     r0,99h                      
08011144 0040     lsl     r0,r0,1h                    
08011146 F7F1FC67 bl      8002A18h                    
0801114A E045     b       80111D8h                    
0801114C 2A1F     cmp     r2,1Fh                      
0801114E D10B     bne     8011168h                    
08011150 1C28     mov     r0,r5                       
08011152 1C31     mov     r1,r6                       
08011154 221F     mov     r2,1Fh                      
08011156 F042FFC9 bl      80540ECh                    
0801115A 2F00     cmp     r7,0h                       
0801115C D03C     beq     80111D8h                    
0801115E 2096     mov     r0,96h                      
08011160 0040     lsl     r0,r0,1h                    
08011162 F7F1FC59 bl      8002A18h                    
08011166 E037     b       80111D8h                    
08011168 2A20     cmp     r2,20h                      
0801116A D10D     bne     8011188h                    
0801116C 1C28     mov     r0,r5                       
0801116E 1C31     mov     r1,r6                       
08011170 2220     mov     r2,20h                      
08011172 F042FFBB bl      80540ECh                    
08011176 2F00     cmp     r7,0h                       
08011178 D02E     beq     80111D8h                    
0801117A 4802     ldr     r0,=12Dh                    
0801117C F7F1FC4C bl      8002A18h                    
08011180 E02A     b       80111D8h                    
08011182 0000     lsl     r0,r0,0h                    
08011184 012D     lsl     r5,r5,4h                    
08011186 0000     lsl     r0,r0,0h                    
08011188 2A21     cmp     r2,21h                      
0801118A D10B     bne     80111A4h                    
0801118C 1C28     mov     r0,r5                       
0801118E 1C31     mov     r1,r6                       
08011190 2221     mov     r2,21h                      
08011192 F042FFAB bl      80540ECh                    
08011196 2F00     cmp     r7,0h                       
08011198 D01E     beq     80111D8h                    
0801119A 2097     mov     r0,97h                      
0801119C 0040     lsl     r0,r0,1h                    
0801119E F7F1FC3B bl      8002A18h                    
080111A2 E019     b       80111D8h                    
080111A4 2A22     cmp     r2,22h                      
080111A6 D10D     bne     80111C4h                    
080111A8 1C28     mov     r0,r5                       
080111AA 1C31     mov     r1,r6                       
080111AC 2222     mov     r2,22h                      
080111AE F042FF9D bl      80540ECh                    
080111B2 2F00     cmp     r7,0h                       
080111B4 D010     beq     80111D8h                    
080111B6 4802     ldr     r0,=12Fh                    
080111B8 F7F1FC2E bl      8002A18h                    
080111BC E00C     b       80111D8h                    
080111BE 0000     lsl     r0,r0,0h                    
080111C0 012F     lsl     r7,r5,4h                    
080111C2 0000     lsl     r0,r0,0h                    
080111C4 1C10     mov     r0,r2                       
080111C6 3827     sub     r0,27h                      
080111C8 0600     lsl     r0,r0,18h                   
080111CA 0E00     lsr     r0,r0,18h                   
080111CC 2802     cmp     r0,2h                       
080111CE D803     bhi     80111D8h                    
080111D0 1C28     mov     r0,r5                       
080111D2 1C31     mov     r1,r6                       
080111D4 F042FF8A bl      80540ECh                    
080111D8 F7FFFE88 bl      8010EECh                    
080111DC 0600     lsl     r0,r0,18h                   
080111DE 0E02     lsr     r2,r0,18h                   
080111E0 1C13     mov     r3,r2                       
080111E2 2A00     cmp     r2,0h                       
080111E4 D03E     beq     8011264h                    
080111E6 4640     mov     r0,r8                       
080111E8 2800     cmp     r0,0h                       
080111EA D011     beq     8011210h                    
080111EC 2802     cmp     r0,2h                       
080111EE D03E     beq     801126Eh                    
080111F0 4806     ldr     r0,=3000738h                
080111F2 7F81     ldrb    r1,[r0,1Eh]                 
080111F4 3023     add     r0,23h                      
080111F6 7803     ldrb    r3,[r0]                     
080111F8 9500     str     r5,[sp]                     
080111FA 9601     str     r6,[sp,4h]                  
080111FC 2000     mov     r0,0h                       
080111FE 9002     str     r0,[sp,8h]                  
08011200 1C10     mov     r0,r2                       
08011202 2200     mov     r2,0h                       
08011204 F7FDF8E6 bl      800E3D4h                    
08011208 E031     b       801126Eh                    
0801120A 0000     lsl     r0,r0,0h                    
0801120C 0738     lsl     r0,r7,1Ch                   
0801120E 0300     lsl     r0,r0,0Ch                   
08011210 4A13     ldr     r2,=3000738h                
08011212 2100     mov     r1,0h                       
08011214 2007     mov     r0,7h                       
08011216 8010     strh    r0,[r2]                     
08011218 1C10     mov     r0,r2                       
0801121A 3032     add     r0,32h                      
0801121C 7001     strb    r1,[r0]                     
0801121E 77D1     strb    r1,[r2,1Fh]                 
08011220 7753     strb    r3,[r2,1Dh]                 
08011222 8055     strh    r5,[r2,2h]                  
08011224 8096     strh    r6,[r2,4h]                  
08011226 1C13     mov     r3,r2                       
08011228 3321     add     r3,21h                      
0801122A 2002     mov     r0,2h                       
0801122C 7018     strb    r0,[r3]                     
0801122E 3301     add     r3,1h                       
08011230 2004     mov     r0,4h                       
08011232 7018     strb    r0,[r3]                     
08011234 1C10     mov     r0,r2                       
08011236 3024     add     r0,24h                      
08011238 7001     strb    r1,[r0]                     
0801123A 4640     mov     r0,r8                       
0801123C 8290     strh    r0,[r2,14h]                 
0801123E 1C10     mov     r0,r2                       
08011240 302B     add     r0,2Bh                      
08011242 7001     strb    r1,[r0]                     
08011244 380B     sub     r0,0Bh                      
08011246 7001     strb    r1,[r0]                     
08011248 3013     add     r0,13h                      
0801124A 7001     strb    r1,[r0]                     
0801124C 3001     add     r0,1h                       
0801124E 7001     strb    r1,[r0]                     
08011250 3304     add     r3,4h                       
08011252 2001     mov     r0,1h                       
08011254 7018     strb    r0,[r3]                     
08011256 1C10     mov     r0,r2                       
08011258 3030     add     r0,30h                      
0801125A 7001     strb    r1,[r0]                     
0801125C E007     b       801126Eh                    
0801125E 0000     lsl     r0,r0,0h                    
08011260 0738     lsl     r0,r7,1Ch                   
08011262 0300     lsl     r0,r0,0Ch                   
08011264 4641     mov     r1,r8                       
08011266 2900     cmp     r1,0h                       
08011268 D101     bne     801126Eh                    
0801126A 4804     ldr     r0,=3000738h                
0801126C 8001     strh    r1,[r0]                     
0801126E B003     add     sp,0Ch                      
08011270 BC08     pop     r3                          
08011272 4698     mov     r8,r3                       
08011274 BCF0     pop     r4-r7                       
08011276 BC01     pop     r0                          
08011278 4700     bx      r0                          
0801127A 0000     lsl     r0,r0,0h                    
0801127C 0738     lsl     r0,r7,1Ch                   
0801127E 0300     lsl     r0,r0,0Ch                   
08011280 B510     push    r4,r14                      
08011282 2400     mov     r4,0h                       
08011284 480E     ldr     r0,=300002Ch                
08011286 7800     ldrb    r0,[r0]                     
08011288 230E     mov     r3,0Eh                      
0801128A 2801     cmp     r0,1h                       
0801128C D800     bhi     8011290h                    
0801128E 2309     mov     r3,9h                       
08011290 4A0C     ldr     r2,=3000738h                
08011292 1C10     mov     r0,r2                       
08011294 302B     add     r0,2Bh                      
08011296 7801     ldrb    r1,[r0]                     
08011298 207F     mov     r0,7Fh                      
0801129A 4008     and     r0,r1                       
0801129C 4298     cmp     r0,r3                       
0801129E D90A     bls     80112B6h                    
080112A0 1C10     mov     r0,r2                       
080112A2 3024     add     r0,24h                      
080112A4 7800     ldrb    r0,[r0]                     
080112A6 2861     cmp     r0,61h                      
080112A8 D805     bhi     80112B6h                    
080112AA 7F10     ldrb    r0,[r2,1Ch]                 
080112AC 2800     cmp     r0,0h                       
080112AE D001     beq     80112B4h                    
080112B0 3801     sub     r0,1h                       
080112B2 7710     strb    r0,[r2,1Ch]                 
080112B4 2401     mov     r4,1h                       
080112B6 1C20     mov     r0,r4                       
080112B8 BC10     pop     r4                          
080112BA BC02     pop     r1                          
080112BC 4708     bx      r1                          
080112BE 0000     lsl     r0,r0,0h                    
080112C0 002C     lsl     r4,r5,0h                    
080112C2 0300     lsl     r0,r0,0Ch                   
080112C4 0738     lsl     r0,r7,1Ch                   
080112C6 0300     lsl     r0,r0,0Ch                   
080112C8 B500     push    r14                         
080112CA 4808     ldr     r0,=3000738h                
080112CC 8801     ldrh    r1,[r0]                     
080112CE 2002     mov     r0,2h                       
080112D0 4008     and     r0,r1                       
080112D2 2800     cmp     r0,0h                       
080112D4 D010     beq     80112F8h                    
080112D6 4806     ldr     r0,=3000110h                
080112D8 7800     ldrb    r0,[r0]                     
080112DA 2800     cmp     r0,0h                       
080112DC D103     bne     80112E6h                    
080112DE 4805     ldr     r0,=3000114h                
080112E0 7800     ldrb    r0,[r0]                     
080112E2 2800     cmp     r0,0h                       
080112E4 D008     beq     80112F8h                    
080112E6 2001     mov     r0,1h                       
080112E8 E007     b       80112FAh                    
080112EA 0000     lsl     r0,r0,0h                    
080112EC 0738     lsl     r0,r7,1Ch                   
080112EE 0300     lsl     r0,r0,0Ch                   
080112F0 0110     lsl     r0,r2,4h                    
080112F2 0300     lsl     r0,r0,0Ch                   
080112F4 0114     lsl     r4,r2,4h                    
080112F6 0300     lsl     r0,r0,0Ch                   
080112F8 2000     mov     r0,0h                       
080112FA BC02     pop     r1                          
080112FC 4708     bx      r1                          
080112FE 0000     lsl     r0,r0,0h                    
08011300 B510     push    r4,r14                      
08011302 4C0A     ldr     r4,=300070Ch                
08011304 2000     mov     r0,0h                       
08011306 73A0     strb    r0,[r4,0Eh]                 
08011308 7B21     ldrb    r1,[r4,0Ch]                 
0801130A 3101     add     r1,1h                       
0801130C 0609     lsl     r1,r1,18h                   
0801130E 0E09     lsr     r1,r1,18h                   
08011310 88A3     ldrh    r3,[r4,4h]                  
08011312 6822     ldr     r2,[r4]                     
08011314 00D8     lsl     r0,r3,3h                    
08011316 1880     add     r0,r0,r2                    
08011318 7900     ldrb    r0,[r0,4h]                  
0801131A 4288     cmp     r0,r1                       
0801131C D203     bcs     8011326h                    
0801131E 0618     lsl     r0,r3,18h                   
08011320 0E00     lsr     r0,r0,18h                   
08011322 3001     add     r0,1h                       
08011324 73A0     strb    r0,[r4,0Eh]                 
08011326 BC10     pop     r4                          
08011328 BC01     pop     r0                          
0801132A 4700     bx      r0                          
0801132C 070C     lsl     r4,r1,1Ch                   
0801132E 0300     lsl     r0,r0,0Ch                   
08011330 B500     push    r14                         
08011332 4A0D     ldr     r2,=300070Ch                
08011334 7B10     ldrb    r0,[r2,0Ch]                 
08011336 3001     add     r0,1h                       
08011338 7310     strb    r0,[r2,0Ch]                 
0801133A 8891     ldrh    r1,[r2,4h]                  
0801133C 6813     ldr     r3,[r2]                     
0801133E 00C9     lsl     r1,r1,3h                    
08011340 18C9     add     r1,r1,r3                    
08011342 7909     ldrb    r1,[r1,4h]                  
08011344 0600     lsl     r0,r0,18h                   
08011346 0E00     lsr     r0,r0,18h                   
08011348 4281     cmp     r1,r0                       
0801134A D20B     bcs     8011364h                    
0801134C 2001     mov     r0,1h                       
0801134E 7310     strb    r0,[r2,0Ch]                 
08011350 8890     ldrh    r0,[r2,4h]                  
08011352 3001     add     r0,1h                       
08011354 8090     strh    r0,[r2,4h]                  
08011356 8890     ldrh    r0,[r2,4h]                  
08011358 00C0     lsl     r0,r0,3h                    
0801135A 18C0     add     r0,r0,r3                    
0801135C 7900     ldrb    r0,[r0,4h]                  
0801135E 2800     cmp     r0,0h                       
08011360 D100     bne     8011364h                    
08011362 8090     strh    r0,[r2,4h]                  
08011364 BC01     pop     r0                          
08011366 4700     bx      r0                          
08011368 070C     lsl     r4,r1,1Ch                   
0801136A 0300     lsl     r0,r0,0Ch                   
0801136C B510     push    r4,r14                      
0801136E 4B0E     ldr     r3,=300070Ch                
08011370 8898     ldrh    r0,[r3,4h]                  
08011372 6819     ldr     r1,[r3]                     
08011374 00C0     lsl     r0,r0,3h                    
08011376 1840     add     r0,r0,r1                    
08011378 6804     ldr     r4,[r0]                     
0801137A 4A0C     ldr     r2,=3000738h                
0801137C 7F91     ldrb    r1,[r2,1Eh]                 
0801137E 0048     lsl     r0,r1,1h                    
08011380 1840     add     r0,r0,r1                    
08011382 0040     lsl     r0,r0,1h                    
08011384 1900     add     r0,r0,r4                    
08011386 8840     ldrh    r0,[r0,2h]                  
08011388 88D9     ldrh    r1,[r3,6h]                  
0801138A 1840     add     r0,r0,r1                    
0801138C 8050     strh    r0,[r2,2h]                  
0801138E 7F91     ldrb    r1,[r2,1Eh]                 
08011390 0048     lsl     r0,r1,1h                    
08011392 1840     add     r0,r0,r1                    
08011394 0040     lsl     r0,r0,1h                    
08011396 1900     add     r0,r0,r4                    
08011398 8880     ldrh    r0,[r0,4h]                  
0801139A 891B     ldrh    r3,[r3,8h]                  
0801139C 18C0     add     r0,r0,r3                    
0801139E 8090     strh    r0,[r2,4h]                  
080113A0 BC10     pop     r4                          
080113A2 BC01     pop     r0                          
080113A4 4700     bx      r0                          
080113A6 0000     lsl     r0,r0,0h                    
080113A8 070C     lsl     r4,r1,1Ch                   
080113AA 0300     lsl     r0,r0,0Ch                   
080113AC 0738     lsl     r0,r7,1Ch                   
080113AE 0300     lsl     r0,r0,0Ch                   
080113B0 B510     push    r4,r14                      
080113B2 4C0F     ldr     r4,=300070Ch                
080113B4 88A0     ldrh    r0,[r4,4h]                  
080113B6 6821     ldr     r1,[r4]                     
080113B8 00C0     lsl     r0,r0,3h                    
080113BA 1840     add     r0,r0,r1                    
080113BC 6803     ldr     r3,[r0]                     
080113BE 4A0D     ldr     r2,=3000738h                
080113C0 7F91     ldrb    r1,[r2,1Eh]                 
080113C2 0048     lsl     r0,r1,1h                    
080113C4 1840     add     r0,r0,r1                    
080113C6 0040     lsl     r0,r0,1h                    
080113C8 18C0     add     r0,r0,r3                    
080113CA 8840     ldrh    r0,[r0,2h]                  
080113CC 88E1     ldrh    r1,[r4,6h]                  
080113CE 1840     add     r0,r0,r1                    
080113D0 8050     strh    r0,[r2,2h]                  
080113D2 8811     ldrh    r1,[r2]                     
080113D4 2040     mov     r0,40h                      
080113D6 4008     and     r0,r1                       
080113D8 2800     cmp     r0,0h                       
080113DA D00D     beq     80113F8h                    
080113DC 7F91     ldrb    r1,[r2,1Eh]                 
080113DE 0048     lsl     r0,r1,1h                    
080113E0 1840     add     r0,r0,r1                    
080113E2 0040     lsl     r0,r0,1h                    
080113E4 18C0     add     r0,r0,r3                    
080113E6 8921     ldrh    r1,[r4,8h]                  
080113E8 8880     ldrh    r0,[r0,4h]                  
080113EA 1A09     sub     r1,r1,r0                    
080113EC 8091     strh    r1,[r2,4h]                  
080113EE E00C     b       801140Ah                    
080113F0 070C     lsl     r4,r1,1Ch                   
080113F2 0300     lsl     r0,r0,0Ch                   
080113F4 0738     lsl     r0,r7,1Ch                   
080113F6 0300     lsl     r0,r0,0Ch                   
080113F8 7F90     ldrb    r0,[r2,1Eh]                 
080113FA 0041     lsl     r1,r0,1h                    
080113FC 1809     add     r1,r1,r0                    
080113FE 0049     lsl     r1,r1,1h                    
08011400 18C9     add     r1,r1,r3                    
08011402 8888     ldrh    r0,[r1,4h]                  
08011404 8924     ldrh    r4,[r4,8h]                  
08011406 1900     add     r0,r0,r4                    
08011408 8090     strh    r0,[r2,4h]                  
0801140A BC10     pop     r4                          
0801140C BC01     pop     r0                          
0801140E 4700     bx      r0                          
08011410 B500     push    r14                         
08011412 4A0D     ldr     r2,=3000720h                
08011414 7B10     ldrb    r0,[r2,0Ch]                 
08011416 3001     add     r0,1h                       
08011418 7310     strb    r0,[r2,0Ch]                 
0801141A 8891     ldrh    r1,[r2,4h]                  
0801141C 6813     ldr     r3,[r2]                     
0801141E 00C9     lsl     r1,r1,3h                    
08011420 18C9     add     r1,r1,r3                    
08011422 7909     ldrb    r1,[r1,4h]                  
08011424 0600     lsl     r0,r0,18h                   
08011426 0E00     lsr     r0,r0,18h                   
08011428 4281     cmp     r1,r0                       
0801142A D20B     bcs     8011444h                    
0801142C 2001     mov     r0,1h                       
0801142E 7310     strb    r0,[r2,0Ch]                 
08011430 8890     ldrh    r0,[r2,4h]                  
08011432 3001     add     r0,1h                       
08011434 8090     strh    r0,[r2,4h]                  
08011436 8890     ldrh    r0,[r2,4h]                  
08011438 00C0     lsl     r0,r0,3h                    
0801143A 18C0     add     r0,r0,r3                    
0801143C 7900     ldrb    r0,[r0,4h]                  
0801143E 2800     cmp     r0,0h                       
08011440 D100     bne     8011444h                    
08011442 8090     strh    r0,[r2,4h]                  
08011444 BC01     pop     r0                          
08011446 4700     bx      r0                          
08011448 0720     lsl     r0,r4,1Ch                   
0801144A 0300     lsl     r0,r0,0Ch                   
0801144C B510     push    r4,r14                      
0801144E 4C0F     ldr     r4,=3000720h                
08011450 88A0     ldrh    r0,[r4,4h]                  
08011452 6821     ldr     r1,[r4]                     
08011454 00C0     lsl     r0,r0,3h                    
08011456 1840     add     r0,r0,r1                    
08011458 6803     ldr     r3,[r0]                     
0801145A 4A0D     ldr     r2,=3000738h                
0801145C 7F91     ldrb    r1,[r2,1Eh]                 
0801145E 0048     lsl     r0,r1,1h                    
08011460 1840     add     r0,r0,r1                    
08011462 0040     lsl     r0,r0,1h                    
08011464 18C0     add     r0,r0,r3                    
08011466 8840     ldrh    r0,[r0,2h]                  
08011468 88E1     ldrh    r1,[r4,6h]                  
0801146A 1840     add     r0,r0,r1                    
0801146C 8050     strh    r0,[r2,2h]                  
0801146E 8811     ldrh    r1,[r2]                     
08011470 2040     mov     r0,40h                      
08011472 4008     and     r0,r1                       
08011474 2800     cmp     r0,0h                       
08011476 D00D     beq     8011494h                    
08011478 7F91     ldrb    r1,[r2,1Eh]                 
0801147A 0048     lsl     r0,r1,1h                    
0801147C 1840     add     r0,r0,r1                    
0801147E 0040     lsl     r0,r0,1h                    
08011480 18C0     add     r0,r0,r3                    
08011482 8921     ldrh    r1,[r4,8h]                  
08011484 8880     ldrh    r0,[r0,4h]                  
08011486 1A09     sub     r1,r1,r0                    
08011488 8091     strh    r1,[r2,4h]                  
0801148A E00C     b       80114A6h                    
0801148C 0720     lsl     r0,r4,1Ch                   
0801148E 0300     lsl     r0,r0,0Ch                   
08011490 0738     lsl     r0,r7,1Ch                   
08011492 0300     lsl     r0,r0,0Ch                   
08011494 7F90     ldrb    r0,[r2,1Eh]                 
08011496 0041     lsl     r1,r0,1h                    
08011498 1809     add     r1,r1,r0                    
0801149A 0049     lsl     r1,r1,1h                    
0801149C 18C9     add     r1,r1,r3                    
0801149E 8888     ldrh    r0,[r1,4h]                  
080114A0 8924     ldrh    r4,[r4,8h]                  
080114A2 1900     add     r0,r0,r4                    
080114A4 8090     strh    r0,[r2,4h]                  
080114A6 BC10     pop     r4                          
080114A8 BC01     pop     r0                          
080114AA 4700     bx      r0                          
080114AC B500     push    r14                         
080114AE 1C02     mov     r2,r0                       
080114B0 7B10     ldrb    r0,[r2,0Ch]                 
080114B2 3001     add     r0,1h                       
080114B4 7310     strb    r0,[r2,0Ch]                 
080114B6 8891     ldrh    r1,[r2,4h]                  
080114B8 6813     ldr     r3,[r2]                     
080114BA 00C9     lsl     r1,r1,3h                    
080114BC 18C9     add     r1,r1,r3                    
080114BE 7909     ldrb    r1,[r1,4h]                  
080114C0 0600     lsl     r0,r0,18h                   
080114C2 0E00     lsr     r0,r0,18h                   
080114C4 4281     cmp     r1,r0                       
080114C6 D20B     bcs     80114E0h                    
080114C8 2001     mov     r0,1h                       
080114CA 7310     strb    r0,[r2,0Ch]                 
080114CC 8890     ldrh    r0,[r2,4h]                  
080114CE 3001     add     r0,1h                       
080114D0 8090     strh    r0,[r2,4h]                  
080114D2 8890     ldrh    r0,[r2,4h]                  
080114D4 00C0     lsl     r0,r0,3h                    
080114D6 18C0     add     r0,r0,r3                    
080114D8 7900     ldrb    r0,[r0,4h]                  
080114DA 2800     cmp     r0,0h                       
080114DC D100     bne     80114E0h                    
080114DE 8090     strh    r0,[r2,4h]                  
080114E0 BC01     pop     r0                          
080114E2 4700     bx      r0                          
080114E4 B510     push    r4,r14                      
080114E6 8881     ldrh    r1,[r0,4h]                  
080114E8 6802     ldr     r2,[r0]                     
080114EA 00C9     lsl     r1,r1,3h                    
080114EC 1889     add     r1,r1,r2                    
080114EE 680C     ldr     r4,[r1]                     
080114F0 4B0A     ldr     r3,=3000738h                
080114F2 7F9A     ldrb    r2,[r3,1Eh]                 
080114F4 0051     lsl     r1,r2,1h                    
080114F6 1889     add     r1,r1,r2                    

