08072204 B5F0     push    r4-r7,r14                      
08072206 4906     ldr     r1,=8754BC4h                   
08072208 6808     ldr     r0,[r1]    ;30016c4                    
0807220A 3047     add     r0,47h                         
0807220C 7800     ldrb    r0,[r0]    ;300170b                    
0807220E 1C0D     mov     r5,r1                          
08072210 2806     cmp     r0,6h                          
08072212 D900     bls     @@Pass                       
08072214 E226     b       @@end  
@@Pass:                     
08072216 0080     lsl     r0,r0,2h                       
08072218 4902     ldr     r1,=8072228h                   
0807221A 1840     add     r0,r0,r1                       
0807221C 6800     ldr     r0,[r0]                        
0807221E 4687     mov     r15,r0                         
.pool
                       
.word @@end ;0
.word 0x8072244 ;1
.word 0x80723F4 ;2
.word 0x8072414 ;3
.word 0x80725B0 ;4
.word 0x8072600 ;5
.word 0x807262E ;6
;Pose1                  
08072244 6829     ldr     r1,[r5]                        
08072246 3146     add     r1,46h                         
08072248 780A     ldrb    r2,[r1]    ;300170A的值                    
0807224A 2001     mov     r0,1h                          
0807224C 4310     orr     r0,r2      ;orr 1 再写入                    
0807224E 7008     strb    r0,[r1]                        
08072250 682B     ldr     r3,[r5]    ;30016D7                    
08072252 7CD8     ldrb    r0,[r3,13h];16D7的值雕像X坐标                    
08072254 0140     lsl     r0,r0,5h   ;乘以64                    
08072256 1C1C     mov     r4,r3                          
08072258 348E     add     r4,8Eh                         
0807225A 8020     strh    r0,[r4]    ;写入1752                     
0807225C 7D18     ldrb    r0,[r3,14h];雕像Y坐标                    
0807225E 0140     lsl     r0,r0,5h   ;乘以64                    
08072260 1C1A     mov     r2,r3                          
08072262 328C     add     r2,8Ch     ;写入1750                    
08072264 8010     strh    r0,[r2]                        
08072266 7D58     ldrb    r0,[r3,15h];读取雕像触发X坐标                    
08072268 0140     lsl     r0,r0,5h   ;乘以64                    
0807226A 1C19     mov     r1,r3                          
0807226C 3192     add     r1,92h                         
0807226E 8008     strh    r0,[r1]    ;写入1756                     
08072270 7D98     ldrb    r0,[r3,16h];读取雕像触发Y坐标                    
08072272 0140     lsl     r0,r0,5h                       
08072274 3902     sub     r1,2h                          
08072276 8008     strh    r0,[r1]    ;写入1754                      
08072278 8811     ldrh    r1,[r2]    ;读取写入的雕像X坐标                    
0807227A 22EA     mov     r2,0EAh                        
0807227C 0092     lsl     r2,r2,2h   ;3A8                    
0807227E 1898     add     r0,r3,r2   ;加30016C4                    
08072280 8001     strh    r1,[r0]    ;雕像Y坐标写入1A6C                    
08072282 8821     ldrh    r1,[r4]                        
08072284 4C11     ldr     r4,=3AAh                       
08072286 1918     add     r0,r3,r4                       
08072288 8001     strh    r1,[r0]    ;雕像X坐标写入1A6E                    
0807228A 4A11     ldr     r2,=840DF78h                   
0807228C 1C18     mov     r0,r3                          
0807228E 3040     add     r0,40h                         
08072290 2100     mov     r1,0h                          
08072292 5641     ldsb    r1,[r0,r1] ;读取1704的值                    
08072294 0048     lsl     r0,r1,1h   ;乘以2                    
08072296 1840     add     r0,r0,r1                       
08072298 0080     lsl     r0,r0,2h   ;12倍                    
0807229A 1880     add     r0,r0,r2   ;加上偏移值                    
0807229C 7941     ldrb    r1,[r0,5h] ;读取第5位                    
0807229E 4F0D     ldr     r7,=3B2h                       
080722A0 19D8     add     r0,r3,r7                       
080722A2 7001     strb    r1,[r0]    ;写入1A76                    
080722A4 682B     ldr     r3,[r5]    ;16c4                    
080722A6 1C18     mov     r0,r3                          
080722A8 3092     add     r0,92h     ;1756                     
080722AA 1C19     mov     r1,r3                          
080722AC 318E     add     r1,8Eh     ;1752                     
080722AE 8800     ldrh    r0,[r0]    ;触发地X坐标                    
080722B0 8809     ldrh    r1,[r1]    ;雕像地X坐标                    
080722B2 1A40     sub     r0,r0,r1   ;触发地X坐标减雕像地X坐标                    
080722B4 1C1A     mov     r2,r3                          
080722B6 3296     add     r2,96h                         
080722B8 8010     strh    r0,[r2]    ;值写入175A                      
080722BA 0400     lsl     r0,r0,10h                      
080722BC 1400     asr     r0,r0,10h                      
080722BE 2800     cmp     r0,0h                          
080722C0 D10A     bne     @@NoCoincide                       
080722C2 1C19     mov     r1,r3                          
080722C4 3198     add     r1,98h                         
080722C6 2000     mov     r0,0h      ;175C写入0                     
080722C8 7008     strb    r0,[r1]                        
080722CA E019     b       @@Peer                       
.pool

@@NoCoincide:                      
080722D8 2201     mov     r2,1h                          
080722DA 4252     neg     r2,r2      ;FFFFFFFF                        
080722DC 1C11     mov     r1,r2                          
080722DE 2800     cmp     r0,0h                          
080722E0 DD00     ble     @@LessThan0                      
080722E2 2101     mov     r1,1h      

@@LessThan0:                    
080722E4 1C18     mov     r0,r3                          
080722E6 3099     add     r0,99h                         
080722E8 7001     strb    r1,[r0]     ;175D                     
080722EA 6828     ldr     r0,[r5]                        
080722EC 1C02     mov     r2,r0                          
080722EE 3296     add     r2,96h      ;175A                      
080722F0 3099     add     r0,99h                         
080722F2 2100     mov     r1,0h                          
080722F4 5641     ldsb    r1,[r0,r1] ;175D的值                    
080722F6 8810     ldrh    r0,[r2]    ;读取触发地减去雕像地X坐标的值                    
080722F8 1C03     mov     r3,r0                          
080722FA 434B     mul     r3,r1      ;乘以1或者FFFFFFFF                    
080722FC 1C18     mov     r0,r3                          
080722FE 8010     strh    r0,[r2]    ;写入175A

@@Peer:                       
08072300 682A     ldr     r2,[r5]                        
08072302 1C10     mov     r0,r2                          
08072304 3090     add     r0,90h     ;1754                       
08072306 1C11     mov     r1,r2                          
08072308 318C     add     r1,8Ch     ;1750                    
0807230A 8800     ldrh    r0,[r0]    ;指引触发地的Y坐标                    
0807230C 8809     ldrh    r1,[r1]    ;雕像地的Y坐标                    
0807230E 1A40     sub     r0,r0,r1                       
08072310 1C11     mov     r1,r2                          
08072312 3194     add     r1,94h                         
08072314 8008     strh    r0,[r1]    ;写入1758                      
08072316 0400     lsl     r0,r0,10h                      
08072318 1400     asr     r0,r0,10h                      
0807231A 2800     cmp     r0,0h                          
0807231C D103     bne     @@NoCoincide2                      
0807231E 3104     add     r1,4h                          
08072320 2000     mov     r0,0h                          
08072322 7008     strb    r0,[r1]    ;175C写入0                     
08072324 E013     b       807234Eh

@@NoCoincide2:                       
08072326 2401     mov     r4,1h                          
08072328 4264     neg     r4,r4      ;FFFFFFFF                       
0807232A 1C21     mov     r1,r4                          
0807232C 2800     cmp     r0,0h                          
0807232E DD00     ble     @@LessThanZero1                       
08072330 2101     mov     r1,1h  

@@LessThanZero1:                        
08072332 1C10     mov     r0,r2                          
08072334 3098     add     r0,98h                         
08072336 7001     strb    r1,[r0]                        
08072338 6828     ldr     r0,[r5]   ;写入175C                      
0807233A 1C02     mov     r2,r0                          
0807233C 3294     add     r2,94h    ;1758                     
0807233E 3098     add     r0,98h    ;175C                     
08072340 2100     mov     r1,0h                          
08072342 5641     ldsb    r1,[r0,r1];175C的值                     
08072344 8810     ldrh    r0,[r2]   ;Y坐标相减的值                     
08072346 1C07     mov     r7,r0                          
08072348 434F     mul     r7,r1                          
0807234A 1C38     mov     r0,r7                          
0807234C 8010     strh    r0,[r2]   ;再次写入1758                     
0807234E 6829     ldr     r1,[r5]                        
08072350 1C08     mov     r0,r1                          
08072352 3096     add     r0,96h                         
08072354 2200     mov     r2,0h                          
08072356 5E80     ldsh    r0,[r0,r2] ;175A的值                    
08072358 1C03     mov     r3,r0                          
0807235A 4343     mul     r3,r0      ;平方                    
0807235C 1C18     mov     r0,r3                          
0807235E 3194     add     r1,94h                         
08072360 2400     mov     r4,0h                          
08072362 5F09     ldsh    r1,[r1,r4] ;1758的值                    
08072364 1C0F     mov     r7,r1                          
08072366 434F     mul     r7,r1      ;平方                      
08072368 1C39     mov     r1,r7                          
0807236A 1840     add     r0,r0,r1   ;两个平方的值相加                     
0807236C 0080     lsl     r0,r0,2h   ;乘以4                    
0807236E F792FF2B bl      80051C8h                       
08072372 0400     lsl     r0,r0,10h                      
08072374 0C84     lsr     r4,r0,12h  ;除以4                    
08072376 2C00     cmp     r4,0h                          
08072378 D105     bne     @@Pass1                       
0807237A 6828     ldr     r0,[r5]                        
0807237C 1C01     mov     r1,r0                          
0807237E 3199     add     r1,99h                         
08072380 700C     strb    r4,[r1]    ;175D写入0                     
08072382 3098     add     r0,98h                         
08072384 7004     strb    r4,[r0]    ;175C写入0 

@@Pass1:                   
08072386 6828     ldr     r0,[r5]                        
08072388 4684     mov     r12,r0                         
0807238A 309A     add     r0,9Ah                         
0807238C 2300     mov     r3,0h                          
0807238E 2200     mov     r2,0h                          
08072390 8004     strh    r4,[r0]    ;结果写入175E                      
08072392 4661     mov     r1,r12                         
08072394 319C     add     r1,9Ch                         
08072396 2001     mov     r0,1h                          
08072398 8008     strh    r0,[r1]    ;1760写入1                      
0807239A 4660     mov     r0,r12                         
0807239C 309E     add     r0,9Eh                         
0807239E 8002     strh    r2,[r0]    ;1762写入0000                     
080723A0 3856     sub     r0,56h                         
080723A2 7003     strb    r3,[r0]    ;170C写入0                     
080723A4 6829     ldr     r1,[r5]                        
080723A6 1C08     mov     r0,r1                          
080723A8 3040     add     r0,40h     ;1704                    
080723AA 7800     ldrb    r0,[r0]    ;的值                    
080723AC 0600     lsl     r0,r0,18h                      
080723AE 1600     asr     r0,r0,18h                      
080723B0 2807     cmp     r0,7h                          
080723B2 DC0B     bgt     @@DataOver                       
080723B4 4B04     ldr     r3,=3B3h                       
080723B6 18CA     add     r2,r1,r3                       
080723B8 7811     ldrb    r1,[r2]    ;1A77的值                     
080723BA 203F     mov     r0,3Fh                         
080723BC 4008     and     r0,r1      ;去掉40                    
080723BE 2180     mov     r1,80h                         
080723C0 4308     orr     r0,r1      ;orr80                    
080723C2 7010     strb    r0,[r2]    ;再写入                    
080723C4 E112     b       @@BigPeer                       
.pool

@@DataOver:                   
080723CC 1C08     mov     r0,r1                          
080723CE 3041     add     r0,41h                         
080723D0 7800     ldrb    r0,[r0]   ;读取1705的值                      
080723D2 2800     cmp     r0,0h                          
080723D4 D103     bne     @@NoEnd                       
080723D6 3147     add     r1,47h                         
080723D8 2006     mov     r0,6h                          
080723DA 7008     strb    r0,[r1]   ;170B写入6 pose                     
080723DC E142     b       @@end     

@@NoEnd:                  
080723DE 4C04     ldr     r4,=3B3h                       
080723E0 190A     add     r2,r1,r4                       
080723E2 7811     ldrb    r1,[r2]   ;读取1A77的值                     
080723E4 203F     mov     r0,3Fh                         
080723E6 4008     and     r0,r1     ;去掉40                     
080723E8 2180     mov     r1,80h    ;orr80再写入                     
080723EA 4308     orr     r0,r1                          
080723EC 7010     strb    r0,[r2]                        
080723EE E0FD     b       @@BigPeer                       
.pool

;pose2   指引起始pose                   
080723F4 6829     ldr     r1,[r5]                        
080723F6 3148     add     r1,48h                         
080723F8 7808     ldrb    r0,[r1]   ;读取170C的值                     
080723FA 3001     add     r0,1h     ;加1再写入                     
080723FC 7008     strb    r0,[r1]                        
080723FE 6829     ldr     r1,[r5]                        
08072400 1C08     mov     r0,r1                          
08072402 3048     add     r0,48h                         
08072404 7800     ldrb    r0,[r0]  ;读取170C的值                      
08072406 283C     cmp     r0,3Ch                         
08072408 D800     bhi     @@Pass2                       
0807240A E12B     b       @@end  

@@Pass2:                     
0807240C 3149     add     r1,49h                         
0807240E 2001     mov     r0,1h                          
08072410 7008     strb    r0,[r1]  ;170D写入1                       
08072412 E0E7     b       @@OtherPeer 

;pose3   移动的地址
08072414 6829     ldr     r1,[r5]                        
08072416 3148     add     r1,48h                         
08072418 7808     ldrb    r0,[r1]  ;170C加1再写入                      
0807241A 3001     add     r0,1h                          
0807241C 7008     strb    r0,[r1]                        
0807241E 682A     ldr     r2,[r5]                        
08072420 1C10     mov     r0,r2                          
08072422 3092     add     r0,92h                         
08072424 8801     ldrh    r1,[r0]   ;读取触发的X坐标                       
08072426 4F12     ldr     r7,=3AAh                       
08072428 19D0     add     r0,r2,r7                       
0807242A 2300     mov     r3,0h                          
0807242C 5EC0     ldsh    r0,[r0,r3];读取雕像的X坐标                     
0807242E 1A09     sub     r1,r1,r0  ;两者相减                     
08072430 1C10     mov     r0,r2                          
08072432 3099     add     r0,99h    ;175D                     
08072434 7800     ldrb    r0,[r0]   ;读取左右的标记                     
08072436 0600     lsl     r0,r0,18h                      
08072438 1600     asr     r0,r0,18h                      
0807243A 1C0C     mov     r4,r1                          
0807243C 4344     mul     r4,r0     ;标记乘以相减                     
0807243E 1C10     mov     r0,r2                          
08072440 3090     add     r0,90h    ;1754                     
08072442 8801     ldrh    r1,[r0]   ;读取触发的Y坐标                     
08072444 3F02     sub     r7,2h                          
08072446 19D0     add     r0,r2,r7                       
08072448 2300     mov     r3,0h                          
0807244A 5EC0     ldsh    r0,[r0,r3];读取雕像的Y坐标                    
0807244C 1A09     sub     r1,r1,r0  ;两者相减                     
0807244E 1C10     mov     r0,r2                          
08072450 3098     add     r0,98h                         
08072452 7800     ldrb    r0,[r0]   ;读取触发的上下flag                       
08072454 0600     lsl     r0,r0,18h                      
08072456 1600     asr     r0,r0,18h                      
08072458 4341     mul     r1,r0     ;标记乘以相减                     
0807245A 42A1     cmp     r1,r4                          
0807245C DA00     bge     @@Different  ;上下距离和左右距离比较                     
0807245E 1C21     mov     r1,r4   

@@Different:                       
08072460 108C     asr     r4,r1,2h     ;距离除以4                   
08072462 2C20     cmp     r4,20h                         
08072464 DC06     bgt     @@More80                       
08072466 1C11     mov     r1,r2                          
08072468 319E     add     r1,9Eh                         
0807246A 8808     ldrh    r0,[r1]      ;1762                  
0807246C 3002     add     r0,2h                          
0807246E E013     b       @@Write                       
.pool

@@More80:                      
08072474 2C40     cmp     r4,40h                         
08072476 DC04     bgt     @@More100                       
08072478 1C11     mov     r1,r2                          
0807247A 319E     add     r1,9Eh                         
0807247C 8808     ldrh    r0,[r1]                        
0807247E 3003     add     r0,3h                          
08072480 E00A     b       @@Write

@@More100:                       
08072482 2C60     cmp     r4,60h                         
08072484 DC04     bgt     @@More180                       
08072486 1C11     mov     r1,r2                          
08072488 319E     add     r1,9Eh                         
0807248A 8808     ldrh    r0,[r1]                        
0807248C 3004     add     r0,4h                          
0807248E E003     b       @@Write  

@@More180:                     
08072490 1C11     mov     r1,r2                          
08072492 319E     add     r1,9Eh                         
08072494 8808     ldrh    r0,[r1]                        
08072496 3005     add     r0,5h 

@@Write:                         
08072498 8008     strh    r0,[r1]  ;1762写入增加的数                      
0807249A 682A     ldr     r2,[r5]                        
0807249C 1C10     mov     r0,r2                          
0807249E 3048     add     r0,48h                         
080724A0 7801     ldrb    r1,[r0]  ;170C的值                      
080724A2 2607     mov     r6,7h                          
080724A4 1C30     mov     r0,r6                          
080724A6 4008     and     r0,r1                          
080724A8 2800     cmp     r0,0h                          
080724AA D146     bne     @@Eight                       
080724AC 08CC     lsr     r4,r1,3h  ;乘以8                     
080724AE 2003     mov     r0,3h                          
080724B0 4004     and     r4,r0                          
080724B2 3401     add     r4,1h                          
080724B4 0123     lsl     r3,r4,4h                       
080724B6 18D1     add     r1,r2,r3                       
080724B8 20EA     mov     r0,0EAh                        
080724BA 0080     lsl     r0,r0,2h                       
080724BC 1809     add     r1,r1,r0                       
080724BE 1810     add     r0,r2,r0                       
080724C0 C894     ldmia   [r0]!,r2,r4,r7                 
080724C2 C194     stmia   [r1]!,r2,r4,r7                 
080724C4 6800     ldr     r0,[r0]                        
080724C6 6008     str     r0,[r1]                        
080724C8 682A     ldr     r2,[r5]                        
080724CA 1C10     mov     r0,r2                          
080724CC 3040     add     r0,40h                         
080724CE 7800     ldrb    r0,[r0]                        
080724D0 0600     lsl     r0,r0,18h                      
080724D2 1600     asr     r0,r0,18h                      
080724D4 2807     cmp     r0,7h                          
080724D6 DC11     bgt     80724FCh                       
080724D8 18D0     add     r0,r2,r3                       
080724DA 4C06     ldr     r4,=3B2h                       
080724DC 1900     add     r0,r0,r4                       
080724DE 7006     strb    r6,[r0]                        
080724E0 682A     ldr     r2,[r5]                        
080724E2 18D2     add     r2,r2,r3                       
080724E4 4F04     ldr     r7,=3B3h                       
080724E6 19D2     add     r2,r2,r7                       
080724E8 7811     ldrb    r1,[r2]                        
080724EA 203F     mov     r0,3Fh                         
080724EC 4008     and     r0,r1                          
080724EE 2180     mov     r1,80h                         
080724F0 E021     b       8072536h                       
080724F2 0000     lsl     r0,r0,0h                       
080724F4 03B2     lsl     r2,r6,0Eh                      
080724F6 0000     lsl     r0,r0,0h                       
080724F8 03B3     lsl     r3,r6,0Eh                      
080724FA 0000     lsl     r0,r0,0h                       
080724FC 210F     mov     r1,0Fh                         
080724FE 2808     cmp     r0,8h                          
08072500 D100     bne     8072504h                       
08072502 210B     mov     r1,0Bh                         
08072504 18D0     add     r0,r2,r3                       
08072506 4A25     ldr     r2,=3B2h                       
08072508 1880     add     r0,r0,r2                       
0807250A 7001     strb    r1,[r0]                        
0807250C 6828     ldr     r0,[r5]                        
0807250E 18C0     add     r0,r0,r3                       
08072510 24EC     mov     r4,0ECh                        
08072512 00A4     lsl     r4,r4,2h                       
08072514 1900     add     r0,r0,r4                       
08072516 2103     mov     r1,3h                          
08072518 7001     strb    r1,[r0]                        
0807251A 6828     ldr     r0,[r5]                        
0807251C 18C0     add     r0,r0,r3                       
0807251E 4F20     ldr     r7,=3B1h                       
08072520 19C0     add     r0,r0,r7                       
08072522 2105     mov     r1,5h                          
08072524 7001     strb    r1,[r0]                        
08072526 682A     ldr     r2,[r5]                        
08072528 18D2     add     r2,r2,r3                       
0807252A 481E     ldr     r0,=3B3h                       
0807252C 1812     add     r2,r2,r0                       
0807252E 7811     ldrb    r1,[r2]                        
08072530 203F     mov     r0,3Fh                         
08072532 4008     and     r0,r1                          
08072534 2140     mov     r1,40h                         
08072536 4308     orr     r0,r1                          
08072538 7010     strb    r0,[r2]  

@@Eight:                      
0807253A 6828     ldr     r0,[r5]                        
0807253C 308C     add     r0,8Ch                         
0807253E F7FFFE01 bl      8072144h                       
08072542 1C04     mov     r4,r0                          
08072544 1421     asr     r1,r4,10h                      
08072546 4818     ldr     r0,=0FFFFh                     
08072548 4004     and     r4,r0                          
0807254A 682A     ldr     r2,[r5]                        
0807254C 23EA     mov     r3,0EAh                        
0807254E 009B     lsl     r3,r3,2h                       
08072550 18D0     add     r0,r2,r3                       
08072552 2600     mov     r6,0h                          
08072554 8001     strh    r1,[r0]                        
08072556 4F15     ldr     r7,=3AAh                       
08072558 19D0     add     r0,r2,r7                       
0807255A 8004     strh    r4,[r0]                        
0807255C 2300     mov     r3,0h                          
0807255E 1C10     mov     r0,r2                          
08072560 3090     add     r0,90h                         
08072562 8800     ldrh    r0,[r0]                        
08072564 4281     cmp     r1,r0                          
08072566 D100     bne     807256Ah                       
08072568 2301     mov     r3,1h                          
0807256A 1C19     mov     r1,r3                          
0807256C 2300     mov     r3,0h                          
0807256E 1C10     mov     r0,r2                          
08072570 3092     add     r0,92h                         
08072572 8800     ldrh    r0,[r0]                        
08072574 4284     cmp     r4,r0                          
08072576 D100     bne     807257Ah                       
08072578 2301     mov     r3,1h                          
0807257A 1C1C     mov     r4,r3                          
0807257C 2900     cmp     r1,0h                          
0807257E D002     beq     8072586h                       
08072580 1C10     mov     r0,r2                          
08072582 3098     add     r0,98h                         
08072584 7006     strb    r6,[r0]                        
08072586 2C00     cmp     r4,0h                          
08072588 D06C     beq     @@end                       
0807258A 6828     ldr     r0,[r5]                        
0807258C 3099     add     r0,99h                         
0807258E 7006     strb    r6,[r0]                        
08072590 2900     cmp     r1,0h                          
08072592 D067     beq     @@end                       
08072594 6828     ldr     r0,[r5]                        
08072596 3048     add     r0,48h                         
08072598 7006     strb    r6,[r0]                        
0807259A E027     b       @@BigPeer                       
.pool

;pose4                      
080725B0 6829     ldr     r1,[r5]                        
080725B2 3148     add     r1,48h                         
080725B4 7808     ldrb    r0,[r1]                        
080725B6 3001     add     r0,1h                          
080725B8 7008     strb    r0,[r1]                        
080725BA 682B     ldr     r3,[r5]                        
080725BC 1C18     mov     r0,r3                          
080725BE 3048     add     r0,48h                         
080725C0 7800     ldrb    r0,[r0]                        
080725C2 2814     cmp     r0,14h                          
080725C4 D94E     bls     @@end                       
080725C6 480C     ldr     r0,=303h                       
080725C8 181B     add     r3,r3,r0                       
080725CA 7819     ldrb    r1,[r3]                        
080725CC 223F     mov     r2,3Fh                         
080725CE 1C10     mov     r0,r2                          
080725D0 4008     and     r0,r1                          
080725D2 2180     mov     r1,80h                         
080725D4 4308     orr     r0,r1                          
080725D6 7018     strb    r0,[r3]                        
080725D8 6828     ldr     r0,[r5]                        
080725DA 4908     ldr     r1,=3B3h                       
080725DC 1840     add     r0,r0,r1                       
080725DE 7801     ldrb    r1,[r0]                        
080725E0 400A     and     r2,r1                          
080725E2 7002     strb    r2,[r0]

@@OtherPeer:                        
080725E4 6828     ldr     r0,[r5]                        
080725E6 3048     add     r0,48h                         
080725E8 2100     mov     r1,0h                          
080725EA 7001     strb    r1,[r0]  ;170C归零

@@BigPeer:                        
080725EC 6829     ldr     r1,[r5]                        
080725EE 3147     add     r1,47h                         
080725F0 7808     ldrb    r0,[r1]                        
080725F2 3001     add     r0,1h                          
080725F4 7008     strb    r0,[r1]  ;170B的值加一再写入                      
080725F6 E035     b       @@end    ;pose                   
.pool

;pose5                      
08072600 6829     ldr     r1,[r5]                        
08072602 3148     add     r1,48h                         
08072604 7808     ldrb    r0,[r1]                        
08072606 3001     add     r0,1h                          
08072608 2200     mov     r2,0h                          
0807260A 7008     strb    r0,[r1]                        
0807260C 6828     ldr     r0,[r5]                        
0807260E 1C01     mov     r1,r0                          
08072610 3148     add     r1,48h                         
08072612 7808     ldrb    r0,[r1]                        
08072614 2814     cmp     r0,14h                         
08072616 D925     bls     @@end                       
08072618 700A     strb    r2,[r1]                        
0807261A 6828     ldr     r0,[r5]                        
0807261C 3047     add     r0,47h                         
0807261E 7002     strb    r2,[r0]                        
08072620 6829     ldr     r1,[r5]                        
08072622 3146     add     r1,46h                         
08072624 7808     ldrb    r0,[r1]                        
08072626 2201     mov     r2,1h                          
08072628 4050     eor     r0,r2                          
0807262A 7008     strb    r0,[r1]                        
0807262C E01A     b       @@end  

;pose6                     
0807262E 6829     ldr     r1,[r5]                        
08072630 3148     add     r1,48h                         
08072632 7808     ldrb    r0,[r1]                        
08072634 3001     add     r0,1h                          
08072636 7008     strb    r0,[r1]                        
08072638 682A     ldr     r2,[r5]                        
0807263A 1C10     mov     r0,r2                          
0807263C 3048     add     r0,48h                         
0807263E 7800     ldrb    r0,[r0]                        
08072640 283C     cmp     r0,3Ch                         
08072642 D90F     bls     @@end                       
08072644 4B09     ldr     r3,=3B3h                       
08072646 18D2     add     r2,r2,r3                       
08072648 7811     ldrb    r1,[r2]                        
0807264A 203F     mov     r0,3Fh                         
0807264C 4008     and     r0,r1                          
0807264E 2180     mov     r1,80h                         
08072650 4308     orr     r0,r1                          
08072652 7010     strb    r0,[r2]                        
08072654 6828     ldr     r0,[r5]                        
08072656 3048     add     r0,48h                         
08072658 2100     mov     r1,0h                          
0807265A 7001     strb    r1,[r0]                        
0807265C 6828     ldr     r0,[r5]                        
0807265E 3047     add     r0,47h                         
08072660 2102     mov     r1,2h                          
08072662 7001     strb    r1,[r0]

@@end:                        
08072664 BCF0     pop     r4-r7                          
08072666 BC01     pop     r0                             
08072668 4700     bx      r0


080728B8 B5F0     push    r4-r7,r14                      
080728BA 4647     mov     r7,r8                          
080728BC B480     push    r7                             
080728BE B081     add     sp,-4h                         
080728C0 2000     mov     r0,0h                          
080728C2 4680     mov     r8,r0                          
080728C4 F7FFFC9E bl      8072204h                       
080728C8 F7FFFED2 bl      8072670h                       
080728CC 4805     ldr     r0,=8754BC4h                   
080728CE 6800     ldr     r0,[r0]                        
080728D0 7A00     ldrb    r0,[r0,8h]                     
080728D2 2809     cmp     r0,9h                          
080728D4 D900     bls     @@Pass                       
080728D6 E112     b       @@end   

@@Pass:                    
080728D8 0080     lsl     r0,r0,2h                       
080728DA 4903     ldr     r1,=80728ECh                   
080728DC 1840     add     r0,r0,r1                       
080728DE 6800     ldr     r0,[r0]                        
080728E0 4687     mov     r15,r0                         
.pool

.word 08072AB8 ;0
.word 08072914 ;1
.word 08072928 ;2
.word 0807294C ;3
.word 08072974 ;4
.word 080729A0 ;5
.word 080729E0 ;6
.word 08072A58 ;7
.word 08072AB8 ;8
.word 08072AD4 ;9                     
 
;pose1 
08072914 4A03     ldr     r2,=8754BC4h                   
08072916 6810     ldr     r0,[r2]                        
08072918 3047     add     r0,47h                         
0807291A 2300     mov     r3,0h                          
0807291C 2101     mov     r1,1h                          
0807291E 7001     strb    r1,[r0]    ;170B写入1                     
08072920 E055     b       @@Peer                      
.pool  

;pose2                     
08072928 4B07     ldr     r3,=8754BC4h                   
0807292A 6819     ldr     r1,[r3]                        
0807292C 1C08     mov     r0,r1                          
0807292E 3046     add     r0,46h                         
08072930 7800     ldrb    r0,[r0]  ;170A                      
08072932 2203     mov     r2,3h                          
08072934 4002     and     r2,r0                          
08072936 2A00     cmp     r2,0h                          
08072938 D000     beq     @@Pass2                       
0807293A E0E0     b       @@end  

@@Pass2:                     
0807293C 7A08     ldrb    r0,[r1,8h]                     
0807293E 3001     add     r0,1h                          
08072940 7208     strb    r0,[r1,8h]  ;16cc pose加1                   
08072942 6818     ldr     r0,[r3]                        
08072944 8142     strh    r2,[r0,0Ah] ;16ce 归零                   
08072946 E0DA     b       @@end                       
.pool

;pose3                      
0807294C 4905     ldr     r1,=8754BC4h                   
0807294E 680A     ldr     r2,[r1]                        
08072950 1C10     mov     r0,r2                          
08072952 3042     add     r0,42h                         
08072954 7800     ldrb    r0,[r0]     ;1706                      
08072956 0600     lsl     r0,r0,18h                      
08072958 1600     asr     r0,r0,18h                      
0807295A 2800     cmp     r0,0h                          
0807295C DB04     blt     @@LessThan0                       
0807295E 7A10     ldrb    r0,[r2,8h]                     
08072960 3001     add     r0,1h                          
08072962 E002     b       @@Goto                       
.pool

@@LessThan0:                     
08072968 2008     mov     r0,8h 

@@Goto:                         
0807296A 7210     strb    r0,[r2,8h]                     
0807296C 6809     ldr     r1,[r1]                        
0807296E 2000     mov     r0,0h                          
08072970 8148     strh    r0,[r1,0Ah] ;16CC写入0                  
08072972 E0C4     b       @@end   

;pose4                    
08072974 4D09     ldr     r5,=8754BC4h                   
08072976 682B     ldr     r3,[r5]                        
08072978 8958     ldrh    r0,[r3,0Ah]  ;16ce                  
0807297A 283C     cmp     r0,3Ch                         
0807297C D800     bhi     @@Pass3                       
0807297E E0BE     b       @@end 

@@Pass3:                      
08072980 1C1C     mov     r4,r3                          
08072982 3466     add     r4,66h                         
08072984 8821     ldrh    r1,[r4]      ;172A                     
08072986 2018     mov     r0,18h                         
08072988 2200     mov     r2,0h                          
0807298A 4308     orr     r0,r1                          
0807298C 8020     strh    r0,[r4]      ;172A写入5A                   
0807298E 7A18     ldrb    r0,[r3,8h]                     
08072990 3001     add     r0,1h                          
08072992 7218     strb    r0,[r3,8h]   ;pose加1 时间归零                  
08072994 6828     ldr     r0,[r5]                        
08072996 8142     strh    r2,[r0,0Ah]                    
08072998 E0B1     b       @@end                       
.pool

;pose5                    
080729A0 4C08     ldr     r4,=30013B2h                   
080729A2 8821     ldrh    r1,[r4]                        
080729A4 4A08     ldr     r2,=30013B0h                   
080729A6 8810     ldrh    r0,[r2]                        
080729A8 180B     add     r3,r1,r0                       
080729AA 2B00     cmp     r3,0h                          
080729AC D00E     beq     @@Zero                      
080729AE 2900     cmp     r1,0h                          
080729B0 D001     beq     @@NoSub                      
080729B2 1E48     sub     r0,r1,1                        
080729B4 8020     strh    r0,[r4] 

@@NoSub:                       
080729B6 8810     ldrh    r0,[r2]                        
080729B8 2800     cmp     r0,0h                          
080729BA D100     bne     @@Sub1                     
080729BC E09F     b       @@end 

@@Sub1:                      
080729BE 3801     sub     r0,1h                          
080729C0 8010     strh    r0,[r2]                        
080729C2 E09C     b       @@end                       

@@Zero:                     
080729CC 4A03     ldr     r2,=8754BC4h 

@@Peer:                  
080729CE 6811     ldr     r1,[r2]                        
080729D0 7A08     ldrb    r0,[r1,8h]   ;16cc pose加1再写入                  
080729D2 3001     add     r0,1h                          
080729D4 7208     strb    r0,[r1,8h]                     
080729D6 6810     ldr     r0,[r2]                        
080729D8 8143     strh    r3,[r0,0Ah]  ;16ce写入0                  
080729DA E090     b       @@end                       
.pool

;pose6                     
080729E0 4C1A     ldr     r4,=8754BC4h                   
080729E2 6821     ldr     r1,[r4]                        
080729E4 3141     add     r1,41h                         
080729E6 7808     ldrb    r0,[r1]      ;1705                     
080729E8 3001     add     r0,1h                          
080729EA 2500     mov     r5,0h                          
080729EC 7008     strb    r0,[r1]      ;加1在写入                     
080729EE 6821     ldr     r1,[r4]                        
080729F0 1C08     mov     r0,r1                          
080729F2 3042     add     r0,42h                         
080729F4 7800     ldrb    r0,[r0]      ;1706                     
080729F6 7488     strb    r0,[r1,12h]  ;写入16D6                  
080729F8 6820     ldr     r0,[r4]                        
080729FA 2282     mov     r2,82h                         
080729FC 0052     lsl     r2,r2,1h                       
080729FE 1881     add     r1,r0,r2     ;17c8                   
08072A00 7C80     ldrb    r0,[r0,12h]                    
08072A02 02C0     lsl     r0,r0,0Bh                      
08072A04 6809     ldr     r1,[r1]                        
08072A06 1809     add     r1,r1,r0                       
08072A08 4A11     ldr     r2,=600E000h                   
08072A0A 2380     mov     r3,80h                         
08072A0C 011B     lsl     r3,r3,4h                       
08072A0E 2010     mov     r0,10h                         
08072A10 9000     str     r0,[sp]                        
08072A12 2003     mov     r0,3h                          
08072A14 F790FBE6 bl      80031E4h                       
08072A18 2001     mov     r0,1h                          
08072A1A F000F8CD bl      8072BB8h                       
08072A1E 2001     mov     r0,1h                          
08072A20 F7FBF89A bl      806DB58h                       
08072A24 6821     ldr     r1,[r4]                        
08072A26 2285     mov     r2,85h                         
08072A28 00D2     lsl     r2,r2,3h                       
08072A2A 1888     add     r0,r1,r2                       
08072A2C 4A09     ldr     r2,=840D180h                   
08072A2E 7C89     ldrb    r1,[r1,12h]                    
08072A30 1889     add     r1,r1,r2                       
08072A32 7809     ldrb    r1,[r1]                        
08072A34 F7F5FB78 bl      8068128h                       
08072A38 F7F5FF30 bl      806889Ch                       
08072A3C 6821     ldr     r1,[r4]                        
08072A3E 7A08     ldrb    r0,[r1,8h]                     
08072A40 3001     add     r0,1h                          
08072A42 7208     strb    r0,[r1,8h]                     
08072A44 6820     ldr     r0,[r4]                        
08072A46 8145     strh    r5,[r0,0Ah]                    
08072A48 E059     b       @@end                       
.pool 
                    
;pose7                      
08072A58 480C     ldr     r0,=8754BC4h                   
08072A5A 4684     mov     r12,r0                         
08072A5C 6803     ldr     r3,[r0]                        
08072A5E 1C1E     mov     r6,r3                          
08072A60 3668     add     r6,68h                         
08072A62 8834     ldrh    r4,[r6]                        
08072A64 4F0A     ldr     r7,=30013B2h                   
08072A66 883A     ldrh    r2,[r7]                        
08072A68 0210     lsl     r0,r2,8h                       
08072A6A 4D0A     ldr     r5,=30013B0h                   
08072A6C 8829     ldrh    r1,[r5]                        
08072A6E 4308     orr     r0,r1                          
08072A70 4284     cmp     r4,r0                          
08072A72 D011     beq     8072A98h                       
08072A74 0A20     lsr     r0,r4,8h                       
08072A76 4290     cmp     r0,r2                          
08072A78 D901     bls     8072A7Eh                       
08072A7A 1C50     add     r0,r2,1                        
08072A7C 8038     strh    r0,[r7]                        
08072A7E 8829     ldrh    r1,[r5]                        
08072A80 7830     ldrb    r0,[r6]                        
08072A82 4288     cmp     r0,r1                          
08072A84 D93B     bls     @@end                       
08072A86 1C48     add     r0,r1,1                        
08072A88 8028     strh    r0,[r5]                        
08072A8A E038     b       @@end                       
08072A8C 4BC4     ldr     r3,=840E02Ch                   
08072A8E 0875     lsr     r5,r6,1h                       
08072A90 13B2     asr     r2,r6,0Eh                      
08072A92 0300     lsl     r0,r0,0Ch                      
08072A94 13B0     asr     r0,r6,0Eh                      
08072A96 0300     lsl     r0,r0,0Ch                      
08072A98 1C1C     mov     r4,r3                          
08072A9A 3466     add     r4,66h                         
08072A9C 8821     ldrh    r1,[r4]                        
08072A9E 4805     ldr     r0,=0FFE7h                     
08072AA0 4008     and     r0,r1                          
08072AA2 2100     mov     r1,0h                          
08072AA4 2200     mov     r2,0h                          
08072AA6 8020     strh    r0,[r4]                        
08072AA8 7219     strb    r1,[r3,8h]                     
08072AAA 4661     mov     r1,r12                         
08072AAC 6808     ldr     r0,[r1]                        
08072AAE 8142     strh    r2,[r0,0Ah]                    
08072AB0 E025     b       @@end                       
.pool

@@PoseZero:                     
08072AB8 4B05     ldr     r3,=8754BC4h                   
08072ABA 681A     ldr     r2,[r3]                        
08072ABC 8950     ldrh    r0,[r2,0Ah]   ;读取16DE                 
08072ABE 2828     cmp     r0,28h                         
08072AC0 D91D     bls     @@end                       
08072AC2 7A10     ldrb    r0,[r2,8h]                     
08072AC4 3001     add     r0,1h                          
08072AC6 2100     mov     r1,0h                          
08072AC8 7210     strb    r0,[r2,8h]                     
08072ACA 6818     ldr     r0,[r3]                        
08072ACC 8141     strh    r1,[r0,0Ah]                    
08072ACE E016     b       @@end                       
.pool

;pose9
08072AD4 4803     ldr     r0,=30013D2h                   
08072AD6 7800     ldrb    r0,[r0]                        
08072AD8 2800     cmp     r0,0h                          
08072ADA D005     beq     8072AE8h                       
08072ADC 2201     mov     r2,1h                          
08072ADE 4690     mov     r8,r2                          
08072AE0 E00D     b       @@end                       
08072AE2 0000     lsl     r0,r0,0h                       
08072AE4 13D2     asr     r2,r2,0Fh                      
08072AE6 0300     lsl     r0,r0,0Ch                      
08072AE8 4A08     ldr     r2,=3001380h                   
08072AEA 4809     ldr     r0,=300168Ch                   
08072AEC 8880     ldrh    r0,[r0,4h]                     
08072AEE 2101     mov     r1,1h                          
08072AF0 4308     orr     r0,r1                          
08072AF2 8811     ldrh    r1,[r2]                        
08072AF4 4008     and     r0,r1                          
08072AF6 2800     cmp     r0,0h                          
08072AF8 D001     beq     @@end                       
08072AFA 2001     mov     r0,1h                          
08072AFC 4680     mov     r8,r0 

@@end:                         
08072AFE 4640     mov     r0,r8                          
08072B00 B001     add     sp,4h                          
08072B02 BC08     pop     r3                             
08072B04 4698     mov     r8,r3                          
08072B06 BCF0     pop     r4-r7                          
08072B08 BC02     pop     r1                             
08072B0A 4708     bx      r1   
.pool
                     
08072B14 B5F0     push    r4-r7,r14                      
08072B16 1C04     mov     r4,r0                          
08072B18 1C0E     mov     r6,r1                          
08072B1A 4F15     ldr     r7,=8345934h                   
08072B1C 2000     mov     r0,0h                          
08072B1E 5618     ldsb    r0,[r3,r0]                     
08072B20 00C0     lsl     r0,r0,3h                       
08072B22 19C0     add     r0,r0,r7                       
08072B24 4684     mov     r12,r0                         
08072B26 4813     ldr     r0,=8754BC4h                   
08072B28 6800     ldr     r0,[r0]                        
08072B2A 4665     mov     r5,r12                         
08072B2C 7829     ldrb    r1,[r5]                        
08072B2E 7C85     ldrb    r5,[r0,12h]                    
08072B30 42A9     cmp     r1,r5                          
08072B32 D121     bne     8072B78h                       
08072B34 4665     mov     r5,r12                         
08072B36 7929     ldrb    r1,[r5,4h]                     
08072B38 3042     add     r0,42h                         
08072B3A 7001     strb    r1,[r0]                        
08072B3C 2000     mov     r0,0h                          
08072B3E 5618     ldsb    r0,[r3,r0]                     
08072B40 00C0     lsl     r0,r0,3h                       
08072B42 19C0     add     r0,r0,r7                       
08072B44 7880     ldrb    r0,[r0,2h]                     
08072B46 7020     strb    r0,[r4]                        
08072B48 7820     ldrb    r0,[r4]                        
08072B4A 0140     lsl     r0,r0,5h                       
08072B4C 8050     strh    r0,[r2,2h]                     
08072B4E 2000     mov     r0,0h                          
08072B50 5618     ldsb    r0,[r3,r0]                     
08072B52 00C0     lsl     r0,r0,3h                       
08072B54 19C0     add     r0,r0,r7                       
08072B56 78C0     ldrb    r0,[r0,3h]                     
08072B58 7030     strb    r0,[r6]                        
08072B5A 7830     ldrb    r0,[r6]                        
08072B5C 3004     add     r0,4h                          
08072B5E 0140     lsl     r0,r0,5h                       
08072B60 8010     strh    r0,[r2]                        
08072B62 2001     mov     r0,1h                          
08072B64 5618     ldsb    r0,[r3,r0]                     
08072B66 2800     cmp     r0,0h                          
08072B68 DA21     bge     8072BAEh                       
08072B6A 2002     mov     r0,2h                          
08072B6C E020     b       8072BB0h                       
08072B6E 0000     lsl     r0,r0,0h                       
08072B70 5934     ldr     r4,[r6,r4]                     
08072B72 0834     lsr     r4,r6,20h                      
08072B74 4BC4     ldr     r3,=197B3116h                  
08072B76 0875     lsr     r5,r6,1h                       
08072B78 3042     add     r0,42h                         
08072B7A 7001     strb    r1,[r0]                        
08072B7C 2000     mov     r0,0h                          
08072B7E 5618     ldsb    r0,[r3,r0]                     
08072B80 00C0     lsl     r0,r0,3h                       
08072B82 19C0     add     r0,r0,r7                       
08072B84 7980     ldrb    r0,[r0,6h]                     
08072B86 7020     strb    r0,[r4]                        
08072B88 7820     ldrb    r0,[r4]                        
08072B8A 0140     lsl     r0,r0,5h                       
08072B8C 8050     strh    r0,[r2,2h]                     
08072B8E 2000     mov     r0,0h                          
08072B90 5618     ldsb    r0,[r3,r0]                     
08072B92 00C0     lsl     r0,r0,3h                       
08072B94 19C0     add     r0,r0,r7                       
08072B96 79C0     ldrb    r0,[r0,7h]                     
08072B98 7030     strb    r0,[r6]                        
08072B9A 7830     ldrb    r0,[r6]                        
08072B9C 3803     sub     r0,3h                          
08072B9E 0140     lsl     r0,r0,5h                       
08072BA0 8010     strh    r0,[r2]                        
08072BA2 2001     mov     r0,1h                          
08072BA4 5618     ldsb    r0,[r3,r0]                     
08072BA6 2800     cmp     r0,0h                          
08072BA8 DA01     bge     8072BAEh                       
08072BAA 2002     mov     r0,2h                          
08072BAC E000     b       8072BB0h                       
08072BAE 2003     mov     r0,3h                          
08072BB0 7290     strb    r0,[r2,0Ah]                    
08072BB2 BCF0     pop     r4-r7                          
08072BB4 BC01     pop     r0                             
08072BB6 4700     bx      r0                             
08072BB8 B5F0     push    r4-r7,r14                      
08072BBA 464F     mov     r7,r9                          
08072BBC 4646     mov     r6,r8                          
08072BBE B4C0     push    r6,r7                          
08072BC0 B085     add     sp,-14h                        
08072BC2 0600     lsl     r0,r0,18h                      
08072BC4 0E07     lsr     r7,r0,18h                      
08072BC6 490B     ldr     r1,=840D038h                   
08072BC8 2010     mov     r0,10h                         
08072BCA 9000     str     r0,[sp]                        
08072BCC 2003     mov     r0,3h                          
08072BCE AA01     add     r2,sp,4h                       
08072BD0 2310     mov     r3,10h                         
08072BD2 F790FB07 bl      80031E4h                       
08072BD6 4808     ldr     r0,=8754BC4h                   
08072BD8 6800     ldr     r0,[r0]                        
08072BDA 8801     ldrh    r1,[r0]                        
08072BDC 2002     mov     r0,2h                          
08072BDE 4008     and     r0,r1                          
08072BE0 2800     cmp     r0,0h                          
08072BE2 D00B     beq     8072BFCh                       
08072BE4 AA01     add     r2,sp,4h                       
08072BE6 7AD1     ldrb    r1,[r2,0Bh]                    
08072BE8 2004     mov     r0,4h                          
08072BEA 4240     neg     r0,r0                          
08072BEC 4008     and     r0,r1                          
08072BEE 72D0     strb    r0,[r2,0Bh]                    
08072BF0 E009     b       8072C06h                       
08072BF2 0000     lsl     r0,r0,0h                       
08072BF4 D038     beq     8072C68h                       
08072BF6 0840     lsr     r0,r0,1h                       
08072BF8 4BC4     ldr     r3,=79B01846h                  
08072BFA 0875     lsr     r5,r6,1h                       
08072BFC A801     add     r0,sp,4h                       
08072BFE 7AC1     ldrb    r1,[r0,0Bh]                    
08072C00 2203     mov     r2,3h                          
08072C02 4311     orr     r1,r2                          
08072C04 72C1     strb    r1,[r0,0Bh]                    
08072C06 2F00     cmp     r7,0h                          
08072C08 D13A     bne     8072C80h                       
08072C0A 481A     ldr     r0,=8754BC4h                   
08072C0C 6800     ldr     r0,[r0]                        
08072C0E 21BA     mov     r1,0BAh                        
08072C10 0089     lsl     r1,r1,2h                       
08072C12 1844     add     r4,r0,r1                       
08072C14 2620     mov     r6,20h                         
08072C16 250B     mov     r5,0Bh                         
08072C18 9600     str     r6,[sp]                        
08072C1A 2003     mov     r0,3h                          
08072C1C A901     add     r1,sp,4h                       
08072C1E 1C22     mov     r2,r4                          
08072C20 2310     mov     r3,10h                         
08072C22 F790FADF bl      80031E4h                       
08072C26 3D01     sub     r5,1h                          
08072C28 3410     add     r4,10h                         
08072C2A 2D00     cmp     r5,0h                          
08072C2C DAF4     bge     8072C18h                       
08072C2E 4811     ldr     r0,=8754BC4h                   
08072C30 6800     ldr     r0,[r0]                        
08072C32 21EA     mov     r1,0EAh                        
08072C34 0089     lsl     r1,r1,2h                       
08072C36 1844     add     r4,r0,r1                       
08072C38 2620     mov     r6,20h                         
08072C3A 2504     mov     r5,4h                          
08072C3C 9600     str     r6,[sp]                        
08072C3E 2003     mov     r0,3h                          
08072C40 A901     add     r1,sp,4h                       
08072C42 1C22     mov     r2,r4                          
08072C44 2310     mov     r3,10h                         
08072C46 F790FACD bl      80031E4h                       
08072C4A 3D01     sub     r5,1h                          
08072C4C 3410     add     r4,10h                         
08072C4E 2D00     cmp     r5,0h                          
08072C50 DAF4     bge     8072C3Ch                       
08072C52 4A08     ldr     r2,=8754BC4h                   
08072C54 6810     ldr     r0,[r2]                        
08072C56 3041     add     r0,41h                         
08072C58 2100     mov     r1,0h                          
08072C5A 7001     strb    r1,[r0]                        
08072C5C 6810     ldr     r0,[r2]                        
08072C5E 3040     add     r0,40h                         
08072C60 21FF     mov     r1,0FFh                        
08072C62 7001     strb    r1,[r0]                        
08072C64 6810     ldr     r0,[r2]                        
08072C66 3042     add     r0,42h                         
08072C68 2101     mov     r1,1h                          
08072C6A 4249     neg     r1,r1                          
08072C6C 7001     strb    r1,[r0]                        
08072C6E F000FA2D bl      80730CCh                       
08072C72 E029     b       8072CC8h                       
08072C74 4BC4     ldr     r3,=20003410h                  
08072C76 0875     lsr     r5,r6,1h                       
08072C78 1C10     mov     r0,r2                          
08072C7A 3040     add     r0,40h                         
08072C7C 7005     strb    r5,[r0]                        
08072C7E E060     b       8072D42h                       
08072C80 4846     ldr     r0,=8754BC4h                   
08072C82 6800     ldr     r0,[r0]                        
08072C84 21BA     mov     r1,0BAh                        
08072C86 0089     lsl     r1,r1,2h                       
08072C88 1844     add     r4,r0,r1                       
08072C8A 2620     mov     r6,20h                         
08072C8C 250B     mov     r5,0Bh                         
08072C8E 9600     str     r6,[sp]                        
08072C90 2003     mov     r0,3h                          
08072C92 A901     add     r1,sp,4h                       
08072C94 1C22     mov     r2,r4                          
08072C96 2310     mov     r3,10h                         
08072C98 F790FAA4 bl      80031E4h                       
08072C9C 3D01     sub     r5,1h                          
08072C9E 3410     add     r4,10h                         
08072CA0 2D00     cmp     r5,0h                          
08072CA2 DAF4     bge     8072C8Eh                       
08072CA4 483D     ldr     r0,=8754BC4h                   
08072CA6 6800     ldr     r0,[r0]                        
08072CA8 21EA     mov     r1,0EAh                        
08072CAA 0089     lsl     r1,r1,2h                       
08072CAC 1844     add     r4,r0,r1                       
08072CAE 2620     mov     r6,20h                         
08072CB0 2504     mov     r5,4h                          
08072CB2 9600     str     r6,[sp]                        
08072CB4 2003     mov     r0,3h                          
08072CB6 A901     add     r1,sp,4h                       
08072CB8 1C22     mov     r2,r4                          
08072CBA 2310     mov     r3,10h                         
08072CBC F790FA92 bl      80031E4h                       
08072CC0 3D01     sub     r5,1h                          
08072CC2 3410     add     r4,10h                         
08072CC4 2D00     cmp     r5,0h                          
08072CC6 DAF4     bge     8072CB2h                       
08072CC8 4A34     ldr     r2,=8754BC4h                   
08072CCA 6813     ldr     r3,[r2]                        
08072CCC 20BA     mov     r0,0BAh                        
08072CCE 0080     lsl     r0,r0,2h                       
08072CD0 181C     add     r4,r3,r0                       
08072CD2 4E33     ldr     r6,=840E02Ch                   
08072CD4 8819     ldrh    r1,[r3]                        
08072CD6 2010     mov     r0,10h                         
08072CD8 4008     and     r0,r1                          
08072CDA 4690     mov     r8,r2                          
08072CDC 2800     cmp     r0,0h                          
08072CDE D100     bne     8072CE2h                       
08072CE0 E0D9     b       8072E96h                       
08072CE2 21BE     mov     r1,0BEh                        
08072CE4 0089     lsl     r1,r1,2h                       
08072CE6 18C9     add     r1,r1,r3                       
08072CE8 4689     mov     r9,r1                          
08072CEA 3EB4     sub     r6,0B4h                        
08072CEC 46B4     mov     r12,r6                         
08072CEE 2F00     cmp     r7,0h                          
08072CF0 D127     bne     8072D42h                       
08072CF2 2500     mov     r5,0h                          
08072CF4 20BE     mov     r0,0BEh                        
08072CF6 0080     lsl     r0,r0,2h                       
08072CF8 18C0     add     r0,r0,r3                       
08072CFA 4681     mov     r9,r0                          
08072CFC 1C1A     mov     r2,r3                          
08072CFE 1C10     mov     r0,r2                          
08072D00 3044     add     r0,44h                         
08072D02 8807     ldrh    r7,[r0]                        
08072D04 2300     mov     r3,0h                          
08072D06 1C38     mov     r0,r7                          
08072D08 4128     asr     r0,r5                          
08072D0A 2101     mov     r1,1h                          
08072D0C 4008     and     r0,r1                          
08072D0E 2800     cmp     r0,0h                          
08072D10 D013     beq     8072D3Ah                       
08072D12 4661     mov     r1,r12                         
08072D14 185E     add     r6,r3,r1                       
08072D16 7830     ldrb    r0,[r6]                        
08072D18 7C91     ldrb    r1,[r2,12h]                    
08072D1A 4288     cmp     r0,r1                          
08072D1C D10D     bne     8072D3Ah                       
08072D1E 78F0     ldrb    r0,[r6,3h]                     
08072D20 7D11     ldrb    r1,[r2,14h]                    
08072D22 4288     cmp     r0,r1                          
08072D24 D809     bhi     8072D3Ah                       
08072D26 7930     ldrb    r0,[r6,4h]                     
08072D28 4281     cmp     r1,r0                          
08072D2A D806     bhi     8072D3Ah                       
08072D2C 7870     ldrb    r0,[r6,1h]                     
08072D2E 7CD1     ldrb    r1,[r2,13h]                    
08072D30 4288     cmp     r0,r1                          
08072D32 D802     bhi     8072D3Ah                       
08072D34 78B6     ldrb    r6,[r6,2h]                     
08072D36 42B1     cmp     r1,r6                          
08072D38 D99E     bls     8072C78h                       
08072D3A 330C     add     r3,0Ch                         
08072D3C 3501     add     r5,1h                          
08072D3E 2D0F     cmp     r5,0Fh                         
08072D40 DDE1     ble     8072D06h                       
08072D42 4916     ldr     r1,=8754BC4h                   
08072D44 4688     mov     r8,r1                          
08072D46 680A     ldr     r2,[r1]                        
08072D48 1C10     mov     r0,r2                          
08072D4A 3040     add     r0,40h                         
08072D4C 2100     mov     r1,0h                          
08072D4E 5641     ldsb    r1,[r0,r1]                     
08072D50 0048     lsl     r0,r1,1h                       
08072D52 1840     add     r0,r0,r1                       
08072D54 0080     lsl     r0,r0,2h                       
08072D56 4661     mov     r1,r12                         
08072D58 1846     add     r6,r0,r1                       
08072D5A 7833     ldrb    r3,[r6]                        
08072D5C 79B0     ldrb    r0,[r6,6h]                     
08072D5E 4283     cmp     r3,r0                          
08072D60 D120     bne     8072DA4h                       
08072D62 7CD0     ldrb    r0,[r2,13h]                    
08072D64 0140     lsl     r0,r0,5h                       
08072D66 8060     strh    r0,[r4,2h]                     
08072D68 7D10     ldrb    r0,[r2,14h]                    
08072D6A 0140     lsl     r0,r0,5h                       
08072D6C 8020     strh    r0,[r4]                        
08072D6E 7970     ldrb    r0,[r6,5h]                     
08072D70 72A0     strb    r0,[r4,0Ah]                    
08072D72 464C     mov     r4,r9                          
08072D74 4640     mov     r0,r8                          
08072D76 6801     ldr     r1,[r0]                        
08072D78 79F0     ldrb    r0,[r6,7h]                     
08072D7A 7548     strb    r0,[r1,15h]                    
08072D7C 4640     mov     r0,r8                          
08072D7E 6801     ldr     r1,[r0]                        
08072D80 7A30     ldrb    r0,[r6,8h]                     
08072D82 7588     strb    r0,[r1,16h]                    
08072D84 7A70     ldrb    r0,[r6,9h]                     
08072D86 72A0     strb    r0,[r4,0Ah]                    
08072D88 4640     mov     r0,r8                          
08072D8A 6801     ldr     r1,[r0]                        
08072D8C 7D48     ldrb    r0,[r1,15h]                    
08072D8E 0140     lsl     r0,r0,5h                       
08072D90 8060     strh    r0,[r4,2h]                     
08072D92 7D88     ldrb    r0,[r1,16h]                    
08072D94 0140     lsl     r0,r0,5h                       
08072D96 8020     strh    r0,[r4]                        
08072D98 3410     add     r4,10h                         
08072D9A E11E     b       8072FDAh                       
08072D9C 4BC4     ldr     r3,=20037801h                  
08072D9E 0875     lsr     r5,r6,1h                       
08072DA0 E02C     b       8072DFCh                       
08072DA2 0840     lsr     r0,r0,1h                       
08072DA4 490F     ldr     r1,=87603F0h                   
08072DA6 4810     ldr     r0,=3000054h                   
08072DA8 7800     ldrb    r0,[r0]                        
08072DAA 0080     lsl     r0,r0,2h                       
08072DAC 1840     add     r0,r0,r1                       
08072DAE 6807     ldr     r7,[r0]                        
08072DB0 79B1     ldrb    r1,[r6,6h]                     
08072DB2 0048     lsl     r0,r1,1h                       
08072DB4 1840     add     r0,r0,r1                       
08072DB6 0040     lsl     r0,r0,1h                       
08072DB8 183F     add     r7,r7,r0                       
08072DBA 7C90     ldrb    r0,[r2,12h]                    
08072DBC 4298     cmp     r0,r3                          
08072DBE D115     bne     8072DECh                       
08072DC0 7CD0     ldrb    r0,[r2,13h]                    
08072DC2 0140     lsl     r0,r0,5h                       
08072DC4 8060     strh    r0,[r4,2h]                     
08072DC6 7D10     ldrb    r0,[r2,14h]                    
08072DC8 0140     lsl     r0,r0,5h                       
08072DCA 8020     strh    r0,[r4]                        
08072DCC 7970     ldrb    r0,[r6,5h]                     
08072DCE 72A0     strb    r0,[r4,0Ah]                    
08072DD0 464C     mov     r4,r9                          
08072DD2 4640     mov     r0,r8                          
08072DD4 6801     ldr     r1,[r0]                        
08072DD6 1C08     mov     r0,r1                          
08072DD8 3015     add     r0,15h                         
08072DDA 3116     add     r1,16h                         
08072DDC 1C22     mov     r2,r4                          
08072DDE 1C3B     mov     r3,r7                          
08072DE0 E055     b       8072E8Eh                       
08072DE2 0000     lsl     r0,r0,0h                       
08072DE4 03F0     lsl     r0,r6,0Fh                      
08072DE6 0876     lsr     r6,r6,1h                       
08072DE8 0054     lsl     r4,r2,1h                       
08072DEA 0300     lsl     r0,r0,0Ch                      
08072DEC 1C10     mov     r0,r2                          
08072DEE 3042     add     r0,42h                         
08072DF0 7800     ldrb    r0,[r0]                        
08072DF2 0600     lsl     r0,r0,18h                      
08072DF4 1600     asr     r0,r0,18h                      
08072DF6 4288     cmp     r0,r1                          
08072DF8 D12A     bne     8072E50h                       
08072DFA 1C10     mov     r0,r2                          
08072DFC 3041     add     r0,41h                         
08072DFE 7800     ldrb    r0,[r0]                        
08072E00 3801     sub     r0,1h                          
08072E02 0045     lsl     r5,r0,1h                       
08072E04 1C10     mov     r0,r2                          
08072E06 3013     add     r0,13h                         
08072E08 1C11     mov     r1,r2                          
08072E0A 3114     add     r1,14h                         
08072E0C 197B     add     r3,r7,r5                       
08072E0E 1C22     mov     r2,r4                          
08072E10 F7FFFE80 bl      8072B14h                       
08072E14 7AE1     ldrb    r1,[r4,0Bh]                    
08072E16 203F     mov     r0,3Fh                         
08072E18 4008     and     r0,r1                          
08072E1A 2140     mov     r1,40h                         
08072E1C 4308     orr     r0,r1                          
08072E1E 72E0     strb    r0,[r4,0Bh]                    
08072E20 464C     mov     r4,r9                          
08072E22 4640     mov     r0,r8                          
08072E24 6801     ldr     r1,[r0]                        
08072E26 79F0     ldrb    r0,[r6,7h]                     
08072E28 7548     strb    r0,[r1,15h]                    
08072E2A 4640     mov     r0,r8                          
08072E2C 6801     ldr     r1,[r0]                        
08072E2E 7A30     ldrb    r0,[r6,8h]                     
08072E30 7588     strb    r0,[r1,16h]                    
08072E32 79F0     ldrb    r0,[r6,7h]                     
08072E34 0140     lsl     r0,r0,5h                       
08072E36 8060     strh    r0,[r4,2h]                     
08072E38 7A30     ldrb    r0,[r6,8h]                     
08072E3A 0140     lsl     r0,r0,5h                       
08072E3C 8020     strh    r0,[r4]                        
08072E3E 7A70     ldrb    r0,[r6,9h]                     
08072E40 72A0     strb    r0,[r4,0Ah]                    
08072E42 3410     add     r4,10h                         
08072E44 4641     mov     r1,r8                          
08072E46 6808     ldr     r0,[r1]                        
08072E48 3042     add     r0,42h                         
08072E4A 21FF     mov     r1,0FFh                        
08072E4C 7001     strb    r1,[r0]                        
08072E4E E0C4     b       8072FDAh                       
08072E50 1C10     mov     r0,r2                          
08072E52 3041     add     r0,41h                         
08072E54 7800     ldrb    r0,[r0]                        
08072E56 3801     sub     r0,1h                          
08072E58 0045     lsl     r5,r0,1h                       
08072E5A 1C10     mov     r0,r2                          
08072E5C 3013     add     r0,13h                         
08072E5E 1C11     mov     r1,r2                          
08072E60 3114     add     r1,14h                         
08072E62 197B     add     r3,r7,r5                       
08072E64 1C22     mov     r2,r4                          
08072E66 F7FFFE55 bl      8072B14h                       
08072E6A 7AE1     ldrb    r1,[r4,0Bh]                    
08072E6C 203F     mov     r0,3Fh                         
08072E6E 4008     and     r0,r1                          
08072E70 2140     mov     r1,40h                         
08072E72 4308     orr     r0,r1                          
08072E74 72E0     strb    r0,[r4,0Bh]                    
08072E76 464C     mov     r4,r9                          
08072E78 4640     mov     r0,r8                          
08072E7A 6801     ldr     r1,[r0]                        
08072E7C 1C08     mov     r0,r1                          
08072E7E 3041     add     r0,41h                         
08072E80 7800     ldrb    r0,[r0]                        
08072E82 0045     lsl     r5,r0,1h                       
08072E84 1C08     mov     r0,r1                          
08072E86 3015     add     r0,15h                         
08072E88 3116     add     r1,16h                         
08072E8A 197B     add     r3,r7,r5                       
08072E8C 1C22     mov     r2,r4                          
08072E8E F7FFFE41 bl      8072B14h                       
08072E92 3410     add     r4,10h                         
08072E94 E0A1     b       8072FDAh                       
08072E96 1C1A     mov     r2,r3                          
08072E98 3244     add     r2,44h                         
08072E9A 8810     ldrh    r0,[r2]                        
08072E9C 2800     cmp     r0,0h                          
08072E9E D100     bne     8072EA2h                       
08072EA0 E09B     b       8072FDAh                       
08072EA2 4B33     ldr     r3,=3000054h                   
08072EA4 7818     ldrb    r0,[r3]                        
08072EA6 2805     cmp     r0,5h                          
08072EA8 D900     bls     8072EACh                       
08072EAA E096     b       8072FDAh                       
08072EAC 4931     ldr     r1,=87603F0h                   
08072EAE 7818     ldrb    r0,[r3]                        
08072EB0 0080     lsl     r0,r0,2h                       
08072EB2 1840     add     r0,r0,r1                       
08072EB4 6807     ldr     r7,[r0]                        
08072EB6 2F00     cmp     r7,0h                          
08072EB8 D100     bne     8072EBCh                       
08072EBA E08E     b       8072FDAh                       
08072EBC 2500     mov     r5,0h                          
08072EBE 8810     ldrh    r0,[r2]                        
08072EC0 2101     mov     r1,1h                          
08072EC2 4008     and     r0,r1                          
08072EC4 3EB4     sub     r6,0B4h                        
08072EC6 46B4     mov     r12,r6                         
08072EC8 2800     cmp     r0,0h                          
08072ECA D008     beq     8072EDEh                       
08072ECC 4E2A     ldr     r6,=840E038h                   
08072ECE 7830     ldrb    r0,[r6]                        
08072ED0 2300     mov     r3,0h                          
08072ED2 2800     cmp     r0,0h                          
08072ED4 D016     beq     8072F04h                       
08072ED6 1998     add     r0,r3,r6                       
08072ED8 7800     ldrb    r0,[r0]                        
08072EDA 2801     cmp     r0,1h                          
08072EDC D012     beq     8072F04h                       
08072EDE 3501     add     r5,1h                          
08072EE0 2D0E     cmp     r5,0Eh                         
08072EE2 DC0F     bgt     8072F04h                       
08072EE4 4641     mov     r1,r8                          
08072EE6 6808     ldr     r0,[r1]                        
08072EE8 3044     add     r0,44h                         
08072EEA 8800     ldrh    r0,[r0]                        
08072EEC 4128     asr     r0,r5                          
08072EEE 2101     mov     r1,1h                          
08072EF0 4008     and     r0,r1                          
08072EF2 2800     cmp     r0,0h                          
08072EF4 D0F3     beq     8072EDEh                       
08072EF6 4E20     ldr     r6,=840E038h                   
08072EF8 0068     lsl     r0,r5,1h                       
08072EFA 1981     add     r1,r0,r6                       
08072EFC 7809     ldrb    r1,[r1]                        
08072EFE 1C03     mov     r3,r0                          
08072F00 2900     cmp     r1,0h                          
08072F02 D1E8     bne     8072ED6h                       
08072F04 0068     lsl     r0,r5,1h                       
08072F06 1940     add     r0,r0,r5                       
08072F08 0080     lsl     r0,r0,2h                       
08072F0A 4661     mov     r1,r12                         
08072F0C 1846     add     r6,r0,r1                       
08072F0E 79B0     ldrb    r0,[r6,6h]                     
08072F10 2802     cmp     r0,2h                          
08072F12 D862     bhi     8072FDAh                       
08072F14 1C01     mov     r1,r0                          
08072F16 0048     lsl     r0,r1,1h                       
08072F18 1840     add     r0,r0,r1                       
08072F1A 0040     lsl     r0,r0,1h                       
08072F1C 183F     add     r7,r7,r0                       
08072F1E 4D17     ldr     r5,=8345934h                   
08072F20 46AC     mov     r12,r5                         
08072F22 4817     ldr     r0,=8754BC4h                   
08072F24 4680     mov     r8,r0                          
08072F26 1C3B     mov     r3,r7                          
08072F28 213F     mov     r1,3Fh                         
08072F2A 4689     mov     r9,r1                          
08072F2C 2640     mov     r6,40h                         
08072F2E 2000     mov     r0,0h                          
08072F30 5618     ldsb    r0,[r3,r0]                     
08072F32 00C0     lsl     r0,r0,3h                       
08072F34 4661     mov     r1,r12                         
08072F36 1842     add     r2,r0,r1                       
08072F38 4640     mov     r0,r8                          
08072F3A 6801     ldr     r1,[r0]                        
08072F3C 7810     ldrb    r0,[r2]                        
08072F3E 7C89     ldrb    r1,[r1,12h]                    
08072F40 4288     cmp     r0,r1                          
08072F42 D122     bne     8072F8Ah                       
08072F44 7890     ldrb    r0,[r2,2h]                     
08072F46 0140     lsl     r0,r0,5h                       
08072F48 8060     strh    r0,[r4,2h]                     
08072F4A 2000     mov     r0,0h                          
08072F4C 5618     ldsb    r0,[r3,r0]                     
08072F4E 00C0     lsl     r0,r0,3h                       
08072F50 1940     add     r0,r0,r5                       
08072F52 78C0     ldrb    r0,[r0,3h]                     
08072F54 3004     add     r0,4h                          
08072F56 0140     lsl     r0,r0,5h                       
08072F58 8020     strh    r0,[r4]                        
08072F5A 7AE1     ldrb    r1,[r4,0Bh]                    
08072F5C 4648     mov     r0,r9                          
08072F5E 4008     and     r0,r1                          
08072F60 4330     orr     r0,r6                          
08072F62 72E0     strb    r0,[r4,0Bh]                    
08072F64 2001     mov     r0,1h                          
08072F66 5618     ldsb    r0,[r3,r0]                     
08072F68 2800     cmp     r0,0h                          
08072F6A DA0B     bge     8072F84h                       
08072F6C 2002     mov     r0,2h                          
08072F6E E00A     b       8072F86h                       
08072F70 0054     lsl     r4,r2,1h                       
08072F72 0300     lsl     r0,r0,0Ch                      
08072F74 03F0     lsl     r0,r6,0Fh                      
08072F76 0876     lsr     r6,r6,1h                       
08072F78 E038     b       8072FECh                       
08072F7A 0840     lsr     r0,r0,1h                       
08072F7C 5934     ldr     r4,[r6,r4]                     
08072F7E 0834     lsr     r4,r6,20h                      
08072F80 4BC4     ldr     r3,=4700h                      
08072F82 0875     lsr     r5,r6,1h                       
08072F84 2003     mov     r0,3h                          
08072F86 72A0     strb    r0,[r4,0Ah]                    
08072F88 3410     add     r4,10h                         
08072F8A 2000     mov     r0,0h                          
08072F8C 5618     ldsb    r0,[r3,r0]                     
08072F8E 00C0     lsl     r0,r0,3h                       
08072F90 4661     mov     r1,r12                         
08072F92 1842     add     r2,r0,r1                       
08072F94 4640     mov     r0,r8                          
08072F96 6801     ldr     r1,[r0]                        
08072F98 7910     ldrb    r0,[r2,4h]                     
08072F9A 7C89     ldrb    r1,[r1,12h]                    
08072F9C 4288     cmp     r0,r1                          
08072F9E D118     bne     8072FD2h                       
08072FA0 7990     ldrb    r0,[r2,6h]                     
08072FA2 0140     lsl     r0,r0,5h                       
08072FA4 8060     strh    r0,[r4,2h]                     
08072FA6 2000     mov     r0,0h                          
08072FA8 5618     ldsb    r0,[r3,r0]                     
08072FAA 00C0     lsl     r0,r0,3h                       
08072FAC 1940     add     r0,r0,r5                       
08072FAE 79C0     ldrb    r0,[r0,7h]                     
08072FB0 3803     sub     r0,3h                          
08072FB2 0140     lsl     r0,r0,5h                       
08072FB4 8020     strh    r0,[r4]                        
08072FB6 7AE1     ldrb    r1,[r4,0Bh]                    
08072FB8 4648     mov     r0,r9                          
08072FBA 4008     and     r0,r1                          
08072FBC 4330     orr     r0,r6                          
08072FBE 72E0     strb    r0,[r4,0Bh]                    
08072FC0 2001     mov     r0,1h                          
08072FC2 5618     ldsb    r0,[r3,r0]                     
08072FC4 2800     cmp     r0,0h                          
08072FC6 DA01     bge     8072FCCh                       
08072FC8 2002     mov     r0,2h                          
08072FCA E000     b       8072FCEh                       
08072FCC 2003     mov     r0,3h                          
08072FCE 72A0     strb    r0,[r4,0Ah]                    
08072FD0 3410     add     r4,10h                         
08072FD2 3302     add     r3,2h                          
08072FD4 1D78     add     r0,r7,5                        
08072FD6 4283     cmp     r3,r0                          
08072FD8 DDA9     ble     8072F2Eh                       
08072FDA 2500     mov     r5,0h                          
08072FDC 491A     ldr     r1,=8754BC4h                   
08072FDE 4688     mov     r8,r1                          
08072FE0 2700     mov     r7,0h                          
08072FE2 4640     mov     r0,r8                          
08072FE4 6803     ldr     r3,[r0]                        
08072FE6 1C18     mov     r0,r3                          
08072FE8 3040     add     r0,40h                         
08072FEA 7800     ldrb    r0,[r0]                        
08072FEC 0600     lsl     r0,r0,18h                      
08072FEE 1600     asr     r0,r0,18h                      
08072FF0 4285     cmp     r5,r0                          
08072FF2 D01C     beq     807302Eh                       
08072FF4 1C18     mov     r0,r3                          
08072FF6 3044     add     r0,44h                         
08072FF8 8800     ldrh    r0,[r0]                        
08072FFA 4128     asr     r0,r5                          
08072FFC 2101     mov     r1,1h                          
08072FFE 4008     and     r0,r1                          
08073000 2800     cmp     r0,0h                          
08073002 D014     beq     807302Eh                       
08073004 4811     ldr     r0,=840DF78h                   
08073006 183E     add     r6,r7,r0                       
08073008 79B0     ldrb    r0,[r6,6h]                     
0807300A 7C9B     ldrb    r3,[r3,12h]                    
0807300C 4298     cmp     r0,r3                          
0807300E D10E     bne     807302Eh                       
08073010 7A70     ldrb    r0,[r6,9h]                     
08073012 72A0     strb    r0,[r4,0Ah]                    
08073014 79F0     ldrb    r0,[r6,7h]                     
08073016 0140     lsl     r0,r0,5h                       
08073018 8060     strh    r0,[r4,2h]                     
0807301A 7A30     ldrb    r0,[r6,8h]                     
0807301C 0140     lsl     r0,r0,5h                       
0807301E 8020     strh    r0,[r4]                        
08073020 7AE1     ldrb    r1,[r4,0Bh]                    
08073022 203F     mov     r0,3Fh                         
08073024 4008     and     r0,r1                          
08073026 2140     mov     r1,40h                         
08073028 4308     orr     r0,r1                          
0807302A 72E0     strb    r0,[r4,0Bh]                    
0807302C 3410     add     r4,10h                         
0807302E 370C     add     r7,0Ch                         
08073030 3501     add     r5,1h                          
08073032 2D0F     cmp     r5,0Fh                         
08073034 DDD5     ble     8072FE2h                       
08073036 F000F88B bl      8073150h                       
0807303A B005     add     sp,14h                         
0807303C BC18     pop     r3,r4                          
0807303E 4698     mov     r8,r3                          
08073040 46A1     mov     r9,r4                          
08073042 BCF0     pop     r4-r7                          
08073044 BC01     pop     r0                             
08073046 4700     bx      r0                             
08073048 4BC4     ldr     r3,=23032100h                  
0807304A 0875     lsr     r5,r6,1h                       
0807304C DF78     swi     78h     
0807304E 0840     lsr     r0,r0,1h                       
08073050 B530     push    r4,r5,r14                      
08073052 0600     lsl     r0,r0,18h                      
08073054 0E05     lsr     r5,r0,18h                      
08073056 2401     mov     r4,1h                          
08073058 4264     neg     r4,r4                          
0807305A 4809     ldr     r0,=840E058h                   
0807305C 1828     add     r0,r5,r0                       
0807305E 7801     ldrb    r1,[r0]                        
08073060 2003     mov     r0,3h                          
08073062 F7EDFC2B bl      80608BCh                       
08073066 2800     cmp     r0,0h                          
08073068 D02C     beq     80730C4h                       
0807306A 4B06     ldr     r3,=840E038h                   
0807306C 006A     lsl     r2,r5,1h                       
0807306E 18D0     add     r0,r2,r3                       
08073070 7800     ldrb    r0,[r0]                        
08073072 2800     cmp     r0,0h                          
08073074 D10A     bne     807308Ch                       
08073076 4904     ldr     r1,=3001530h                   
08073078 1C58     add     r0,r3,1                        
0807307A 1810     add     r0,r2,r0                       
0807307C 7B0A     ldrb    r2,[r1,0Ch]                    
0807307E E00B     b       8073098h                       
08073080 E058     b       8073134h                       
08073082 0840     lsr     r0,r0,1h                       
08073084 E038     b       80730F8h                       
08073086 0840     lsr     r0,r0,1h                       
08073088 1530     asr     r0,r6,14h                      
0807308A 0300     lsl     r0,r0,0Ch                      
0807308C 2801     cmp     r0,1h                          
0807308E D10B     bne     80730A8h                       
08073090 4904     ldr     r1,=3001530h                   
08073092 1C58     add     r0,r3,1                        
08073094 1810     add     r0,r2,r0                       
08073096 7B8A     ldrb    r2,[r1,0Eh]                    
08073098 7801     ldrb    r1,[r0]                        
0807309A 4011     and     r1,r2                          
0807309C 4248     neg     r0,r1                          
0807309E 4308     orr     r0,r1                          
080730A0 0FC4     lsr     r4,r0,1Fh                      
080730A2 E00B     b       80730BCh                       
080730A4 1530     asr     r0,r6,14h                      
080730A6 0300     lsl     r0,r0,0Ch                      
080730A8 2802     cmp     r0,2h                          
080730AA D107     bne     80730BCh                       
080730AC 1C58     add     r0,r3,1                        
080730AE 1810     add     r0,r2,r0                       
080730B0 7801     ldrb    r1,[r0]                        
080730B2 2003     mov     r0,3h                          
080730B4 F7EDFC02 bl      80608BCh                       
080730B8 0600     lsl     r0,r0,18h                      
080730BA 1604     asr     r4,r0,18h                      
080730BC 2C00     cmp     r4,0h                          
080730BE DB01     blt     80730C4h                       
080730C0 2001     mov     r0,1h                          
080730C2 4044     eor     r4,r0                          
080730C4 1C20     mov     r0,r4                          
080730C6 BC30     pop     r4,r5                          
080730C8 BC02     pop     r1                             
080730CA 4708     bx      r1                             
080730CC B510     push    r4,r14                         
080730CE 480D     ldr     r0,=8754BC4h                   
080730D0 6800     ldr     r0,[r0]                        
080730D2 3044     add     r0,44h                         
080730D4 2100     mov     r1,0h                          
080730D6 8001     strh    r1,[r0]                        
080730D8 2400     mov     r4,0h                          
080730DA 0620     lsl     r0,r4,18h                      
080730DC 0E00     lsr     r0,r0,18h                      
080730DE F7FFFFB7 bl      8073050h                       
080730E2 0600     lsl     r0,r0,18h                      
080730E4 2800     cmp     r0,0h                          
080730E6 DD07     ble     80730F8h                       
080730E8 4806     ldr     r0,=8754BC4h                   
080730EA 6802     ldr     r2,[r0]                        
080730EC 3244     add     r2,44h                         
080730EE 2001     mov     r0,1h                          
080730F0 40A0     lsl     r0,r4                          
080730F2 8811     ldrh    r1,[r2]                        
080730F4 4308     orr     r0,r1                          
080730F6 8010     strh    r0,[r2]                        
080730F8 3401     add     r4,1h                          
080730FA 2C0F     cmp     r4,0Fh                         
080730FC DDED     ble     80730DAh                       
080730FE BC10     pop     r4                             
08073100 BC01     pop     r0                             
08073102 4700     bx      r0                             
08073104 4BC4     ldr     r3,=31401C11h                  
08073106 0875     lsr     r5,r6,1h                       
08073108 B530     push    r4,r5,r14                      
0807310A 480F     ldr     r0,=8754BC4h                   
0807310C 6800     ldr     r0,[r0]                        
0807310E 30B9     add     r0,0B9h                        
08073110 2100     mov     r1,0h                          
08073112 7001     strb    r1,[r0]                        
08073114 2400     mov     r4,0h                          
08073116 4D0D     ldr     r5,=840DF78h                   
08073118 0620     lsl     r0,r4,18h                      
0807311A 0E00     lsr     r0,r0,18h                      
0807311C F7FFFF98 bl      8073050h                       
08073120 0600     lsl     r0,r0,18h                      
08073122 2800     cmp     r0,0h                          
08073124 DD08     ble     8073138h                       
08073126 4808     ldr     r0,=8754BC4h                   
08073128 6802     ldr     r2,[r0]                        
0807312A 32B9     add     r2,0B9h                        
0807312C 2001     mov     r0,1h                          
0807312E 79A9     ldrb    r1,[r5,6h]                     
08073130 4088     lsl     r0,r1                          
08073132 7811     ldrb    r1,[r2]                        
08073134 4308     orr     r0,r1                          
08073136 7010     strb    r0,[r2]                        
08073138 350C     add     r5,0Ch                         
0807313A 3401     add     r4,1h                          
0807313C 2C0F     cmp     r4,0Fh                         
0807313E DDEB     ble     8073118h                       
08073140 BC30     pop     r4,r5                          
08073142 BC01     pop     r0                             
08073144 4700     bx      r0                             
08073146 0000     lsl     r0,r0,0h                       
08073148 4BC4     ldr     r3,=0F78F2340h                 
0807314A 0875     lsr     r5,r6,1h                       
0807314C DF78     swi     78h     
0807314E 0840     lsr     r0,r0,1h                       
08073150 B530     push    r4,r5,r14                      
08073152 B081     add     sp,-4h                         
08073154 4C1B     ldr     r4,=8754BC4h                   
08073156 6822     ldr     r2,[r4]                        
08073158 32EC     add     r2,0ECh                        
0807315A 2020     mov     r0,20h                         
0807315C 9000     str     r0,[sp]                        
0807315E 2003     mov     r0,3h                          
08073160 2100     mov     r1,0h                          
08073162 2318     mov     r3,18h                         
08073164 F790F8A6 bl      80032B4h                       
08073168 6821     ldr     r1,[r4]                        
0807316A 7C88     ldrb    r0,[r1,12h]                    
0807316C 1C25     mov     r5,r4                          
0807316E 2800     cmp     r0,0h                          
08073170 D165     bne     807323Eh                       
08073172 1C08     mov     r0,r1                          
08073174 3044     add     r0,44h                         
08073176 8801     ldrh    r1,[r0]                        
08073178 2080     mov     r0,80h                         
0807317A 0040     lsl     r0,r0,1h                       
0807317C 4008     and     r0,r1                          
0807317E 2800     cmp     r0,0h                          
08073180 D029     beq     80731D6h                       
08073182 2100     mov     r1,0h                          
08073184 682A     ldr     r2,[r5]                        
08073186 010C     lsl     r4,r1,4h                       
08073188 1910     add     r0,r2,r4                       
0807318A 4B0F     ldr     r3,=2F2h                       
0807318C 18C0     add     r0,r0,r3                       
0807318E 7800     ldrb    r0,[r0]                        
08073190 280A     cmp     r0,0Ah                         
08073192 D11D     bne     80731D0h                       
08073194 1C10     mov     r0,r2                          
08073196 30EF     add     r0,0EFh                        
08073198 7001     strb    r1,[r0]                        
0807319A 6828     ldr     r0,[r5]                        
0807319C 30F1     add     r0,0F1h                        
0807319E 2101     mov     r1,1h                          
080731A0 7001     strb    r1,[r0]                        
080731A2 682B     ldr     r3,[r5]                        
080731A4 191A     add     r2,r3,r4                       
080731A6 4C09     ldr     r4,=2EAh                       
080731A8 1910     add     r0,r2,r4                       
080731AA 8801     ldrh    r1,[r0]                        
080731AC 3908     sub     r1,8h                          
080731AE 8001     strh    r1,[r0]                        
080731B0 1C18     mov     r0,r3                          
080731B2 30F4     add     r0,0F4h                        
080731B4 8001     strh    r1,[r0]                        
080731B6 20BA     mov     r0,0BAh                        
080731B8 0080     lsl     r0,r0,2h                       
080731BA 1812     add     r2,r2,r0                       
080731BC 8810     ldrh    r0,[r2]                        
080731BE 33F6     add     r3,0F6h                        
080731C0 8018     strh    r0,[r3]                        
080731C2 E008     b       80731D6h                       
080731C4 4BC4     ldr     r3,=0BC01BCF0h                 
080731C6 0875     lsr     r5,r6,1h                       
080731C8 02F2     lsl     r2,r6,0Bh                      
080731CA 0000     lsl     r0,r0,0h                       
080731CC 02EA     lsl     r2,r5,0Bh                      
080731CE 0000     lsl     r0,r0,0h                       
080731D0 3101     add     r1,1h                          
080731D2 290B     cmp     r1,0Bh                         
080731D4 DDD6     ble     8073184h                       
080731D6 6828     ldr     r0,[r5]                        
080731D8 3044     add     r0,44h                         
080731DA 8801     ldrh    r1,[r0]                        
080731DC 2080     mov     r0,80h                         
080731DE 0080     lsl     r0,r0,2h                       
080731E0 4008     and     r0,r1                          
080731E2 2800     cmp     r0,0h                          
080731E4 D02B     beq     807323Eh                       
080731E6 2100     mov     r1,0h                          
080731E8 682A     ldr     r2,[r5]                        
080731EA 010C     lsl     r4,r1,4h                       
080731EC 1910     add     r0,r2,r4                       
080731EE 4B10     ldr     r3,=2F2h                       
080731F0 18C0     add     r0,r0,r3                       
080731F2 7800     ldrb    r0,[r0]                        
080731F4 280E     cmp     r0,0Eh                         
080731F6 D11F     bne     8073238h                       
080731F8 1C10     mov     r0,r2                          
080731FA 30FB     add     r0,0FBh                        
080731FC 7001     strb    r1,[r0]                        
080731FE 6828     ldr     r0,[r5]                        
08073200 30FD     add     r0,0FDh                        
08073202 2101     mov     r1,1h                          
08073204 7001     strb    r1,[r0]                        
08073206 682B     ldr     r3,[r5]                        
08073208 191A     add     r2,r3,r4                       
0807320A 4C0A     ldr     r4,=2EAh                       
0807320C 1910     add     r0,r2,r4                       
0807320E 8801     ldrh    r1,[r0]                        
08073210 3108     add     r1,8h                          
08073212 8001     strh    r1,[r0]                        
08073214 2480     mov     r4,80h                         
08073216 0064     lsl     r4,r4,1h                       
08073218 1918     add     r0,r3,r4                       
0807321A 8001     strh    r1,[r0]                        
0807321C 20BA     mov     r0,0BAh                        
0807321E 0080     lsl     r0,r0,2h                       
08073220 1812     add     r2,r2,r0                       
08073222 8810     ldrh    r0,[r2]                        
08073224 2281     mov     r2,81h                         
08073226 0052     lsl     r2,r2,1h                       
08073228 1899     add     r1,r3,r2                       
0807322A 8008     strh    r0,[r1]                        
0807322C E007     b       807323Eh                       
0807322E 0000     lsl     r0,r0,0h                       
08073230 02F2     lsl     r2,r6,0Bh                      
08073232 0000     lsl     r0,r0,0h                       
08073234 02EA     lsl     r2,r5,0Bh                      
08073236 0000     lsl     r0,r0,0h                       
08073238 3101     add     r1,1h                          
0807323A 290B     cmp     r1,0Bh                         
0807323C DDD4     ble     80731E8h                       
0807323E B001     add     sp,4h                          
08073240 BC30     pop     r4,r5                          
08073242 BC01     pop     r0                             
08073244 4700     bx      r0                             
08073246 0000     lsl     r0,r0,0h                       
08073248 B500     push    r14                            
0807324A 1C02     mov     r2,r0                          
0807324C 7890     ldrb    r0,[r2,2h]                     
0807324E 2800     cmp     r0,0h                          
08073250 D01F     beq     8073292h                       
08073252 2005     mov     r0,5h                          
08073254 5610     ldsb    r0,[r2,r0]                     
08073256 8813     ldrh    r3,[r2]                        
08073258 18C1     add     r1,r0,r3                       
0807325A 8011     strh    r1,[r2]                        
0807325C 7953     ldrb    r3,[r2,5h]                     
0807325E 2800     cmp     r0,0h                          
08073260 DD05     ble     807326Eh                       
08073262 0408     lsl     r0,r1,10h                      
08073264 0C00     lsr     r0,r0,10h                      
08073266 283E     cmp     r0,3Eh                         
08073268 D906     bls     8073278h                       
0807326A 20FF     mov     r0,0FFh                        
0807326C E003     b       8073276h                       
0807326E 0408     lsl     r0,r1,10h                      
08073270 2800     cmp     r0,0h                          
08073272 D101     bne     8073278h                       
08073274 2001     mov     r0,1h                          
08073276 7150     strb    r0,[r2,5h]                     
08073278 4807     ldr     r0,=8754BC4h                   
0807327A 6801     ldr     r1,[r0]                        
0807327C 78D0     ldrb    r0,[r2,3h]                     
0807327E 0100     lsl     r0,r0,4h                       
08073280 1809     add     r1,r1,r0                       
08073282 8810     ldrh    r0,[r2]                        
08073284 0880     lsr     r0,r0,2h                       
08073286 8952     ldrh    r2,[r2,0Ah]                    
08073288 1880     add     r0,r0,r2                       
0807328A 22BA     mov     r2,0BAh                        
0807328C 0092     lsl     r2,r2,2h                       
0807328E 1889     add     r1,r1,r2                       
08073290 8008     strh    r0,[r1]                        
08073292 BC01     pop     r0                             
08073294 4700     bx      r0                             
08073296 0000     lsl     r0,r0,0h                       
08073298 4BC4     ldr     r3,=3000014h                   
0807329A 0875     lsr     r5,r6,1h                       
0807329C B530     push    r4,r5,r14                      
0807329E 2403     mov     r4,3h                          
080732A0 4D05     ldr     r5,=3000C1Ch                   
080732A2 2C00     cmp     r4,0h                          
080732A4 D005     beq     80732B2h                       
080732A6 F001F82D bl      8074304h                       
080732AA 7828     ldrb    r0,[r5]                        
080732AC 3C01     sub     r4,1h                          
080732AE 2800     cmp     r0,0h                          
080732B0 D1F7     bne     80732A2h                       
080732B2 2403     mov     r4,3h                          
080732B4 E005     b       80732C2h                       
080732B6 0000     lsl     r0,r0,0h                       
080732B8 0C1C     lsr     r4,r3,10h                      
080732BA 0300     lsl     r0,r0,0Ch                      
080732BC 3C01     sub     r4,1h                          
080732BE 2C00     cmp     r4,0h                          
080732C0 D007     beq     80732D2h                       
080732C2 200E     mov     r0,0Eh                         
080732C4 F78DFCC0 bl      8000C48h                       
080732C8 2010     mov     r0,10h                         
080732CA F78DFCBD bl      8000C48h                       
080732CE 2800     cmp     r0,0h                          
080732D0 D1F4     bne     80732BCh                       
080732D2 F000F85F bl      8073394h                       
080732D6 F001F865 bl      80743A4h                       
080732DA F001FBCF bl      8074A7Ch                       
080732DE F001FE97 bl      8075010h                       
080732E2 F001FD5F bl      8074DA4h                       
080732E6 2800     cmp     r0,0h                          
080732E8 D004     beq     80732F4h                       
080732EA 4904     ldr     r1,=3000020h                   
080732EC 2002     mov     r0,2h                          
080732EE 7008     strb    r0,[r1]                        
080732F0 F001FD02 bl      8074CF8h                       
080732F4 BC30     pop     r4,r5                          
080732F6 BC01     pop     r0                             
080732F8 4700     bx      r0                             
080732FA 0000     lsl     r0,r0,0h                       
080732FC 0020     lsl     r0,r4,0h                       
080732FE 0300     lsl     r0,r0,0Ch                      
08073300 B570     push    r4-r6,r14                      
08073302 4A21     ldr     r2,=8754BC8h                   
08073304 6814     ldr     r4,[r2]                        
08073306 2030     mov     r0,30h                         
08073308 7220     strb    r0,[r4,8h]                     
0807330A 2031     mov     r0,31h                         
0807330C 7260     strb    r0,[r4,9h]                     
0807330E 8960     ldrh    r0,[r4,0Ah]                    
08073310 3001     add     r0,1h                          
08073312 8160     strh    r0,[r4,0Ah]                    
08073314 491D     ldr     r1,=3000014h                   
08073316 8808     ldrh    r0,[r1]                        
08073318 81A0     strh    r0,[r4,0Ch]                    
0807331A 7908     ldrb    r0,[r1,4h]                     
0807331C 73A0     strb    r0,[r4,0Eh]                    
0807331E 2002     mov     r0,2h                          
08073320 73E0     strb    r0,[r4,0Fh]                    
08073322 2034     mov     r0,34h                         
08073324 7420     strb    r0,[r4,10h]                    
08073326 7948     ldrb    r0,[r1,5h]                     
08073328 7460     strb    r0,[r4,11h]                    
0807332A 7988     ldrb    r0,[r1,6h]                     
0807332C 74A0     strb    r0,[r4,12h]                    
0807332E 79C8     ldrb    r0,[r1,7h]                     
08073330 74E0     strb    r0,[r4,13h]                    
08073332 8848     ldrh    r0,[r1,2h]                     
08073334 82A0     strh    r0,[r4,14h]                    
08073336 6888     ldr     r0,[r1,8h]                     
08073338 61A0     str     r0,[r4,18h]                    
0807333A 2300     mov     r3,0h                          
0807333C 1C16     mov     r6,r2                          
0807333E 1C22     mov     r2,r4                          
08073340 321C     add     r2,1Ch                         
08073342 4D13     ldr     r5,=8411468h                   
08073344 18D0     add     r0,r2,r3                       
08073346 1959     add     r1,r3,r5                       
08073348 7809     ldrb    r1,[r1]                        
0807334A 7001     strb    r1,[r0]                        
0807334C 3301     add     r3,1h                          
0807334E 2B13     cmp     r3,13h                         
08073350 DDF8     ble     8073344h                       
08073352 2000     mov     r0,0h                          
08073354 6020     str     r0,[r4]                        
08073356 3801     sub     r0,1h                          
08073358 6060     str     r0,[r4,4h]                     
0807335A 6832     ldr     r2,[r6]                        
0807335C 2100     mov     r1,0h                          
0807335E 2303     mov     r3,3h                          
08073360 CA01     ldmia   [r2]!,r0                       
08073362 1809     add     r1,r1,r0                       
08073364 CA01     ldmia   [r2]!,r0                       
08073366 1809     add     r1,r1,r0                       
08073368 CA01     ldmia   [r2]!,r0                       
0807336A 1809     add     r1,r1,r0                       
0807336C CA01     ldmia   [r2]!,r0                       
0807336E 1809     add     r1,r1,r0                       
08073370 3B01     sub     r3,1h                          
08073372 2B00     cmp     r3,0h                          
08073374 DAF4     bge     8073360h                       
08073376 6021     str     r1,[r4]                        
08073378 43C8     mvn     r0,r1                          
0807337A 6060     str     r0,[r4,4h]                     
0807337C 2000     mov     r0,0h                          
0807337E F78DFC63 bl      8000C48h                       
08073382 BC70     pop     r4-r6                          
08073384 BC01     pop     r0                             
08073386 4700     bx      r0                             
08073388 4BC8     ldr     r3,=8754BC8h                   
0807338A 0875     lsr     r5,r6,1h                       
0807338C 0014     lsl     r4,r2,0h                       
0807338E 0300     lsl     r0,r0,0Ch                      
08073390 1468     asr     r0,r5,11h                      
08073392 0841     lsr     r1,r0,1h                       
08073394 B5F0     push    r4-r7,r14                      
08073396 464F     mov     r7,r9                          
08073398 4646     mov     r6,r8                          
0807339A B4C0     push    r6,r7                          
0807339C B082     add     sp,-8h                         
0807339E 2000     mov     r0,0h                          
080733A0 F000F8A2 bl      80734E8h                       
080733A4 1C06     mov     r6,r0                          
080733A6 2001     mov     r0,1h                          
080733A8 F000F89E bl      80734E8h                       
080733AC 4680     mov     r8,r0                          
080733AE 2002     mov     r0,2h                          
080733B0 F000F89A bl      80734E8h                       
080733B4 1C07     mov     r7,r0                          
080733B6 2E00     cmp     r6,0h                          
080733B8 D05A     beq     8073470h                       
080733BA A801     add     r0,sp,4h                       
080733BC 4911     ldr     r1,=0FFFFh                     
080733BE 1C0D     mov     r5,r1                          
080733C0 8005     strh    r5,[r0]                        
080733C2 4911     ldr     r1,=40000D4h                   
080733C4 6008     str     r0,[r1]                        
080733C6 4B11     ldr     r3,=8754BC8h                   
080733C8 4699     mov     r9,r3                          
080733CA 681A     ldr     r2,[r3]                        
080733CC 604A     str     r2,[r1,4h]                     
080733CE 4C10     ldr     r4,=81000020h                  
080733D0 608C     str     r4,[r1,8h]                     
080733D2 6888     ldr     r0,[r1,8h]                     
080733D4 2F00     cmp     r7,0h                          
080733D6 D02C     beq     8073432h                       
080733D8 A801     add     r0,sp,4h                       
080733DA 8005     strh    r5,[r0]                        
080733DC 6008     str     r0,[r1]                        
080733DE 4B0D     ldr     r3,=6D40h                      
080733E0 18D0     add     r0,r2,r3                       
080733E2 6048     str     r0,[r1,4h]                     
080733E4 608C     str     r4,[r1,8h]                     
080733E6 6888     ldr     r0,[r1,8h]                     
080733E8 1C13     mov     r3,r2                          
080733EA 4640     mov     r0,r8                          
080733EC 2800     cmp     r0,0h                          
080733EE D013     beq     8073418h                       
080733F0 A801     add     r0,sp,4h                       
080733F2 8005     strh    r5,[r0]                        
080733F4 6008     str     r0,[r1]                        
080733F6 1C18     mov     r0,r3                          
080733F8 3040     add     r0,40h                         
080733FA 6048     str     r0,[r1,4h]                     
080733FC 608C     str     r4,[r1,8h]                     
080733FE 6888     ldr     r0,[r1,8h]                     
08073400 E050     b       80734A4h                       
08073402 0000     lsl     r0,r0,0h                       
08073404 FFFF     bl      lr+0FFEh                       
08073406 0000     lsl     r0,r0,0h                       
08073408 00D4     lsl     r4,r2,3h                       
0807340A 0400     lsl     r0,r0,10h                      
0807340C 4BC8     ldr     r3,=76A07800h                  
0807340E 0875     lsr     r5,r6,1h                       
08073410 0020     lsl     r0,r4,0h                       
08073412 8100     strh    r0,[r0,8h]                     
08073414 6D40     ldr     r0,[r0,54h]                    
08073416 0000     lsl     r0,r0,0h                       
08073418 1C11     mov     r1,r2                          
0807341A 3140     add     r1,40h                         
0807341C 2010     mov     r0,10h                         
0807341E 9000     str     r0,[sp]                        
08073420 2003     mov     r0,3h                          
08073422 2340     mov     r3,40h                         
08073424 F78FFEDE bl      80031E4h                       
08073428 2600     mov     r6,0h                          
0807342A 2000     mov     r0,0h                          
0807342C F78DFC0C bl      8000C48h                       
08073430 E038     b       80734A4h                       
08073432 4B0E     ldr     r3,=6D40h                      
08073434 18D1     add     r1,r2,r3                       
08073436 2410     mov     r4,10h                         
08073438 9400     str     r4,[sp]                        
0807343A 2003     mov     r0,3h                          
0807343C 2340     mov     r3,40h                         
0807343E F78FFED1 bl      80031E4h                       
08073442 2600     mov     r6,0h                          
08073444 2000     mov     r0,0h                          
08073446 F78DFBFF bl      8000C48h                       
0807344A 4640     mov     r0,r8                          
0807344C 2800     cmp     r0,0h                          
0807344E D029     beq     80734A4h                       
08073450 464B     mov     r3,r9                          
08073452 6819     ldr     r1,[r3]                        
08073454 1C0A     mov     r2,r1                          
08073456 3240     add     r2,40h                         
08073458 9400     str     r4,[sp]                        
0807345A 2003     mov     r0,3h                          
0807345C 2340     mov     r3,40h                         
0807345E F78FFEC1 bl      80031E4h                       
08073462 2001     mov     r0,1h                          
08073464 F78DFBF0 bl      8000C48h                       
08073468 E01C     b       80734A4h                       
0807346A 0000     lsl     r0,r0,0h                       
0807346C 6D40     ldr     r0,[r0,54h]                    
0807346E 0000     lsl     r0,r0,0h                       
08073470 4C0F     ldr     r4,=8754BC8h                   
08073472 6821     ldr     r1,[r4]                        
08073474 1C0A     mov     r2,r1                          
08073476 3240     add     r2,40h                         
08073478 2510     mov     r5,10h                         
0807347A 9500     str     r5,[sp]                        
0807347C 2003     mov     r0,3h                          
0807347E 2340     mov     r3,40h                         
08073480 F78FFEB0 bl      80031E4h                       
08073484 2001     mov     r0,1h                          
08073486 F78DFBDF bl      8000C48h                       
0807348A 2F00     cmp     r7,0h                          
0807348C D00A     beq     80734A4h                       
0807348E 6821     ldr     r1,[r4]                        
08073490 4808     ldr     r0,=6D40h                      
08073492 180A     add     r2,r1,r0                       
08073494 9500     str     r5,[sp]                        
08073496 2003     mov     r0,3h                          
08073498 2340     mov     r3,40h                         
0807349A F78FFEA3 bl      80031E4h                       
0807349E 2002     mov     r0,2h                          
080734A0 F78DFBD2 bl      8000C48h                       
080734A4 2E00     cmp     r6,0h                          
080734A6 D107     bne     80734B8h                       
080734A8 F000F86C bl      8073584h                       
080734AC E010     b       80734D0h                       
080734AE 0000     lsl     r0,r0,0h                       
080734B0 4BC8     ldr     r3,=1C027801h                  
080734B2 0875     lsr     r5,r6,1h                       
080734B4 6D40     ldr     r0,[r0,54h]                    
080734B6 0000     lsl     r0,r0,0h                       
080734B8 F78DFBA4 bl      8000C04h                       
080734BC 4908     ldr     r1,=841147Ch                   
080734BE 4A09     ldr     r2,=3000014h                   
080734C0 2010     mov     r0,10h                         
080734C2 9000     str     r0,[sp]                        
080734C4 2003     mov     r0,3h                          
080734C6 230C     mov     r3,0Ch                         
080734C8 F78FFE8C bl      80031E4h                       
080734CC F7FFFF18 bl      8073300h                       
080734D0 B002     add     sp,8h                          
080734D2 BC18     pop     r3,r4                          
080734D4 4698     mov     r8,r3                          
080734D6 46A1     mov     r9,r4                          
080734D8 BCF0     pop     r4-r7                          
080734DA BC01     pop     r0                             
080734DC 4700     bx      r0                             
080734DE 0000     lsl     r0,r0,0h                       
080734E0 147C     asr     r4,r7,11h                      
080734E2 0841     lsr     r1,r0,1h                       
080734E4 0014     lsl     r4,r2,0h                       
080734E6 0300     lsl     r0,r0,0Ch                      
080734E8 B5F0     push    r4-r7,r14                      
080734EA 0600     lsl     r0,r0,18h                      
080734EC 0E00     lsr     r0,r0,18h                      
080734EE 2400     mov     r4,0h                          
080734F0 2802     cmp     r0,2h                          
080734F2 D109     bne     8073508h                       
080734F4 4802     ldr     r0,=8754BC8h                   
080734F6 6800     ldr     r0,[r0]                        
080734F8 4902     ldr     r1,=6D40h                      
080734FA 1840     add     r0,r0,r1                       
080734FC E00E     b       807351Ch                       
080734FE 0000     lsl     r0,r0,0h                       
08073500 4BC8     ldr     r3,=0E04ED05Fh                 
08073502 0875     lsr     r5,r6,1h                       
08073504 6D40     ldr     r0,[r0,54h]                    
08073506 0000     lsl     r0,r0,0h                       
08073508 2801     cmp     r0,1h                          
0807350A D105     bne     8073518h                       
0807350C 4801     ldr     r0,=8754BC8h                   
0807350E 6800     ldr     r0,[r0]                        
08073510 3040     add     r0,40h                         
08073512 E003     b       807351Ch                       
08073514 4BC8     ldr     r3,=48094908h                  
08073516 0875     lsr     r5,r6,1h                       
08073518 4818     ldr     r0,=8754BC8h                   
0807351A 6800     ldr     r0,[r0]                        
0807351C 2200     mov     r2,0h                          
0807351E 1C01     mov     r1,r0                          
08073520 680F     ldr     r7,[r1]                        
08073522 1C0D     mov     r5,r1                          
08073524 351C     add     r5,1Ch                         
08073526 6848     ldr     r0,[r1,4h]                     
08073528 4684     mov     r12,r0                         
0807352A 2303     mov     r3,3h                          
0807352C C901     ldmia   [r1]!,r0                       
0807352E 1812     add     r2,r2,r0                       
08073530 C901     ldmia   [r1]!,r0                       
08073532 1812     add     r2,r2,r0                       
08073534 C901     ldmia   [r1]!,r0                       
08073536 1812     add     r2,r2,r0                       
08073538 C901     ldmia   [r1]!,r0                       
0807353A 1812     add     r2,r2,r0                       
0807353C 3B01     sub     r3,1h                          
0807353E 2B00     cmp     r3,0h                          
08073540 DAF4     bge     807352Ch                       
08073542 4297     cmp     r7,r2                          
08073544 D001     beq     807354Ah                       
08073546 2001     mov     r0,1h                          
08073548 4304     orr     r4,r0                          
0807354A 2300     mov     r3,0h                          
0807354C 1C2A     mov     r2,r5                          
0807354E 4E0C     ldr     r6,=8411468h                   
08073550 2502     mov     r5,2h                          
08073552 18D0     add     r0,r2,r3                       
08073554 1999     add     r1,r3,r6                       
08073556 7800     ldrb    r0,[r0]                        
08073558 7809     ldrb    r1,[r1]                        
0807355A 4288     cmp     r0,r1                          
0807355C D000     beq     8073560h                       
0807355E 432C     orr     r4,r5                          
08073560 3301     add     r3,1h                          
08073562 2B13     cmp     r3,13h                         
08073564 DDF5     ble     8073552h                       
08073566 4661     mov     r1,r12                         
08073568 43C8     mvn     r0,r1                          
0807356A 4287     cmp     r7,r0                          
0807356C D001     beq     8073572h                       
0807356E 2004     mov     r0,4h                          
08073570 4304     orr     r4,r0                          
08073572 1C20     mov     r0,r4                          
08073574 BCF0     pop     r4-r7                          
08073576 BC02     pop     r1                             
08073578 4708     bx      r1                             
0807357A 0000     lsl     r0,r0,0h                       
0807357C 4BC8     ldr     r3,=184000C8h                  
0807357E 0875     lsr     r5,r6,1h                       
08073580 1468     asr     r0,r5,11h                      
08073582 0841     lsr     r1,r0,1h                       
08073584 4808     ldr     r0,=8754BC8h                   
08073586 6801     ldr     r1,[r0]                        
08073588 4A08     ldr     r2,=3000014h                   
0807358A 8988     ldrh    r0,[r1,0Ch]                    
0807358C 8010     strh    r0,[r2]                        
0807358E 7B88     ldrb    r0,[r1,0Eh]                    
08073590 7110     strb    r0,[r2,4h]                     
08073592 7C48     ldrb    r0,[r1,11h]                    
08073594 7150     strb    r0,[r2,5h]                     
08073596 7C88     ldrb    r0,[r1,12h]                    
08073598 7190     strb    r0,[r2,6h]                     
0807359A 7CC8     ldrb    r0,[r1,13h]                    
0807359C 71D0     strb    r0,[r2,7h]                     
0807359E 8A88     ldrh    r0,[r1,14h]                    
080735A0 8050     strh    r0,[r2,2h]                     
080735A2 6988     ldr     r0,[r1,18h]                    
080735A4 6090     str     r0,[r2,8h]                     
080735A6 4770     bx      r14                            
080735A8 4BC8     ldr     r3,=0E00A7008h                 
080735AA 0875     lsr     r5,r6,1h                       
080735AC 0014     lsl     r4,r2,0h                       
080735AE 0300     lsl     r0,r0,0Ch                      
080735B0 B530     push    r4,r5,r14                      
080735B2 B081     add     sp,-4h                         
080735B4 4908     ldr     r1,=3000043h                   
080735B6 7808     ldrb    r0,[r1]                        
080735B8 4A08     ldr     r2,=3000C21h                   
080735BA 2800     cmp     r0,0h                          
080735BC D102     bne     80735C4h                       
080735BE 7010     strb    r0,[r2]                        
080735C0 2001     mov     r0,1h                          
080735C2 7008     strb    r0,[r1]                        
080735C4 7810     ldrb    r0,[r2]                        
080735C6 2804     cmp     r0,4h                          
080735C8 D900     bls     80735CCh                       
080735CA E077     b       80736BCh                       
080735CC 0080     lsl     r0,r0,2h                       
080735CE 4904     ldr     r1,=80735E4h                   
080735D0 1840     add     r0,r0,r1                       
080735D2 6800     ldr     r0,[r0]                        
080735D4 4687     mov     r15,r0                         
080735D6 0000     lsl     r0,r0,0h                       
080735D8 0043     lsl     r3,r0,1h                       
080735DA 0300     lsl     r0,r0,0Ch                      
080735DC 0C21     lsr     r1,r4,10h                      
080735DE 0300     lsl     r0,r0,0Ch                      
080735E0 35E4     add     r5,0E4h                        
080735E2 0807     lsr     r7,r0,20h                      
080735E4 35F8     add     r5,0F8h                        
080735E6 0807     lsr     r7,r0,20h                      
080735E8 3658     add     r6,58h                         
080735EA 0807     lsr     r7,r0,20h                      
080735EC 3668     add     r6,68h                         
080735EE 0807     lsr     r7,r0,20h                      
080735F0 3674     add     r6,74h                         
080735F2 0807     lsr     r7,r0,20h                      
080735F4 36BC     add     r6,0BCh                        
080735F6 0807     lsr     r7,r0,20h                      
080735F8 4D13     ldr     r5,=3000024h                   
080735FA 2301     mov     r3,1h                          
080735FC 706B     strb    r3,[r5,1h]                     
080735FE 4C13     ldr     r4,=3000C24h                   
08073600 4A13     ldr     r2,=3000C1Eh                   
08073602 2100     mov     r1,0h                          
08073604 5651     ldsb    r1,[r2,r1]                     
08073606 0048     lsl     r0,r1,1h                       
08073608 1840     add     r0,r0,r1                       
0807360A 00C0     lsl     r0,r0,3h                       
0807360C 1900     add     r0,r0,r4                       
0807360E 7483     strb    r3,[r0,12h]                    
08073610 2100     mov     r1,0h                          
08073612 5651     ldsb    r1,[r2,r1]                     
08073614 0048     lsl     r0,r1,1h                       
08073616 1840     add     r0,r0,r1                       
08073618 00C0     lsl     r0,r0,3h                       
0807361A 1900     add     r0,r0,r4                       
0807361C 7C40     ldrb    r0,[r0,11h]                    
0807361E 7028     strb    r0,[r5]                        
08073620 4B0C     ldr     r3,=8754BC8h                   
08073622 2100     mov     r1,0h                          
08073624 5651     ldsb    r1,[r2,r1]                     
08073626 00C8     lsl     r0,r1,3h                       
08073628 1840     add     r0,r0,r1                       
0807362A 0100     lsl     r0,r0,4h                       
0807362C 1840     add     r0,r0,r1                       
0807362E 0140     lsl     r0,r0,5h                       
08073630 3080     add     r0,80h                         
08073632 681A     ldr     r2,[r3]                        
08073634 1812     add     r2,r2,r0                       
08073636 23C0     mov     r3,0C0h                        
08073638 009B     lsl     r3,r3,2h                       
0807363A 2010     mov     r0,10h                         
0807363C 9000     str     r0,[sp]                        
0807363E 2003     mov     r0,3h                          
08073640 2100     mov     r1,0h                          
08073642 F78FFE37 bl      80032B4h                       
08073646 E02C     b       80736A2h                       
08073648 0024     lsl     r4,r4,0h                       
0807364A 0300     lsl     r0,r0,0Ch                      
0807364C 0C24     lsr     r4,r4,10h                      
0807364E 0300     lsl     r0,r0,0Ch                      
08073650 0C1E     lsr     r6,r3,10h                      
08073652 0300     lsl     r0,r0,0Ch                      
08073654 4BC8     ldr     r3,=4919444Dh                  
08073656 0875     lsr     r5,r6,1h                       
08073658 F000F83E bl      80736D8h                       
0807365C 4901     ldr     r1,=3000C20h                   
0807365E 2000     mov     r0,0h                          
08073660 7008     strb    r0,[r1]                        
08073662 E01E     b       80736A2h                       
08073664 0C20     lsr     r0,r4,10h                      
08073666 0300     lsl     r0,r0,0Ch                      
08073668 2000     mov     r0,0h                          
0807366A F78DFCA7 bl      8000FBCh                       
0807366E 2800     cmp     r0,0h                          
08073670 D028     beq     80736C4h                       
08073672 E016     b       80736A2h                       
08073674 4A0D     ldr     r2,=8754BC8h                   
08073676 480E     ldr     r0,=3000C1Eh                   
08073678 2100     mov     r1,0h                          
0807367A 5641     ldsb    r1,[r0,r1]                     
0807367C 00C8     lsl     r0,r1,3h                       
0807367E 1840     add     r0,r0,r1                       
08073680 0100     lsl     r0,r0,4h                       
08073682 1840     add     r0,r0,r1                       
08073684 0140     lsl     r0,r0,5h                       
08073686 1C01     mov     r1,r0                          
08073688 3180     add     r1,80h                         
0807368A 6812     ldr     r2,[r2]                        
0807368C 1851     add     r1,r2,r1                       
0807368E 4B09     ldr     r3,=36E0h                      
08073690 18C0     add     r0,r0,r3                       
08073692 1812     add     r2,r2,r0                       
08073694 2391     mov     r3,91h                         
08073696 015B     lsl     r3,r3,5h                       
08073698 2010     mov     r0,10h                         
0807369A 9000     str     r0,[sp]                        
0807369C 2003     mov     r0,3h                          
0807369E F78FFDA1 bl      80031E4h                       
080736A2 4905     ldr     r1,=3000C21h                   
080736A4 7808     ldrb    r0,[r1]                        
080736A6 3001     add     r0,1h                          
080736A8 7008     strb    r0,[r1]                        
080736AA E00B     b       80736C4h                       
080736AC 4BC8     ldr     r3,=3001530h                   
080736AE 0875     lsr     r5,r6,1h                       
080736B0 0C1E     lsr     r6,r3,10h                      
080736B2 0300     lsl     r0,r0,0Ch                      
080736B4 36E0     add     r6,0E0h                        
080736B6 0000     lsl     r0,r0,0h                       
080736B8 0C21     lsr     r1,r4,10h                      
080736BA 0300     lsl     r0,r0,0Ch                      
080736BC 4905     ldr     r1,=3000043h                   
080736BE 2000     mov     r0,0h                          
080736C0 7008     strb    r0,[r1]                        
080736C2 7010     strb    r0,[r2]                        
080736C4 4803     ldr     r0,=3000043h                   
080736C6 7801     ldrb    r1,[r0]                        
080736C8 2001     mov     r0,1h                          
080736CA 4048     eor     r0,r1                          
080736CC B001     add     sp,4h                          
080736CE BC30     pop     r4,r5                          
080736D0 BC02     pop     r1                             
080736D2 4708     bx      r1                             
080736D4 0043     lsl     r3,r0,1h                       
080736D6 0300     lsl     r0,r0,0Ch                      
080736D8 B510     push    r4,r14                         
080736DA 4A32     ldr     r2,=8754BC8h                   
080736DC 4832     ldr     r0,=3000C1Eh                   
080736DE 2100     mov     r1,0h                          
080736E0 5641     ldsb    r1,[r0,r1]                     
080736E2 00C8     lsl     r0,r1,3h                       
080736E4 1840     add     r0,r0,r1                       
080736E6 0100     lsl     r0,r0,4h                       
080736E8 1840     add     r0,r0,r1                       
080736EA 0140     lsl     r0,r0,5h                       
080736EC 3080     add     r0,80h                         
080736EE 6811     ldr     r1,[r2]                        
080736F0 180C     add     r4,r1,r0                       
080736F2 492E     ldr     r1,=8411410h                   
080736F4 1C20     mov     r0,r4                          
080736F6 2210     mov     r2,10h                         
080736F8 F000FDF2 bl      80742E0h                       
080736FC 1C20     mov     r0,r4                          
080736FE 304F     add     r0,4Fh                         
08073700 492B     ldr     r1,=8411420h                   
08073702 2210     mov     r2,10h                         
08073704 F000FDEC bl      80742E0h                       
08073708 2000     mov     r0,0h                          
0807370A 6120     str     r0,[r4,10h]                    
0807370C 3801     sub     r0,1h                          
0807370E 6160     str     r0,[r4,14h]                    
08073710 4928     ldr     r1,=3000024h                   
08073712 7848     ldrb    r0,[r1,1h]                     
08073714 7660     strb    r0,[r4,19h]                    
08073716 7808     ldrb    r0,[r1]                        
08073718 7620     strb    r0,[r4,18h]                    
0807371A 4827     ldr     r0,=300002Ch                   
0807371C 7801     ldrb    r1,[r0]                        
0807371E 1C20     mov     r0,r4                          
08073720 303C     add     r0,3Ch                         
08073722 7001     strb    r1,[r0]                        
08073724 4825     ldr     r0,=300002Eh                   
08073726 7800     ldrb    r0,[r0]                        
08073728 1C21     mov     r1,r4                          
0807372A 313E     add     r1,3Eh                         
0807372C 7008     strb    r0,[r1]                        
0807372E 4824     ldr     r0,=3000020h                   
08073730 7800     ldrb    r0,[r0]                        
08073732 76A0     strb    r0,[r4,1Ah]                    
08073734 4A23     ldr     r2,=3000154h                   
08073736 2080     mov     r0,80h                         
08073738 0080     lsl     r0,r0,2h                       
0807373A 1821     add     r1,r4,r0                       
0807373C 230B     mov     r3,0Bh                         
0807373E CA01     ldmia   [r2]!,r0                       
08073740 C101     stmia   [r1]!,r0                       
08073742 3B01     sub     r3,1h                          
08073744 2B00     cmp     r3,0h                          
08073746 DAFA     bge     807373Eh                       
08073748 2194     mov     r1,94h                         
0807374A 0089     lsl     r1,r1,2h                       
0807374C 1860     add     r0,r4,r1                       
0807374E 491E     ldr     r1,=8411430h                   
08073750 2210     mov     r2,10h                         
08073752 F000FDC5 bl      80742E0h                       
08073756 4A13     ldr     r2,=8754BC8h                   
08073758 4813     ldr     r0,=3000C1Eh                   
0807375A 2100     mov     r1,0h                          
0807375C 5641     ldsb    r1,[r0,r1]                     
0807375E 00C8     lsl     r0,r1,3h                       
08073760 1840     add     r0,r0,r1                       
08073762 0100     lsl     r0,r0,4h                       
08073764 1840     add     r0,r0,r1                       
08073766 0140     lsl     r0,r0,5h                       
08073768 3080     add     r0,80h                         
0807376A 6811     ldr     r1,[r2]                        
0807376C 1809     add     r1,r1,r0                       
0807376E 2200     mov     r2,0h                          
08073770 2390     mov     r3,90h                         
08073772 C901     ldmia   [r1]!,r0                       
08073774 1812     add     r2,r2,r0                       
08073776 C901     ldmia   [r1]!,r0                       
08073778 1812     add     r2,r2,r0                       
0807377A C901     ldmia   [r1]!,r0                       
0807377C 1812     add     r2,r2,r0                       
0807377E C901     ldmia   [r1]!,r0                       
08073780 1812     add     r2,r2,r0                       
08073782 C901     ldmia   [r1]!,r0                       
08073784 1812     add     r2,r2,r0                       
08073786 C901     ldmia   [r1]!,r0                       
08073788 1812     add     r2,r2,r0                       
0807378A C901     ldmia   [r1]!,r0                       
0807378C 1812     add     r2,r2,r0                       
0807378E C901     ldmia   [r1]!,r0                       
08073790 1812     add     r2,r2,r0                       
08073792 3B01     sub     r3,1h                          
08073794 2B00     cmp     r3,0h                          
08073796 DAEC     bge     8073772h                       
08073798 6122     str     r2,[r4,10h]                    
0807379A 43D0     mvn     r0,r2                          
0807379C 6160     str     r0,[r4,14h]                    
0807379E BC10     pop     r4                             
080737A0 BC01     pop     r0                             
080737A2 4700     bx      r0                             
080737A4 4BC8     ldr     r3,=70103001h                  
080737A6 0875     lsr     r5,r6,1h                       
080737A8 0C1E     lsr     r6,r3,10h                      
080737AA 0300     lsl     r0,r0,0Ch                      
080737AC 1410     asr     r0,r2,10h                      
080737AE 0841     lsr     r1,r0,1h                       
080737B0 1420     asr     r0,r4,10h                      
080737B2 0841     lsr     r1,r0,1h                       
080737B4 0024     lsl     r4,r4,0h                       
080737B6 0300     lsl     r0,r0,0Ch                      
080737B8 002C     lsl     r4,r5,0h                       
080737BA 0300     lsl     r0,r0,0Ch                      
080737BC 002E     lsl     r6,r5,0h                       
080737BE 0300     lsl     r0,r0,0Ch                      
080737C0 0020     lsl     r0,r4,0h                       
080737C2 0300     lsl     r0,r0,0Ch                      
080737C4 0154     lsl     r4,r2,5h                       
080737C6 0300     lsl     r0,r0,0Ch                      
080737C8 1430     asr     r0,r6,10h                      
080737CA 0841     lsr     r1,r0,1h                       
080737CC B530     push    r4,r5,r14                      
080737CE B081     add     sp,-4h                         
080737D0 2500     mov     r5,0h                          
080737D2 4805     ldr     r0,=3000C21h                   
080737D4 7801     ldrb    r1,[r0]                        
080737D6 1C02     mov     r2,r0                          
080737D8 2905     cmp     r1,5h                          
080737DA D900     bls     80737DEh                       
080737DC E080     b       80738E0h                       
080737DE 0088     lsl     r0,r1,2h                       
080737E0 4902     ldr     r1,=80737F0h                   
080737E2 1840     add     r0,r0,r1                       
080737E4 6800     ldr     r0,[r0]                        
080737E6 4687     mov     r15,r0                         
080737E8 0C21     lsr     r1,r4,10h                      
080737EA 0300     lsl     r0,r0,0Ch                      
080737EC 37F0     add     r7,0F0h                        
080737EE 0807     lsr     r7,r0,20h                      
080737F0 3808     sub     r0,8h                          
080737F2 0807     lsr     r7,r0,20h                      
080737F4 381C     sub     r0,1Ch                         
080737F6 0807     lsr     r7,r0,20h                      
080737F8 3828     sub     r0,28h                         
080737FA 0807     lsr     r7,r0,20h                      
080737FC 3868     sub     r0,68h                         
080737FE 0807     lsr     r7,r0,20h                      
08073800 3898     sub     r0,98h                         
08073802 0807     lsr     r7,r0,20h                      
08073804 38E0     sub     r0,0E0h                        
08073806 0807     lsr     r7,r0,20h                      
08073808 4903     ldr     r1,=3000C20h                   
0807380A 2000     mov     r0,0h                          
0807380C 7008     strb    r0,[r1]                        
0807380E 7810     ldrb    r0,[r2]                        
08073810 3001     add     r0,1h                          
08073812 7010     strb    r0,[r2]                        
08073814 E067     b       80738E6h                       
08073816 0000     lsl     r0,r0,0h                       
08073818 0C20     lsr     r0,r4,10h                      
0807381A 0300     lsl     r0,r0,0Ch                      
0807381C 2002     mov     r0,2h                          
0807381E F78DFBCD bl      8000FBCh                       
08073822 2800     cmp     r0,0h                          
08073824 D05F     beq     80738E6h                       
08073826 E04E     b       80738C6h                       
08073828 2201     mov     r2,1h                          
0807382A 480B     ldr     r0,=3000020h                   
0807382C 7800     ldrb    r0,[r0]                        
0807382E 0600     lsl     r0,r0,18h                      
08073830 1600     asr     r0,r0,18h                      
08073832 2801     cmp     r0,1h                          
08073834 D100     bne     8073838h                       
08073836 2208     mov     r2,8h                          
08073838 4908     ldr     r1,=3000024h                   
0807383A 4809     ldr     r0,=300002Ch                   
0807383C 7800     ldrb    r0,[r0]                        
0807383E 4082     lsl     r2,r0                          
08073840 7808     ldrb    r0,[r1]                        
08073842 4302     orr     r2,r0                          
08073844 2400     mov     r4,0h                          
08073846 700A     strb    r2,[r1]                        
08073848 F000F852 bl      80738F0h                       
0807384C F000F8CC bl      80739E8h                       
08073850 4804     ldr     r0,=3000C20h                   
08073852 7004     strb    r4,[r0]                        
08073854 E037     b       80738C6h                       
08073856 0000     lsl     r0,r0,0h                       
08073858 0020     lsl     r0,r4,0h                       
0807385A 0300     lsl     r0,r0,0Ch                      
0807385C 0024     lsl     r4,r4,0h                       
0807385E 0300     lsl     r0,r0,0Ch                      
08073860 002C     lsl     r4,r5,0h                       
08073862 0300     lsl     r0,r0,0Ch                      
08073864 0C20     lsr     r0,r4,10h                      
08073866 0300     lsl     r0,r0,0Ch                      
08073868 2000     mov     r0,0h                          
0807386A F78DFBA7 bl      8000FBCh                       
0807386E 2800     cmp     r0,0h                          
08073870 D039     beq     80738E6h                       
08073872 4A06     ldr     r2,=3000C24h                   
08073874 4806     ldr     r0,=3000C1Eh                   
08073876 2100     mov     r1,0h                          
08073878 5641     ldsb    r1,[r0,r1]                     
0807387A 0048     lsl     r0,r1,1h                       
0807387C 1840     add     r0,r0,r1                       
0807387E 00C0     lsl     r0,r0,3h                       
08073880 1880     add     r0,r0,r2                       
08073882 4904     ldr     r1,=3000024h                   
08073884 7809     ldrb    r1,[r1]                        
08073886 7441     strb    r1,[r0,11h]                    
08073888 E01D     b       80738C6h                       
0807388A 0000     lsl     r0,r0,0h                       
0807388C 0C24     lsr     r4,r4,10h                      
0807388E 0300     lsl     r0,r0,0Ch                      
08073890 0C1E     lsr     r6,r3,10h                      
08073892 0300     lsl     r0,r0,0Ch                      
08073894 0024     lsl     r4,r4,0h                       
08073896 0300     lsl     r0,r0,0Ch                      
08073898 4A0D     ldr     r2,=8754BC8h                   
0807389A 480E     ldr     r0,=3000C1Eh                   
0807389C 2100     mov     r1,0h                          
0807389E 5641     ldsb    r1,[r0,r1]                     
080738A0 00C8     lsl     r0,r1,3h                       
080738A2 1840     add     r0,r0,r1                       
080738A4 0100     lsl     r0,r0,4h                       
080738A6 1840     add     r0,r0,r1                       
080738A8 0140     lsl     r0,r0,5h                       
080738AA 1C01     mov     r1,r0                          
080738AC 3180     add     r1,80h                         
080738AE 6812     ldr     r2,[r2]                        
080738B0 1851     add     r1,r2,r1                       
080738B2 4B09     ldr     r3,=36E0h                      
080738B4 18C0     add     r0,r0,r3                       
080738B6 1812     add     r2,r2,r0                       

0806EB26 E74C     b       806E9C2h                       
0806EB28 20FF     mov     r0,0FFh                        
0806EB2A 9A03     ldr     r2,[sp,0Ch]                    
0806EB2C 4010     and     r0,r2                          
0806EB2E 08C0     lsr     r0,r0,3h                       
0806EB30 0140     lsl     r0,r0,5h                       
0806EB32 9B02     ldr     r3,[sp,8h]                     
0806EB34 1818     add     r0,r3,r0                       
0806EB36 9E0D     ldr     r6,[sp,34h]                    
0806EB38 1984     add     r4,r0,r6                       
0806EB3A 9F0C     ldr     r7,[sp,30h]                    
0806EB3C 02F8     lsl     r0,r7,0Bh                      
0806EB3E 1824     add     r4,r4,r0                       
0806EB40 4D94     ldr     r5,=2027700h                   
0806EB42 4660     mov     r0,r12                         
0806EB44 2800     cmp     r0,0h                          
0806EB46 D000     beq     806EB4Ah                       
0806EB48 3540     add     r5,40h                         
0806EB4A 2107     mov     r1,7h                          
0806EB4C 9A03     ldr     r2,[sp,0Ch]                    
0806EB4E 4011     and     r1,r2                          
0806EB50 2900     cmp     r1,0h                          
0806EB52 D100     bne     806EB56h                       
0806EB54 E19A     b       806EE8Ch                       
0806EB56 008B     lsl     r3,r1,2h                       

