08013024 B530     push    r4,r5,r14                               
08013026 4B13     ldr     r3,=3000738h                            
08013028 1C18     mov     r0,r3                                   
0801302A 3026     add     r0,26h                                  
0801302C 2501     mov     r5,1h                                   
0801302E 7005     strb    r5,[r0]       ;冷却值写入1,无敌                          
08013030 1C19     mov     r1,r3                                   
08013032 3124     add     r1,24h                                  
08013034 7808     ldrb    r0,[r1]       ;读取Pose                           
08013036 1C04     mov     r4,r0                                   
08013038 2C00     cmp     r4,0h                                   
0801303A D117     bne     @@end 
;-----------------------------------Pose为0                               
0801303C 3001     add     r0,1h                                   
0801303E 7008     strb    r0,[r1]      ;Pose加1再写入                                
08013040 1C18     mov     r0,r3                                   
08013042 3027     add     r0,27h                                  
08013044 2108     mov     r1,8h                                   
08013046 7001     strb    r1,[r0]      ;视野判定上8                           
08013048 3001     add     r0,1h                                   
0801304A 7001     strb    r1,[r0]      ;左右8                           
0801304C 3001     add     r0,1h                                   
0801304E 7001     strb    r1,[r0]      ;下8                           
08013050 2200     mov     r2,0h                                   
08013052 4909     ldr     r1,=0FFF0h                              
08013054 8159     strh    r1,[r3,0Ah]                             
08013056 2010     mov     r0,10h                                  
08013058 8198     strh    r0,[r3,0Ch]                             
0801305A 81D9     strh    r1,[r3,0Eh]                             
0801305C 8218     strh    r0,[r3,10h]                             
0801305E 771A     strb    r2,[r3,1Ch]                             
08013060 82DC     strh    r4,[r3,16h]                             
08013062 4806     ldr     r0,=82B2848h                            
08013064 6198     str     r0,[r3,18h]                             
08013066 1C18     mov     r0,r3                                   
08013068 3021     add     r0,21h                                  
0801306A 7005     strb    r5,[r0] 

@@end:                                
0801306C BC30     pop     r4,r5                                   
0801306E BC01     pop     r0                                      
08013070 4700     bx      r0                                      


                              
08013080 B530     push    r4,r5,r14                               
08013082 B083     add     sp,-0Ch                                 
08013084 4805     ldr     r0,=3001530h                            
08013086 7B81     ldrb    r1,[r0,0Eh]                             
08013088 2040     mov     r0,40h                                  
0801308A 4008     and     r0,r1                                   
0801308C 0600     lsl     r0,r0,18h                               
0801308E 0E04     lsr     r4,r0,18h                               
08013090 2C00     cmp     r4,0h                                   
08013092 D007     beq     80130A4h                                
08013094 4902     ldr     r1,=3000738h                            
08013096 2000     mov     r0,0h                                   
08013098 8008     strh    r0,[r1]                                 
0801309A E03C     b       8013116h                                
0801309C 1530     asr     r0,r6,14h                               
0801309E 0300     lsl     r0,r0,0Ch                               
080130A0 0738     lsl     r0,r7,1Ch                               
080130A2 0300     lsl     r0,r0,0Ch                               
080130A4 481E     ldr     r0,=3000738h                            
080130A6 4684     mov     r12,r0                                  
080130A8 4662     mov     r2,r12                                  
080130AA 3232     add     r2,32h                                  
080130AC 7810     ldrb    r0,[r2]                                 
080130AE 2140     mov     r1,40h                                  
080130B0 4308     orr     r0,r1                                   
080130B2 7010     strb    r0,[r2]                                 
080130B4 2200     mov     r2,0h                                   
080130B6 491B     ldr     r1,=0FFE4h                              
080130B8 4663     mov     r3,r12                                  
080130BA 8159     strh    r1,[r3,0Ah]                             
080130BC 201C     mov     r0,1Ch                                  
080130BE 8198     strh    r0,[r3,0Ch]                             
080130C0 81D9     strh    r1,[r3,0Eh]                             
080130C2 8218     strh    r0,[r3,10h]                             
080130C4 4660     mov     r0,r12                                  
080130C6 3027     add     r0,27h                                  
080130C8 2108     mov     r1,8h                                   
080130CA 7001     strb    r1,[r0]                                 
080130CC 3001     add     r0,1h                                   
080130CE 7001     strb    r1,[r0]                                 
080130D0 3001     add     r0,1h                                   
080130D2 7001     strb    r1,[r0]                                 
080130D4 4814     ldr     r0,=82B2BA8h                            
080130D6 6198     str     r0,[r3,18h]                             
080130D8 771A     strb    r2,[r3,1Ch]                             
080130DA 82DC     strh    r4,[r3,16h]                             
080130DC 4661     mov     r1,r12                                  
080130DE 3125     add     r1,25h                                  
080130E0 201E     mov     r0,1Eh                                  
080130E2 7008     strb    r0,[r1]                                 
080130E4 2001     mov     r0,1h                                   
080130E6 8298     strh    r0,[r3,14h]                             
080130E8 8858     ldrh    r0,[r3,2h]                              
080130EA 3820     sub     r0,20h                                  
080130EC 8058     strh    r0,[r3,2h]                              
080130EE 3901     sub     r1,1h                                   
080130F0 2009     mov     r0,9h                                   
080130F2 7008     strb    r0,[r1]                                 
080130F4 3902     sub     r1,2h                                   
080130F6 2003     mov     r0,3h                                   
080130F8 7008     strb    r0,[r1]                                 
080130FA 7F99     ldrb    r1,[r3,1Eh]                             
080130FC 7FDA     ldrb    r2,[r3,1Fh]                             
080130FE 4660     mov     r0,r12                                  
08013100 3023     add     r0,23h                                  
08013102 7803     ldrb    r3,[r0]                                 
08013104 4665     mov     r5,r12                                  
08013106 8868     ldrh    r0,[r5,2h]                              
08013108 9000     str     r0,[sp]                                 
0801310A 88A8     ldrh    r0,[r5,4h]                              
0801310C 9001     str     r0,[sp,4h]                              
0801310E 9402     str     r4,[sp,8h]                              
08013110 2013     mov     r0,13h                                  
08013112 F7FBF8A1 bl      800E258h                                
08013116 B003     add     sp,0Ch                                  
08013118 BC30     pop     r4,r5                                   
0801311A BC01     pop     r0                                      
0801311C 4700     bx      r0                                      
0801311E 0000     lsl     r0,r0,0h                                
08013120 0738     lsl     r0,r7,1Ch                               
08013122 0300     lsl     r0,r0,0Ch                               
08013124 FFE4     bl      lr+0FC8h                                
08013126 0000     lsl     r0,r0,0h                                
08013128 2BA8     cmp     r3,0A8h                                 
0801312A 082B     lsr     r3,r5,20h                               
0801312C B510     push    r4,r14                                  
0801312E B082     add     sp,-8h                                  
08013130 4818     ldr     r0,=3000738h                            
08013132 4684     mov     r12,r0                                  
08013134 8801     ldrh    r1,[r0]                                 
08013136 2080     mov     r0,80h                                  
08013138 0100     lsl     r0,r0,4h                                
0801313A 4008     and     r0,r1                                   
0801313C 2800     cmp     r0,0h                                   
0801313E D024     beq     801318Ah                                
08013140 4915     ldr     r1,=3001606h                            
08013142 22FA     mov     r2,0FAh                                 
08013144 0092     lsl     r2,r2,2h                                
08013146 1C10     mov     r0,r2                                   
08013148 8008     strh    r0,[r1]                                 
0801314A 4662     mov     r2,r12                                  
0801314C 3232     add     r2,32h                                  
0801314E 7811     ldrb    r1,[r2]                                 
08013150 2001     mov     r0,1h                                   
08013152 2400     mov     r4,0h                                   
08013154 4308     orr     r0,r1                                   
08013156 7010     strb    r0,[r2]                                 
08013158 4661     mov     r1,r12                                  
0801315A 3126     add     r1,26h                                  
0801315C 2001     mov     r0,1h                                   
0801315E 7008     strb    r0,[r1]                                 
08013160 3902     sub     r1,2h                                   
08013162 2023     mov     r0,23h                                  
08013164 7008     strb    r0,[r1]                                 
08013166 4660     mov     r0,r12                                  
08013168 302C     add     r0,2Ch                                  
0801316A 7004     strb    r4,[r0]                                 
0801316C 4A0B     ldr     r2,=3001530h                            
0801316E 7B91     ldrb    r1,[r2,0Eh]                             
08013170 2040     mov     r0,40h                                  
08013172 4308     orr     r0,r1                                   
08013174 7390     strb    r0,[r2,0Eh]                             
08013176 4660     mov     r0,r12                                  
08013178 8843     ldrh    r3,[r0,2h]                              
0801317A 8880     ldrh    r0,[r0,4h]                              
0801317C 9000     str     r0,[sp]                                 
0801317E 9401     str     r4,[sp,4h]                              
08013180 2011     mov     r0,11h                                  
08013182 2110     mov     r1,10h                                  
08013184 2206     mov     r2,6h                                   
08013186 F7FBF8C9 bl      800E31Ch                                
0801318A B002     add     sp,8h                                   
0801318C BC10     pop     r4                                      
0801318E BC01     pop     r0                                      
08013190 4700     bx      r0                                      
08013192 0000     lsl     r0,r0,0h                                
08013194 0738     lsl     r0,r7,1Ch                               
08013196 0300     lsl     r0,r0,0Ch                               
08013198 1606     asr     r6,r0,18h                               
0801319A 0300     lsl     r0,r0,0Ch                               
0801319C 1530     asr     r0,r6,14h                               
0801319E 0300     lsl     r0,r0,0Ch                               
080131A0 B500     push    r14                                     
080131A2 4A0B     ldr     r2,=3000738h                            
080131A4 1C11     mov     r1,r2                                   
080131A6 3126     add     r1,26h                                  
080131A8 2001     mov     r0,1h                                   
080131AA 7008     strb    r0,[r1]                                 
080131AC 3106     add     r1,6h                                   
080131AE 7809     ldrb    r1,[r1]                                 
080131B0 4008     and     r0,r1                                   
080131B2 2800     cmp     r0,0h                                   
080131B4 D103     bne     80131BEh                                
080131B6 8810     ldrh    r0,[r2]                                 
080131B8 2104     mov     r1,4h                                   
080131BA 4048     eor     r0,r1                                   
080131BC 8010     strh    r0,[r2]                                 
080131BE 4805     ldr     r0,=3001606h                            
080131C0 8801     ldrh    r1,[r0]                                 
080131C2 4805     ldr     r0,=3E6h                                
080131C4 4281     cmp     r1,r0                                   
080131C6 D801     bhi     80131CCh                                
080131C8 2000     mov     r0,0h                                   
080131CA 8010     strh    r0,[r2]                                 
080131CC BC01     pop     r0                                      
080131CE 4700     bx      r0                                      
080131D0 0738     lsl     r0,r7,1Ch                               
080131D2 0300     lsl     r0,r0,0Ch                               
080131D4 1606     asr     r6,r0,18h                               
080131D6 0300     lsl     r0,r0,0Ch                               
080131D8 03E6     lsl     r6,r4,0Fh                               
080131DA 0000     lsl     r0,r0,0h                                
080131DC B510     push    r4,r14                                  
080131DE 4812     ldr     r0,=3000738h                            
080131E0 4684     mov     r12,r0                                  
080131E2 2200     mov     r2,0h                                   
080131E4 2300     mov     r3,0h                                   
080131E6 4911     ldr     r1,=0FFFCh                              
080131E8 8141     strh    r1,[r0,0Ah]                             
080131EA 2004     mov     r0,4h                                   
080131EC 4664     mov     r4,r12                                  
080131EE 81A0     strh    r0,[r4,0Ch]                             
080131F0 81E1     strh    r1,[r4,0Eh]                             
080131F2 8220     strh    r0,[r4,10h]                             
080131F4 4660     mov     r0,r12                                  
080131F6 3027     add     r0,27h                                  
080131F8 2108     mov     r1,8h                                   
080131FA 7001     strb    r1,[r0]                                 
080131FC 3001     add     r0,1h                                   
080131FE 7001     strb    r1,[r0]                                 
08013200 3001     add     r0,1h                                   
08013202 7001     strb    r1,[r0]                                 
08013204 480A     ldr     r0,=82B2BD0h                            
08013206 61A0     str     r0,[r4,18h]                             
08013208 7722     strb    r2,[r4,1Ch]                             
0801320A 82E3     strh    r3,[r4,16h]                             
0801320C 4660     mov     r0,r12                                  
0801320E 3025     add     r0,25h                                  
08013210 7002     strb    r2,[r0]                                 
08013212 4661     mov     r1,r12                                  
08013214 3122     add     r1,22h                                  
08013216 2002     mov     r0,2h                                   
08013218 7008     strb    r0,[r1]                                 
0801321A 3102     add     r1,2h                                   
0801321C 2009     mov     r0,9h                                   
0801321E 7008     strb    r0,[r1]                                 
08013220 BC10     pop     r4                                      
08013222 BC01     pop     r0                                      
08013224 4700     bx      r0                                      
08013226 0000     lsl     r0,r0,0h                                
08013228 0738     lsl     r0,r7,1Ch                               
0801322A 0300     lsl     r0,r0,0Ch                               
0801322C FFFC     bl      lr+0FF8h                                
0801322E 0000     lsl     r0,r0,0h                                
08013230 2BD0     cmp     r3,0D0h                                 
08013232 082B     lsr     r3,r5,20h                               
08013234 B500     push    r14                                     
08013236 4B0C     ldr     r3,=3000738h                            
08013238 1C18     mov     r0,r3                                   
0801323A 3023     add     r0,23h                                  
0801323C 7801     ldrb    r1,[r0]                                 
0801323E 4A0B     ldr     r2,=30001ACh                            
08013240 00C8     lsl     r0,r1,3h                                
08013242 1A40     sub     r0,r0,r1                                
08013244 00C0     lsl     r0,r0,3h                                
08013246 1880     add     r0,r0,r2                                
08013248 8801     ldrh    r1,[r0]                                 
0801324A 8019     strh    r1,[r3]                                 
0801324C 3032     add     r0,32h                                  
0801324E 7801     ldrb    r1,[r0]                                 
08013250 2001     mov     r0,1h                                   
08013252 4008     and     r0,r1                                   
08013254 2800     cmp     r0,0h                                   
08013256 D005     beq     8013264h                                
08013258 1C1A     mov     r2,r3                                   
0801325A 3232     add     r2,32h                                  
0801325C 7811     ldrb    r1,[r2]                                 
0801325E 2001     mov     r0,1h                                   
08013260 4308     orr     r0,r1                                   
08013262 7010     strb    r0,[r2]                                 
08013264 BC01     pop     r0                                      
08013266 4700     bx      r0                                      
08013268 0738     lsl     r0,r7,1Ch                               
0801326A 0300     lsl     r0,r0,0Ch                               
0801326C 01AC     lsl     r4,r5,6h                                
0801326E 0300     lsl     r0,r0,0Ch                               
08013270 B500     push    r14                                     
08013272 4805     ldr     r0,=3000738h                            
08013274 3024     add     r0,24h                                  
08013276 7800     ldrb    r0,[r0]                                 
08013278 2809     cmp     r0,9h                                   
0801327A D00D     beq     8013298h                                
0801327C 2809     cmp     r0,9h                                   
0801327E DC05     bgt     801328Ch                                
08013280 2800     cmp     r0,0h                                   
08013282 D006     beq     8013292h                                
08013284 E00D     b       80132A2h                                
08013286 0000     lsl     r0,r0,0h                                
08013288 0738     lsl     r0,r7,1Ch                               
0801328A 0300     lsl     r0,r0,0Ch                               
0801328C 2823     cmp     r0,23h                                  
0801328E D006     beq     801329Eh                                
08013290 E007     b       80132A2h                                
08013292 F7FFFEF5 bl      8013080h                                
08013296 E004     b       80132A2h                                
08013298 F7FFFF48 bl      801312Ch                                
0801329C E001     b       80132A2h                                
0801329E F7FFFF7F bl      80131A0h                                
080132A2 BC01     pop     r0                                      
080132A4 4700     bx      r0                                      
080132A6 0000     lsl     r0,r0,0h                                
080132A8 B500     push    r14                                     
080132AA 4806     ldr     r0,=3000738h                            
080132AC 1C02     mov     r2,r0                                   
080132AE 3226     add     r2,26h                                  
080132B0 2101     mov     r1,1h                                   
080132B2 7011     strb    r1,[r2]                                 
080132B4 3024     add     r0,24h                                  
080132B6 7800     ldrb    r0,[r0]                                 
080132B8 2800     cmp     r0,0h                                   
080132BA D005     beq     80132C8h                                
080132BC 2809     cmp     r0,9h                                   
080132BE D005     beq     80132CCh                                
080132C0 E006     b       80132D0h                                
080132C2 0000     lsl     r0,r0,0h                                
080132C4 0738     lsl     r0,r7,1Ch                               
080132C6 0300     lsl     r0,r0,0Ch                               
080132C8 F7FFFF88 bl      80131DCh                                
080132CC F7FFFFB2 bl      8013234h                                
080132D0 BC01     pop     r0                                      
080132D2 4700     bx      r0                                      
080132D4 B530     push    r4,r5,r14                               
080132D6 B083     add     sp,-0Ch                                 
080132D8 4D05     ldr     r5,=3000738h                            
080132DA 1C2B     mov     r3,r5                                   
080132DC 3324     add     r3,24h                                  
080132DE 781A     ldrb    r2,[r3]                                 
080132E0 2A09     cmp     r2,9h                                   
080132E2 D047     beq     8013374h                                
080132E4 2A09     cmp     r2,9h                                   
080132E6 DC05     bgt     80132F4h                                
080132E8 2A00     cmp     r2,0h                                   
080132EA D006     beq     80132FAh                                
080132EC E088     b       8013400h                                
080132EE 0000     lsl     r0,r0,0h                                
080132F0 0738     lsl     r0,r7,1Ch                               
080132F2 0300     lsl     r0,r0,0Ch                               
080132F4 2A23     cmp     r2,23h                                  
080132F6 D06F     beq     80133D8h                                
080132F8 E082     b       8013400h                                
080132FA 4805     ldr     r0,=3001530h                            
080132FC 7B81     ldrb    r1,[r0,0Eh]                             
080132FE 2080     mov     r0,80h                                  
08013300 4008     and     r0,r1                                   
08013302 0600     lsl     r0,r0,18h                               
08013304 0E04     lsr     r4,r0,18h                               
08013306 2C00     cmp     r4,0h                                   
08013308 D004     beq     8013314h                                
0801330A 802A     strh    r2,[r5]                                 
0801330C E078     b       8013400h                                
0801330E 0000     lsl     r0,r0,0h                                
08013310 1530     asr     r0,r6,14h                               
08013312 0300     lsl     r0,r0,0Ch                               
08013314 1C28     mov     r0,r5                                   
08013316 3027     add     r0,27h                                  
08013318 2108     mov     r1,8h                                   
0801331A 7001     strb    r1,[r0]                                 
0801331C 3001     add     r0,1h                                   
0801331E 7001     strb    r1,[r0]                                 
08013320 3001     add     r0,1h                                   
08013322 7001     strb    r1,[r0]                                 
08013324 2200     mov     r2,0h                                   
08013326 4911     ldr     r1,=0FFE4h                              
08013328 8169     strh    r1,[r5,0Ah]                             
0801332A 201C     mov     r0,1Ch                                  
0801332C 81A8     strh    r0,[r5,0Ch]                             
0801332E 81E9     strh    r1,[r5,0Eh]                             
08013330 8228     strh    r0,[r5,10h]                             
08013332 480F     ldr     r0,=82B310Ch                            
08013334 61A8     str     r0,[r5,18h]                             
08013336 772A     strb    r2,[r5,1Ch]                             
08013338 82EC     strh    r4,[r5,16h]                             
0801333A 1C29     mov     r1,r5                                   
0801333C 3125     add     r1,25h                                  
0801333E 201E     mov     r0,1Eh                                  
08013340 7008     strb    r0,[r1]                                 
08013342 2001     mov     r0,1h                                   
08013344 82A8     strh    r0,[r5,14h]                             
08013346 8868     ldrh    r0,[r5,2h]                              
08013348 3840     sub     r0,40h                                  
0801334A 8068     strh    r0,[r5,2h]                              
0801334C 2009     mov     r0,9h                                   
0801334E 7018     strb    r0,[r3]                                 
08013350 7FA9     ldrb    r1,[r5,1Eh]                             
08013352 7FEA     ldrb    r2,[r5,1Fh]                             
08013354 1C28     mov     r0,r5                                   
08013356 3023     add     r0,23h                                  
08013358 7803     ldrb    r3,[r0]                                 
0801335A 8868     ldrh    r0,[r5,2h]                              
0801335C 9000     str     r0,[sp]                                 
0801335E 88A8     ldrh    r0,[r5,4h]                              
08013360 9001     str     r0,[sp,4h]                              
08013362 9402     str     r4,[sp,8h]                              
08013364 2046     mov     r0,46h                                  
08013366 F7FAFF77 bl      800E258h                                
0801336A E049     b       8013400h                                
0801336C FFE4     bl      lr+0FC8h                                
0801336E 0000     lsl     r0,r0,0h                                
08013370 310C     add     r1,0Ch                                  
08013372 082B     lsr     r3,r5,20h                               
08013374 8829     ldrh    r1,[r5]                                 
08013376 2080     mov     r0,80h                                  
08013378 0100     lsl     r0,r0,4h                                
0801337A 4008     and     r0,r1                                   
0801337C 2800     cmp     r0,0h                                   
0801337E D03F     beq     8013400h                                
08013380 4913     ldr     r1,=3001606h                            
08013382 22FA     mov     r2,0FAh                                 
08013384 0092     lsl     r2,r2,2h                                
08013386 1C10     mov     r0,r2                                   
08013388 8008     strh    r0,[r1]                                 
0801338A 1C2A     mov     r2,r5                                   
0801338C 3232     add     r2,32h                                  
0801338E 7811     ldrb    r1,[r2]                                 
08013390 2001     mov     r0,1h                                   
08013392 2400     mov     r4,0h                                   
08013394 4308     orr     r0,r1                                   
08013396 7010     strb    r0,[r2]                                 
08013398 1C29     mov     r1,r5                                   
0801339A 3126     add     r1,26h                                  
0801339C 2001     mov     r0,1h                                   
0801339E 7008     strb    r0,[r1]                                 
080133A0 2023     mov     r0,23h                                  
080133A2 7018     strb    r0,[r3]                                 
080133A4 1C28     mov     r0,r5                                   
080133A6 302C     add     r0,2Ch                                  
080133A8 7004     strb    r4,[r0]                                 
080133AA 4A0A     ldr     r2,=3001530h                            
080133AC 7B91     ldrb    r1,[r2,0Eh]                             
080133AE 2080     mov     r0,80h                                  
080133B0 4308     orr     r0,r1                                   
080133B2 7390     strb    r0,[r2,0Eh]                             
080133B4 2001     mov     r0,1h                                   
080133B6 2110     mov     r1,10h                                  
080133B8 F04DFA80 bl      80608BCh                                
080133BC 886B     ldrh    r3,[r5,2h]                              
080133BE 88A8     ldrh    r0,[r5,4h]                              
080133C0 9000     str     r0,[sp]                                 
080133C2 9401     str     r4,[sp,4h]                              
080133C4 2011     mov     r0,11h                                  
080133C6 2115     mov     r1,15h                                  
080133C8 2206     mov     r2,6h                                   
080133CA F7FAFFA7 bl      800E31Ch                                
080133CE E017     b       8013400h                                
080133D0 1606     asr     r6,r0,18h                               
080133D2 0300     lsl     r0,r0,0Ch                               
080133D4 1530     asr     r0,r6,14h                               
080133D6 0300     lsl     r0,r0,0Ch                               
080133D8 1C29     mov     r1,r5                                   
080133DA 3126     add     r1,26h                                  
080133DC 2001     mov     r0,1h                                   
080133DE 7008     strb    r0,[r1]                                 
080133E0 3106     add     r1,6h                                   
080133E2 7809     ldrb    r1,[r1]                                 
080133E4 4008     and     r0,r1                                   
080133E6 2800     cmp     r0,0h                                   
080133E8 D103     bne     80133F2h                                
080133EA 8828     ldrh    r0,[r5]                                 
080133EC 2104     mov     r1,4h                                   
080133EE 4048     eor     r0,r1                                   
080133F0 8028     strh    r0,[r5]                                 
080133F2 4805     ldr     r0,=3001606h                            
080133F4 8801     ldrh    r1,[r0]                                 
080133F6 4805     ldr     r0,=3E6h                                
080133F8 4281     cmp     r1,r0                                   
080133FA D801     bhi     8013400h                                
080133FC 2000     mov     r0,0h                                   
080133FE 8028     strh    r0,[r5]                                 
08013400 B003     add     sp,0Ch                                  
08013402 BC30     pop     r4,r5                                   
08013404 BC01     pop     r0                                      
08013406 4700     bx      r0                                      
08013408 1606     asr     r6,r0,18h                               
0801340A 0300     lsl     r0,r0,0Ch                               
0801340C 03E6     lsl     r6,r4,0Fh                               
0801340E 0000     lsl     r0,r0,0h                                
08013410 B530     push    r4,r5,r14                               
08013412 4B04     ldr     r3,=3000738h                            
08013414 1C1D     mov     r5,r3                                   
08013416 3524     add     r5,24h                                  
08013418 782C     ldrb    r4,[r5]                                 
0801341A 2C00     cmp     r4,0h                                   
0801341C D004     beq     8013428h                                
0801341E 2C09     cmp     r4,9h                                   
08013420 D026     beq     8013470h                                
08013422 E033     b       801348Ch                                

