0803DDC4 B5F0     push    r4-r7,lr
0803DDC6 4B0B     ldr     r3,=30006BCh
0803DDC8 1C18     mov     r0,r3
0803DDCA 3023     add     r0,23h
0803DDCC 7805     ldrb    r5,[r0]
0803DDCE 4A0A     ldr     r2,=3000140h
0803DDD0 00E8     lsl     r0,r5,3h
0803DDD2 1B40     sub     r0,r0,r5
0803DDD4 00C0     lsl     r0,r0,3h
0803DDD6 1880     add     r0,r0,r2
0803DDD8 8801     ldrh    r1,[r0]
0803DDDA 2680     mov     r6,80h
0803DDDC 01B6     lsl     r6,r6,6h
0803DDDE 1C30     mov     r0,r6
0803DDE0 4008     and     r0,r1
0803DDE2 1C1C     mov     r4,r3
0803DDE4 1C17     mov     r7,r2
0803DDE6 2800     cmp     r0,0h
0803DDE8 D008     beq     803DDFCh
0803DDEA 8821     ldrh    r1,[r4]
0803DDEC 1C30     mov     r0,r6
0803DDEE 4308     orr     r0,r1
0803DDF0 E007     b       803DE02h
0803DDF2 0000     lsl     r0,r0,0h
0803DDF4 06BC     lsl     r4,r7,1Ah
0803DDF6 0300     lsl     r0,r0,0Ch
0803DDF8 0140     lsl     r0,r0,5h
0803DDFA 0300     lsl     r0,r0,0Ch
0803DDFC 8821     ldrh    r1,[r4]
0803DDFE 4812     ldr     r0,=0DFFFh
0803DE00 4008     and     r0,r1
0803DE02 8020     strh    r0,[r4]
0803DE04 8AA6     ldrh    r6,[r4,14h]
0803DE06 00EB     lsl     r3,r5,3h
0803DE08 2E00     cmp     r6,0h
0803DE0A D11F     bne     803DE4Ch
0803DE0C 1B58     sub     r0,r3,r5
0803DE0E 00C0     lsl     r0,r0,3h
0803DE10 19C0     add     r0,r0,r7
0803DE12 4684     mov     r12,r0
0803DE14 4661     mov     r1,r12
0803DE16 3124     add     r1,24h
0803DE18 7808     ldrb    r0,[r1]
0803DE1A 2856     cmp     r0,56h
0803DE1C D816     bhi     803DE4Ch
0803DE1E 2057     mov     r0,57h
0803DE20 7008     strb    r0,[r1]
0803DE22 3102     add     r1,2h
0803DE24 2001     mov     r0,1h
0803DE26 7008     strb    r0,[r1]
0803DE28 2300     mov     r3,0h
0803DE2A 4660     mov     r0,r12
0803DE2C 8286     strh    r6,[r0,14h]
0803DE2E 4662     mov     r2,r12
0803DE30 3234     add     r2,34h
0803DE32 7811     ldrb    r1,[r2]
0803DE34 2010     mov     r0,10h
0803DE36 4308     orr     r0,r1
0803DE38 7010     strb    r0,[r2]
0803DE3A 4660     mov     r0,r12
0803DE3C 3032     add     r0,32h
0803DE3E 7003     strb    r3,[r0]
0803DE40 3812     sub     r0,12h
0803DE42 7003     strb    r3,[r0]
0803DE44 8026     strh    r6,[r4]
0803DE46 E03E     b       803DEC6h
0803DE48 DFFF     swi     0FFh    ;Invalid!!!
0803DE4A 0000     lsl     r0,r0,0h
0803DE4C 7FA0     ldrb    r0,[r4,1Eh]
0803DE4E 2800     cmp     r0,0h
0803DE50 D010     beq     803DE74h
0803DE52 1B58     sub     r0,r3,r5
0803DE54 00C0     lsl     r0,r0,3h
0803DE56 19C2     add     r2,r0,r7
0803DE58 8850     ldrh    r0,[r2,2h]
0803DE5A 3820     sub     r0,20h
0803DE5C 8060     strh    r0,[r4,2h]
0803DE5E 8811     ldrh    r1,[r2]
0803DE60 2040     mov     r0,40h
0803DE62 4008     and     r0,r1
0803DE64 2800     cmp     r0,0h
0803DE66 D002     beq     803DE6Eh
0803DE68 8890     ldrh    r0,[r2,4h]
0803DE6A 3818     sub     r0,18h
0803DE6C E009     b       803DE82h
0803DE6E 8890     ldrh    r0,[r2,4h]
0803DE70 3018     add     r0,18h
0803DE72 E006     b       803DE82h
0803DE74 1B58     sub     r0,r3,r5
0803DE76 00C0     lsl     r0,r0,3h
0803DE78 19C0     add     r0,r0,r7
0803DE7A 8841     ldrh    r1,[r0,2h]
0803DE7C 3960     sub     r1,60h
0803DE7E 8061     strh    r1,[r4,2h]
0803DE80 8880     ldrh    r0,[r0,4h]
0803DE82 80A0     strh    r0,[r4,4h]
0803DE84 1B58     sub     r0,r3,r5
0803DE86 00C0     lsl     r0,r0,3h
0803DE88 19C0     add     r0,r0,r7
0803DE8A 3024     add     r0,24h
0803DE8C 7800     ldrb    r0,[r0]
0803DE8E 2858     cmp     r0,58h
0803DE90 DC03     bgt     803DE9Ah
0803DE92 2857     cmp     r0,57h
0803DE94 DB01     blt     803DE9Ah
0803DE96 2000     mov     r0,0h
0803DE98 E014     b       803DEC4h
0803DE9A 1B58     sub     r0,r3,r5
0803DE9C 00C0     lsl     r0,r0,3h
0803DE9E 19C0     add     r0,r0,r7
0803DEA0 8801     ldrh    r1,[r0]
0803DEA2 2020     mov     r0,20h
0803DEA4 4008     and     r0,r1
0803DEA6 2800     cmp     r0,0h
0803DEA8 D009     beq     803DEBEh
0803DEAA 1C21     mov     r1,r4
0803DEAC 3126     add     r1,26h
0803DEAE 2001     mov     r0,1h
0803DEB0 7008     strb    r0,[r1]
0803DEB2 8821     ldrh    r1,[r4]
0803DEB4 2280     mov     r2,80h
0803DEB6 0212     lsl     r2,r2,8h
0803DEB8 1C10     mov     r0,r2
0803DEBA 4308     orr     r0,r1
0803DEBC E002     b       803DEC4h
0803DEBE 8821     ldrh    r1,[r4]
0803DEC0 4802     ldr     r0,=7FFFh
0803DEC2 4008     and     r0,r1
0803DEC4 8020     strh    r0,[r4]
0803DEC6 BCF0     pop     r4-r7
0803DEC8 BC01     pop     r0
0803DECA 4700     bx      r0
.pool


;pose0
0803DED0 B530     push    r4,r5,lr
0803DED2 481C     ldr     r0,=30006BCh
0803DED4 4684     mov     r12,r0
0803DED6 3026     add     r0,26h
0803DED8 2400     mov     r4,0h
0803DEDA 2301     mov     r3,1h
0803DEDC 7003     strb    r3,[r0]         ;待机值写入1
0803DEDE 4662     mov     r2,r12
0803DEE0 3234     add     r2,34h
0803DEE2 7811     ldrb    r1,[r2]         ;读取碰撞属性
0803DEE4 2004     mov     r0,4h
0803DEE6 4308     orr     r0,r1
0803DEE8 7010     strb    r0,[r2]         ;写入4h
0803DEEA 4660     mov     r0,r12
0803DEEC 3027     add     r0,27h
0803DEEE 2108     mov     r1,8h
0803DEF0 7001     strb    r1,[r0]         ;上视界
0803DEF2 3001     add     r0,1h
0803DEF4 7001     strb    r1,[r0]         ;下视界
0803DEF6 3001     add     r0,1h
0803DEF8 7001     strb    r1,[r0]
0803DEFA 2200     mov     r2,0h
0803DEFC 4912     ldr     r1,=0FFF4h
0803DEFE 4665     mov     r5,r12
0803DF00 8169     strh    r1,[r5,0Ah]
0803DF02 200C     mov     r0,0Ch
0803DF04 81A8     strh    r0,[r5,0Ch]
0803DF06 81E9     strh    r1,[r5,0Eh]
0803DF08 8228     strh    r0,[r5,10h]    ;四面分界
0803DF0A 4810     ldr     r0,=8356B84h
0803DF0C 61A8     str     r0,[r5,18h]
0803DF0E 772A     strb    r2,[r5,1Ch]
0803DF10 82EC     strh    r4,[r5,16h]
0803DF12 2140     mov     r1,40h
0803DF14 2040     mov     r0,40h
0803DF16 8268     strh    r0,[r5,12h]   ;偏移12写入40h
0803DF18 4660     mov     r0,r12
0803DF1A 302F     add     r0,2Fh
0803DF1C 7001     strb    r1,[r0]       ;偏移2F写入40h
0803DF1E 380B     sub     r0,0Bh
0803DF20 7003     strb    r3,[r0]       ;pose写入1
0803DF22 4661     mov     r1,r12
0803DF24 3125     add     r1,25h
0803DF26 2004     mov     r0,4h
0803DF28 7008     strb    r0,[r1]       ;属性写入4
0803DF2A 3903     sub     r1,3h
0803DF2C 2003     mov     r0,3h
0803DF2E 7008     strb    r0,[r1]       ;偏移22写入3
0803DF30 4660     mov     r0,r12
0803DF32 3021     add     r0,21h
0803DF34 7003     strb    r3,[r0]       ;偏移21写入1
0803DF36 8868     ldrh    r0,[r5,2h]
0803DF38 80E8     strh    r0,[r5,6h]    ;备份XY初始坐标
0803DF3A 88A8     ldrh    r0,[r5,4h]
0803DF3C 8128     strh    r0,[r5,8h]
0803DF3E BC30     pop     r4,r5
0803DF40 BC01     pop     r0
0803DF42 4700     bx      r0
.pool

;pose1
0803DF50 4907     ldr     r1,=30006BCh
0803DF52 4A08     ldr     r2,=82E589Eh
0803DF54 7F48     ldrb    r0,[r1,1Dh]
0803DF56 00C0     lsl     r0,r0,3h
0803DF58 1880     add     r0,r0,r2
0803DF5A 8800     ldrh    r0,[r0]
0803DF5C 8288     strh    r0,[r1,14h]   ;写入血量..
0803DF5E 880A     ldrh    r2,[r1]
0803DF60 4805     ldr     r0,=0FFFBh
0803DF62 4010     and     r0,r2
0803DF64 8008     strh    r0,[r1]       ;去掉隐形
0803DF66 3124     add     r1,24h
0803DF68 2002     mov     r0,2h
0803DF6A 7008     strb    r0,[r1]       ;pose写入2
0803DF6C 4770     bx      r14
.pool

;pose2
0803DF7C B570     push    r4-r6,lr
0803DF7E 4904     ldr     r1,=30006BCh
0803DF80 8A88     ldrh    r0,[r1,14h]
0803DF82 1C0B     mov     r3,r1
0803DF84 2800     cmp     r0,0h
0803DF86 D105     bne     @@HealthNoZero
0803DF88 3124     add     r1,24h
0803DF8A 2037     mov     r0,37h
0803DF8C 7008     strb    r0,[r1]      ;pose写入37
0803DF8E E068     b       @@end
.pool

@@HealthNoZero:
0803DF94 8819     ldrh    r1,[r3]
0803DF96 2002     mov     r0,2h
0803DF98 4008     and     r0,r1        ;检查是否在屏幕内
0803DF9A 0400     lsl     r0,r0,10h
0803DF9C 0C00     lsr     r0,r0,10h
0803DF9E 2800     cmp     r0,0h
0803DFA0 D101     bne     @@Pass
0803DFA2 8018     strh    r0,[r3]      ;离开屏幕立马消除
0803DFA4 E05D     b       @@end

@@Pass:
0803DFA6 2040     mov     r0,40h
0803DFA8 4008     and     r0,r1
0803DFAA 2800     cmp     r0,0h        ;检查面向
0803DFAC D004     beq     @@FaceLeft
0803DFAE 1C19     mov     r1,r3
0803DFB0 312F     add     r1,2Fh
0803DFB2 7808     ldrb    r0,[r1]      ;偏移2F减4,原先是40h
0803DFB4 3804     sub     r0,4h
0803DFB6 E003     b       @@Peer

@@FaceLeft:
0803DFB8 1C19     mov     r1,r3
0803DFBA 312F     add     r1,2Fh
0803DFBC 7808     ldrb    r0,[r1]
0803DFBE 3004     add     r0,4h        ;偏移2F加4

@@Peer:
0803DFC0 7008     strb    r0,[r1]
0803DFC2 4811     ldr     r0,=3000BE5h ;8bit循环数
0803DFC4 7801     ldrb    r1,[r0]
0803DFC6 2001     mov     r0,1h
0803DFC8 4008     and     r0,r1
0803DFCA 2800     cmp     r0,0h        ;检查是否是奇数
0803DFCC D002     beq     @@NoOne
0803DFCE 8A58     ldrh    r0,[r3,12h]  ;偏移40写入的40h
0803DFD0 3001     add     r0,1h        ;加1再写入
0803DFD2 8258     strh    r0,[r3,12h]  ;这是半径?

@@NoOne:
0803DFD4 8A5C     ldrh    r4,[r3,12h]  ;读取偏移12
0803DFD6 1C18     mov     r0,r3
0803DFD8 302F     add     r0,2Fh
0803DFDA 7805     ldrb    r5,[r0]      ;读取偏移2F
0803DFDC 490B     ldr     r1,=80A4FA4h
0803DFDE 0068     lsl     r0,r5,1h     ;偏移2F乘以2
0803DFE0 1840     add     r0,r0,r1     ;加上该值
0803DFE2 2600     mov     r6,0h
0803DFE4 5F82     ldsh    r2,[r0,r6]   ;读取数值
0803DFE6 1C0E     mov     r6,r1
0803DFE8 2A00     cmp     r2,0h
0803DFEA DA11     bge     @@YNegativeless
0803DFEC 4252     neg     r2,r2        ;负数的话则取反
0803DFEE 0421     lsl     r1,r4,10h
0803DFF0 1408     asr     r0,r1,10h
0803DFF2 4350     mul     r0,r2        ;乘以偏移12的值
0803DFF4 1C0C     mov     r4,r1
0803DFF6 2800     cmp     r0,0h
0803DFF8 DA00     bge     @@Negativeless2
0803DFFA 30FF     add     r0,0FFh

@@Negativeless2:
0803DFFC 0200     lsl     r0,r0,8h
0803DFFE 0C02     lsr     r2,r0,10h    ;除以256
0803E000 88D8     ldrh    r0,[r3,6h]   
0803E002 1A80     sub     r0,r0,r2     ;减去当前的坐标
0803E004 E00F     b       @@WriteY     ;一开始读的是是负数所以向上
.pool

@@YNegativeless:
0803E010 0421     lsl     r1,r4,10h
0803E012 1408     asr     r0,r1,10h
0803E014 4350     mul     r0,r2        ;乘以偏移12的值
0803E016 1C0C     mov     r4,r1
0803E018 2800     cmp     r0,0h
0803E01A DA00     bge     @@Negativeless3
0803E01C 30FF     add     r0,0FFh

@@Negativeless3:
0803E01E 0200     lsl     r0,r0,8h
0803E020 0C00     lsr     r0,r0,10h    ;除以256
0803E022 88D9     ldrh    r1,[r3,6h]    
0803E024 1840     add     r0,r0,r1     ;加上当前的Y坐标

@@WriteY:
0803E026 8058     strh    r0,[r3,2h]
0803E028 1C28     mov     r0,r5        ;偏移2F的值
0803E02A 3040     add     r0,40h       ;加上40h
0803E02C 0040     lsl     r0,r0,1h     ;乘以2
0803E02E 1980     add     r0,r0,r6     ;加上偏移坐标
0803E030 2200     mov     r2,0h
0803E032 5E81     ldsh    r1,[r0,r2]   ;读取数值
0803E034 2900     cmp     r1,0h
0803E036 DA0A     bge     @@XNegativeless
0803E038 4249     neg     r1,r1        ;取反
0803E03A 1420     asr     r0,r4,10h
0803E03C 4348     mul     r0,r1
0803E03E 2800     cmp     r0,0h
0803E040 DA00     bge     @@Negativeless5
0803E042 30FF     add     r0,0FFh

@@Negativeless5:
0803E044 0200     lsl     r0,r0,8h
0803E046 0C01     lsr     r1,r0,10h
0803E048 8918     ldrh    r0,[r3,8h]
0803E04A 1A40     sub     r0,r0,r1
0803E04C E008     b       @@WriteX

@@XNegativeless:
0803E04E 1420     asr     r0,r4,10h   ;偏移12的值
0803E050 4348     mul     r0,r1       ;乘以
0803E052 2800     cmp     r0,0h
0803E054 DA00     bge     @@Negativeless4
0803E056 30FF     add     r0,0FFh

@@Negativeless4:
0803E058 0200     lsl     r0,r0,8h
0803E05A 0C00     lsr     r0,r0,10h   ;除以256
0803E05C 891E     ldrh    r6,[r3,8h]  ;加上X坐标
0803E05E 1980     add     r0,r0,r6

@@WriteX:
0803E060 8098     strh    r0,[r3,4h]

@@end:
0803E062 BC70     pop     r4-r6
0803E064 BC01     pop     r0
0803E066 4700     bx      r0


0803E068 4B0C     ldr     r3,=30006BCh
0803E06A 1C19     mov     r1,r3
0803E06C 3126     add     r1,26h
0803E06E 2200     mov     r2,0h
0803E070 2001     mov     r0,1h
0803E072 7008     strb    r0,[r1]
0803E074 3902     sub     r1,2h
0803E076 2038     mov     r0,38h
0803E078 7008     strb    r0,[r1]
0803E07A 1C18     mov     r0,r3
0803E07C 3025     add     r0,25h
0803E07E 7002     strb    r2,[r0]
0803E080 4807     ldr     r0,=8356BACh
0803E082 6198     str     r0,[r3,18h]
0803E084 771A     strb    r2,[r3,1Ch]
0803E086 82DA     strh    r2,[r3,16h]
0803E088 1C18     mov     r0,r3
0803E08A 3027     add     r0,27h
0803E08C 2118     mov     r1,18h
0803E08E 7001     strb    r1,[r0]
0803E090 3001     add     r0,1h
0803E092 7001     strb    r1,[r0]
0803E094 3001     add     r0,1h
0803E096 7001     strb    r1,[r0]
0803E098 4770     bx      r14
0803E09A 0000     lsl     r0,r0,0h
0803E09C 06BC     lsl     r4,r7,1Ah
0803E09E 0300     lsl     r0,r0,0Ch
0803E0A0 6BAC     ldr     r4,[r5,38h]
0803E0A2 0835     lsr     r5,r6,20h
0803E0A4 B510     push    r4,lr
0803E0A6 4C07     ldr     r4,=30006BCh
0803E0A8 1C21     mov     r1,r4
0803E0AA 3126     add     r1,26h
0803E0AC 2001     mov     r0,1h
0803E0AE 7008     strb    r0,[r1]
0803E0B0 F7D3FC40 bl      8011934h
0803E0B4 2800     cmp     r0,0h
0803E0B6 D001     beq     803E0BCh
0803E0B8 2000     mov     r0,0h
0803E0BA 8020     strh    r0,[r4]
0803E0BC BC10     pop     r4
0803E0BE BC01     pop     r0
0803E0C0 4700     bx      r0
0803E0C2 0000     lsl     r0,r0,0h
0803E0C4 06BC     lsl     r4,r7,1Ah
0803E0C6 0300     lsl     r0,r0,0Ch
0803E0C8 B510     push    r4,lr
0803E0CA 4C0D     ldr     r4,=30006BCh
0803E0CC 1C20     mov     r0,r4
0803E0CE 302C     add     r0,2Ch
0803E0D0 7801     ldrb    r1,[r0]
0803E0D2 207F     mov     r0,7Fh
0803E0D4 4008     and     r0,r1
0803E0D6 2804     cmp     r0,4h
0803E0D8 D103     bne     803E0E2h
0803E0DA 20D6     mov     r0,0D6h
0803E0DC 0040     lsl     r0,r0,1h
0803E0DE F7C4FBB9 bl      8002854h
0803E0E2 1C20     mov     r0,r4
0803E0E4 3032     add     r0,32h
0803E0E6 7800     ldrb    r0,[r0]
0803E0E8 2800     cmp     r0,0h
0803E0EA D00B     beq     803E104h
0803E0EC F7D3FEAA bl      8011E44h
0803E0F0 1C20     mov     r0,r4
0803E0F2 3023     add     r0,23h
0803E0F4 7801     ldrb    r1,[r0]
0803E0F6 203B     mov     r0,3Bh
0803E0F8 F7D3FED4 bl      8011EA4h
0803E0FC E0F3     b       803E2E6h
0803E0FE 0000     lsl     r0,r0,0h
0803E100 06BC     lsl     r4,r7,1Ah
0803E102 0300     lsl     r0,r0,0Ch
0803E104 1C20     mov     r0,r4
0803E106 3024     add     r0,24h
0803E108 7800     ldrb    r0,[r0]
0803E10A 285B     cmp     r0,5Bh
0803E10C D900     bls     803E110h
0803E10E E0EA     b       803E2E6h
0803E110 0080     lsl     r0,r0,2h
0803E112 4902     ldr     r1,=803E120h
0803E114 1840     add     r0,r0,r1
0803E116 6800     ldr     r0,[r0]
0803E118 4687     mov     r15,r0
0803E11A 0000     lsl     r0,r0,0h
0803E11C E120     b       803E360h
0803E11E 0803     lsr     r3,r0,20h
0803E120 E290     b       803E644h
0803E122 0803     lsr     r3,r0,20h
0803E124 E296     b       803E654h
0803E126 0803     lsr     r3,r0,20h
0803E128 E29A     b       803E660h
0803E12A 0803     lsr     r3,r0,20h
0803E12C E2AA     b       803E684h
0803E12E 0803     lsr     r3,r0,20h
0803E130 E2AE     b       803E690h
0803E132 0803     lsr     r3,r0,20h
0803E134 E2B4     b       803E6A0h
0803E136 0803     lsr     r3,r0,20h
0803E138 E2E6     b       803E708h
0803E13A 0803     lsr     r3,r0,20h
0803E13C E2E6     b       803E70Ch
0803E13E 0803     lsr     r3,r0,20h
0803E140 E2E6     b       803E710h
0803E142 0803     lsr     r3,r0,20h
0803E144 E2E6     b       803E714h
0803E146 0803     lsr     r3,r0,20h
0803E148 E2E6     b       803E718h
0803E14A 0803     lsr     r3,r0,20h
0803E14C E2E6     b       803E71Ch
0803E14E 0803     lsr     r3,r0,20h
0803E150 E2E6     b       803E720h
0803E152 0803     lsr     r3,r0,20h
0803E154 E2E6     b       803E724h
0803E156 0803     lsr     r3,r0,20h
0803E158 E2E6     b       803E728h
0803E15A 0803     lsr     r3,r0,20h
0803E15C E2E6     b       803E72Ch
0803E15E 0803     lsr     r3,r0,20h
0803E160 E2E6     b       803E730h
0803E162 0803     lsr     r3,r0,20h
0803E164 E2E6     b       803E734h
0803E166 0803     lsr     r3,r0,20h
0803E168 E2E6     b       803E738h
0803E16A 0803     lsr     r3,r0,20h
0803E16C E2E6     b       803E73Ch
0803E16E 0803     lsr     r3,r0,20h
0803E170 E2E6     b       803E740h
0803E172 0803     lsr     r3,r0,20h
0803E174 E2E6     b       803E744h
0803E176 0803     lsr     r3,r0,20h
0803E178 E2E6     b       803E748h
0803E17A 0803     lsr     r3,r0,20h
0803E17C E2E6     b       803E74Ch
0803E17E 0803     lsr     r3,r0,20h
0803E180 E2E6     b       803E750h
0803E182 0803     lsr     r3,r0,20h
0803E184 E2E6     b       803E754h
0803E186 0803     lsr     r3,r0,20h
0803E188 E2E6     b       803E758h
0803E18A 0803     lsr     r3,r0,20h
0803E18C E2E6     b       803E75Ch
0803E18E 0803     lsr     r3,r0,20h
0803E190 E2E6     b       803E760h
0803E192 0803     lsr     r3,r0,20h
0803E194 E2E6     b       803E764h
0803E196 0803     lsr     r3,r0,20h
0803E198 E2E6     b       803E768h
0803E19A 0803     lsr     r3,r0,20h
0803E19C E2E6     b       803E76Ch
0803E19E 0803     lsr     r3,r0,20h
0803E1A0 E2E6     b       803E770h
0803E1A2 0803     lsr     r3,r0,20h
0803E1A4 E2E6     b       803E774h
0803E1A6 0803     lsr     r3,r0,20h
0803E1A8 E2E6     b       803E778h
0803E1AA 0803     lsr     r3,r0,20h
0803E1AC E2E6     b       803E77Ch
0803E1AE 0803     lsr     r3,r0,20h
0803E1B0 E2E6     b       803E780h
0803E1B2 0803     lsr     r3,r0,20h
0803E1B4 E2E6     b       803E784h
0803E1B6 0803     lsr     r3,r0,20h
0803E1B8 E2E6     b       803E788h
0803E1BA 0803     lsr     r3,r0,20h
0803E1BC E2E6     b       803E78Ch
0803E1BE 0803     lsr     r3,r0,20h
0803E1C0 E2E6     b       803E790h
0803E1C2 0803     lsr     r3,r0,20h
0803E1C4 E2A0     b       803E708h
0803E1C6 0803     lsr     r3,r0,20h
0803E1C8 E2A4     b       803E714h
0803E1CA 0803     lsr     r3,r0,20h
0803E1CC E2E6     b       803E79Ch
0803E1CE 0803     lsr     r3,r0,20h
0803E1D0 E2E6     b       803E7A0h
0803E1D2 0803     lsr     r3,r0,20h
0803E1D4 E2E6     b       803E7A4h
0803E1D6 0803     lsr     r3,r0,20h
0803E1D8 E2E6     b       803E7A8h
0803E1DA 0803     lsr     r3,r0,20h
0803E1DC E2E6     b       803E7ACh
0803E1DE 0803     lsr     r3,r0,20h
0803E1E0 E2E6     b       803E7B0h
0803E1E2 0803     lsr     r3,r0,20h
0803E1E4 E2E6     b       803E7B4h
0803E1E6 0803     lsr     r3,r0,20h
0803E1E8 E2E6     b       803E7B8h
0803E1EA 0803     lsr     r3,r0,20h
0803E1EC E2E6     b       803E7BCh
0803E1EE 0803     lsr     r3,r0,20h
0803E1F0 E2E6     b       803E7C0h
0803E1F2 0803     lsr     r3,r0,20h
0803E1F4 E2E6     b       803E7C4h
0803E1F6 0803     lsr     r3,r0,20h
0803E1F8 E2E6     b       803E7C8h
0803E1FA 0803     lsr     r3,r0,20h
0803E1FC E2E6     b       803E7CCh
0803E1FE 0803     lsr     r3,r0,20h
0803E200 E2E6     b       803E7D0h
0803E202 0803     lsr     r3,r0,20h
0803E204 E2E6     b       803E7D4h
0803E206 0803     lsr     r3,r0,20h
0803E208 E2E6     b       803E7D8h
0803E20A 0803     lsr     r3,r0,20h
0803E20C E2E6     b       803E7DCh
0803E20E 0803     lsr     r3,r0,20h
0803E210 E2E6     b       803E7E0h
0803E212 0803     lsr     r3,r0,20h
0803E214 E2E6     b       803E7E4h
0803E216 0803     lsr     r3,r0,20h
0803E218 E2E6     b       803E7E8h
0803E21A 0803     lsr     r3,r0,20h
0803E21C E2E6     b       803E7ECh
0803E21E 0803     lsr     r3,r0,20h
0803E220 E2E6     b       803E7F0h
0803E222 0803     lsr     r3,r0,20h
0803E224 E2E6     b       803E7F4h
0803E226 0803     lsr     r3,r0,20h
0803E228 E2E6     b       803E7F8h
0803E22A 0803     lsr     r3,r0,20h
0803E22C E2E6     b       803E7FCh
0803E22E 0803     lsr     r3,r0,20h
0803E230 E2E6     b       803E800h
0803E232 0803     lsr     r3,r0,20h
0803E234 E2E6     b       803E804h
0803E236 0803     lsr     r3,r0,20h
0803E238 E2E6     b       803E808h
0803E23A 0803     lsr     r3,r0,20h
0803E23C E2E6     b       803E80Ch
0803E23E 0803     lsr     r3,r0,20h
0803E240 E2E6     b       803E810h
0803E242 0803     lsr     r3,r0,20h
0803E244 E2E6     b       803E814h
0803E246 0803     lsr     r3,r0,20h
0803E248 E2E6     b       803E818h
0803E24A 0803     lsr     r3,r0,20h
0803E24C E2E6     b       803E81Ch
0803E24E 0803     lsr     r3,r0,20h
0803E250 E2E6     b       803E820h
0803E252 0803     lsr     r3,r0,20h
0803E254 E2E6     b       803E824h
0803E256 0803     lsr     r3,r0,20h
0803E258 E2E6     b       803E828h
0803E25A 0803     lsr     r3,r0,20h
0803E25C E2E6     b       803E82Ch
0803E25E 0803     lsr     r3,r0,20h
0803E260 E2E6     b       803E830h
0803E262 0803     lsr     r3,r0,20h
0803E264 E2E6     b       803E834h
0803E266 0803     lsr     r3,r0,20h
0803E268 E2E6     b       803E838h
0803E26A 0803     lsr     r3,r0,20h
0803E26C E2E6     b       803E83Ch
0803E26E 0803     lsr     r3,r0,20h
0803E270 E2E6     b       803E840h
0803E272 0803     lsr     r3,r0,20h
0803E274 E2E6     b       803E844h
0803E276 0803     lsr     r3,r0,20h
0803E278 E2E6     b       803E848h
0803E27A 0803     lsr     r3,r0,20h
0803E27C E2BA     b       803E7F4h
0803E27E 0803     lsr     r3,r0,20h
0803E280 E2CA     b       803E818h
0803E282 0803     lsr     r3,r0,20h
0803E284 E2D4     b       803E830h
0803E286 0803     lsr     r3,r0,20h
0803E288 E2D8     b       803E83Ch
0803E28A 0803     lsr     r3,r0,20h
0803E28C E2DE     b       803E84Ch
0803E28E 0803     lsr     r3,r0,20h
0803E290 F7FFFB46 bl      803D920h
0803E294 E027     b       803E2E6h
0803E296 F7FFFC53 bl      803DB40h
0803E29A F7FFFC61 bl      803DB60h
0803E29E E022     b       803E2E6h
0803E2A0 F7FFFBE8 bl      803DA74h
0803E2A4 F7FFFBF8 bl      803DA98h
0803E2A8 E01D     b       803E2E6h
0803E2AA F7FFFCF9 bl      803DCA0h
0803E2AE F7FFFD07 bl      803DCC0h
0803E2B2 E018     b       803E2E6h
0803E2B4 F7FFFD1E bl      803DCF4h
0803E2B8 E015     b       803E2E6h
0803E2BA 4805     ldr     r0,=30006BCh
0803E2BC 3023     add     r0,23h
0803E2BE 7801     ldrb    r1,[r0]
0803E2C0 203B     mov     r0,3Bh
0803E2C2 F7D3FE6D bl      8011FA0h
0803E2C6 F023F9FB bl      80616C0h
0803E2CA F023FA0F bl      80616ECh
0803E2CE E00A     b       803E2E6h
0803E2D0 06BC     lsl     r4,r7,1Ah
0803E2D2 0300     lsl     r0,r0,0Ch
0803E2D4 F7FFFB24 bl      803D920h
0803E2D8 F7FFFAC0 bl      803D85Ch
0803E2DC E003     b       803E2E6h
0803E2DE F7FFFAE7 bl      803D8B0h
0803E2E2 F023FB29 bl      8061938h
0803E2E6 BC10     pop     r4
0803E2E8 BC01     pop     r0
0803E2EA 4700     bx      r0
0803E2EC B5F0     push    r4-r7,lr
0803E2EE 4F18     ldr     r7,=3000140h
0803E2F0 4B18     ldr     r3,=30006BCh
0803E2F2 2023     mov     r0,23h
0803E2F4 18C0     add     r0,r0,r3
0803E2F6 4684     mov     r12,r0
0803E2F8 7801     ldrb    r1,[r0]
0803E2FA 00C8     lsl     r0,r1,3h
0803E2FC 1A40     sub     r0,r0,r1
0803E2FE 00C0     lsl     r0,r0,3h
0803E300 19C0     add     r0,r0,r7
0803E302 1C05     mov     r5,r0
0803E304 352C     add     r5,2Ch
0803E306 782C     ldrb    r4,[r5]
0803E308 207F     mov     r0,7Fh
0803E30A 1C1E     mov     r6,r3
0803E30C 362C     add     r6,2Ch
0803E30E 7832     ldrb    r2,[r6]
0803E310 1C01     mov     r1,r0
0803E312 4021     and     r1,r4
0803E314 4010     and     r0,r2
0803E316 4281     cmp     r1,r0
0803E318 D210     bcs     803E33Ch
0803E31A 2080     mov     r0,80h
0803E31C 4020     and     r0,r4
0803E31E 7028     strb    r0,[r5]
0803E320 4661     mov     r1,r12
0803E322 7808     ldrb    r0,[r1]
0803E324 00C1     lsl     r1,r0,3h
0803E326 1A09     sub     r1,r1,r0
0803E328 00C9     lsl     r1,r1,3h
0803E32A 19C9     add     r1,r1,r7
0803E32C 312C     add     r1,2Ch
0803E32E 7830     ldrb    r0,[r6]
0803E330 3001     add     r0,1h
0803E332 227F     mov     r2,7Fh
0803E334 4010     and     r0,r2
0803E336 780A     ldrb    r2,[r1]
0803E338 4310     orr     r0,r2
0803E33A 7008     strb    r0,[r1]
0803E33C 1C18     mov     r0,r3
0803E33E 3032     add     r0,32h
0803E340 7800     ldrb    r0,[r0]
0803E342 2800     cmp     r0,0h
0803E344 D008     beq     803E358h
0803E346 F7D3FD7D bl      8011E44h
0803E34A F7D3FDF9 bl      8011F40h
0803E34E E00C     b       803E36Ah
0803E350 0140     lsl     r0,r0,5h
0803E352 0300     lsl     r0,r0,0Ch
0803E354 06BC     lsl     r4,r7,1Ah
0803E356 0300     lsl     r0,r0,0Ch
0803E358 1C18     mov     r0,r3
0803E35A 3024     add     r0,24h
0803E35C 7800     ldrb    r0,[r0]
0803E35E 2800     cmp     r0,0h
0803E360 D101     bne     803E366h
0803E362 F7FFFCD5 bl      803DD10h
0803E366 F7FFFD2D bl      803DDC4h
0803E36A BCF0     pop     r4-r7
0803E36C BC01     pop     r0
0803E36E 4700     bx      r0


;海马球主程序
0803E370 B500     push    lr
0803E372 4805     ldr     r0,=30006BCh
0803E374 3024     add     r0,24h
0803E376 7800     ldrb    r0,[r0]
0803E378 2801     cmp     r0,1h
0803E37A D00F     beq     @@Pose1
0803E37C 2801     cmp     r0,1h
0803E37E DC05     bgt     @@OtherCheck
0803E380 2800     cmp     r0,0h
0803E382 D008     beq     @@Pose0
0803E384 E012     b       @@OtherPose
.pool

@@OtherCheck:
0803E38C 2802     cmp     r0,2h
0803E38E D007     beq     @@Pose2
0803E390 2838     cmp     r0,38h
0803E392 D008     beq     @@Pose38
0803E394 E00A     b       @@OtherPose

@@Pose0:
0803E396 F7FFFD9B bl      803DED0h
0803E39A E009     b       @@end

@@Pose1:
0803E39C F7FFFDD8 bl      803DF50h

@@Pose2:
0803E3A0 F7FFFDEC bl      803DF7Ch
0803E3A4 E004     b       @@end

@@Pose38:
0803E3A6 F7FFFE7D bl      803E0A4h
0803E3AA E001     b       @@end

@@OtherPose:
0803E3AC F7FFFE5C bl      803E068h

@@end:
0803E3B0 BC01     pop     r0
0803E3B2 4700     bx      r0


0803E3B4 B530     push    r4,r5,lr
0803E3B6 F7D4FA2F bl      8012818h
0803E3BA 4A09     ldr     r2,=30006BCh
0803E3BC 1C10     mov     r0,r2
0803E3BE 3034     add     r0,34h
0803E3C0 7801     ldrb    r1,[r0]
0803E3C2 2002     mov     r0,2h
0803E3C4 4008     and     r0,r1
0803E3C6 2800     cmp     r0,0h
0803E3C8 D00C     beq     803E3E4h
0803E3CA 8811     ldrh    r1,[r2]
0803E3CC 2080     mov     r0,80h
0803E3CE 0180     lsl     r0,r0,6h
0803E3D0 4008     and     r0,r1
0803E3D2 0400     lsl     r0,r0,10h
0803E3D4 0C00     lsr     r0,r0,10h
0803E3D6 2800     cmp     r0,0h
0803E3D8 D104     bne     803E3E4h
0803E3DA 8010     strh    r0,[r2]
0803E3DC E04A     b       803E474h
0803E3DE 0000     lsl     r0,r0,0h
0803E3E0 06BC     lsl     r4,r7,1Ah
0803E3E2 0300     lsl     r0,r0,0Ch
0803E3E4 4C1D     ldr     r4,=30006BCh
0803E3E6 1C20     mov     r0,r4
0803E3E8 3027     add     r0,27h
0803E3EA 2200     mov     r2,0h
0803E3EC 2110     mov     r1,10h
0803E3EE 7001     strb    r1,[r0]
0803E3F0 3001     add     r0,1h
0803E3F2 7001     strb    r1,[r0]
0803E3F4 3001     add     r0,1h
0803E3F6 7001     strb    r1,[r0]
0803E3F8 2500     mov     r5,0h
0803E3FA 4919     ldr     r1,=0FFE0h
0803E3FC 8161     strh    r1,[r4,0Ah]
0803E3FE 2020     mov     r0,20h
0803E400 81A0     strh    r0,[r4,0Ch]
0803E402 81E1     strh    r1,[r4,0Eh]
0803E404 8220     strh    r0,[r4,10h]
0803E406 4817     ldr     r0,=8357540h
0803E408 61A0     str     r0,[r4,18h]
0803E40A 7725     strb    r5,[r4,1Ch]
0803E40C 82E2     strh    r2,[r4,16h]
0803E40E 1C20     mov     r0,r4
0803E410 302F     add     r0,2Fh
0803E412 7005     strb    r5,[r0]
0803E414 4A14     ldr     r2,=82E4D4Ch
0803E416 7F61     ldrb    r1,[r4,1Dh]
0803E418 00C8     lsl     r0,r1,3h
0803E41A 1A40     sub     r0,r0,r1
0803E41C 0040     lsl     r0,r0,1h
0803E41E 1880     add     r0,r0,r2
0803E420 8800     ldrh    r0,[r0]
0803E422 82A0     strh    r0,[r4,14h]
0803E424 1C21     mov     r1,r4
0803E426 3125     add     r1,25h
0803E428 2002     mov     r0,2h
0803E42A 7008     strb    r0,[r1]
0803E42C F7D3F834 bl      8011498h
0803E430 F7D3F84E bl      80114D0h
0803E434 480D     ldr     r0,=30007F0h
0803E436 7800     ldrb    r0,[r0]
0803E438 2808     cmp     r0,8h
0803E43A D905     bls     803E448h
0803E43C 8820     ldrh    r0,[r4]
0803E43E 2280     mov     r2,80h
0803E440 00D2     lsl     r2,r2,3h
0803E442 1C11     mov     r1,r2
0803E444 4308     orr     r0,r1
0803E446 8020     strh    r0,[r4]
0803E448 1C21     mov     r1,r4
0803E44A 3124     add     r1,24h
0803E44C 7808     ldrb    r0,[r1]
0803E44E 2859     cmp     r0,59h
0803E450 D10E     bne     803E470h
0803E452 205A     mov     r0,5Ah
0803E454 7008     strb    r0,[r1]
0803E456 202C     mov     r0,2Ch
0803E458 80E0     strh    r0,[r4,6h]
0803E45A E00B     b       803E474h
0803E45C 06BC     lsl     r4,r7,1Ah
0803E45E 0300     lsl     r0,r0,0Ch
0803E460 FFE00000 ????
0803E462 0000     lsl     r0,r0,0h
0803E464 7540     strb    r0,[r0,15h]
0803E466 0835     lsr     r5,r6,20h
0803E468 4D4C     ldr     r5,=30007A5h
0803E46A 082E     lsr     r6,r5,20h
0803E46C 07F0     lsl     r0,r6,1Fh
0803E46E 0300     lsl     r0,r0,0Ch
0803E470 2001     mov     r0,1h
0803E472 7008     strb    r0,[r1]
0803E474 BC30     pop     r4,r5
0803E476 BC01     pop     r0
0803E478 4700     bx      r0
0803E47A 0000     lsl     r0,r0,0h
0803E47C 4806     ldr     r0,=30006BCh
0803E47E 1C02     mov     r2,r0
0803E480 3224     add     r2,24h
0803E482 2300     mov     r3,0h
0803E484 2102     mov     r1,2h
0803E486 7011     strb    r1,[r2]
0803E488 4904     ldr     r1,=8357540h
0803E48A 6181     str     r1,[r0,18h]
0803E48C 7703     strb    r3,[r0,1Ch]
0803E48E 82C3     strh    r3,[r0,16h]
0803E490 302E     add     r0,2Eh
0803E492 2103     mov     r1,3h
0803E494 7001     strb    r1,[r0]
0803E496 4770     bx      r14
0803E498 06BC     lsl     r4,r7,1Ah
0803E49A 0300     lsl     r0,r0,0Ch
0803E49C 7540     strb    r0,[r0,15h]
0803E49E 0835     lsr     r5,r6,20h
0803E4A0 B570     push    r4-r6,lr
0803E4A2 2500     mov     r5,0h
0803E4A4 4C11     ldr     r4,=30006BCh
0803E4A6 1C21     mov     r1,r4
0803E4A8 312E     add     r1,2Eh
0803E4AA 7808     ldrb    r0,[r1]
0803E4AC 3801     sub     r0,1h
0803E4AE 7008     strb    r0,[r1]
0803E4B0 0600     lsl     r0,r0,18h
0803E4B2 2800     cmp     r0,0h
0803E4B4 D000     beq     803E4B8h
0803E4B6 E081     b       803E5BCh
0803E4B8 2003     mov     r0,3h
0803E4BA 7008     strb    r0,[r1]
0803E4BC 8821     ldrh    r1,[r4]
0803E4BE 2680     mov     r6,80h
0803E4C0 00B6     lsl     r6,r6,2h
0803E4C2 1C30     mov     r0,r6
0803E4C4 4008     and     r0,r1
0803E4C6 2800     cmp     r0,0h
0803E4C8 D019     beq     803E4FEh
0803E4CA 8860     ldrh    r0,[r4,2h]
0803E4CC 2210     mov     r2,10h
0803E4CE 5EA1     ldsh    r1,[r4,r2]
0803E4D0 88A2     ldrh    r2,[r4,4h]
0803E4D2 1889     add     r1,r1,r2
0803E4D4 F7D2FF5C bl      8011390h
0803E4D8 4805     ldr     r0,=30007A5h
0803E4DA 7801     ldrb    r1,[r0]
0803E4DC 20F0     mov     r0,0F0h
0803E4DE 4008     and     r0,r1
0803E4E0 2800     cmp     r0,0h
0803E4E2 D009     beq     803E4F8h
0803E4E4 8821     ldrh    r1,[r4]
0803E4E6 4803     ldr     r0,=0FDFFh
0803E4E8 4008     and     r0,r1
0803E4EA E018     b       803E51Eh
0803E4EC 06BC     lsl     r4,r7,1Ah
0803E4EE 0300     lsl     r0,r0,0Ch
0803E4F0 07A5     lsl     r5,r4,1Eh
0803E4F2 0300     lsl     r0,r0,0Ch
0803E4F4 FDFF0000 ????
0803E4F6 0000     lsl     r0,r0,0h
0803E4F8 88A0     ldrh    r0,[r4,4h]
0803E4FA 3004     add     r0,4h
0803E4FC E016     b       803E52Ch
0803E4FE 8860     ldrh    r0,[r4,2h]
0803E500 220E     mov     r2,0Eh
0803E502 5EA1     ldsh    r1,[r4,r2]
0803E504 88A2     ldrh    r2,[r4,4h]
0803E506 1889     add     r1,r1,r2
0803E508 F7D2FF42 bl      8011390h
0803E50C 4805     ldr     r0,=30007A5h
0803E50E 7801     ldrb    r1,[r0]
0803E510 20F0     mov     r0,0F0h
0803E512 4008     and     r0,r1
0803E514 2800     cmp     r0,0h
0803E516 D007     beq     803E528h
0803E518 8821     ldrh    r1,[r4]
0803E51A 1C30     mov     r0,r6
0803E51C 4308     orr     r0,r1
0803E51E 8020     strh    r0,[r4]
0803E520 2501     mov     r5,1h
0803E522 E004     b       803E52Eh
0803E524 07A5     lsl     r5,r4,1Eh
0803E526 0300     lsl     r0,r0,0Ch
0803E528 88A0     ldrh    r0,[r4,4h]
0803E52A 3804     sub     r0,4h
0803E52C 80A0     strh    r0,[r4,4h]
0803E52E 4C0C     ldr     r4,=30006BCh
0803E530 8821     ldrh    r1,[r4]
0803E532 2680     mov     r6,80h
0803E534 00F6     lsl     r6,r6,3h
0803E536 1C30     mov     r0,r6
0803E538 4008     and     r0,r1
0803E53A 2800     cmp     r0,0h
0803E53C D019     beq     803E572h
0803E53E 210A     mov     r1,0Ah
0803E540 5E60     ldsh    r0,[r4,r1]
0803E542 8862     ldrh    r2,[r4,2h]
0803E544 1880     add     r0,r0,r2
0803E546 88A1     ldrh    r1,[r4,4h]
0803E548 F7D2FF22 bl      8011390h
0803E54C 4805     ldr     r0,=30007A5h
0803E54E 7801     ldrb    r1,[r0]
0803E550 20F0     mov     r0,0F0h
0803E552 4008     and     r0,r1
0803E554 2800     cmp     r0,0h
0803E556 D009     beq     803E56Ch
0803E558 8820     ldrh    r0,[r4]
0803E55A 4903     ldr     r1,=0FBFFh
0803E55C 4001     and     r1,r0
0803E55E E018     b       803E592h
0803E560 06BC     lsl     r4,r7,1Ah
0803E562 0300     lsl     r0,r0,0Ch
0803E564 07A5     lsl     r5,r4,1Eh
0803E566 0300     lsl     r0,r0,0Ch
0803E568 FBFF0000 ????
0803E56A 0000     lsl     r0,r0,0h
0803E56C 8860     ldrh    r0,[r4,2h]
0803E56E 3804     sub     r0,4h
0803E570 E018     b       803E5A4h
0803E572 210C     mov     r1,0Ch
0803E574 5E60     ldsh    r0,[r4,r1]
0803E576 8862     ldrh    r2,[r4,2h]
0803E578 1880     add     r0,r0,r2
0803E57A 88A1     ldrh    r1,[r4,4h]
0803E57C F7D2FF08 bl      8011390h
0803E580 4806     ldr     r0,=30007A5h
0803E582 7801     ldrb    r1,[r0]
0803E584 20F0     mov     r0,0F0h
0803E586 4008     and     r0,r1
0803E588 2800     cmp     r0,0h
0803E58A D009     beq     803E5A0h
0803E58C 8820     ldrh    r0,[r4]
0803E58E 1C31     mov     r1,r6
0803E590 4301     orr     r1,r0
0803E592 8021     strh    r1,[r4]
0803E594 1C68     add     r0,r5,1
0803E596 0600     lsl     r0,r0,18h
0803E598 0E05     lsr     r5,r0,18h
0803E59A E004     b       803E5A6h
0803E59C 07A5     lsl     r5,r4,1Eh
0803E59E 0300     lsl     r0,r0,0Ch
0803E5A0 8860     ldrh    r0,[r4,2h]
0803E5A2 3004     add     r0,4h
0803E5A4 8060     strh    r0,[r4,2h]
0803E5A6 2D00     cmp     r5,0h
0803E5A8 D008     beq     803E5BCh
0803E5AA 4806     ldr     r0,=30006BCh
0803E5AC 8801     ldrh    r1,[r0]
0803E5AE 2002     mov     r0,2h
0803E5B0 4008     and     r0,r1
0803E5B2 2800     cmp     r0,0h
0803E5B4 D002     beq     803E5BCh
0803E5B6 4804     ldr     r0,=199h
0803E5B8 F7C4F94C bl      8002854h
0803E5BC BC70     pop     r4-r6
0803E5BE BC01     pop     r0
0803E5C0 4700     bx      r0
0803E5C2 0000     lsl     r0,r0,0h
0803E5C4 06BC     lsl     r4,r7,1Ah
0803E5C6 0300     lsl     r0,r0,0Ch
0803E5C8 0199     lsl     r1,r3,6h
0803E5CA 0000     lsl     r0,r0,0h
0803E5CC B510     push    r4,lr
0803E5CE B083     add     sp,-0Ch
0803E5D0 4804     ldr     r0,=30006BCh
0803E5D2 4684     mov     r12,r0
0803E5D4 3032     add     r0,32h
0803E5D6 7800     ldrb    r0,[r0]
0803E5D8 2800     cmp     r0,0h
0803E5DA D005     beq     803E5E8h
0803E5DC F7D3FC32 bl      8011E44h
0803E5E0 E055     b       803E68Eh
0803E5E2 0000     lsl     r0,r0,0h
0803E5E4 06BC     lsl     r4,r7,1Ah
0803E5E6 0300     lsl     r0,r0,0Ch
0803E5E8 4660     mov     r0,r12
0803E5EA 302C     add     r0,2Ch
0803E5EC 7801     ldrb    r1,[r0]
0803E5EE 207F     mov     r0,7Fh
0803E5F0 4008     and     r0,r1
0803E5F2 2804     cmp     r0,4h
0803E5F4 D11A     bne     803E62Ch
0803E5F6 4660     mov     r0,r12
0803E5F8 3024     add     r0,24h
0803E5FA 7800     ldrb    r0,[r0]
0803E5FC 2800     cmp     r0,0h
0803E5FE D015     beq     803E62Ch
0803E600 4660     mov     r0,r12
0803E602 302F     add     r0,2Fh
0803E604 7801     ldrb    r1,[r0]
0803E606 2900     cmp     r1,0h
0803E608 D110     bne     803E62Ch
0803E60A 4664     mov     r4,r12
0803E60C 7FE2     ldrb    r2,[r4,1Fh]
0803E60E 380C     sub     r0,0Ch
0803E610 7803     ldrb    r3,[r0]
0803E612 8860     ldrh    r0,[r4,2h]
0803E614 9000     str     r0,[sp]
0803E616 88A0     ldrh    r0,[r4,4h]
0803E618 9001     str     r0,[sp,4h]
0803E61A 9102     str     r1,[sp,8h]
0803E61C 203D     mov     r0,3Dh
0803E61E 2100     mov     r1,0h
0803E620 F7D1FA5E bl      800FAE0h
0803E624 20CD     mov     r0,0CDh
0803E626 0040     lsl     r0,r0,1h
0803E628 F7C4F914 bl      8002854h
0803E62C 4806     ldr     r0,=30006BCh
0803E62E 3024     add     r0,24h
0803E630 7800     ldrb    r0,[r0]
0803E632 2857     cmp     r0,57h
0803E634 D01F     beq     803E676h
0803E636 2857     cmp     r0,57h
0803E638 DC0B     bgt     803E652h
0803E63A 2801     cmp     r0,1h
0803E63C D015     beq     803E66Ah
0803E63E 2801     cmp     r0,1h
0803E640 DC04     bgt     803E64Ch
0803E642 2800     cmp     r0,0h
0803E644 D00E     beq     803E664h
0803E646 E022     b       803E68Eh
0803E648 06BC     lsl     r4,r7,1Ah
0803E64A 0300     lsl     r0,r0,0Ch
0803E64C 2802     cmp     r0,2h
0803E64E D00F     beq     803E670h
0803E650 E01D     b       803E68Eh
0803E652 2859     cmp     r0,59h
0803E654 D014     beq     803E680h
0803E656 2859     cmp     r0,59h
0803E658 DB0F     blt     803E67Ah
0803E65A 285A     cmp     r0,5Ah
0803E65C D012     beq     803E684h
0803E65E 285B     cmp     r0,5Bh
0803E660 D013     beq     803E68Ah
0803E662 E014     b       803E68Eh
0803E664 F7FFFEA6 bl      803E3B4h
0803E668 E011     b       803E68Eh
0803E66A F7FFFF07 bl      803E47Ch
0803E66E E00E     b       803E68Eh
0803E670 F7FFFF16 bl      803E4A0h
0803E674 E00B     b       803E68Eh
0803E676 F023F823 bl      80616C0h
0803E67A F023F837 bl      80616ECh
0803E67E E006     b       803E68Eh
0803E680 F7FFFE98 bl      803E3B4h
0803E684 F023FE26 bl      80622D4h
0803E688 E001     b       803E68Eh
0803E68A F023F955 bl      8061938h
0803E68E B003     add     sp,0Ch
0803E690 BC10     pop     r4
0803E692 BC01     pop     r0
0803E694 4700     bx      r0
0803E696 0000     lsl     r0,r0,0h
0803E698 B5F0     push    r4-r7,lr
0803E69A 4C1C     ldr     r4,=30006BCh
0803E69C 1C20     mov     r0,r4
0803E69E 3023     add     r0,23h
0803E6A0 7805     ldrb    r5,[r0]
0803E6A2 1C2F     mov     r7,r5
0803E6A4 2024     mov     r0,24h
0803E6A6 1900     add     r0,r0,r4
0803E6A8 4684     mov     r12,r0
0803E6AA 7806     ldrb    r6,[r0]
0803E6AC 2E00     cmp     r6,0h
0803E6AE D137     bne     803E720h
0803E6B0 8821     ldrh    r1,[r4]
0803E6B2 4817     ldr     r0,=0FFFBh
0803E6B4 4008     and     r0,r1
0803E6B6 2100     mov     r1,0h
0803E6B8 8020     strh    r0,[r4]
0803E6BA 1C20     mov     r0,r4
0803E6BC 3021     add     r0,21h
0803E6BE 2301     mov     r3,1h
0803E6C0 7003     strb    r3,[r0]
0803E6C2 1C22     mov     r2,r4
0803E6C4 3222     add     r2,22h
0803E6C6 2003     mov     r0,3h
0803E6C8 7010     strb    r0,[r2]
0803E6CA 1C20     mov     r0,r4
0803E6CC 3025     add     r0,25h
0803E6CE 2202     mov     r2,2h
0803E6D0 7002     strb    r2,[r0]
0803E6D2 4810     ldr     r0,=8357568h
0803E6D4 61A0     str     r0,[r4,18h]
0803E6D6 7721     strb    r1,[r4,1Ch]
0803E6D8 82E6     strh    r6,[r4,16h]
0803E6DA 1C20     mov     r0,r4
0803E6DC 3027     add     r0,27h
0803E6DE 2128     mov     r1,28h
0803E6E0 7001     strb    r1,[r0]
0803E6E2 3001     add     r0,1h
0803E6E4 7001     strb    r1,[r0]
0803E6E6 3001     add     r0,1h
0803E6E8 7001     strb    r1,[r0]
0803E6EA 490B     ldr     r1,=0FF80h
0803E6EC 8161     strh    r1,[r4,0Ah]
0803E6EE 2080     mov     r0,80h
0803E6F0 81A0     strh    r0,[r4,0Ch]
0803E6F2 81E1     strh    r1,[r4,0Eh]
0803E6F4 8220     strh    r0,[r4,10h]
0803E6F6 4660     mov     r0,r12
0803E6F8 7002     strb    r2,[r0]
0803E6FA 4908     ldr     r1,=3000140h
0803E6FC 00E8     lsl     r0,r5,3h
0803E6FE 1B40     sub     r0,r0,r5
0803E700 00C0     lsl     r0,r0,3h
0803E702 1840     add     r0,r0,r1
0803E704 302F     add     r0,2Fh
0803E706 7003     strb    r3,[r0]
0803E708 E022     b       803E750h
0803E70A 0000     lsl     r0,r0,0h
0803E70C 06BC     lsl     r4,r7,1Ah
0803E70E 0300     lsl     r0,r0,0Ch
0803E710 FFFB0000 ????
0803E712 0000     lsl     r0,r0,0h
0803E714 7568     strb    r0,[r5,15h]
0803E716 0835     lsr     r5,r6,20h
0803E718 FF800000 ????
0803E71A 0000     lsl     r0,r0,0h
0803E71C 0140     lsl     r0,r0,5h
0803E71E 0300     lsl     r0,r0,0Ch
0803E720 8AE0     ldrh    r0,[r4,16h]
0803E722 3802     sub     r0,2h
0803E724 0400     lsl     r0,r0,10h
0803E726 0C00     lsr     r0,r0,10h
0803E728 2801     cmp     r0,1h
0803E72A D903     bls     803E734h
0803E72C 1C21     mov     r1,r4
0803E72E 3126     add     r1,26h
0803E730 2001     mov     r0,1h
0803E732 7008     strb    r0,[r1]
0803E734 F7D3F8FE bl      8011934h
0803E738 2800     cmp     r0,0h
0803E73A D009     beq     803E750h
0803E73C 2200     mov     r2,0h
0803E73E 2000     mov     r0,0h
0803E740 8020     strh    r0,[r4]
0803E742 4905     ldr     r1,=3000140h
0803E744 00F8     lsl     r0,r7,3h
0803E746 1BC0     sub     r0,r0,r7
0803E748 00C0     lsl     r0,r0,3h
0803E74A 1840     add     r0,r0,r1
0803E74C 302F     add     r0,2Fh
0803E74E 7002     strb    r2,[r0]
0803E750 BCF0     pop     r4-r7
0803E752 BC01     pop     r0
0803E754 4700     bx      r0
0803E756 0000     lsl     r0,r0,0h
0803E758 0140     lsl     r0,r0,5h
0803E75A 0300     lsl     r0,r0,0Ch
0803E75C B530     push    r4,r5,lr
0803E75E F7D4F85B bl      8012818h
0803E762 4A09     ldr     r2,=30006BCh
0803E764 1C10     mov     r0,r2
0803E766 3034     add     r0,34h
0803E768 7801     ldrb    r1,[r0]
0803E76A 2002     mov     r0,2h
0803E76C 4008     and     r0,r1
0803E76E 2800     cmp     r0,0h
0803E770 D00C     beq     803E78Ch
0803E772 8811     ldrh    r1,[r2]
0803E774 2080     mov     r0,80h
0803E776 0180     lsl     r0,r0,6h
0803E778 4008     and     r0,r1
0803E77A 0400     lsl     r0,r0,10h
0803E77C 0C00     lsr     r0,r0,10h
0803E77E 2800     cmp     r0,0h
0803E780 D104     bne     803E78Ch
0803E782 8010     strh    r0,[r2]
0803E784 E046     b       803E814h
0803E786 0000     lsl     r0,r0,0h
0803E788 06BC     lsl     r4,r7,1Ah
0803E78A 0300     lsl     r0,r0,0Ch
0803E78C 4C1B     ldr     r4,=30006BCh
0803E78E 1C20     mov     r0,r4
0803E790 3027     add     r0,27h
0803E792 2200     mov     r2,0h
0803E794 2110     mov     r1,10h
0803E796 7001     strb    r1,[r0]
0803E798 3001     add     r0,1h
0803E79A 7001     strb    r1,[r0]
0803E79C 3001     add     r0,1h
0803E79E 7001     strb    r1,[r0]
0803E7A0 2500     mov     r5,0h
0803E7A2 4917     ldr     r1,=0FFE0h
0803E7A4 8161     strh    r1,[r4,0Ah]
0803E7A6 2020     mov     r0,20h
0803E7A8 81A0     strh    r0,[r4,0Ch]
0803E7AA 81E1     strh    r1,[r4,0Eh]
0803E7AC 8220     strh    r0,[r4,10h]
0803E7AE 4815     ldr     r0,=8357F14h
0803E7B0 61A0     str     r0,[r4,18h]
0803E7B2 7725     strb    r5,[r4,1Ch]
0803E7B4 82E2     strh    r2,[r4,16h]
0803E7B6 4A14     ldr     r2,=82E4D4Ch
0803E7B8 7F61     ldrb    r1,[r4,1Dh]
0803E7BA 00C8     lsl     r0,r1,3h
0803E7BC 1A40     sub     r0,r0,r1
0803E7BE 0040     lsl     r0,r0,1h
0803E7C0 1880     add     r0,r0,r2
0803E7C2 8800     ldrh    r0,[r0]
0803E7C4 82A0     strh    r0,[r4,14h]
0803E7C6 1C21     mov     r1,r4
0803E7C8 3125     add     r1,25h
0803E7CA 2002     mov     r0,2h
0803E7CC 7008     strb    r0,[r1]
0803E7CE F7D2FE7F bl      80114D0h
0803E7D2 480E     ldr     r0,=30007F0h
0803E7D4 7800     ldrb    r0,[r0]
0803E7D6 2808     cmp     r0,8h
0803E7D8 D905     bls     803E7E6h
0803E7DA 8820     ldrh    r0,[r4]
0803E7DC 2280     mov     r2,80h
0803E7DE 00D2     lsl     r2,r2,3h
0803E7E0 1C11     mov     r1,r2
0803E7E2 4308     orr     r0,r1
0803E7E4 8020     strh    r0,[r4]
0803E7E6 1C21     mov     r1,r4
0803E7E8 3124     add     r1,24h
0803E7EA 7808     ldrb    r0,[r1]
0803E7EC 2859     cmp     r0,59h
0803E7EE D10F     bne     803E810h
0803E7F0 205A     mov     r0,5Ah
0803E7F2 7008     strb    r0,[r1]
0803E7F4 202C     mov     r0,2Ch
0803E7F6 80E0     strh    r0,[r4,6h]
0803E7F8 E00C     b       803E814h
0803E7FA 0000     lsl     r0,r0,0h
0803E7FC 06BC     lsl     r4,r7,1Ah
0803E7FE 0300     lsl     r0,r0,0Ch
0803E800 FFE00000 ????
0803E802 0000     lsl     r0,r0,0h
0803E804 7F14     ldrb    r4,[r2,1Ch]
0803E806 0835     lsr     r5,r6,20h
0803E808 4D4C     ldr     r5,=80204308h
0803E80A 082E     lsr     r6,r5,20h
0803E80C 07F0     lsl     r0,r6,1Fh
0803E80E 0300     lsl     r0,r0,0Ch
0803E810 2001     mov     r0,1h
0803E812 7008     strb    r0,[r1]
0803E814 BC30     pop     r4,r5
0803E816 BC01     pop     r0
0803E818 4700     bx      r0
0803E81A 0000     lsl     r0,r0,0h
0803E81C 4A06     ldr     r2,=30006BCh
0803E81E 1C11     mov     r1,r2
0803E820 3124     add     r1,24h
0803E822 2002     mov     r0,2h
0803E824 7008     strb    r0,[r1]
0803E826 4805     ldr     r0,=30007F0h
0803E828 7800     ldrb    r0,[r0]
0803E82A 0680     lsl     r0,r0,1Ah
0803E82C 0E00     lsr     r0,r0,18h
0803E82E 310C     add     r1,0Ch
0803E830 7008     strb    r0,[r1]
0803E832 3101     add     r1,1h
0803E834 7008     strb    r0,[r1]
0803E836 4770     bx      r14
0803E838 06BC     lsl     r4,r7,1Ah
0803E83A 0300     lsl     r0,r0,0Ch
0803E83C 07F0     lsl     r0,r6,1Fh
0803E83E 0300     lsl     r0,r0,0Ch
0803E840 B5F0     push    r4-r7,lr
0803E842 4C1D     ldr     r4,=30006BCh
0803E844 8821     ldrh    r1,[r4]
0803E846 2080     mov     r0,80h
0803E848 0180     lsl     r0,r0,6h
0803E84A 4008     and     r0,r1
0803E84C 2800     cmp     r0,0h
0803E84E D12F     bne     803E8B0h
0803E850 1C25     mov     r5,r4
0803E852 3531     add     r5,31h
0803E854 7829     ldrb    r1,[r5]
0803E856 4B19     ldr     r3,=83575B0h
0803E858 0048     lsl     r0,r1,1h
0803E85A 18C0     add     r0,r0,r3
0803E85C 8802     ldrh    r2,[r0]
0803E85E 2600     mov     r6,0h
0803E860 5F80     ldsh    r0,[r0,r6]
0803E862 4E17     ldr     r6,=7FFFh
0803E864 42B0     cmp     r0,r6
0803E866 D101     bne     803E86Ch
0803E868 881A     ldrh    r2,[r3]
0803E86A 2100     mov     r1,0h
0803E86C 1C48     add     r0,r1,1
0803E86E 7028     strb    r0,[r5]
0803E870 8860     ldrh    r0,[r4,2h]
0803E872 1880     add     r0,r0,r2
0803E874 8060     strh    r0,[r4,2h]
0803E876 1C25     mov     r5,r4
0803E878 3530     add     r5,30h
0803E87A 7829     ldrb    r1,[r5]
0803E87C 4B11     ldr     r3,=8357632h
0803E87E 0048     lsl     r0,r1,1h
0803E880 18C0     add     r0,r0,r3
0803E882 8802     ldrh    r2,[r0]
0803E884 2700     mov     r7,0h
0803E886 5FC0     ldsh    r0,[r0,r7]
0803E888 42B0     cmp     r0,r6
0803E88A D101     bne     803E890h
0803E88C 881A     ldrh    r2,[r3]
0803E88E 2100     mov     r1,0h
0803E890 1C48     add     r0,r1,1
0803E892 7028     strb    r0,[r5]
0803E894 88A0     ldrh    r0,[r4,4h]
0803E896 1880     add     r0,r0,r2
0803E898 80A0     strh    r0,[r4,4h]
0803E89A 2180     mov     r1,80h
0803E89C 0089     lsl     r1,r1,2h
0803E89E 1C08     mov     r0,r1
0803E8A0 F7D3F940 bl      8011B24h
0803E8A4 2800     cmp     r0,0h
0803E8A6 D003     beq     803E8B0h
0803E8A8 1C21     mov     r1,r4
0803E8AA 3124     add     r1,24h
0803E8AC 2017     mov     r0,17h
0803E8AE 7008     strb    r0,[r1]
0803E8B0 BCF0     pop     r4-r7
0803E8B2 BC01     pop     r0
0803E8B4 4700     bx      r0
0803E8B6 0000     lsl     r0,r0,0h
0803E8B8 06BC     lsl     r4,r7,1Ah
0803E8BA 0300     lsl     r0,r0,0Ch
0803E8BC 75B0     strb    r0,[r6,16h]
0803E8BE 0835     lsr     r5,r6,20h
0803E8C0 7FFF     ldrb    r7,[r7,1Fh]
0803E8C2 0000     lsl     r0,r0,0h
0803E8C4 7632     strb    r2,[r6,18h]
0803E8C6 0835     lsr     r5,r6,20h
0803E8C8 B530     push    r4,r5,lr
0803E8CA 4C15     ldr     r4,=30006BCh
0803E8CC 1C20     mov     r0,r4
0803E8CE 302F     add     r0,2Fh
0803E8D0 2200     mov     r2,0h
0803E8D2 7002     strb    r2,[r0]
0803E8D4 3001     add     r0,1h
0803E8D6 2101     mov     r1,1h
0803E8D8 7001     strb    r1,[r0]
0803E8DA 3802     sub     r0,2h
0803E8DC 7002     strb    r2,[r0]
0803E8DE 3003     add     r0,3h
0803E8E0 7001     strb    r1,[r0]
0803E8E2 4810     ldr     r0,=30007F0h
0803E8E4 7801     ldrb    r1,[r0]
0803E8E6 2003     mov     r0,3h
0803E8E8 4008     and     r0,r1
0803E8EA 2500     mov     r5,0h
0803E8EC 8120     strh    r0,[r4,8h]
0803E8EE 1C21     mov     r1,r4
0803E8F0 3124     add     r1,24h
0803E8F2 2018     mov     r0,18h
0803E8F4 7008     strb    r0,[r1]
0803E8F6 200C     mov     r0,0Ch
0803E8F8 8260     strh    r0,[r4,12h]
0803E8FA 480B     ldr     r0,=8357F3Ch
0803E8FC 61A0     str     r0,[r4,18h]
0803E8FE 7725     strb    r5,[r4,1Ch]
0803E900 82E2     strh    r2,[r4,16h]
0803E902 F7D2FE33 bl      801156Ch
0803E906 8862     ldrh    r2,[r4,2h]
0803E908 4908     ldr     r1,=3001244h
0803E90A 2326     mov     r3,26h
0803E90C 5EC8     ldsh    r0,[r1,r3]
0803E90E 8B09     ldrh    r1,[r1,18h]
0803E910 1840     add     r0,r0,r1
0803E912 4282     cmp     r2,r0
0803E914 DD0E     ble     803E934h
0803E916 8821     ldrh    r1,[r4]
0803E918 4805     ldr     r0,=0FBFFh
0803E91A 4008     and     r0,r1
0803E91C E00F     b       803E93Eh
0803E91E 0000     lsl     r0,r0,0h
0803E920 06BC     lsl     r4,r7,1Ah
0803E922 0300     lsl     r0,r0,0Ch
0803E924 07F0     lsl     r0,r6,1Fh
0803E926 0300     lsl     r0,r0,0Ch
0803E928 7F3C     ldrb    r4,[r7,1Ch]
0803E92A 0835     lsr     r5,r6,20h
0803E92C 1244     asr     r4,r0,9h
0803E92E 0300     lsl     r0,r0,0Ch
0803E930 FBFF0000 ????
0803E932 0000     lsl     r0,r0,0h
0803E934 8820     ldrh    r0,[r4]
0803E936 2280     mov     r2,80h
0803E938 00D2     lsl     r2,r2,3h
0803E93A 1C11     mov     r1,r2
0803E93C 4308     orr     r0,r1
0803E93E 8020     strh    r0,[r4]
0803E940 BC30     pop     r4,r5
0803E942 BC01     pop     r0
0803E944 4700     bx      r0
0803E946 0000     lsl     r0,r0,0h
0803E948 B5F0     push    r4-r7,lr
0803E94A 464F     mov     r7,r9
0803E94C 4646     mov     r6,r8
0803E94E B4C0     push    r6,r7
0803E950 4820     ldr     r0,=30006BCh
0803E952 8841     ldrh    r1,[r0,2h]
0803E954 468C     mov     r12,r1
0803E956 8883     ldrh    r3,[r0,4h]
0803E958 4698     mov     r8,r3
0803E95A 2518     mov     r5,18h
0803E95C 3023     add     r0,23h
0803E95E 7800     ldrb    r0,[r0]
0803E960 3001     add     r0,1h
0803E962 0600     lsl     r0,r0,18h
0803E964 0E04     lsr     r4,r0,18h
0803E966 2C17     cmp     r4,17h
0803E968 D85B     bhi     803EA22h
0803E96A 481B     ldr     r0,=3000140h
0803E96C 4681     mov     r9,r0
0803E96E 00E2     lsl     r2,r4,3h
0803E970 1B10     sub     r0,r2,r4
0803E972 00C0     lsl     r0,r0,3h
0803E974 4649     mov     r1,r9
0803E976 1843     add     r3,r0,r1
0803E978 8819     ldrh    r1,[r3]
0803E97A 2001     mov     r0,1h
0803E97C 4008     and     r0,r1
0803E97E 2800     cmp     r0,0h
0803E980 D04A     beq     803EA18h
0803E982 1C18     mov     r0,r3
0803E984 3034     add     r0,34h
0803E986 7801     ldrb    r1,[r0]
0803E988 2080     mov     r0,80h
0803E98A 4008     and     r0,r1
0803E98C 2800     cmp     r0,0h
0803E98E D143     bne     803EA18h
0803E990 7F58     ldrb    r0,[r3,1Dh]
0803E992 2870     cmp     r0,70h
0803E994 D140     bne     803EA18h
0803E996 885F     ldrh    r7,[r3,2h]
0803E998 889E     ldrh    r6,[r3,4h]
0803E99A 4660     mov     r0,r12
0803E99C 1941     add     r1,r0,r5
0803E99E 1B78     sub     r0,r7,r5
0803E9A0 4281     cmp     r1,r0
0803E9A2 DD39     ble     803EA18h
0803E9A4 4660     mov     r0,r12
0803E9A6 1B41     sub     r1,r0,r5
0803E9A8 1978     add     r0,r7,r5
0803E9AA 4281     cmp     r1,r0
0803E9AC DA34     bge     803EA18h
0803E9AE 4640     mov     r0,r8
0803E9B0 1941     add     r1,r0,r5
0803E9B2 1B70     sub     r0,r6,r5
0803E9B4 4281     cmp     r1,r0
0803E9B6 DD2F     ble     803EA18h
0803E9B8 4640     mov     r0,r8
0803E9BA 1B41     sub     r1,r0,r5
0803E9BC 1970     add     r0,r6,r5
0803E9BE 4281     cmp     r1,r0
0803E9C0 DA2A     bge     803EA18h
0803E9C2 1C18     mov     r0,r3
0803E9C4 3032     add     r0,32h
0803E9C6 7800     ldrb    r0,[r0]
0803E9C8 2800     cmp     r0,0h
0803E9CA D12A     bne     803EA22h
0803E9CC 45BC     cmp     r12,r7
0803E9CE D905     bls     803E9DCh
0803E9D0 1F38     sub     r0,r7,4
0803E9D2 E004     b       803E9DEh
0803E9D4 06BC     lsl     r4,r7,1Ah
0803E9D6 0300     lsl     r0,r0,0Ch
0803E9D8 0140     lsl     r0,r0,5h
0803E9DA 0300     lsl     r0,r0,0Ch
0803E9DC 1D38     add     r0,r7,4
0803E9DE 8058     strh    r0,[r3,2h]
0803E9E0 45B0     cmp     r8,r6
0803E9E2 D905     bls     803E9F0h
0803E9E4 1B11     sub     r1,r2,r4
0803E9E6 00C9     lsl     r1,r1,3h
0803E9E8 4449     add     r1,r9
0803E9EA 8888     ldrh    r0,[r1,4h]
0803E9EC 3804     sub     r0,4h
0803E9EE E004     b       803E9FAh
0803E9F0 1B11     sub     r1,r2,r4
0803E9F2 00C9     lsl     r1,r1,3h
0803E9F4 4449     add     r1,r9
0803E9F6 8888     ldrh    r0,[r1,4h]
0803E9F8 3004     add     r0,4h
0803E9FA 8088     strh    r0,[r1,4h]
0803E9FC 1B12     sub     r2,r2,r4
0803E9FE 00D2     lsl     r2,r2,3h
0803EA00 444A     add     r2,r9
0803EA02 8811     ldrh    r1,[r2]
0803EA04 2380     mov     r3,80h
0803EA06 009B     lsl     r3,r3,2h
0803EA08 1C18     mov     r0,r3
0803EA0A 4041     eor     r1,r0
0803EA0C 2380     mov     r3,80h
0803EA0E 00DB     lsl     r3,r3,3h
0803EA10 1C18     mov     r0,r3
0803EA12 4041     eor     r1,r0
0803EA14 8011     strh    r1,[r2]
0803EA16 E004     b       803EA22h
0803EA18 1C60     add     r0,r4,1
0803EA1A 0600     lsl     r0,r0,18h
0803EA1C 0E04     lsr     r4,r0,18h
0803EA1E 2C17     cmp     r4,17h
0803EA20 D9A5     bls     803E96Eh
0803EA22 4C06     ldr     r4,=30006BCh
0803EA24 8821     ldrh    r1,[r4]
0803EA26 2580     mov     r5,80h
0803EA28 00AD     lsl     r5,r5,2h
0803EA2A 1C28     mov     r0,r5
0803EA2C 4008     and     r0,r1
0803EA2E 2800     cmp     r0,0h
0803EA30 D006     beq     803EA40h
0803EA32 8860     ldrh    r0,[r4,2h]
0803EA34 88A1     ldrh    r1,[r4,4h]
0803EA36 3120     add     r1,20h
0803EA38 E005     b       803EA46h
0803EA3A 0000     lsl     r0,r0,0h
0803EA3C 06BC     lsl     r4,r7,1Ah
0803EA3E 0300     lsl     r0,r0,0Ch
0803EA40 8860     ldrh    r0,[r4,2h]
0803EA42 88A1     ldrh    r1,[r4,4h]
0803EA44 3920     sub     r1,20h
0803EA46 F7D2FCA3 bl      8011390h
0803EA4A 4809     ldr     r0,=30007A5h
0803EA4C 7800     ldrb    r0,[r0]
0803EA4E 2811     cmp     r0,11h
0803EA50 D103     bne     803EA5Ah
0803EA52 8821     ldrh    r1,[r4]
0803EA54 1C28     mov     r0,r5
0803EA56 4048     eor     r0,r1
0803EA58 8020     strh    r0,[r4]
0803EA5A 4C06     ldr     r4,=30006BCh
0803EA5C 8821     ldrh    r1,[r4]
0803EA5E 2580     mov     r5,80h
0803EA60 00ED     lsl     r5,r5,3h
0803EA62 1C28     mov     r0,r5
0803EA64 4008     and     r0,r1
0803EA66 2800     cmp     r0,0h
0803EA68 D006     beq     803EA78h
0803EA6A 8860     ldrh    r0,[r4,2h]
0803EA6C 3020     add     r0,20h
0803EA6E E005     b       803EA7Ch
0803EA70 07A5     lsl     r5,r4,1Eh
0803EA72 0300     lsl     r0,r0,0Ch
0803EA74 06BC     lsl     r4,r7,1Ah
0803EA76 0300     lsl     r0,r0,0Ch
0803EA78 8860     ldrh    r0,[r4,2h]
0803EA7A 3820     sub     r0,20h
0803EA7C 88A1     ldrh    r1,[r4,4h]
0803EA7E F7D2FC87 bl      8011390h
0803EA82 4817     ldr     r0,=30007A5h
0803EA84 7800     ldrb    r0,[r0]
0803EA86 2811     cmp     r0,11h
0803EA88 D103     bne     803EA92h
0803EA8A 8821     ldrh    r1,[r4]
0803EA8C 1C28     mov     r0,r5
0803EA8E 4048     eor     r0,r1
0803EA90 8020     strh    r0,[r4]
0803EA92 4814     ldr     r0,=3001244h
0803EA94 8B01     ldrh    r1,[r0,18h]
0803EA96 3948     sub     r1,48h
0803EA98 0409     lsl     r1,r1,10h
0803EA9A 0C0F     lsr     r7,r1,10h
0803EA9C 8AC6     ldrh    r6,[r0,16h]
0803EA9E 2004     mov     r0,4h
0803EAA0 4680     mov     r8,r0
0803EAA2 4911     ldr     r1,=30006BCh
0803EAA4 880C     ldrh    r4,[r1]
0803EAA6 2580     mov     r5,80h
0803EAA8 00AD     lsl     r5,r5,2h
0803EAAA 1C28     mov     r0,r5
0803EAAC 4020     and     r0,r4
0803EAAE 1C0A     mov     r2,r1
0803EAB0 2800     cmp     r0,0h
0803EAB2 D02B     beq     803EB0Ch
0803EAB4 1C13     mov     r3,r2
0803EAB6 332F     add     r3,2Fh
0803EAB8 7818     ldrb    r0,[r3]
0803EABA 2800     cmp     r0,0h
0803EABC D116     bne     803EAECh
0803EABE 8891     ldrh    r1,[r2,4h]
0803EAC0 1F30     sub     r0,r6,4
0803EAC2 4281     cmp     r1,r0
0803EAC4 DC2B     bgt     803EB1Eh
0803EAC6 1C11     mov     r1,r2
0803EAC8 3130     add     r1,30h
0803EACA 7808     ldrb    r0,[r1]
0803EACC 2803     cmp     r0,3h
0803EACE D801     bhi     803EAD4h
0803EAD0 3001     add     r0,1h
0803EAD2 7008     strb    r0,[r1]
0803EAD4 7808     ldrb    r0,[r1]
0803EAD6 0880     lsr     r0,r0,2h
0803EAD8 8891     ldrh    r1,[r2,4h]
0803EADA 1840     add     r0,r0,r1
0803EADC 8090     strh    r0,[r2,4h]
0803EADE E03F     b       803EB60h
0803EAE0 07A5     lsl     r5,r4,1Eh
0803EAE2 0300     lsl     r0,r0,0Ch
0803EAE4 1244     asr     r4,r0,9h
0803EAE6 0300     lsl     r0,r0,0Ch
0803EAE8 06BC     lsl     r4,r7,1Ah
0803EAEA 0300     lsl     r0,r0,0Ch
0803EAEC 1E41     sub     r1,r0,1
0803EAEE 7019     strb    r1,[r3]
0803EAF0 0608     lsl     r0,r1,18h
0803EAF2 2800     cmp     r0,0h
0803EAF4 D004     beq     803EB00h
0803EAF6 0E80     lsr     r0,r0,1Ah
0803EAF8 8893     ldrh    r3,[r2,4h]
0803EAFA 18C0     add     r0,r0,r3
0803EAFC 8090     strh    r0,[r2,4h]
0803EAFE E02F     b       803EB60h
0803EB00 4801     ldr     r0,=0FDFFh
0803EB02 4020     and     r0,r4
0803EB04 E027     b       803EB56h
0803EB06 0000     lsl     r0,r0,0h
0803EB08 FDFF0000 ????
0803EB0A 0000     lsl     r0,r0,0h
0803EB0C 1C13     mov     r3,r2
0803EB0E 332F     add     r3,2Fh
0803EB10 7818     ldrb    r0,[r3]
0803EB12 2800     cmp     r0,0h
0803EB14 D112     bne     803EB3Ch
0803EB16 8891     ldrh    r1,[r2,4h]
0803EB18 1D30     add     r0,r6,4
0803EB1A 4281     cmp     r1,r0
0803EB1C DA04     bge     803EB28h
0803EB1E 1C10     mov     r0,r2
0803EB20 3030     add     r0,30h
0803EB22 7800     ldrb    r0,[r0]
0803EB24 7018     strb    r0,[r3]
0803EB26 E01B     b       803EB60h
0803EB28 1C11     mov     r1,r2
0803EB2A 3130     add     r1,30h
0803EB2C 7808     ldrb    r0,[r1]
0803EB2E 2803     cmp     r0,3h
0803EB30 D801     bhi     803EB36h
0803EB32 3001     add     r0,1h
0803EB34 7008     strb    r0,[r1]
0803EB36 7809     ldrb    r1,[r1]
0803EB38 0889     lsr     r1,r1,2h
0803EB3A E006     b       803EB4Ah
0803EB3C 1E41     sub     r1,r0,1
0803EB3E 7019     strb    r1,[r3]
0803EB40 0608     lsl     r0,r1,18h
0803EB42 2800     cmp     r0,0h
0803EB44 D005     beq     803EB52h
0803EB46 1C01     mov     r1,r0
0803EB48 0E89     lsr     r1,r1,1Ah
0803EB4A 8890     ldrh    r0,[r2,4h]
0803EB4C 1A40     sub     r0,r0,r1
0803EB4E 8090     strh    r0,[r2,4h]
0803EB50 E006     b       803EB60h
0803EB52 1C28     mov     r0,r5
0803EB54 4320     orr     r0,r4
0803EB56 8010     strh    r0,[r2]
0803EB58 1C11     mov     r1,r2
0803EB5A 3130     add     r1,30h
0803EB5C 2001     mov     r0,1h
0803EB5E 7008     strb    r0,[r1]
0803EB60 8811     ldrh    r1,[r2]
0803EB62 2480     mov     r4,80h
0803EB64 00E4     lsl     r4,r4,3h
0803EB66 1C20     mov     r0,r4
0803EB68 4008     and     r0,r1
0803EB6A 2800     cmp     r0,0h
0803EB6C D026     beq     803EBBCh
0803EB6E 1C13     mov     r3,r2
0803EB70 332E     add     r3,2Eh
0803EB72 7818     ldrb    r0,[r3]
0803EB74 2800     cmp     r0,0h
0803EB76 D110     bne     803EB9Ah
0803EB78 8851     ldrh    r1,[r2,2h]
0803EB7A 1F38     sub     r0,r7,4
0803EB7C 4281     cmp     r1,r0
0803EB7E DC26     bgt     803EBCEh
0803EB80 1C11     mov     r1,r2
0803EB82 3131     add     r1,31h
0803EB84 7808     ldrb    r0,[r1]
0803EB86 4540     cmp     r0,r8
0803EB88 D201     bcs     803EB8Eh
0803EB8A 3001     add     r0,1h
0803EB8C 7008     strb    r0,[r1]
0803EB8E 7808     ldrb    r0,[r1]
0803EB90 0880     lsr     r0,r0,2h
0803EB92 8851     ldrh    r1,[r2,2h]
0803EB94 1840     add     r0,r0,r1
0803EB96 8050     strh    r0,[r2,2h]
0803EB98 E03B     b       803EC12h
0803EB9A 1E41     sub     r1,r0,1
0803EB9C 7019     strb    r1,[r3]
0803EB9E 0608     lsl     r0,r1,18h
0803EBA0 2800     cmp     r0,0h
0803EBA2 D004     beq     803EBAEh
0803EBA4 0E80     lsr     r0,r0,1Ah
0803EBA6 8853     ldrh    r3,[r2,2h]
0803EBA8 18C0     add     r0,r0,r3
0803EBAA 8050     strh    r0,[r2,2h]
0803EBAC E031     b       803EC12h
0803EBAE 8810     ldrh    r0,[r2]
0803EBB0 4901     ldr     r1,=0FBFFh
0803EBB2 4001     and     r1,r0
0803EBB4 E028     b       803EC08h
0803EBB6 0000     lsl     r0,r0,0h
0803EBB8 FBFF0000 ????
0803EBBA 0000     lsl     r0,r0,0h
0803EBBC 1C13     mov     r3,r2
0803EBBE 332E     add     r3,2Eh
0803EBC0 7818     ldrb    r0,[r3]
0803EBC2 2800     cmp     r0,0h
0803EBC4 D112     bne     803EBECh
0803EBC6 8851     ldrh    r1,[r2,2h]
0803EBC8 1D38     add     r0,r7,4
0803EBCA 4281     cmp     r1,r0
0803EBCC DA04     bge     803EBD8h
0803EBCE 1C10     mov     r0,r2
0803EBD0 3031     add     r0,31h
0803EBD2 7800     ldrb    r0,[r0]
0803EBD4 7018     strb    r0,[r3]
0803EBD6 E01C     b       803EC12h
0803EBD8 1C11     mov     r1,r2
0803EBDA 3131     add     r1,31h
0803EBDC 7808     ldrb    r0,[r1]
0803EBDE 4540     cmp     r0,r8
0803EBE0 D201     bcs     803EBE6h
0803EBE2 3001     add     r0,1h
0803EBE4 7008     strb    r0,[r1]
0803EBE6 7809     ldrb    r1,[r1]
0803EBE8 0889     lsr     r1,r1,2h
0803EBEA E006     b       803EBFAh
0803EBEC 1E41     sub     r1,r0,1
0803EBEE 7019     strb    r1,[r3]
0803EBF0 0608     lsl     r0,r1,18h
0803EBF2 2800     cmp     r0,0h
0803EBF4 D005     beq     803EC02h
0803EBF6 1C01     mov     r1,r0
0803EBF8 0E89     lsr     r1,r1,1Ah
0803EBFA 8850     ldrh    r0,[r2,2h]
0803EBFC 1A40     sub     r0,r0,r1
0803EBFE 8050     strh    r0,[r2,2h]
0803EC00 E007     b       803EC12h
0803EC02 8810     ldrh    r0,[r2]
0803EC04 1C21     mov     r1,r4
0803EC06 4301     orr     r1,r0
0803EC08 8011     strh    r1,[r2]
0803EC0A 1C11     mov     r1,r2
0803EC0C 3131     add     r1,31h
0803EC0E 2001     mov     r0,1h
0803EC10 7008     strb    r0,[r1]
0803EC12 8A50     ldrh    r0,[r2,12h]
0803EC14 3801     sub     r0,1h
0803EC16 8250     strh    r0,[r2,12h]
0803EC18 0400     lsl     r0,r0,10h
0803EC1A 2800     cmp     r0,0h
0803EC1C D109     bne     803EC32h
0803EC1E 200C     mov     r0,0Ch
0803EC20 8250     strh    r0,[r2,12h]
0803EC22 8811     ldrh    r1,[r2]
0803EC24 2002     mov     r0,2h
0803EC26 4008     and     r0,r1
0803EC28 2800     cmp     r0,0h
0803EC2A D002     beq     803EC32h
0803EC2C 4804     ldr     r0,=19Bh
0803EC2E F7C3FE11 bl      8002854h
0803EC32 BC18     pop     r3,r4
0803EC34 4698     mov     r8,r3
0803EC36 46A1     mov     r9,r4
0803EC38 BCF0     pop     r4-r7
0803EC3A BC01     pop     r0
0803EC3C 4700     bx      r0
0803EC3E 0000     lsl     r0,r0,0h
0803EC40 019B     lsl     r3,r3,6h
0803EC42 0000     lsl     r0,r0,0h
0803EC44 B510     push    r4,lr
0803EC46 4C0A     ldr     r4,=30006BCh
0803EC48 1C20     mov     r0,r4
0803EC4A 302C     add     r0,2Ch
0803EC4C 7801     ldrb    r1,[r0]
0803EC4E 207F     mov     r0,7Fh
0803EC50 4008     and     r0,r1
0803EC52 2804     cmp     r0,4h
0803EC54 D103     bne     803EC5Eh
0803EC56 20CE     mov     r0,0CEh
0803EC58 0040     lsl     r0,r0,1h
0803EC5A F7C3FDFB bl      8002854h
0803EC5E 1C20     mov     r0,r4
0803EC60 3032     add     r0,32h
0803EC62 7800     ldrb    r0,[r0]
0803EC64 2800     cmp     r0,0h
0803EC66 D005     beq     803EC74h
0803EC68 F7D3F8EC bl      8011E44h
0803EC6C E0E2     b       803EE34h
0803EC6E 0000     lsl     r0,r0,0h
0803EC70 06BC     lsl     r4,r7,1Ah
0803EC72 0300     lsl     r0,r0,0Ch
0803EC74 1C20     mov     r0,r4
0803EC76 3024     add     r0,24h
0803EC78 7800     ldrb    r0,[r0]
0803EC7A 285B     cmp     r0,5Bh
0803EC7C D900     bls     803EC80h
0803EC7E E0D9     b       803EE34h
0803EC80 0080     lsl     r0,r0,2h
0803EC82 4902     ldr     r1,=803EC90h
0803EC84 1840     add     r0,r0,r1
0803EC86 6800     ldr     r0,[r0]
0803EC88 4687     mov     r15,r0
0803EC8A 0000     lsl     r0,r0,0h
0803EC8C EC90     ????
0803EC8E 0803     lsr     r3,r0,20h
0803EC90 EE00     ????
0803EC92 0803     lsr     r3,r0,20h
0803EC94 EE06     ????
0803EC96 0803     lsr     r3,r0,20h
0803EC98 EE0C     ????
0803EC9A 0803     lsr     r3,r0,20h
0803EC9C EE34     ????
0803EC9E 0803     lsr     r3,r0,20h
0803ECA0 EE34     ????
0803ECA2 0803     lsr     r3,r0,20h
0803ECA4 EE34     ????
0803ECA6 0803     lsr     r3,r0,20h
0803ECA8 EE34     ????
0803ECAA 0803     lsr     r3,r0,20h
0803ECAC EE34     ????
0803ECAE 0803     lsr     r3,r0,20h
0803ECB0 EE34     ????
0803ECB2 0803     lsr     r3,r0,20h
0803ECB4 EE34     ????
0803ECB6 0803     lsr     r3,r0,20h
0803ECB8 EE34     ????
0803ECBA 0803     lsr     r3,r0,20h
0803ECBC EE34     ????
0803ECBE 0803     lsr     r3,r0,20h
0803ECC0 EE34     ????
0803ECC2 0803     lsr     r3,r0,20h
0803ECC4 EE34     ????
0803ECC6 0803     lsr     r3,r0,20h
0803ECC8 EE34     ????
0803ECCA 0803     lsr     r3,r0,20h
0803ECCC EE34     ????
0803ECCE 0803     lsr     r3,r0,20h
0803ECD0 EE34     ????
0803ECD2 0803     lsr     r3,r0,20h
0803ECD4 EE34     ????
0803ECD6 0803     lsr     r3,r0,20h
0803ECD8 EE34     ????
0803ECDA 0803     lsr     r3,r0,20h
0803ECDC EE34     ????
0803ECDE 0803     lsr     r3,r0,20h
0803ECE0 EE34     ????
0803ECE2 0803     lsr     r3,r0,20h
0803ECE4 EE34     ????
0803ECE6 0803     lsr     r3,r0,20h
0803ECE8 EE34     ????
0803ECEA 0803     lsr     r3,r0,20h
0803ECEC EE12     ????
0803ECEE 0803     lsr     r3,r0,20h
0803ECF0 EE16     ????
0803ECF2 0803     lsr     r3,r0,20h
0803ECF4 EE34     ????
0803ECF6 0803     lsr     r3,r0,20h
0803ECF8 EE34     ????
0803ECFA 0803     lsr     r3,r0,20h
0803ECFC EE34     ????
0803ECFE 0803     lsr     r3,r0,20h
0803ED00 EE34     ????
0803ED02 0803     lsr     r3,r0,20h
0803ED04 EE34     ????
0803ED06 0803     lsr     r3,r0,20h
0803ED08 EE34     ????
0803ED0A 0803     lsr     r3,r0,20h
0803ED0C EE34     ????
0803ED0E 0803     lsr     r3,r0,20h
0803ED10 EE34     ????
0803ED12 0803     lsr     r3,r0,20h
0803ED14 EE34     ????
0803ED16 0803     lsr     r3,r0,20h
0803ED18 EE34     ????
0803ED1A 0803     lsr     r3,r0,20h
0803ED1C EE34     ????
0803ED1E 0803     lsr     r3,r0,20h
0803ED20 EE34     ????
0803ED22 0803     lsr     r3,r0,20h
0803ED24 EE34     ????
0803ED26 0803     lsr     r3,r0,20h
0803ED28 EE34     ????
0803ED2A 0803     lsr     r3,r0,20h
0803ED2C EE34     ????
0803ED2E 0803     lsr     r3,r0,20h
0803ED30 EE34     ????
0803ED32 0803     lsr     r3,r0,20h
0803ED34 EE34     ????
0803ED36 0803     lsr     r3,r0,20h
0803ED38 EE34     ????
0803ED3A 0803     lsr     r3,r0,20h
0803ED3C EE34     ????
0803ED3E 0803     lsr     r3,r0,20h
0803ED40 EE34     ????
0803ED42 0803     lsr     r3,r0,20h
0803ED44 EE34     ????
0803ED46 0803     lsr     r3,r0,20h
0803ED48 EE34     ????
0803ED4A 0803     lsr     r3,r0,20h
0803ED4C EE34     ????
0803ED4E 0803     lsr     r3,r0,20h
0803ED50 EE34     ????
0803ED52 0803     lsr     r3,r0,20h
0803ED54 EE34     ????
0803ED56 0803     lsr     r3,r0,20h
0803ED58 EE34     ????
0803ED5A 0803     lsr     r3,r0,20h
0803ED5C EE34     ????
0803ED5E 0803     lsr     r3,r0,20h
0803ED60 EE34     ????
0803ED62 0803     lsr     r3,r0,20h
0803ED64 EE34     ????
0803ED66 0803     lsr     r3,r0,20h
0803ED68 EE34     ????
0803ED6A 0803     lsr     r3,r0,20h
0803ED6C EE34     ????
0803ED6E 0803     lsr     r3,r0,20h
0803ED70 EE34     ????
0803ED72 0803     lsr     r3,r0,20h
0803ED74 EE34     ????
0803ED76 0803     lsr     r3,r0,20h
0803ED78 EE34     ????
0803ED7A 0803     lsr     r3,r0,20h
0803ED7C EE34     ????
0803ED7E 0803     lsr     r3,r0,20h
0803ED80 EE34     ????
0803ED82 0803     lsr     r3,r0,20h
0803ED84 EE34     ????
0803ED86 0803     lsr     r3,r0,20h
0803ED88 EE34     ????
0803ED8A 0803     lsr     r3,r0,20h
0803ED8C EE34     ????
0803ED8E 0803     lsr     r3,r0,20h
0803ED90 EE34     ????
0803ED92 0803     lsr     r3,r0,20h
0803ED94 EE34     ????
0803ED96 0803     lsr     r3,r0,20h
0803ED98 EE34     ????
0803ED9A 0803     lsr     r3,r0,20h
0803ED9C EE34     ????
0803ED9E 0803     lsr     r3,r0,20h
0803EDA0 EE34     ????
0803EDA2 0803     lsr     r3,r0,20h
0803EDA4 EE34     ????
0803EDA6 0803     lsr     r3,r0,20h
0803EDA8 EE34     ????
0803EDAA 0803     lsr     r3,r0,20h
0803EDAC EE34     ????
0803EDAE 0803     lsr     r3,r0,20h
0803EDB0 EE34     ????
0803EDB2 0803     lsr     r3,r0,20h
0803EDB4 EE34     ????
0803EDB6 0803     lsr     r3,r0,20h
0803EDB8 EE34     ????
0803EDBA 0803     lsr     r3,r0,20h
0803EDBC EE34     ????
0803EDBE 0803     lsr     r3,r0,20h
0803EDC0 EE34     ????
0803EDC2 0803     lsr     r3,r0,20h
