08016470 B510     push    r4,lr
08016472 4818     ldr     r0,=3000738h
08016474 4684     mov     r12,r0
08016476 8801     ldrh    r1,[r0]
08016478 4817     ldr     r0,=0FFFBh
0801647A 4008     and     r0,r1
0801647C 2200     mov     r2,0h
0801647E 2300     mov     r3,0h
08016480 4661     mov     r1,r12
08016482 8008     strh    r0,[r1]
08016484 4915     ldr     r1,=0FFE4h
08016486 4664     mov     r4,r12
08016488 8161     strh    r1,[r4,0Ah]
0801648A 201C     mov     r0,1Ch
0801648C 81A0     strh    r0,[r4,0Ch]
0801648E 81E1     strh    r1,[r4,0Eh]
08016490 8220     strh    r0,[r4,10h]
08016492 4660     mov     r0,r12
08016494 3027     add     r0,27h
08016496 210C     mov     r1,0Ch
08016498 7001     strb    r1,[r0]
0801649A 3001     add     r0,1h
0801649C 7001     strb    r1,[r0]
0801649E 3001     add     r0,1h
080164A0 7001     strb    r1,[r0]
080164A2 7722     strb    r2,[r4,1Ch]
080164A4 82E3     strh    r3,[r4,16h]
080164A6 4661     mov     r1,r12
080164A8 3125     add     r1,25h
080164AA 2001     mov     r0,1h
080164AC 7008     strb    r0,[r1]
080164AE 82A0     strh    r0,[r4,14h]
080164B0 3901     sub     r1,1h
080164B2 2008     mov     r0,8h
080164B4 7008     strb    r0,[r1]
080164B6 4A0A     ldr     r2,=30001ACh
080164B8 4660     mov     r0,r12
080164BA 3023     add     r0,23h
080164BC 7801     ldrb    r1,[r0]
080164BE 00C8     lsl     r0,r1,3h
080164C0 1A40     sub     r0,r0,r1
080164C2 00C0     lsl     r0,r0,3h
080164C4 1880     add     r0,r0,r2
080164C6 7F40     ldrb    r0,[r0,1Dh]
080164C8 F7FFFF3C bl      8016344h
080164CC BC10     pop     r4
080164CE BC01     pop     r0
080164D0 4700     bx      r0
080164D2 0000     lsl     r0,r0,0h
080164D4 0738     lsl     r0,r7,1Ch
080164D6 0300     lsl     r0,r0,0Ch
080164D8 FFFB0000 ????
080164DA 0000     lsl     r0,r0,0h
080164DC FFE40000 ????
080164DE 0000     lsl     r0,r0,0h
080164E0 01AC     lsl     r4,r5,6h
080164E2 0300     lsl     r0,r0,0Ch
080164E4 4770     bx      r14
080164E6 0000     lsl     r0,r0,0h
080164E8 B500     push    lr
080164EA 4818     ldr     r0,=3000738h
080164EC 4684     mov     r12,r0
080164EE 4662     mov     r2,r12
080164F0 3232     add     r2,32h
080164F2 7811     ldrb    r1,[r2]
080164F4 2040     mov     r0,40h
080164F6 2300     mov     r3,0h
080164F8 4308     orr     r0,r1
080164FA 7010     strb    r0,[r2]
080164FC 2200     mov     r2,0h
080164FE 2001     mov     r0,1h
08016500 4661     mov     r1,r12
08016502 8288     strh    r0,[r1,14h]
08016504 3125     add     r1,25h
08016506 201E     mov     r0,1Eh
08016508 7008     strb    r0,[r1]
0801650A 3901     sub     r1,1h
0801650C 2067     mov     r0,67h
0801650E 7008     strb    r0,[r1]
08016510 4660     mov     r0,r12
08016512 7702     strb    r2,[r0,1Ch]
08016514 82C3     strh    r3,[r0,16h]
08016516 3034     add     r0,34h
08016518 7801     ldrb    r1,[r0]
0801651A 3814     sub     r0,14h
0801651C 7001     strb    r1,[r0]
0801651E 4662     mov     r2,r12
08016520 322B     add     r2,2Bh
08016522 7811     ldrb    r1,[r2]
08016524 2080     mov     r0,80h
08016526 4008     and     r0,r1
08016528 7010     strb    r0,[r2]
0801652A 4A09     ldr     r2,=30001ACh
0801652C 4660     mov     r0,r12
0801652E 3023     add     r0,23h
08016530 7801     ldrb    r1,[r0]
08016532 00C8     lsl     r0,r1,3h
08016534 1A40     sub     r0,r0,r1
08016536 00C0     lsl     r0,r0,3h
08016538 1880     add     r0,r0,r2
0801653A 7F40     ldrb    r0,[r0,1Dh]
0801653C F7FFFF34 bl      80163A8h
08016540 4804     ldr     r0,=11Dh
08016542 F7ECFA69 bl      8002A18h
08016546 BC01     pop     r0
08016548 4700     bx      r0
0801654A 0000     lsl     r0,r0,0h
0801654C 0738     lsl     r0,r7,1Ch
0801654E 0300     lsl     r0,r0,0Ch
08016550 01AC     lsl     r4,r5,6h
08016552 0300     lsl     r0,r0,0Ch
08016554 011D     lsl     r5,r3,4h
08016556 0000     lsl     r0,r0,0h
08016558 B500     push    lr
0801655A F7F9FB35 bl      800FBC8h
0801655E 2800     cmp     r0,0h
08016560 D011     beq     8016586h
08016562 490A     ldr     r1,=3000738h
08016564 1C0B     mov     r3,r1
08016566 3324     add     r3,24h
08016568 2200     mov     r2,0h
0801656A 2009     mov     r0,9h
0801656C 7018     strb    r0,[r3]
0801656E 770A     strb    r2,[r1,1Ch]
08016570 82CA     strh    r2,[r1,16h]
08016572 4A07     ldr     r2,=30001ACh
08016574 3123     add     r1,23h
08016576 7809     ldrb    r1,[r1]
08016578 00C8     lsl     r0,r1,3h
0801657A 1A40     sub     r0,r0,r1
0801657C 00C0     lsl     r0,r0,3h
0801657E 1880     add     r0,r0,r2
08016580 7F40     ldrb    r0,[r0,1Dh]
08016582 F7FFFF43 bl      801640Ch
08016586 BC01     pop     r0
08016588 4700     bx      r0
0801658A 0000     lsl     r0,r0,0h
0801658C 0738     lsl     r0,r7,1Ch
0801658E 0300     lsl     r0,r0,0Ch
08016590 01AC     lsl     r4,r5,6h
08016592 0300     lsl     r0,r0,0Ch
08016594 B510     push    r4,lr
08016596 4B17     ldr     r3,=3000738h
08016598 8819     ldrh    r1,[r3]
0801659A 2080     mov     r0,80h
0801659C 0100     lsl     r0,r0,4h
0801659E 4008     and     r0,r1
080165A0 2800     cmp     r0,0h
080165A2 D023     beq     80165ECh
080165A4 4914     ldr     r1,=3001606h
080165A6 22FA     mov     r2,0FAh
080165A8 0092     lsl     r2,r2,2h
080165AA 1C10     mov     r0,r2
080165AC 8008     strh    r0,[r1]
080165AE 1C1C     mov     r4,r3
080165B0 3432     add     r4,32h
080165B2 7821     ldrb    r1,[r4]
080165B4 2001     mov     r0,1h
080165B6 2200     mov     r2,0h
080165B8 4308     orr     r0,r1
080165BA 7020     strb    r0,[r4]
080165BC 1C19     mov     r1,r3
080165BE 3126     add     r1,26h
080165C0 2001     mov     r0,1h
080165C2 7008     strb    r0,[r1]
080165C4 3902     sub     r1,2h
080165C6 2023     mov     r0,23h
080165C8 7008     strb    r0,[r1]
080165CA 1C18     mov     r0,r3
080165CC 302C     add     r0,2Ch
080165CE 7002     strb    r2,[r0]
080165D0 4A0A     ldr     r2,=30001ACh
080165D2 3809     sub     r0,9h
080165D4 7801     ldrb    r1,[r0]
080165D6 00C8     lsl     r0,r1,3h
080165D8 1A40     sub     r0,r0,r1
080165DA 00C0     lsl     r0,r0,3h
080165DC 1880     add     r0,r0,r2
080165DE 7F44     ldrb    r4,[r0,1Dh]
080165E0 1C20     mov     r0,r4
080165E2 F7FDF979 bl      80138D8h
080165E6 1C20     mov     r0,r4
080165E8 F7FFFE62 bl      80162B0h
080165EC BC10     pop     r4
080165EE BC01     pop     r0
080165F0 4700     bx      r0
080165F2 0000     lsl     r0,r0,0h
080165F4 0738     lsl     r0,r7,1Ch
080165F6 0300     lsl     r0,r0,0Ch
080165F8 1606     asr     r6,r0,18h
080165FA 0300     lsl     r0,r0,0Ch
080165FC 01AC     lsl     r4,r5,6h
080165FE 0300     lsl     r0,r0,0Ch
08016600 B500     push    lr
08016602 4A0B     ldr     r2,=3000738h
08016604 1C11     mov     r1,r2
08016606 3126     add     r1,26h
08016608 2001     mov     r0,1h
0801660A 7008     strb    r0,[r1]
0801660C 3106     add     r1,6h
0801660E 7809     ldrb    r1,[r1]
08016610 4008     and     r0,r1
08016612 2800     cmp     r0,0h
08016614 D103     bne     801661Eh
08016616 8810     ldrh    r0,[r2]
08016618 2104     mov     r1,4h
0801661A 4048     eor     r0,r1
0801661C 8010     strh    r0,[r2]
0801661E 4805     ldr     r0,=3001606h
08016620 8801     ldrh    r1,[r0]
08016622 4805     ldr     r0,=3E6h
08016624 4281     cmp     r1,r0
08016626 D801     bhi     801662Ch
08016628 2000     mov     r0,0h
0801662A 8010     strh    r0,[r2]
0801662C BC01     pop     r0
0801662E 4700     bx      r0
08016630 0738     lsl     r0,r7,1Ch
08016632 0300     lsl     r0,r0,0Ch
08016634 1606     asr     r6,r0,18h
08016636 0300     lsl     r0,r0,0Ch
08016638 03E6     lsl     r6,r4,0Fh
0801663A 0000     lsl     r0,r0,0h
0801663C B500     push    lr
0801663E 4807     ldr     r0,=3000738h
08016640 3024     add     r0,24h
08016642 7800     ldrb    r0,[r0]
08016644 2823     cmp     r0,23h
08016646 D01D     beq     8016684h
08016648 2823     cmp     r0,23h
0801664A DC0C     bgt     8016666h
0801664C 2808     cmp     r0,8h
0801664E D010     beq     8016672h
08016650 2808     cmp     r0,8h
08016652 DC05     bgt     8016660h
08016654 2800     cmp     r0,0h
08016656 D009     beq     801666Ch
08016658 E017     b       801668Ah
0801665A 0000     lsl     r0,r0,0h
0801665C 0738     lsl     r0,r7,1Ch
0801665E 0300     lsl     r0,r0,0Ch
08016660 2809     cmp     r0,9h
08016662 D00C     beq     801667Eh
08016664 E011     b       801668Ah
08016666 2867     cmp     r0,67h
08016668 D006     beq     8016678h
0801666A E00E     b       801668Ah
0801666C F7FFFF00 bl      8016470h
08016670 E00D     b       801668Eh
08016672 F7FFFF37 bl      80164E4h
08016676 E00A     b       801668Eh
08016678 F7FFFF6E bl      8016558h
0801667C E007     b       801668Eh
0801667E F7FFFF89 bl      8016594h
08016682 E004     b       801668Eh
08016684 F7FFFFBC bl      8016600h
08016688 E001     b       801668Eh
0801668A F7FFFF2D bl      80164E8h
0801668E BC01     pop     r0
08016690 4700     bx      r0
08016692 0000     lsl     r0,r0,0h
08016694 B530     push    r4,r5,lr
08016696 2500     mov     r5,0h
08016698 4C0A     ldr     r4,=3000738h
0801669A 8821     ldrh    r1,[r4]
0801669C 2080     mov     r0,80h
0801669E 00C0     lsl     r0,r0,3h
080166A0 4008     and     r0,r1
080166A2 2800     cmp     r0,0h
080166A4 D01D     beq     80166E2h
080166A6 2040     mov     r0,40h
080166A8 4008     and     r0,r1
080166AA 2800     cmp     r0,0h
080166AC D00C     beq     80166C8h
080166AE 8860     ldrh    r0,[r4,2h]
080166B0 3820     sub     r0,20h
080166B2 88A1     ldrh    r1,[r4,4h]
080166B4 F7F9F834 bl      800F720h
080166B8 2800     cmp     r0,0h
080166BA D131     bne     8016720h
080166BC 8860     ldrh    r0,[r4,2h]
080166BE 3020     add     r0,20h
080166C0 88A1     ldrh    r1,[r4,4h]
080166C2 E028     b       8016716h
080166C4 0738     lsl     r0,r7,1Ch
080166C6 0300     lsl     r0,r0,0Ch
080166C8 8860     ldrh    r0,[r4,2h]
080166CA 3820     sub     r0,20h
080166CC 88A1     ldrh    r1,[r4,4h]
080166CE 3904     sub     r1,4h
080166D0 F7F9F826 bl      800F720h
080166D4 2800     cmp     r0,0h
080166D6 D123     bne     8016720h
080166D8 8860     ldrh    r0,[r4,2h]
080166DA 3020     add     r0,20h
080166DC 88A1     ldrh    r1,[r4,4h]
080166DE 3904     sub     r1,4h
080166E0 E019     b       8016716h
080166E2 2080     mov     r0,80h
080166E4 0040     lsl     r0,r0,1h
080166E6 4008     and     r0,r1
080166E8 2800     cmp     r0,0h
080166EA D00A     beq     8016702h
080166EC 8860     ldrh    r0,[r4,2h]
080166EE 3804     sub     r0,4h
080166F0 88A1     ldrh    r1,[r4,4h]
080166F2 3920     sub     r1,20h
080166F4 F7F9F814 bl      800F720h
080166F8 2800     cmp     r0,0h
080166FA D111     bne     8016720h
080166FC 8860     ldrh    r0,[r4,2h]
080166FE 3804     sub     r0,4h
08016700 E007     b       8016712h
08016702 8860     ldrh    r0,[r4,2h]
08016704 88A1     ldrh    r1,[r4,4h]
08016706 3920     sub     r1,20h
08016708 F7F9F80A bl      800F720h
0801670C 2800     cmp     r0,0h
0801670E D107     bne     8016720h
08016710 8860     ldrh    r0,[r4,2h]
08016712 88A1     ldrh    r1,[r4,4h]
08016714 3120     add     r1,20h
08016716 F7F9F803 bl      800F720h
0801671A 2800     cmp     r0,0h
0801671C D100     bne     8016720h
0801671E 2501     mov     r5,1h
08016720 1C28     mov     r0,r5
08016722 BC30     pop     r4,r5
08016724 BC02     pop     r1
08016726 4708     bx      r1
08016728 B500     push    lr
0801672A 4A09     ldr     r2,=3000738h
0801672C 8811     ldrh    r1,[r2]
0801672E 2080     mov     r0,80h
08016730 00C0     lsl     r0,r0,3h
08016732 4008     and     r0,r1
08016734 2800     cmp     r0,0h
08016736 D01D     beq     8016774h
08016738 2040     mov     r0,40h
0801673A 4008     and     r0,r1
0801673C 2800     cmp     r0,0h
0801673E D00D     beq     801675Ch
08016740 4804     ldr     r0,=0FFE4h
08016742 8150     strh    r0,[r2,0Ah]
08016744 201C     mov     r0,1Ch
08016746 8190     strh    r0,[r2,0Ch]
08016748 4803     ldr     r0,=0FFCCh
0801674A 81D0     strh    r0,[r2,0Eh]
0801674C 2004     mov     r0,4h
0801674E E024     b       801679Ah
08016750 0738     lsl     r0,r7,1Ch
08016752 0300     lsl     r0,r0,0Ch
08016754 FFE40000 ????
08016756 0000     lsl     r0,r0,0h
08016758 FFCC0000 ????
0801675A 0000     lsl     r0,r0,0h
0801675C 4803     ldr     r0,=0FFE4h
0801675E 8150     strh    r0,[r2,0Ah]
08016760 201C     mov     r0,1Ch
08016762 8190     strh    r0,[r2,0Ch]
08016764 4802     ldr     r0,=0FFFCh
08016766 81D0     strh    r0,[r2,0Eh]
08016768 2034     mov     r0,34h
0801676A E016     b       801679Ah
0801676C FFE40000 ????
0801676E 0000     lsl     r0,r0,0h
08016770 FFFC0000 ????
08016772 0000     lsl     r0,r0,0h
08016774 2080     mov     r0,80h
08016776 0040     lsl     r0,r0,1h
08016778 4008     and     r0,r1
0801677A 2800     cmp     r0,0h
0801677C D006     beq     801678Ch
0801677E 4802     ldr     r0,=0FFFCh
08016780 8150     strh    r0,[r2,0Ah]
08016782 2034     mov     r0,34h
08016784 E005     b       8016792h
08016786 0000     lsl     r0,r0,0h
08016788 FFFC0000 ????
0801678A 0000     lsl     r0,r0,0h
0801678C 4804     ldr     r0,=0FFCCh
0801678E 8150     strh    r0,[r2,0Ah]
08016790 2004     mov     r0,4h
08016792 8190     strh    r0,[r2,0Ch]
08016794 4803     ldr     r0,=0FFE4h
08016796 81D0     strh    r0,[r2,0Eh]
08016798 201C     mov     r0,1Ch
0801679A 8210     strh    r0,[r2,10h]
0801679C BC01     pop     r0
0801679E 4700     bx      r0
080167A0 FFCC0000 ????
080167A2 0000     lsl     r0,r0,0h
080167A4 FFE40000 ????
080167A6 0000     lsl     r0,r0,0h
080167A8 B500     push    lr
080167AA 4A04     ldr     r2,=3000738h
080167AC 8811     ldrh    r1,[r2]
080167AE 2080     mov     r0,80h
080167B0 00C0     lsl     r0,r0,3h
080167B2 4008     and     r0,r1
080167B4 2800     cmp     r0,0h
080167B6 D005     beq     80167C4h
080167B8 4801     ldr     r0,=82C4AD0h
080167BA E004     b       80167C6h
080167BC 0738     lsl     r0,r7,1Ch
080167BE 0300     lsl     r0,r0,0Ch
080167C0 4AD0     ldr     r2,=29004001h
080167C2 082C     lsr     r4,r5,20h
080167C4 4803     ldr     r0,=82C4A68h
080167C6 6190     str     r0,[r2,18h]
080167C8 2000     mov     r0,0h
080167CA 7710     strb    r0,[r2,1Ch]
080167CC 82D0     strh    r0,[r2,16h]
080167CE BC01     pop     r0
080167D0 4700     bx      r0
080167D2 0000     lsl     r0,r0,0h
080167D4 4A68     ldr     r2,=400800C0h
080167D6 082C     lsr     r4,r5,20h
080167D8 B500     push    lr
080167DA 4A04     ldr     r2,=3000738h
080167DC 8811     ldrh    r1,[r2]
080167DE 2080     mov     r0,80h
080167E0 00C0     lsl     r0,r0,3h
080167E2 4008     and     r0,r1
080167E4 2800     cmp     r0,0h
080167E6 D005     beq     80167F4h
080167E8 4801     ldr     r0,=82C4AD0h
080167EA E004     b       80167F6h
080167EC 0738     lsl     r0,r7,1Ch
080167EE 0300     lsl     r0,r0,0Ch
080167F0 4AD0     ldr     r2,=38048860h
080167F2 082C     lsr     r4,r5,20h
080167F4 4803     ldr     r0,=82C4A40h
080167F6 6190     str     r0,[r2,18h]
080167F8 2000     mov     r0,0h
080167FA 7710     strb    r0,[r2,1Ch]
080167FC 82D0     strh    r0,[r2,16h]
080167FE BC01     pop     r0
08016800 4700     bx      r0
08016802 0000     lsl     r0,r0,0h
08016804 4A40     ldr     r2,=70013814h
08016806 082C     lsr     r4,r5,20h
08016808 B530     push    r4,r5,lr
0801680A F7F9F81B bl      800F844h
0801680E 4C09     ldr     r4,=3000738h
08016810 1C21     mov     r1,r4
08016812 3124     add     r1,24h
08016814 2009     mov     r0,9h
08016816 7008     strb    r0,[r1]
08016818 8860     ldrh    r0,[r4,2h]
0801681A 88A1     ldrh    r1,[r4,4h]
0801681C F7F8FF80 bl      800F720h
08016820 25F0     mov     r5,0F0h
08016822 4028     and     r0,r5
08016824 2800     cmp     r0,0h
08016826 D009     beq     801683Ch
08016828 8821     ldrh    r1,[r4]
0801682A 4803     ldr     r0,=0FBFFh
0801682C 4008     and     r0,r1
0801682E 8020     strh    r0,[r4]
08016830 E04A     b       80168C8h
08016832 0000     lsl     r0,r0,0h
08016834 0738     lsl     r0,r7,1Ch
08016836 0300     lsl     r0,r0,0Ch
08016838 FBFF0000 ????
0801683A 0000     lsl     r0,r0,0h
0801683C 8860     ldrh    r0,[r4,2h]
0801683E 3844     sub     r0,44h
08016840 88A1     ldrh    r1,[r4,4h]
08016842 F7F8FF6D bl      800F720h
08016846 4028     and     r0,r5
08016848 2800     cmp     r0,0h
0801684A D00D     beq     8016868h
0801684C 8821     ldrh    r1,[r4]
0801684E 4805     ldr     r0,=0FBFFh
08016850 4008     and     r0,r1
08016852 2280     mov     r2,80h
08016854 0052     lsl     r2,r2,1h
08016856 1C11     mov     r1,r2
08016858 4308     orr     r0,r1
0801685A 8020     strh    r0,[r4]
0801685C 8860     ldrh    r0,[r4,2h]
0801685E 3840     sub     r0,40h
08016860 8060     strh    r0,[r4,2h]
08016862 E031     b       80168C8h
08016864 FBFF0000 ????
08016866 0000     lsl     r0,r0,0h
08016868 8860     ldrh    r0,[r4,2h]
0801686A 3820     sub     r0,20h
0801686C 88A1     ldrh    r1,[r4,4h]
0801686E 3924     sub     r1,24h
08016870 F7F8FF56 bl      800F720h
08016874 4028     and     r0,r5
08016876 2800     cmp     r0,0h
08016878 D00C     beq     8016894h
0801687A 8821     ldrh    r1,[r4]
0801687C 2280     mov     r2,80h
0801687E 00D2     lsl     r2,r2,3h
08016880 1C10     mov     r0,r2
08016882 4308     orr     r0,r1
08016884 8020     strh    r0,[r4]
08016886 8860     ldrh    r0,[r4,2h]
08016888 3820     sub     r0,20h
0801688A 8060     strh    r0,[r4,2h]
0801688C 88A0     ldrh    r0,[r4,4h]
0801688E 3820     sub     r0,20h
08016890 80A0     strh    r0,[r4,4h]
08016892 E019     b       80168C8h
08016894 8860     ldrh    r0,[r4,2h]
08016896 3820     sub     r0,20h
08016898 88A1     ldrh    r1,[r4,4h]
0801689A 3120     add     r1,20h
0801689C F7F8FF40 bl      800F720h
080168A0 4028     and     r0,r5
080168A2 2800     cmp     r0,0h
080168A4 D00E     beq     80168C4h
080168A6 8821     ldrh    r1,[r4]
080168A8 2280     mov     r2,80h
080168AA 00D2     lsl     r2,r2,3h
080168AC 1C10     mov     r0,r2
080168AE 4308     orr     r0,r1
080168B0 2140     mov     r1,40h
080168B2 4308     orr     r0,r1
080168B4 8020     strh    r0,[r4]
080168B6 8860     ldrh    r0,[r4,2h]
080168B8 3820     sub     r0,20h
080168BA 8060     strh    r0,[r4,2h]
080168BC 88A0     ldrh    r0,[r4,4h]
080168BE 3020     add     r0,20h
080168C0 80A0     strh    r0,[r4,4h]
080168C2 E001     b       80168C8h
080168C4 8020     strh    r0,[r4]
080168C6 E021     b       801690Ch
080168C8 4C12     ldr     r4,=3000738h
080168CA 1C21     mov     r1,r4
080168CC 3125     add     r1,25h
080168CE 2004     mov     r0,4h
080168D0 7008     strb    r0,[r1]
080168D2 F7FFFF69 bl      80167A8h
080168D6 F7FFFF27 bl      8016728h
080168DA 4A0F     ldr     r2,=82B0D68h
080168DC 7F61     ldrb    r1,[r4,1Dh]
080168DE 00C8     lsl     r0,r1,3h
080168E0 1840     add     r0,r0,r1
080168E2 0040     lsl     r0,r0,1h
080168E4 1880     add     r0,r0,r2
080168E6 8800     ldrh    r0,[r0]
080168E8 82A0     strh    r0,[r4,14h]
080168EA 1C20     mov     r0,r4
080168EC 3027     add     r0,27h
080168EE 2110     mov     r1,10h
080168F0 7001     strb    r1,[r0]
080168F2 3001     add     r0,1h
080168F4 7001     strb    r1,[r0]
080168F6 3001     add     r0,1h
080168F8 7001     strb    r1,[r0]
080168FA 7F60     ldrb    r0,[r4,1Dh]
080168FC 2813     cmp     r0,13h
080168FE D105     bne     801690Ch
08016900 1C20     mov     r0,r4
08016902 3034     add     r0,34h
08016904 2101     mov     r1,1h
08016906 7001     strb    r1,[r0]
08016908 3814     sub     r0,14h
0801690A 7001     strb    r1,[r0]
0801690C BC30     pop     r4,r5
0801690E BC01     pop     r0
08016910 4700     bx      r0
08016912 0000     lsl     r0,r0,0h
08016914 0738     lsl     r0,r7,1Ch
08016916 0300     lsl     r0,r0,0Ch
08016918 0D68     lsr     r0,r5,15h
0801691A 082B     lsr     r3,r5,20h
0801691C B500     push    lr
0801691E F7FFFF43 bl      80167A8h
08016922 4803     ldr     r0,=3000738h
08016924 3024     add     r0,24h
08016926 2109     mov     r1,9h
08016928 7001     strb    r1,[r0]
0801692A BC01     pop     r0
0801692C 4700     bx      r0
0801692E 0000     lsl     r0,r0,0h
08016930 0738     lsl     r0,r7,1Ch
08016932 0300     lsl     r0,r0,0Ch
08016934 B5F0     push    r4-r7,lr
08016936 4C0E     ldr     r4,=3000738h
08016938 7F60     ldrb    r0,[r4,1Dh]
0801693A 2702     mov     r7,2h
0801693C 2813     cmp     r0,13h
0801693E D100     bne     8016942h
08016940 2703     mov     r7,3h
08016942 2600     mov     r6,0h
08016944 F7FFFEA6 bl      8016694h
08016948 0600     lsl     r0,r0,18h
0801694A 2800     cmp     r0,0h
0801694C D10A     bne     8016964h
0801694E F7FAFCBB bl      80112C8h
08016952 2800     cmp     r0,0h
08016954 D00E     beq     8016974h
08016956 8821     ldrh    r1,[r4]
08016958 20A0     mov     r0,0A0h
0801695A 00C0     lsl     r0,r0,3h
0801695C 4008     and     r0,r1
0801695E 2800     cmp     r0,0h
08016960 D100     bne     8016964h
08016962 E1D2     b       8016D0Ah
08016964 1C21     mov     r1,r4
08016966 3124     add     r1,24h
08016968 201E     mov     r0,1Eh
0801696A 7008     strb    r0,[r1]
0801696C E1CD     b       8016D0Ah
0801696E 0000     lsl     r0,r0,0h
08016970 0738     lsl     r0,r7,1Ch
08016972 0300     lsl     r0,r0,0Ch
08016974 8821     ldrh    r1,[r4]
08016976 2080     mov     r0,80h
08016978 00C0     lsl     r0,r0,3h
0801697A 4008     and     r0,r1
0801697C 2800     cmp     r0,0h
0801697E D100     bne     8016982h
08016980 E0AD     b       8016ADEh
08016982 2040     mov     r0,40h
08016984 4008     and     r0,r1
08016986 2800     cmp     r0,0h
08016988 D050     beq     8016A2Ch
0801698A 2580     mov     r5,80h
0801698C 00AD     lsl     r5,r5,2h
0801698E 1C28     mov     r0,r5
08016990 4008     and     r0,r1
08016992 2800     cmp     r0,0h
08016994 D01E     beq     80169D4h
08016996 8860     ldrh    r0,[r4,2h]
08016998 88A1     ldrh    r1,[r4,4h]
0801699A F7F8FEC1 bl      800F720h
0801699E 0600     lsl     r0,r0,18h
080169A0 21F0     mov     r1,0F0h
080169A2 0609     lsl     r1,r1,18h
080169A4 4001     and     r1,r0
080169A6 2900     cmp     r1,0h
080169A8 D103     bne     80169B2h
080169AA 8821     ldrh    r1,[r4]
080169AC 1C28     mov     r0,r5
080169AE 4308     orr     r0,r1
080169B0 E032     b       8016A18h
080169B2 8860     ldrh    r0,[r4,2h]
080169B4 3020     add     r0,20h
080169B6 88A1     ldrh    r1,[r4,4h]
080169B8 3904     sub     r1,4h
080169BA F7F8FEB1 bl      800F720h
080169BE 0600     lsl     r0,r0,18h
080169C0 0E00     lsr     r0,r0,18h
080169C2 2811     cmp     r0,11h
080169C4 D157     bne     8016A76h
080169C6 8821     ldrh    r1,[r4]
080169C8 4801     ldr     r0,=0FDFFh
080169CA 4008     and     r0,r1
080169CC E010     b       80169F0h
080169CE 0000     lsl     r0,r0,0h
080169D0 FDFF0000 ????
080169D2 0000     lsl     r0,r0,0h
080169D4 8860     ldrh    r0,[r4,2h]
080169D6 3804     sub     r0,4h
080169D8 88A1     ldrh    r1,[r4,4h]
080169DA F7F8FEA1 bl      800F720h
080169DE 0600     lsl     r0,r0,18h
080169E0 21F0     mov     r1,0F0h
080169E2 0609     lsl     r1,r1,18h
080169E4 4001     and     r1,r0
080169E6 2900     cmp     r1,0h
080169E8 D109     bne     80169FEh
080169EA 8821     ldrh    r1,[r4]
080169EC 1C28     mov     r0,r5
080169EE 4308     orr     r0,r1
080169F0 8020     strh    r0,[r4]
080169F2 2601     mov     r6,1h
080169F4 1C21     mov     r1,r4
080169F6 312D     add     r1,2Dh
080169F8 2005     mov     r0,5h
080169FA 7008     strb    r0,[r1]
080169FC E17F     b       8016CFEh
080169FE 8860     ldrh    r0,[r4,2h]
08016A00 3820     sub     r0,20h
08016A02 88A1     ldrh    r1,[r4,4h]
08016A04 3904     sub     r1,4h
08016A06 F7F8FE8B bl      800F720h
08016A0A 0600     lsl     r0,r0,18h
08016A0C 0E00     lsr     r0,r0,18h
08016A0E 2811     cmp     r0,11h
08016A10 D161     bne     8016AD6h
08016A12 8821     ldrh    r1,[r4]
08016A14 4804     ldr     r0,=0FDFFh
08016A16 4008     and     r0,r1
08016A18 8020     strh    r0,[r4]
08016A1A 2601     mov     r6,1h
08016A1C 1C21     mov     r1,r4
08016A1E 312D     add     r1,2Dh
08016A20 2007     mov     r0,7h
08016A22 7008     strb    r0,[r1]
08016A24 E16B     b       8016CFEh
08016A26 0000     lsl     r0,r0,0h
08016A28 FDFF0000 ????
08016A2A 0000     lsl     r0,r0,0h
08016A2C 2580     mov     r5,80h
08016A2E 00AD     lsl     r5,r5,2h
08016A30 1C28     mov     r0,r5
08016A32 4008     and     r0,r1
08016A34 2800     cmp     r0,0h
08016A36 D022     beq     8016A7Eh
08016A38 8860     ldrh    r0,[r4,2h]
08016A3A 88A1     ldrh    r1,[r4,4h]
08016A3C 3904     sub     r1,4h
08016A3E F7F8FE6F bl      800F720h
08016A42 0600     lsl     r0,r0,18h
08016A44 21F0     mov     r1,0F0h
08016A46 0609     lsl     r1,r1,18h
08016A48 4001     and     r1,r0
08016A4A 2900     cmp     r1,0h
08016A4C D106     bne     8016A5Ch
08016A4E 8821     ldrh    r1,[r4]
08016A50 4801     ldr     r0,=0FDFFh
08016A52 4008     and     r0,r1
08016A54 E038     b       8016AC8h
08016A56 0000     lsl     r0,r0,0h
08016A58 FDFF0000 ????
08016A5A 0000     lsl     r0,r0,0h
08016A5C 8860     ldrh    r0,[r4,2h]
08016A5E 3020     add     r0,20h
08016A60 88A1     ldrh    r1,[r4,4h]
08016A62 F7F8FE5D bl      800F720h
08016A66 0600     lsl     r0,r0,18h
08016A68 0E00     lsr     r0,r0,18h
08016A6A 2811     cmp     r0,11h
08016A6C D103     bne     8016A76h
08016A6E 8821     ldrh    r1,[r4]
08016A70 1C28     mov     r0,r5
08016A72 4308     orr     r0,r1
08016A74 E012     b       8016A9Ch
08016A76 8860     ldrh    r0,[r4,2h]
08016A78 1838     add     r0,r7,r0
08016A7A 8060     strh    r0,[r4,2h]
08016A7C E13F     b       8016CFEh
08016A7E 8860     ldrh    r0,[r4,2h]
08016A80 3804     sub     r0,4h
08016A82 88A1     ldrh    r1,[r4,4h]
08016A84 3904     sub     r1,4h
08016A86 F7F8FE4B bl      800F720h
08016A8A 0600     lsl     r0,r0,18h
08016A8C 21F0     mov     r1,0F0h
08016A8E 0609     lsl     r1,r1,18h
08016A90 4001     and     r1,r0
08016A92 2900     cmp     r1,0h
08016A94 D10C     bne     8016AB0h
08016A96 8821     ldrh    r1,[r4]
08016A98 4804     ldr     r0,=0FDFFh
08016A9A 4008     and     r0,r1
08016A9C 8020     strh    r0,[r4]
08016A9E 2601     mov     r6,1h
08016AA0 1C21     mov     r1,r4
08016AA2 312D     add     r1,2Dh
08016AA4 2004     mov     r0,4h
08016AA6 7008     strb    r0,[r1]
08016AA8 E129     b       8016CFEh
08016AAA 0000     lsl     r0,r0,0h
08016AAC FDFF0000 ????
08016AAE 0000     lsl     r0,r0,0h
08016AB0 8860     ldrh    r0,[r4,2h]
08016AB2 3820     sub     r0,20h
08016AB4 88A1     ldrh    r1,[r4,4h]
08016AB6 F7F8FE33 bl      800F720h
08016ABA 0600     lsl     r0,r0,18h
08016ABC 0E00     lsr     r0,r0,18h
08016ABE 2811     cmp     r0,11h
08016AC0 D109     bne     8016AD6h
08016AC2 8821     ldrh    r1,[r4]
08016AC4 1C28     mov     r0,r5
08016AC6 4308     orr     r0,r1
08016AC8 8020     strh    r0,[r4]
08016ACA 2601     mov     r6,1h
08016ACC 1C21     mov     r1,r4
08016ACE 312D     add     r1,2Dh
08016AD0 2006     mov     r0,6h
08016AD2 7008     strb    r0,[r1]
08016AD4 E113     b       8016CFEh
08016AD6 8860     ldrh    r0,[r4,2h]
08016AD8 1BC0     sub     r0,r0,r7
08016ADA 8060     strh    r0,[r4,2h]
08016ADC E10F     b       8016CFEh
08016ADE 2080     mov     r0,80h
08016AE0 0040     lsl     r0,r0,1h
08016AE2 4008     and     r0,r1
08016AE4 2800     cmp     r0,0h
08016AE6 D051     beq     8016B8Ch
08016AE8 2580     mov     r5,80h
08016AEA 00AD     lsl     r5,r5,2h
08016AEC 1C28     mov     r0,r5
08016AEE 4008     and     r0,r1
08016AF0 2800     cmp     r0,0h
08016AF2 D01F     beq     8016B34h
08016AF4 8860     ldrh    r0,[r4,2h]
08016AF6 3804     sub     r0,4h
08016AF8 88A1     ldrh    r1,[r4,4h]
08016AFA F7F8FE11 bl      800F720h
08016AFE 0600     lsl     r0,r0,18h
08016B00 21F0     mov     r1,0F0h
08016B02 0509     lsl     r1,r1,14h
08016B04 4001     and     r1,r0
08016B06 2900     cmp     r1,0h
08016B08 D106     bne     8016B18h
08016B0A 8821     ldrh    r1,[r4]
08016B0C 4801     ldr     r0,=0FDFFh
08016B0E 4008     and     r0,r1
08016B10 E035     b       8016B7Eh
08016B12 0000     lsl     r0,r0,0h
08016B14 FDFF0000 ????
08016B16 0000     lsl     r0,r0,0h
08016B18 8860     ldrh    r0,[r4,2h]
08016B1A 88A1     ldrh    r1,[r4,4h]
08016B1C 3120     add     r1,20h
08016B1E F7F8FDFF bl      800F720h
08016B22 0600     lsl     r0,r0,18h
08016B24 0E00     lsr     r0,r0,18h
08016B26 2811     cmp     r0,11h
08016B28 D000     beq     8016B2Ch
08016B2A E0A6     b       8016C7Ah
08016B2C 8821     ldrh    r1,[r4]
08016B2E 1C28     mov     r0,r5
08016B30 4308     orr     r0,r1
08016B32 E00E     b       8016B52h
08016B34 8860     ldrh    r0,[r4,2h]
08016B36 3804     sub     r0,4h
08016B38 88A1     ldrh    r1,[r4,4h]
08016B3A 3904     sub     r1,4h
08016B3C F7F8FDF0 bl      800F720h
08016B40 0600     lsl     r0,r0,18h
08016B42 21F0     mov     r1,0F0h
08016B44 0509     lsl     r1,r1,14h
08016B46 4001     and     r1,r0
08016B48 2900     cmp     r1,0h
08016B4A D10B     bne     8016B64h
08016B4C 8821     ldrh    r1,[r4]
08016B4E 4804     ldr     r0,=0FDFFh
08016B50 4008     and     r0,r1
08016B52 8020     strh    r0,[r4]
08016B54 2601     mov     r6,1h
08016B56 1C21     mov     r1,r4
08016B58 312D     add     r1,2Dh
08016B5A 2003     mov     r0,3h
08016B5C 7008     strb    r0,[r1]
08016B5E E0CE     b       8016CFEh
08016B60 FDFF0000 ????
08016B62 0000     lsl     r0,r0,0h
08016B64 8860     ldrh    r0,[r4,2h]
08016B66 88A1     ldrh    r1,[r4,4h]
08016B68 3920     sub     r1,20h
08016B6A F7F8FDD9 bl      800F720h
08016B6E 0600     lsl     r0,r0,18h
08016B70 0E00     lsr     r0,r0,18h
08016B72 2811     cmp     r0,11h
08016B74 D000     beq     8016B78h
08016B76 E0A2     b       8016CBEh
08016B78 8821     ldrh    r1,[r4]
08016B7A 1C28     mov     r0,r5
08016B7C 4308     orr     r0,r1
08016B7E 8020     strh    r0,[r4]
08016B80 2601     mov     r6,1h
08016B82 1C21     mov     r1,r4
08016B84 312D     add     r1,2Dh
08016B86 2002     mov     r0,2h
08016B88 7008     strb    r0,[r1]
08016B8A E0B8     b       8016CFEh
08016B8C F7F8FD02 bl      800F594h
08016B90 4813     ldr     r0,=30007F0h
08016B92 7801     ldrb    r1,[r0]
08016B94 1C0A     mov     r2,r1
08016B96 2A00     cmp     r2,0h
08016B98 D003     beq     8016BA2h
08016B9A 20F0     mov     r0,0F0h
08016B9C 4008     and     r0,r1
08016B9E 2800     cmp     r0,0h
08016BA0 D05A     beq     8016C58h
08016BA2 69A0     ldr     r0,[r4,18h]
08016BA4 490F     ldr     r1,=82C4A68h
08016BA6 4288     cmp     r0,r1
08016BA8 D002     beq     8016BB0h
08016BAA 61A1     str     r1,[r4,18h]
08016BAC 7726     strb    r6,[r4,1Ch]
08016BAE 82E6     strh    r6,[r4,16h]
08016BB0 8821     ldrh    r1,[r4]
08016BB2 2580     mov     r5,80h
08016BB4 00AD     lsl     r5,r5,2h
08016BB6 1C28     mov     r0,r5
08016BB8 4008     and     r0,r1
08016BBA 2800     cmp     r0,0h
08016BBC D024     beq     8016C08h
08016BBE 8860     ldrh    r0,[r4,2h]
08016BC0 88A1     ldrh    r1,[r4,4h]
08016BC2 F7F8FDAD bl      800F720h
08016BC6 0600     lsl     r0,r0,18h
08016BC8 2800     cmp     r0,0h
08016BCA D10D     bne     8016BE8h
08016BCC 8821     ldrh    r1,[r4]
08016BCE 2200     mov     r2,0h
08016BD0 1C28     mov     r0,r5
08016BD2 4308     orr     r0,r1
08016BD4 8020     strh    r0,[r4]
08016BD6 2601     mov     r6,1h
08016BD8 1C20     mov     r0,r4
08016BDA 302D     add     r0,2Dh
08016BDC 7002     strb    r2,[r0]
08016BDE E08E     b       8016CFEh
08016BE0 07F0     lsl     r0,r6,1Fh
08016BE2 0300     lsl     r0,r0,0Ch
08016BE4 4A68     ldr     r2,=49028810h
08016BE6 082C     lsr     r4,r5,20h
08016BE8 8860     ldrh    r0,[r4,2h]
08016BEA 3804     sub     r0,4h
08016BEC 88A1     ldrh    r1,[r4,4h]
08016BEE 3120     add     r1,20h
08016BF0 F7F8FD96 bl      800F720h
08016BF4 0600     lsl     r0,r0,18h
08016BF6 0E00     lsr     r0,r0,18h
08016BF8 2811     cmp     r0,11h
08016BFA D13E     bne     8016C7Ah
08016BFC 8820     ldrh    r0,[r4]
08016BFE 4901     ldr     r1,=0FDFFh
08016C00 4001     and     r1,r0
08016C02 E00C     b       8016C1Eh
08016C04 FDFF0000 ????
08016C06 0000     lsl     r0,r0,0h
08016C08 8860     ldrh    r0,[r4,2h]
08016C0A 88A1     ldrh    r1,[r4,4h]
08016C0C 3904     sub     r1,4h
08016C0E F7F8FD87 bl      800F720h
08016C12 0600     lsl     r0,r0,18h
08016C14 2800     cmp     r0,0h
08016C16 D108     bne     8016C2Ah
08016C18 8820     ldrh    r0,[r4]
08016C1A 1C29     mov     r1,r5
08016C1C 4301     orr     r1,r0
08016C1E 8021     strh    r1,[r4]
08016C20 2601     mov     r6,1h
08016C22 1C20     mov     r0,r4
08016C24 302D     add     r0,2Dh
08016C26 7006     strb    r6,[r0]
08016C28 E069     b       8016CFEh
08016C2A 8860     ldrh    r0,[r4,2h]
08016C2C 3804     sub     r0,4h
08016C2E 88A1     ldrh    r1,[r4,4h]
08016C30 3920     sub     r1,20h
08016C32 F7F8FD75 bl      800F720h
08016C36 0600     lsl     r0,r0,18h
08016C38 0E00     lsr     r0,r0,18h
08016C3A 2811     cmp     r0,11h
08016C3C D13F     bne     8016CBEh
08016C3E 8821     ldrh    r1,[r4]
08016C40 4804     ldr     r0,=0FDFFh
08016C42 4008     and     r0,r1
08016C44 2100     mov     r1,0h
08016C46 8020     strh    r0,[r4]
08016C48 2601     mov     r6,1h
08016C4A 1C20     mov     r0,r4
08016C4C 302D     add     r0,2Dh
08016C4E 7001     strb    r1,[r0]
08016C50 E055     b       8016CFEh
08016C52 0000     lsl     r0,r0,0h
08016C54 FDFF0000 ????
08016C56 0000     lsl     r0,r0,0h
08016C58 8821     ldrh    r1,[r4]
08016C5A 2080     mov     r0,80h
08016C5C 0080     lsl     r0,r0,2h
08016C5E 4008     and     r0,r1
08016C60 2800     cmp     r0,0h
08016C62 D021     beq     8016CA8h
08016C64 2A02     cmp     r2,2h
08016C66 D001     beq     8016C6Ch
08016C68 2A04     cmp     r2,4h
08016C6A D10D     bne     8016C88h
08016C6C 69A0     ldr     r0,[r4,18h]
08016C6E 4905     ldr     r1,=82C4B38h
08016C70 4288     cmp     r0,r1
08016C72 D002     beq     8016C7Ah
08016C74 61A1     str     r1,[r4,18h]
08016C76 7726     strb    r6,[r4,1Ch]
08016C78 82E6     strh    r6,[r4,16h]
08016C7A 88A0     ldrh    r0,[r4,4h]
08016C7C 1838     add     r0,r7,r0
08016C7E 80A0     strh    r0,[r4,4h]
08016C80 E03D     b       8016CFEh
08016C82 0000     lsl     r0,r0,0h
08016C84 4B38     ldr     r3,=8016E50h
08016C86 082C     lsr     r4,r5,20h
08016C88 69A0     ldr     r0,[r4,18h]
08016C8A 4906     ldr     r1,=82C4B60h
08016C8C 4288     cmp     r0,r1
08016C8E D002     beq     8016C96h
08016C90 61A1     str     r1,[r4,18h]
08016C92 7726     strb    r6,[r4,1Ch]
08016C94 82E6     strh    r6,[r4,16h]
08016C96 0078     lsl     r0,r7,1h
08016C98 2103     mov     r1,3h
08016C9A F073FFCB bl      808AC34h
08016C9E 88A1     ldrh    r1,[r4,4h]
08016CA0 1809     add     r1,r1,r0
08016CA2 E020     b       8016CE6h
08016CA4 4B60     ldr     r3,=0D0032800h
08016CA6 082C     lsr     r4,r5,20h
08016CA8 2A03     cmp     r2,3h
08016CAA D001     beq     8016CB0h
08016CAC 2A05     cmp     r2,5h
08016CAE D10D     bne     8016CCCh
08016CB0 69A0     ldr     r0,[r4,18h]
08016CB2 4905     ldr     r1,=82C4B60h
08016CB4 4288     cmp     r0,r1
08016CB6 D002     beq     8016CBEh
08016CB8 61A1     str     r1,[r4,18h]
08016CBA 7726     strb    r6,[r4,1Ch]
08016CBC 82E6     strh    r6,[r4,16h]
08016CBE 88A0     ldrh    r0,[r4,4h]
08016CC0 1BC0     sub     r0,r0,r7
08016CC2 80A0     strh    r0,[r4,4h]
08016CC4 E01B     b       8016CFEh
08016CC6 0000     lsl     r0,r0,0h
08016CC8 4B60     ldr     r3,=0FEFFh
08016CCA 082C     lsr     r4,r5,20h
08016CCC 69A0     ldr     r0,[r4,18h]
08016CCE 4910     ldr     r1,=82C4B38h
08016CD0 4288     cmp     r0,r1
08016CD2 D002     beq     8016CDAh
08016CD4 61A1     str     r1,[r4,18h]
08016CD6 7726     strb    r6,[r4,1Ch]
08016CD8 82E6     strh    r6,[r4,16h]
08016CDA 0078     lsl     r0,r7,1h
08016CDC 2103     mov     r1,3h
08016CDE F073FFA9 bl      808AC34h
08016CE2 88A1     ldrh    r1,[r4,4h]
08016CE4 1A09     sub     r1,r1,r0
08016CE6 80A1     strh    r1,[r4,4h]
08016CE8 480A     ldr     r0,=3000C77h
08016CEA 7801     ldrb    r1,[r0]
08016CEC 2001     mov     r0,1h
08016CEE 4008     and     r0,r1
08016CF0 2800     cmp     r0,0h
08016CF2 D004     beq     8016CFEh
08016CF4 7F20     ldrb    r0,[r4,1Ch]
08016CF6 2800     cmp     r0,0h
08016CF8 D001     beq     8016CFEh
08016CFA 3801     sub     r0,1h
08016CFC 7720     strb    r0,[r4,1Ch]
08016CFE 2E00     cmp     r6,0h
08016D00 D003     beq     8016D0Ah
08016D02 4805     ldr     r0,=3000738h
08016D04 3024     add     r0,24h
08016D06 210A     mov     r1,0Ah
08016D08 7001     strb    r1,[r0]
08016D0A BCF0     pop     r4-r7
08016D0C BC01     pop     r0
08016D0E 4700     bx      r0
08016D10 4B38     ldr     r3,=82C4A90h
08016D12 082C     lsr     r4,r5,20h
08016D14 0C77     lsr     r7,r6,11h
08016D16 0300     lsl     r0,r0,0Ch
08016D18 0738     lsl     r0,r7,1Ch
08016D1A 0300     lsl     r0,r0,0Ch
08016D1C B510     push    r4,lr
08016D1E 4B0A     ldr     r3,=3000738h
08016D20 1C19     mov     r1,r3
08016D22 3124     add     r1,24h
08016D24 2400     mov     r4,0h
08016D26 200B     mov     r0,0Bh
08016D28 7008     strb    r0,[r1]
08016D2A 771C     strb    r4,[r3,1Ch]
08016D2C 82DC     strh    r4,[r3,16h]
08016D2E 1C18     mov     r0,r3
08016D30 302D     add     r0,2Dh
08016D32 7800     ldrb    r0,[r0]
08016D34 1C1A     mov     r2,r3
08016D36 2807     cmp     r0,7h
08016D38 D900     bls     8016D3Ch
08016D3A E0B5     b       8016EA8h
08016D3C 0080     lsl     r0,r0,2h
08016D3E 4903     ldr     r1,=8016D50h
08016D40 1840     add     r0,r0,r1
08016D42 6800     ldr     r0,[r0]
08016D44 4687     mov     r15,r0
08016D46 0000     lsl     r0,r0,0h
08016D48 0738     lsl     r0,r7,1Ch
08016D4A 0300     lsl     r0,r0,0Ch
08016D4C 6D50     ldr     r0,[r2,54h]
08016D4E 0801     lsr     r1,r0,20h
08016D50 6D70     ldr     r0,[r6,54h]
08016D52 0801     lsr     r1,r0,20h
08016D54 6D98     ldr     r0,[r3,58h]
08016D56 0801     lsr     r1,r0,20h
08016D58 6DB4     ldr     r4,[r6,58h]
08016D5A 0801     lsr     r1,r0,20h
08016D5C 6DDC     ldr     r4,[r3,5Ch]
08016D5E 0801     lsr     r1,r0,20h
08016D60 6DF8     ldr     r0,[r7,5Ch]
08016D62 0801     lsr     r1,r0,20h
08016D64 6E20     ldr     r0,[r4,60h]
08016D66 0801     lsr     r1,r0,20h
08016D68 6E50     ldr     r0,[r2,64h]
08016D6A 0801     lsr     r1,r0,20h
08016D6C 6E78     ldr     r0,[r7,64h]
08016D6E 0801     lsr     r1,r0,20h
08016D70 8811     ldrh    r1,[r2]
08016D72 2080     mov     r0,80h
08016D74 0080     lsl     r0,r0,2h
08016D76 4008     and     r0,r1
08016D78 2800     cmp     r0,0h
08016D7A D003     beq     8016D84h
08016D7C 4800     ldr     r0,=82C4A90h
08016D7E E002     b       8016D86h
08016D80 4A90     ldr     r2,=48038851h
08016D82 082C     lsr     r4,r5,20h
08016D84 4802     ldr     r0,=82C4AF8h
08016D86 6190     str     r0,[r2,18h]
08016D88 8810     ldrh    r0,[r2]
08016D8A 4902     ldr     r1,=0FFBFh
08016D8C 4001     and     r1,r0
08016D8E E056     b       8016E3Eh
08016D90 4AF8     ldr     r2,=88A18860h
08016D92 082C     lsr     r4,r5,20h
08016D94 FFBF0000 ????
08016D96 0000     lsl     r0,r0,0h
08016D98 8811     ldrh    r1,[r2]
08016D9A 2080     mov     r0,80h
08016D9C 0080     lsl     r0,r0,2h
08016D9E 4008     and     r0,r1
08016DA0 2800     cmp     r0,0h
08016DA2 D003     beq     8016DACh
08016DA4 4800     ldr     r0,=82C4A90h
08016DA6 E046     b       8016E36h
08016DA8 4A90     ldr     r2,=88518090h
08016DAA 082C     lsr     r4,r5,20h
08016DAC 4800     ldr     r0,=82C4AF8h
08016DAE E042     b       8016E36h
08016DB0 4AF8     ldr     r2,=0E008h
08016DB2 082C     lsr     r4,r5,20h
08016DB4 8811     ldrh    r1,[r2]
08016DB6 2080     mov     r0,80h
08016DB8 0080     lsl     r0,r0,2h
08016DBA 4008     and     r0,r1
08016DBC 2800     cmp     r0,0h
08016DBE D003     beq     8016DC8h
08016DC0 4800     ldr     r0,=82C4AF8h
08016DC2 E002     b       8016DCAh
08016DC4 4AF8     ldr     r2,=0BC01BC70h
08016DC6 082C     lsr     r4,r5,20h
08016DC8 4802     ldr     r0,=82C4A90h
08016DCA 6190     str     r0,[r2,18h]
08016DCC 8810     ldrh    r0,[r2]
08016DCE 4902     ldr     r1,=0FFBFh
08016DD0 4001     and     r1,r0
08016DD2 E060     b       8016E96h
08016DD4 4A90     ldr     r2,=40080080h
08016DD6 082C     lsr     r4,r5,20h
08016DD8 FFBF0000 ????
08016DDA 0000     lsl     r0,r0,0h
08016DDC 8811     ldrh    r1,[r2]
08016DDE 2080     mov     r0,80h
08016DE0 0080     lsl     r0,r0,2h
08016DE2 4008     and     r0,r1
08016DE4 2800     cmp     r0,0h
08016DE6 D003     beq     8016DF0h
08016DE8 4800     ldr     r0,=82C4AF8h
08016DEA E050     b       8016E8Eh
08016DEC 4AF8     ldr     r2,=0E0033828h
08016DEE 082C     lsr     r4,r5,20h
08016DF0 4800     ldr     r0,=82C4A90h
08016DF2 E04C     b       8016E8Eh
08016DF4 4A90     ldr     r2,=802080h
08016DF6 082C     lsr     r4,r5,20h
08016DF8 8811     ldrh    r1,[r2]
08016DFA 2080     mov     r0,80h
08016DFC 0080     lsl     r0,r0,2h
08016DFE 4008     and     r0,r1
08016E00 2800     cmp     r0,0h
08016E02 D003     beq     8016E0Ch
08016E04 4800     ldr     r0,=82C4B18h
08016E06 E002     b       8016E0Eh
08016E08 4B18     ldr     r3,=0E0124001h
08016E0A 082C     lsr     r4,r5,20h
08016E0C 4802     ldr     r0,=82C4AB0h
08016E0E 6190     str     r0,[r2,18h]
08016E10 8810     ldrh    r0,[r2]
08016E12 4902     ldr     r1,=0FFBFh
08016E14 4001     and     r1,r0
08016E16 E012     b       8016E3Eh
08016E18 4AB0     ldr     r2,=8898D006h
08016E1A 082C     lsr     r4,r5,20h
08016E1C FFBF0000 ????
08016E1E 0000     lsl     r0,r0,0h
08016E20 8811     ldrh    r1,[r2]
08016E22 2080     mov     r0,80h
08016E24 0080     lsl     r0,r0,2h
08016E26 4008     and     r0,r1
08016E28 2800     cmp     r0,0h
08016E2A D003     beq     8016E34h
08016E2C 4800     ldr     r0,=82C4AB0h
08016E2E E002     b       8016E36h
08016E30 4AB0     ldr     r2,=402080h
08016E32 082C     lsr     r4,r5,20h
08016E34 4804     ldr     r0,=82C4B18h
08016E36 6190     str     r0,[r2,18h]
08016E38 8810     ldrh    r0,[r2]
08016E3A 2140     mov     r1,40h
08016E3C 4301     orr     r1,r0
08016E3E 4803     ldr     r0,=0FEFFh
08016E40 4001     and     r1,r0
08016E42 8011     strh    r1,[r2]
08016E44 E031     b       8016EAAh
08016E46 0000     lsl     r0,r0,0h
08016E48 4B18     ldr     r3,=4700BC01h
08016E4A 082C     lsr     r4,r5,20h
08016E4C FEFF0000 ????
08016E4E 0000     lsl     r0,r0,0h
08016E50 8811     ldrh    r1,[r2]
08016E52 2080     mov     r0,80h
08016E54 0080     lsl     r0,r0,2h
08016E56 4008     and     r0,r1
08016E58 2800     cmp     r0,0h
08016E5A D003     beq     8016E64h
08016E5C 4800     ldr     r0,=82C4B18h
08016E5E E002     b       8016E66h
08016E60 4B18     ldr     r3,=1C187008h
08016E62 082C     lsr     r4,r5,20h
08016E64 4802     ldr     r0,=82C4AB0h
08016E66 6190     str     r0,[r2,18h]
08016E68 8810     ldrh    r0,[r2]
08016E6A 4902     ldr     r1,=0FFBFh
08016E6C 4001     and     r1,r0
08016E6E E012     b       8016E96h
08016E70 4AB0     ldr     r2,=468C1809h
08016E72 082C     lsr     r4,r5,20h
08016E74 FFBF0000 ????
08016E76 0000     lsl     r0,r0,0h
08016E78 8811     ldrh    r1,[r2]
08016E7A 2080     mov     r0,80h
08016E7C 0080     lsl     r0,r0,2h
08016E7E 4008     and     r0,r1
08016E80 2800     cmp     r0,0h
08016E82 D003     beq     8016E8Ch
08016E84 4800     ldr     r0,=82C4AB0h
08016E86 E002     b       8016E8Eh
08016E88 4AB0     ldr     r2,=401E50h
08016E8A 082C     lsr     r4,r5,20h
08016E8C 4805     ldr     r0,=82C4B18h
08016E8E 6190     str     r0,[r2,18h]
08016E90 8810     ldrh    r0,[r2]
08016E92 2140     mov     r1,40h
08016E94 4301     orr     r1,r0
08016E96 2380     mov     r3,80h
08016E98 005B     lsl     r3,r3,1h
08016E9A 1C18     mov     r0,r3
08016E9C 4301     orr     r1,r0
08016E9E 8011     strh    r1,[r2]
08016EA0 E003     b       8016EAAh
08016EA2 0000     lsl     r0,r0,0h
08016EA4 4B18     ldr     r3,=20808811h
08016EA6 082C     lsr     r4,r5,20h
08016EA8 801C     strh    r4,[r3]
08016EAA BC10     pop     r4
08016EAC BC01     pop     r0
08016EAE 4700     bx      r0
08016EB0 B500     push    lr
08016EB2 F7F8FE89 bl      800FBC8h
08016EB6 2800     cmp     r0,0h
08016EB8 D100     bne     8016EBCh
08016EBA E0DD     b       8017078h
08016EBC 4B08     ldr     r3,=3000738h
08016EBE 1C19     mov     r1,r3
08016EC0 3124     add     r1,24h
08016EC2 2009     mov     r0,9h
08016EC4 7008     strb    r0,[r1]
08016EC6 1C18     mov     r0,r3
08016EC8 302D     add     r0,2Dh
08016ECA 7800     ldrb    r0,[r0]
08016ECC 1C1A     mov     r2,r3
08016ECE 2807     cmp     r0,7h
08016ED0 D900     bls     8016ED4h
08016ED2 E0CB     b       801706Ch
08016ED4 0080     lsl     r0,r0,2h
08016ED6 4903     ldr     r1,=8016EE8h
08016ED8 1840     add     r0,r0,r1
08016EDA 6800     ldr     r0,[r0]
08016EDC 4687     mov     r15,r0
08016EDE 0000     lsl     r0,r0,0h
08016EE0 0738     lsl     r0,r7,1Ch
08016EE2 0300     lsl     r0,r0,0Ch
08016EE4 6EE8     ldr     r0,[r5,6Ch]
08016EE6 0801     lsr     r1,r0,20h
08016EE8 6F08     ldr     r0,[r1,70h]
08016EEA 0801     lsr     r1,r0,20h
08016EEC 6F34     ldr     r4,[r6,70h]
08016EEE 0801     lsr     r1,r0,20h
08016EF0 6F46     ldr     r6,[r0,74h]
08016EF2 0801     lsr     r1,r0,20h
08016EF4 6F70     ldr     r0,[r6,74h]
08016EF6 0801     lsr     r1,r0,20h
08016EF8 6FA4     ldr     r4,[r4,78h]
08016EFA 0801     lsr     r1,r0,20h
08016EFC 6FDC     ldr     r4,[r3,7Ch]
08016EFE 0801     lsr     r1,r0,20h
08016F00 7014     strb    r4,[r2]
08016F02 0801     lsr     r1,r0,20h
08016F04 7034     strb    r4,[r6]
08016F06 0801     lsr     r1,r0,20h
08016F08 8811     ldrh    r1,[r2]
08016F0A 2080     mov     r0,80h
08016F0C 0080     lsl     r0,r0,2h
08016F0E 4008     and     r0,r1
08016F10 2800     cmp     r0,0h
08016F12 D106     bne     8016F22h
08016F14 8850     ldrh    r0,[r2,2h]
08016F16 381C     sub     r0,1Ch
08016F18 8050     strh    r0,[r2,2h]
08016F1A 8891     ldrh    r1,[r2,4h]
08016F1C 4803     ldr     r0,=0FFC0h
08016F1E 4008     and     r0,r1
08016F20 8090     strh    r0,[r2,4h]
08016F22 8810     ldrh    r0,[r2]
08016F24 4902     ldr     r1,=0FFBFh
08016F26 4001     and     r1,r0
08016F28 E033     b       8016F92h
08016F2A 0000     lsl     r0,r0,0h
08016F2C FFC00000 ????
08016F2E 0000     lsl     r0,r0,0h
08016F30 FFBF0000 ????
08016F32 0000     lsl     r0,r0,0h
08016F34 8811     ldrh    r1,[r2]
08016F36 2080     mov     r0,80h
08016F38 0080     lsl     r0,r0,2h
08016F3A 4008     and     r0,r1
08016F3C 2800     cmp     r0,0h
08016F3E D125     bne     8016F8Ch
08016F40 8850     ldrh    r0,[r2,2h]
08016F42 3820     sub     r0,20h
08016F44 E01C     b       8016F80h
08016F46 8811     ldrh    r1,[r2]
08016F48 2080     mov     r0,80h
08016F4A 0080     lsl     r0,r0,2h
08016F4C 4008     and     r0,r1
08016F4E 2800     cmp     r0,0h
08016F50 D006     beq     8016F60h
08016F52 8850     ldrh    r0,[r2,2h]
08016F54 301C     add     r0,1Ch
08016F56 8050     strh    r0,[r2,2h]
08016F58 8891     ldrh    r1,[r2,4h]
08016F5A 4803     ldr     r0,=0FFC0h
08016F5C 4008     and     r0,r1
08016F5E 8090     strh    r0,[r2,4h]
08016F60 8810     ldrh    r0,[r2]
08016F62 4902     ldr     r1,=0FFBFh
08016F64 4001     and     r1,r0
08016F66 E014     b       8016F92h
08016F68 FFC00000 ????
08016F6A 0000     lsl     r0,r0,0h
08016F6C FFBF0000 ????
08016F6E 0000     lsl     r0,r0,0h
08016F70 8811     ldrh    r1,[r2]
08016F72 2080     mov     r0,80h
08016F74 0080     lsl     r0,r0,2h
08016F76 4008     and     r0,r1
08016F78 2800     cmp     r0,0h
08016F7A D007     beq     8016F8Ch
08016F7C 8850     ldrh    r0,[r2,2h]
08016F7E 3020     add     r0,20h
08016F80 8050     strh    r0,[r2,2h]
08016F82 8891     ldrh    r1,[r2,4h]
08016F84 4806     ldr     r0,=0FFC0h
08016F86 4008     and     r0,r1
08016F88 3040     add     r0,40h
08016F8A 8090     strh    r0,[r2,4h]
08016F8C 8810     ldrh    r0,[r2]
08016F8E 2140     mov     r1,40h
08016F90 4301     orr     r1,r0
08016F92 2380     mov     r3,80h
08016F94 00DB     lsl     r3,r3,3h
08016F96 1C18     mov     r0,r3
08016F98 4301     orr     r1,r0
08016F9A 8011     strh    r1,[r2]
08016F9C E068     b       8017070h
08016F9E 0000     lsl     r0,r0,0h
08016FA0 FFC00000 ????
08016FA2 0000     lsl     r0,r0,0h
08016FA4 8811     ldrh    r1,[r2]
08016FA6 2080     mov     r0,80h
08016FA8 0080     lsl     r0,r0,2h
08016FAA 4008     and     r0,r1
08016FAC 2800     cmp     r0,0h
08016FAE D009     beq     8016FC4h
08016FB0 8890     ldrh    r0,[r2,4h]
08016FB2 3020     add     r0,20h
08016FB4 8090     strh    r0,[r2,4h]
08016FB6 8851     ldrh    r1,[r2,2h]
08016FB8 4801     ldr     r0,=0FFC0h
08016FBA 4008     and     r0,r1
08016FBC 3040     add     r0,40h
08016FBE E004     b       8016FCAh
08016FC0 FFC00000 ????
08016FC2 0000     lsl     r0,r0,0h
08016FC4 8851     ldrh    r1,[r2,2h]
08016FC6 4803     ldr     r0,=0FFC0h
08016FC8 4008     and     r0,r1
08016FCA 8050     strh    r0,[r2,2h]
08016FCC 8810     ldrh    r0,[r2]
08016FCE 4902     ldr     r1,=0FEBFh
08016FD0 4001     and     r1,r0
08016FD2 E042     b       801705Ah
08016FD4 FFC00000 ????
08016FD6 0000     lsl     r0,r0,0h
08016FD8 FEBF0000 ????
08016FDA 0000     lsl     r0,r0,0h
08016FDC 8811     ldrh    r1,[r2]
08016FDE 2080     mov     r0,80h
08016FE0 0080     lsl     r0,r0,2h
08016FE2 4008     and     r0,r1
08016FE4 2800     cmp     r0,0h
08016FE6 D109     bne     8016FFCh
08016FE8 8890     ldrh    r0,[r2,4h]
08016FEA 3820     sub     r0,20h
08016FEC 8090     strh    r0,[r2,4h]
08016FEE 8851     ldrh    r1,[r2,2h]
08016FF0 4801     ldr     r0,=0FFC0h
08016FF2 4008     and     r0,r1
08016FF4 3040     add     r0,40h
08016FF6 E004     b       8017002h
08016FF8 FFC00000 ????
08016FFA 0000     lsl     r0,r0,0h
08016FFC 8851     ldrh    r1,[r2,2h]
08016FFE 4803     ldr     r0,=0FFC0h
08017000 4008     and     r0,r1
08017002 8050     strh    r0,[r2,2h]
08017004 8810     ldrh    r0,[r2]
08017006 4902     ldr     r1,=0FEBFh
08017008 4001     and     r1,r0
0801700A E026     b       801705Ah
0801700C FFC00000 ????
0801700E 0000     lsl     r0,r0,0h
08017010 FEBF0000 ????
08017012 0000     lsl     r0,r0,0h
08017014 8811     ldrh    r1,[r2]
08017016 2080     mov     r0,80h
08017018 0080     lsl     r0,r0,2h
0801701A 4008     and     r0,r1
0801701C 2800     cmp     r0,0h
0801701E D017     beq     8017050h
08017020 8850     ldrh    r0,[r2,2h]
08017022 4903     ldr     r1,=0FFC0h
08017024 4001     and     r1,r0
08017026 8051     strh    r1,[r2,2h]
08017028 8890     ldrh    r0,[r2,4h]
0801702A 301C     add     r0,1Ch
0801702C 8090     strh    r0,[r2,4h]
0801702E E00F     b       8017050h
08017030 FFC00000 ????
08017032 0000     lsl     r0,r0,0h
08017034 1C13     mov     r3,r2
08017036 8819     ldrh    r1,[r3]
08017038 2080     mov     r0,80h
0801703A 0080     lsl     r0,r0,2h
0801703C 4008     and     r0,r1
0801703E 2800     cmp     r0,0h
08017040 D106     bne     8017050h
08017042 8858     ldrh    r0,[r3,2h]
08017044 4907     ldr     r1,=0FFC0h
08017046 4001     and     r1,r0
08017048 8059     strh    r1,[r3,2h]
0801704A 8898     ldrh    r0,[r3,4h]
0801704C 3820     sub     r0,20h
0801704E 8098     strh    r0,[r3,4h]
08017050 8810     ldrh    r0,[r2]
08017052 2380     mov     r3,80h
08017054 005B     lsl     r3,r3,1h
08017056 1C19     mov     r1,r3
08017058 4301     orr     r1,r0
0801705A 4803     ldr     r0,=0FBFFh
0801705C 4001     and     r1,r0
0801705E 8011     strh    r1,[r2]
08017060 E006     b       8017070h
08017062 0000     lsl     r0,r0,0h
08017064 FFC00000 ????
08017066 0000     lsl     r0,r0,0h
08017068 FBFF0000 ????
0801706A 0000     lsl     r0,r0,0h
0801706C 2000     mov     r0,0h
0801706E 8018     strh    r0,[r3]
08017070 F7FFFB9A bl      80167A8h
08017074 F7FFFB58 bl      8016728h
08017078 BC01     pop     r0
0801707A 4700     bx      r0
0801707C B500     push    lr
0801707E 4804     ldr     r0,=3000738h
08017080 3024     add     r0,24h
08017082 210F     mov     r1,0Fh
08017084 7001     strb    r1,[r0]
08017086 F7FFFBA7 bl      80167D8h
0801708A BC01     pop     r0
0801708C 4700     bx      r0
0801708E 0000     lsl     r0,r0,0h
08017090 0738     lsl     r0,r7,1Ch
08017092 0300     lsl     r0,r0,0Ch
08017094 B500     push    lr
08017096 F7FFFAFD bl      8016694h
0801709A 0600     lsl     r0,r0,18h
0801709C 2800     cmp     r0,0h
0801709E D005     beq     80170ACh
080170A0 4801     ldr     r0,=3000738h
080170A2 3024     add     r0,24h
080170A4 211E     mov     r1,1Eh
080170A6 E008     b       80170BAh
080170A8 0738     lsl     r0,r7,1Ch
080170AA 0300     lsl     r0,r0,0Ch
080170AC F7F8FDA8 bl      800FC00h
080170B0 2800     cmp     r0,0h
080170B2 D003     beq     80170BCh
080170B4 4802     ldr     r0,=3000738h
080170B6 3024     add     r0,24h
080170B8 2108     mov     r1,8h
080170BA 7001     strb    r1,[r0]
080170BC BC01     pop     r0
080170BE 4700     bx      r0
080170C0 0738     lsl     r0,r7,1Ch
080170C2 0300     lsl     r0,r0,0Ch
080170C4 B500     push    lr
080170C6 4A08     ldr     r2,=3000738h
080170C8 8811     ldrh    r1,[r2]
080170CA 2080     mov     r0,80h
080170CC 00C0     lsl     r0,r0,3h
080170CE 4008     and     r0,r1
080170D0 1C13     mov     r3,r2
080170D2 2800     cmp     r0,0h
080170D4 D00E     beq     80170F4h
080170D6 2040     mov     r0,40h
080170D8 4008     and     r0,r1
080170DA 2800     cmp     r0,0h
080170DC D006     beq     80170ECh
080170DE 8898     ldrh    r0,[r3,4h]
080170E0 3820     sub     r0,20h
080170E2 8098     strh    r0,[r3,4h]
080170E4 E00E     b       8017104h
080170E6 0000     lsl     r0,r0,0h
080170E8 0738     lsl     r0,r7,1Ch
080170EA 0300     lsl     r0,r0,0Ch
080170EC 8898     ldrh    r0,[r3,4h]
080170EE 3020     add     r0,20h
080170F0 8098     strh    r0,[r3,4h]
080170F2 E007     b       8017104h
080170F4 2080     mov     r0,80h
080170F6 0040     lsl     r0,r0,1h
080170F8 4008     and     r0,r1
080170FA 2800     cmp     r0,0h
080170FC D002     beq     8017104h
080170FE 8858     ldrh    r0,[r3,2h]
08017100 3028     add     r0,28h
08017102 8058     strh    r0,[r3,2h]
08017104 1C19     mov     r1,r3
08017106 3124     add     r1,24h
08017108 2200     mov     r2,0h
0801710A 201F     mov     r0,1Fh
0801710C 7008     strb    r0,[r1]
0801710E 1C18     mov     r0,r3
08017110 302F     add     r0,2Fh
08017112 7002     strb    r2,[r0]
08017114 8819     ldrh    r1,[r3]
08017116 4804     ldr     r0,=0FABFh
08017118 4008     and     r0,r1
0801711A 8018     strh    r0,[r3]
0801711C F7FFFB04 bl      8016728h
08017120 F7FFFB5A bl      80167D8h
08017124 BC01     pop     r0
08017126 4700     bx      r0
08017128 FABF0000 ????
0801712A 0000     lsl     r0,r0,0h
0801712C B570     push    r4-r6,lr
0801712E 480B     ldr     r0,=3000738h
08017130 8846     ldrh    r6,[r0,2h]
08017132 212F     mov     r1,2Fh
08017134 1809     add     r1,r1,r0
08017136 468C     mov     r12,r1
08017138 780A     ldrb    r2,[r1]
0801713A 4D09     ldr     r5,=82B0D04h
0801713C 0051     lsl     r1,r2,1h
0801713E 1949     add     r1,r1,r5
08017140 2400     mov     r4,0h
08017142 5F0B     ldsh    r3,[r1,r4]
08017144 4907     ldr     r1,=7FFFh
08017146 1C04     mov     r4,r0
08017148 428B     cmp     r3,r1
0801714A D10D     bne     8017168h
0801714C 1E50     sub     r0,r2,1
0801714E 0040     lsl     r0,r0,1h
08017150 1940     add     r0,r0,r5
08017152 2100     mov     r1,0h
08017154 5E40     ldsh    r0,[r0,r1]
08017156 1830     add     r0,r6,r0
08017158 E00B     b       8017172h
0801715A 0000     lsl     r0,r0,0h
0801715C 0738     lsl     r0,r7,1Ch
0801715E 0300     lsl     r0,r0,0Ch
08017160 0D04     lsr     r4,r0,14h
08017162 082B     lsr     r3,r5,20h
08017164 7FFF     ldrb    r7,[r7,1Fh]
08017166 0000     lsl     r0,r0,0h
08017168 1C50     add     r0,r2,1
0801716A 4661     mov     r1,r12
0801716C 7008     strb    r0,[r1]
0801716E 8860     ldrh    r0,[r4,2h]
08017170 18C0     add     r0,r0,r3
08017172 8060     strh    r0,[r4,2h]
08017174 8860     ldrh    r0,[r4,2h]
08017176 88A1     ldrh    r1,[r4,4h]
08017178 F7F8F980 bl      800F47Ch
0801717C 1C01     mov     r1,r0
0801717E 4806     ldr     r0,=30007F0h
08017180 7800     ldrb    r0,[r0]
08017182 2800     cmp     r0,0h
08017184 D00A     beq     801719Ch
08017186 8061     strh    r1,[r4,2h]
08017188 1C21     mov     r1,r4
0801718A 3124     add     r1,24h
0801718C 200F     mov     r0,0Fh
0801718E 7008     strb    r0,[r1]
08017190 F7F8FB58 bl      800F844h
08017194 E008     b       80171A8h
08017196 0000     lsl     r0,r0,0h
08017198 07F0     lsl     r0,r6,1Fh
0801719A 0300     lsl     r0,r0,0Ch
0801719C 8861     ldrh    r1,[r4,2h]
0801719E 88A2     ldrh    r2,[r4,4h]
080171A0 1C30     mov     r0,r6
080171A2 2302     mov     r3,2h
080171A4 F7FAFAB8 bl      8011718h
080171A8 BC70     pop     r4-r6
080171AA BC01     pop     r0
080171AC 4700     bx      r0
080171AE 0000     lsl     r0,r0,0h
080171B0 B500     push    lr
080171B2 B081     add     sp,-4h
080171B4 4807     ldr     r0,=3000738h
080171B6 8841     ldrh    r1,[r0,2h]
080171B8 8882     ldrh    r2,[r0,4h]
080171BA 8803     ldrh    r3,[r0]
080171BC 2080     mov     r0,80h
080171BE 00C0     lsl     r0,r0,3h
080171C0 4018     and     r0,r3
080171C2 2800     cmp     r0,0h
080171C4 D00D     beq     80171E2h
080171C6 2040     mov     r0,40h
080171C8 4018     and     r0,r3
080171CA 2800     cmp     r0,0h
080171CC D004     beq     80171D8h
080171CE 1C10     mov     r0,r2
080171D0 3828     sub     r0,28h
080171D2 E003     b       80171DCh
080171D4 0738     lsl     r0,r7,1Ch
080171D6 0300     lsl     r0,r0,0Ch
080171D8 1C10     mov     r0,r2
080171DA 3028     add     r0,28h
080171DC 0400     lsl     r0,r0,10h
080171DE 0C02     lsr     r2,r0,10h
080171E0 E00B     b       80171FAh
080171E2 2080     mov     r0,80h
080171E4 0040     lsl     r0,r0,1h
080171E6 4018     and     r0,r3
080171E8 2800     cmp     r0,0h
080171EA D002     beq     80171F2h
080171EC 1C08     mov     r0,r1
080171EE 3028     add     r0,28h
080171F0 E001     b       80171F6h
080171F2 1C08     mov     r0,r1
080171F4 3828     sub     r0,28h
080171F6 0400     lsl     r0,r0,10h
080171F8 0C01     lsr     r1,r0,10h
080171FA 2020     mov     r0,20h
080171FC 9000     str     r0,[sp]
080171FE 2000     mov     r0,0h
08017200 2301     mov     r3,1h
08017202 F7F9FF3F bl      8011084h
08017206 B001     add     sp,4h
08017208 BC01     pop     r0
0801720A 4700     bx      r0
0801720C B510     push    r4,lr
0801720E 490E     ldr     r1,=3000738h
08017210 1C0B     mov     r3,r1
08017212 3332     add     r3,32h
08017214 781A     ldrb    r2,[r3]
08017216 2402     mov     r4,2h
08017218 1C20     mov     r0,r4
0801721A 4010     and     r0,r2
0801721C 2800     cmp     r0,0h
0801721E D00A     beq     8017236h
08017220 20FD     mov     r0,0FDh
08017222 4010     and     r0,r2
08017224 7018     strb    r0,[r3]
08017226 8809     ldrh    r1,[r1]
08017228 1C20     mov     r0,r4
0801722A 4008     and     r0,r1
0801722C 2800     cmp     r0,0h
0801722E D002     beq     8017236h
08017230 4806     ldr     r0,=147h
08017232 F7EBFC75 bl      8002B20h
08017236 4C04     ldr     r4,=3000738h
08017238 1C20     mov     r0,r4
0801723A 3030     add     r0,30h
0801723C 7800     ldrb    r0,[r0]
0801723E 2800     cmp     r0,0h
08017240 D006     beq     8017250h
08017242 F7F8FED1 bl      800FFE8h
08017246 E06C     b       8017322h
08017248 0738     lsl     r0,r7,1Ch
0801724A 0300     lsl     r0,r0,0Ch
0801724C 0147     lsl     r7,r0,5h
0801724E 0000     lsl     r0,r0,0h
08017250 F7FAF816 bl      8011280h
08017254 2800     cmp     r0,0h
08017256 D164     bne     8017322h
08017258 1C20     mov     r0,r4
0801725A 3024     add     r0,24h
0801725C 7800     ldrb    r0,[r0]
0801725E 281F     cmp     r0,1Fh
08017260 D85D     bhi     801731Eh
08017262 0080     lsl     r0,r0,2h
08017264 4901     ldr     r1,=8017270h
08017266 1840     add     r0,r0,r1
08017268 6800     ldr     r0,[r0]
0801726A 4687     mov     r15,r0
0801726C 7270     strb    r0,[r6,9h]
0801726E 0801     lsr     r1,r0,20h
08017270 72F0     strb    r0,[r6,0Bh]
08017272 0801     lsr     r1,r0,20h
08017274 731E     strb    r6,[r3,0Ch]
08017276 0801     lsr     r1,r0,20h
08017278 731E     strb    r6,[r3,0Ch]
0801727A 0801     lsr     r1,r0,20h
0801727C 731E     strb    r6,[r3,0Ch]
0801727E 0801     lsr     r1,r0,20h
08017280 731E     strb    r6,[r3,0Ch]
08017282 0801     lsr     r1,r0,20h
08017284 731E     strb    r6,[r3,0Ch]
08017286 0801     lsr     r1,r0,20h
08017288 731E     strb    r6,[r3,0Ch]
0801728A 0801     lsr     r1,r0,20h
0801728C 731E     strb    r6,[r3,0Ch]
0801728E 0801     lsr     r1,r0,20h
08017290 72F6     strb    r6,[r6,0Bh]
08017292 0801     lsr     r1,r0,20h
08017294 72FA     strb    r2,[r7,0Bh]
08017296 0801     lsr     r1,r0,20h
08017298 7300     strb    r0,[r0,0Ch]
0801729A 0801     lsr     r1,r0,20h
0801729C 7304     strb    r4,[r0,0Ch]
0801729E 0801     lsr     r1,r0,20h
080172A0 731E     strb    r6,[r3,0Ch]
080172A2 0801     lsr     r1,r0,20h
080172A4 731E     strb    r6,[r3,0Ch]
080172A6 0801     lsr     r1,r0,20h
080172A8 730A     strb    r2,[r1,0Ch]
080172AA 0801     lsr     r1,r0,20h
080172AC 730E     strb    r6,[r1,0Ch]
080172AE 0801     lsr     r1,r0,20h
080172B0 731E     strb    r6,[r3,0Ch]
080172B2 0801     lsr     r1,r0,20h
080172B4 731E     strb    r6,[r3,0Ch]
080172B6 0801     lsr     r1,r0,20h
080172B8 731E     strb    r6,[r3,0Ch]
080172BA 0801     lsr     r1,r0,20h
080172BC 731E     strb    r6,[r3,0Ch]
080172BE 0801     lsr     r1,r0,20h
080172C0 731E     strb    r6,[r3,0Ch]
080172C2 0801     lsr     r1,r0,20h
080172C4 731E     strb    r6,[r3,0Ch]
080172C6 0801     lsr     r1,r0,20h
080172C8 731E     strb    r6,[r3,0Ch]
080172CA 0801     lsr     r1,r0,20h
080172CC 731E     strb    r6,[r3,0Ch]
080172CE 0801     lsr     r1,r0,20h
080172D0 731E     strb    r6,[r3,0Ch]
080172D2 0801     lsr     r1,r0,20h
080172D4 731E     strb    r6,[r3,0Ch]
080172D6 0801     lsr     r1,r0,20h
080172D8 731E     strb    r6,[r3,0Ch]
080172DA 0801     lsr     r1,r0,20h
080172DC 731E     strb    r6,[r3,0Ch]
080172DE 0801     lsr     r1,r0,20h
080172E0 731E     strb    r6,[r3,0Ch]
080172E2 0801     lsr     r1,r0,20h
080172E4 731E     strb    r6,[r3,0Ch]
080172E6 0801     lsr     r1,r0,20h
080172E8 7314     strb    r4,[r2,0Ch]
080172EA 0801     lsr     r1,r0,20h
080172EC 7318     strb    r0,[r3,0Ch]
080172EE 0801     lsr     r1,r0,20h
080172F0 F7FFFA8A bl      8016808h
080172F4 E015     b       8017322h
080172F6 F7FFFB11 bl      801691Ch
080172FA F7FFFB1B bl      8016934h
080172FE E010     b       8017322h
08017300 F7FFFD0C bl      8016D1Ch
08017304 F7FFFDD4 bl      8016EB0h
08017308 E00B     b       8017322h
0801730A F7FFFEB7 bl      801707Ch
0801730E F7FFFEC1 bl      8017094h
08017312 E006     b       8017322h
08017314 F7FFFED6 bl      80170C4h
08017318 F7FFFF08 bl      801712Ch
0801731C E001     b       8017322h
0801731E F7FFFF47 bl      80171B0h
08017322 BC10     pop     r4
08017324 BC01     pop     r0
08017326 4700     bx      r0
08017328 B570     push    r4-r6,lr
0801732A B083     add     sp,-0Ch
0801732C 4D13     ldr     r5,=3000738h
0801732E 8829     ldrh    r1,[r5]
08017330 2080     mov     r0,80h
08017332 00C0     lsl     r0,r0,3h
08017334 4008     and     r0,r1
08017336 0400     lsl     r0,r0,10h
08017338 0C04     lsr     r4,r0,10h
0801733A 2C00     cmp     r4,0h
0801733C D039     beq     80173B2h
0801733E 2440     mov     r4,40h
08017340 1C20     mov     r0,r4
08017342 4008     and     r0,r1
08017344 2800     cmp     r0,0h
08017346 D01B     beq     8017380h
08017348 7FEA     ldrb    r2,[r5,1Fh]
0801734A 1C2E     mov     r6,r5
0801734C 3623     add     r6,23h
0801734E 7833     ldrb    r3,[r6]
08017350 8868     ldrh    r0,[r5,2h]
08017352 3818     sub     r0,18h
08017354 9000     str     r0,[sp]
08017356 88A8     ldrh    r0,[r5,4h]
08017358 3830     sub     r0,30h
0801735A 9001     str     r0,[sp,4h]
0801735C 2400     mov     r4,0h
0801735E 9402     str     r4,[sp,8h]
08017360 2010     mov     r0,10h
08017362 2100     mov     r1,0h
08017364 F7F6FF78 bl      800E258h
08017368 7FEA     ldrb    r2,[r5,1Fh]
0801736A 7833     ldrb    r3,[r6]
0801736C 8868     ldrh    r0,[r5,2h]
0801736E 3018     add     r0,18h
08017370 9000     str     r0,[sp]
08017372 88A8     ldrh    r0,[r5,4h]
08017374 3830     sub     r0,30h
08017376 9001     str     r0,[sp,4h]
08017378 9402     str     r4,[sp,8h]
0801737A E03A     b       80173F2h
0801737C 0738     lsl     r0,r7,1Ch
0801737E 0300     lsl     r0,r0,0Ch
08017380 7FEA     ldrb    r2,[r5,1Fh]
08017382 1C2E     mov     r6,r5
08017384 3623     add     r6,23h
08017386 7833     ldrb    r3,[r6]
08017388 8868     ldrh    r0,[r5,2h]
0801738A 3818     sub     r0,18h
0801738C 9000     str     r0,[sp]
0801738E 88A8     ldrh    r0,[r5,4h]
08017390 3030     add     r0,30h
08017392 9001     str     r0,[sp,4h]
08017394 9402     str     r4,[sp,8h]
08017396 2010     mov     r0,10h
08017398 2100     mov     r1,0h
0801739A F7F6FF5D bl      800E258h
0801739E 7FEA     ldrb    r2,[r5,1Fh]
080173A0 7833     ldrb    r3,[r6]
080173A2 8868     ldrh    r0,[r5,2h]
080173A4 3018     add     r0,18h
080173A6 9000     str     r0,[sp]
080173A8 88A8     ldrh    r0,[r5,4h]
080173AA 3030     add     r0,30h
080173AC 9001     str     r0,[sp,4h]
080173AE 9402     str     r4,[sp,8h]
080173B0 E01F     b       80173F2h
080173B2 2080     mov     r0,80h
080173B4 0040     lsl     r0,r0,1h
080173B6 4008     and     r0,r1
080173B8 0400     lsl     r0,r0,10h
080173BA 0C01     lsr     r1,r0,10h
080173BC 2900     cmp     r1,0h
080173BE D01D     beq     80173FCh
080173C0 7FEA     ldrb    r2,[r5,1Fh]
080173C2 1C2E     mov     r6,r5
080173C4 3623     add     r6,23h
080173C6 7833     ldrb    r3,[r6]
080173C8 8868     ldrh    r0,[r5,2h]
080173CA 3030     add     r0,30h
080173CC 9000     str     r0,[sp]
080173CE 88A8     ldrh    r0,[r5,4h]
080173D0 3818     sub     r0,18h
080173D2 9001     str     r0,[sp,4h]
080173D4 9402     str     r4,[sp,8h]
080173D6 2010     mov     r0,10h
080173D8 2101     mov     r1,1h
080173DA F7F6FF3D bl      800E258h
080173DE 7FEA     ldrb    r2,[r5,1Fh]
080173E0 7833     ldrb    r3,[r6]
080173E2 8868     ldrh    r0,[r5,2h]
080173E4 3030     add     r0,30h
080173E6 9000     str     r0,[sp]
080173E8 88A8     ldrh    r0,[r5,4h]
080173EA 3018     add     r0,18h
080173EC 9001     str     r0,[sp,4h]
080173EE 2040     mov     r0,40h
080173F0 9002     str     r0,[sp,8h]
080173F2 2010     mov     r0,10h
080173F4 2101     mov     r1,1h
080173F6 F7F6FF2F bl      800E258h
080173FA E01C     b       8017436h
080173FC 7FEA     ldrb    r2,[r5,1Fh]
080173FE 1C2C     mov     r4,r5
08017400 3423     add     r4,23h
08017402 7823     ldrb    r3,[r4]
08017404 8868     ldrh    r0,[r5,2h]
08017406 3830     sub     r0,30h
08017408 9000     str     r0,[sp]
0801740A 88A8     ldrh    r0,[r5,4h]
0801740C 3818     sub     r0,18h
0801740E 9001     str     r0,[sp,4h]
08017410 9102     str     r1,[sp,8h]
08017412 2010     mov     r0,10h
08017414 2102     mov     r1,2h
08017416 F7F6FF1F bl      800E258h
0801741A 7FEA     ldrb    r2,[r5,1Fh]
0801741C 7823     ldrb    r3,[r4]
0801741E 8868     ldrh    r0,[r5,2h]
08017420 3830     sub     r0,30h
08017422 9000     str     r0,[sp]
08017424 88A8     ldrh    r0,[r5,4h]
08017426 3018     add     r0,18h
08017428 9001     str     r0,[sp,4h]
0801742A 2040     mov     r0,40h
0801742C 9002     str     r0,[sp,8h]
0801742E 2010     mov     r0,10h
08017430 2102     mov     r1,2h
08017432 F7F6FF11 bl      800E258h
08017436 B003     add     sp,0Ch
08017438 BC70     pop     r4-r6
0801743A BC01     pop     r0
0801743C 4700     bx      r0
0801743E 0000     lsl     r0,r0,0h
08017440 B570     push    r4-r6,lr
08017442 2600     mov     r6,0h
08017444 4C0B     ldr     r4,=3000738h
08017446 8821     ldrh    r1,[r4]
08017448 2080     mov     r0,80h
0801744A 00C0     lsl     r0,r0,3h
0801744C 4008     and     r0,r1
0801744E 2800     cmp     r0,0h
08017450 D026     beq     80174A0h
08017452 2040     mov     r0,40h
08017454 4008     and     r0,r1
08017456 2800     cmp     r0,0h
08017458 D010     beq     801747Ch
0801745A 8860     ldrh    r0,[r4,2h]
0801745C 3820     sub     r0,20h
0801745E 88A1     ldrh    r1,[r4,4h]
08017460 F7F8F912 bl      800F688h
08017464 4D04     ldr     r5,=30007F1h
08017466 7828     ldrb    r0,[r5]
08017468 2800     cmp     r0,0h
0801746A D13F     bne     80174ECh
0801746C 8860     ldrh    r0,[r4,2h]
0801746E 3020     add     r0,20h
