
08059E54 B5F0     push    r4-r7,lr
08059E56 4647     mov     r7,r8
08059E58 B480     push    r7
08059E5A B081     add     sp,-4h
08059E5C 0400     lsl     r0,r0,10h
08059E5E 0C03     lsr     r3,r0,10h
08059E60 0409     lsl     r1,r1,10h
08059E62 0C09     lsr     r1,r1,10h
08059E64 4688     mov     r8,r1
08059E66 0612     lsl     r2,r2,18h
08059E68 0E17     lsr     r7,r2,18h
08059E6A 4C09     ldr     r4,=3005528h
08059E6C 2600     mov     r6,0h
08059E6E 1C22     mov     r2,r4
08059E70 7861     ldrb    r1,[r4,1h]
08059E72 2900     cmp     r1,0h
08059E74 D10E     bne     8059E94h
08059E76 7021     strb    r1,[r4]
08059E78 2002     mov     r0,2h
08059E7A 7060     strb    r0,[r4,1h]
08059E7C 70A7     strb    r7,[r4,2h]
08059E7E 80E1     strh    r1,[r4,6h]
08059E80 70E3     strb    r3,[r4,3h]
08059E82 4640     mov     r0,r8
08059E84 7120     strb    r0,[r4,4h]
08059E86 1C20     mov     r0,r4
08059E88 F7FFFEF4 bl      8059C74h
08059E8C E02D     b       8059EEAh
08059E8E 0000     lsl     r0,r0,0h
08059E90 5528     strb    r0,[r5,r4]
08059E92 0300     lsl     r0,r0,0Ch
08059E94 3601     add     r6,1h
08059E96 3408     add     r4,8h
08059E98 2E2F     cmp     r6,2Fh
08059E9A DDE9     ble     8059E70h
08059E9C 2104     mov     r1,4h
08059E9E 1C14     mov     r4,r2
08059EA0 2600     mov     r6,0h
08059EA2 7825     ldrb    r5,[r4]
08059EA4 2D00     cmp     r5,0h
08059EA6 D119     bne     8059EDCh
08059EA8 7860     ldrb    r0,[r4,1h]
08059EAA 4288     cmp     r0,r1
08059EAC DB16     blt     8059EDCh
08059EAE 7921     ldrb    r1,[r4,4h]
08059EB0 78E2     ldrb    r2,[r4,3h]
08059EB2 2000     mov     r0,0h
08059EB4 9300     str     r3,[sp]
08059EB6 F000FB51 bl      805A55Ch
08059EBA 7025     strb    r5,[r4]
08059EBC 2002     mov     r0,2h
08059EBE 7060     strb    r0,[r4,1h]
08059EC0 70A7     strb    r7,[r4,2h]
08059EC2 80E5     strh    r5,[r4,6h]
08059EC4 9B00     ldr     r3,[sp]
08059EC6 70E3     strb    r3,[r4,3h]
08059EC8 4640     mov     r0,r8
08059ECA 7120     strb    r0,[r4,4h]
08059ECC 00F0     lsl     r0,r6,3h
08059ECE 4902     ldr     r1,=3005528h
08059ED0 1840     add     r0,r0,r1
08059ED2 F7FFFECF bl      8059C74h
08059ED6 E008     b       8059EEAh
08059ED8 5528     strb    r0,[r5,r4]
08059EDA 0300     lsl     r0,r0,0Ch
08059EDC 3601     add     r6,1h
08059EDE 3408     add     r4,8h
08059EE0 2E2F     cmp     r6,2Fh
08059EE2 DDDE     ble     8059EA2h
08059EE4 1049     asr     r1,r1,1h
08059EE6 2900     cmp     r1,0h
08059EE8 D1D9     bne     8059E9Eh
08059EEA B001     add     sp,4h
08059EEC BC08     pop     r3
08059EEE 4698     mov     r8,r3
08059EF0 BCF0     pop     r4-r7
08059EF2 BC01     pop     r0
08059EF4 4700     bx      r0
08059EF6 0000     lsl     r0,r0,0h
08059EF8 B5F0     push    r4-r7,lr
08059EFA 0600     lsl     r0,r0,18h
08059EFC 0E07     lsr     r7,r0,18h
08059EFE 0409     lsl     r1,r1,10h
08059F00 0C0E     lsr     r6,r1,10h
08059F02 0412     lsl     r2,r2,10h
08059F04 0C15     lsr     r5,r2,10h
08059F06 2100     mov     r1,0h
08059F08 4B18     ldr     r3,=3005528h
08059F0A 2400     mov     r4,0h
08059F0C 78D8     ldrb    r0,[r3,3h]
08059F0E 469C     mov     r12,r3
08059F10 42B0     cmp     r0,r6
08059F12 D102     bne     8059F1Ah
08059F14 7918     ldrb    r0,[r3,4h]
08059F16 42A8     cmp     r0,r5
08059F18 D023     beq     8059F62h
08059F1A 2280     mov     r2,80h
08059F1C 1C08     mov     r0,r1
08059F1E 4010     and     r0,r2
08059F20 2800     cmp     r0,0h
08059F22 D104     bne     8059F2Eh
08059F24 7858     ldrb    r0,[r3,1h]
08059F26 2800     cmp     r0,0h
08059F28 D101     bne     8059F2Eh
08059F2A 1C21     mov     r1,r4
08059F2C 4311     orr     r1,r2
08059F2E 3401     add     r4,1h
08059F30 3308     add     r3,8h
08059F32 2C2F     cmp     r4,2Fh
08059F34 DC06     bgt     8059F44h
08059F36 78D8     ldrb    r0,[r3,3h]
08059F38 42B0     cmp     r0,r6
08059F3A D1EE     bne     8059F1Ah
08059F3C 7918     ldrb    r0,[r3,4h]
08059F3E 42A8     cmp     r0,r5
08059F40 D1EB     bne     8059F1Ah
08059F42 2100     mov     r1,0h
08059F44 2900     cmp     r1,0h
08059F46 D00C     beq     8059F62h
08059F48 207F     mov     r0,7Fh
08059F4A 4001     and     r1,r0
08059F4C 00C8     lsl     r0,r1,3h
08059F4E 4661     mov     r1,r12
08059F50 1843     add     r3,r0,r1
08059F52 2000     mov     r0,0h
08059F54 7018     strb    r0,[r3]
08059F56 7058     strb    r0,[r3,1h]
08059F58 709F     strb    r7,[r3,2h]
08059F5A 80D8     strh    r0,[r3,6h]
08059F5C 70DE     strb    r6,[r3,3h]
08059F5E 711D     strb    r5,[r3,4h]
08059F60 2101     mov     r1,1h
08059F62 1C08     mov     r0,r1
08059F64 BCF0     pop     r4-r7
08059F66 BC02     pop     r1
08059F68 4708     bx      r1
08059F6A 0000     lsl     r0,r0,0h
08059F6C 5528     strb    r0,[r5,r4]
08059F6E 0300     lsl     r0,r0,0Ch
08059F70 B5F0     push    r4-r7,lr
08059F72 0600     lsl     r0,r0,18h
08059F74 0E04     lsr     r4,r0,18h
08059F76 0609     lsl     r1,r1,18h
08059F78 0E0D     lsr     r5,r1,18h
08059F7A 2600     mov     r6,0h
08059F7C 4916     ldr     r1,=30013D4h
08059F7E 8A4B     ldrh    r3,[r1,12h]
08059F80 4A16     ldr     r2,=3001588h
08059F82 1C10     mov     r0,r2
08059F84 306E     add     r0,6Eh
08059F86 2700     mov     r7,0h
08059F88 5FC0     ldsh    r0,[r0,r7]
08059F8A 1818     add     r0,r3,r0
08059F8C 1180     asr     r0,r0,6h
08059F8E 42A0     cmp     r0,r4
08059F90 DC08     bgt     8059FA4h
08059F92 1C10     mov     r0,r2
08059F94 3072     add     r0,72h
08059F96 2700     mov     r7,0h
08059F98 5FC0     ldsh    r0,[r0,r7]
08059F9A 1818     add     r0,r3,r0
08059F9C 1180     asr     r0,r0,6h
08059F9E 4284     cmp     r4,r0
08059FA0 DC00     bgt     8059FA4h
08059FA2 2601     mov     r6,1h
08059FA4 2300     mov     r3,0h
08059FA6 8A89     ldrh    r1,[r1,14h]
08059FA8 1C10     mov     r0,r2
08059FAA 3070     add     r0,70h
08059FAC 2400     mov     r4,0h
08059FAE 5F00     ldsh    r0,[r0,r4]
08059FB0 1808     add     r0,r1,r0
08059FB2 1180     asr     r0,r0,6h
08059FB4 42A8     cmp     r0,r5
08059FB6 DC08     bgt     8059FCAh
08059FB8 1C10     mov     r0,r2
08059FBA 3074     add     r0,74h
08059FBC 2700     mov     r7,0h
08059FBE 5FC0     ldsh    r0,[r0,r7]
08059FC0 1808     add     r0,r1,r0
08059FC2 1180     asr     r0,r0,6h
08059FC4 4285     cmp     r5,r0
08059FC6 DC00     bgt     8059FCAh
08059FC8 2301     mov     r3,1h
08059FCA 2000     mov     r0,0h
08059FCC 2E00     cmp     r6,0h
08059FCE D000     beq     8059FD2h
08059FD0 1C18     mov     r0,r3
08059FD2 BCF0     pop     r4-r7
08059FD4 BC02     pop     r1
08059FD6 4708     bx      r1
08059FD8 13D4     asr     r4,r2,0Fh
08059FDA 0300     lsl     r0,r0,0Ch
08059FDC 1588     asr     r0,r1,16h
08059FDE 0300     lsl     r0,r0,0Ch
08059FE0 B5F0     push    r4-r7,lr
08059FE2 4657     mov     r7,r10
08059FE4 464E     mov     r6,r9
08059FE6 4645     mov     r5,r8
08059FE8 B4E0     push    r5-r7
08059FEA 0600     lsl     r0,r0,18h
08059FEC 0E05     lsr     r5,r0,18h
08059FEE 0409     lsl     r1,r1,10h
08059FF0 0C09     lsr     r1,r1,10h
08059FF2 4689     mov     r9,r1
08059FF4 0412     lsl     r2,r2,10h
08059FF6 0C12     lsr     r2,r2,10h
08059FF8 4694     mov     r12,r2
08059FFA 2000     mov     r0,0h
08059FFC 4680     mov     r8,r0
08059FFE 2203     mov     r2,3h
0805A000 4812     ldr     r0,=30056ACh
0805A002 2407     mov     r4,7h
0805A004 402C     and     r4,r5
0805A006 2108     mov     r1,8h
0805A008 4249     neg     r1,r1
0805A00A 468A     mov     r10,r1
0805A00C 4E10     ldr     r6,=30056BCh
0805A00E 4911     ldr     r1,=8345C28h
0805A010 1C03     mov     r3,r0
0805A012 330C     add     r3,0Ch
0805A014 00A8     lsl     r0,r5,2h
0805A016 1847     add     r7,r0,r1
0805A018 7818     ldrb    r0,[r3]
0805A01A 2800     cmp     r0,0h
0805A01C D11C     bne     805A058h
0805A01E 2001     mov     r0,1h
0805A020 7018     strb    r0,[r3]
0805A022 4648     mov     r0,r9
0805A024 7058     strb    r0,[r3,1h]
0805A026 4661     mov     r1,r12
0805A028 7099     strb    r1,[r3,2h]
0805A02A 78D8     ldrb    r0,[r3,3h]
0805A02C 2140     mov     r1,40h
0805A02E 4308     orr     r0,r1
0805A030 2180     mov     r1,80h
0805A032 4308     orr     r0,r1
0805A034 4651     mov     r1,r10
0805A036 4008     and     r0,r1
0805A038 4320     orr     r0,r4
0805A03A 70D8     strb    r0,[r3,3h]
0805A03C 7830     ldrb    r0,[r6]
0805A03E 7839     ldrb    r1,[r7]
0805A040 4308     orr     r0,r1
0805A042 7030     strb    r0,[r6]
0805A044 2001     mov     r0,1h
0805A046 4680     mov     r8,r0
0805A048 E00D     b       805A066h
0805A04A 0000     lsl     r0,r0,0h
0805A04C 56AC     ldsb    r4,[r5,r2]
0805A04E 0300     lsl     r0,r0,0Ch
0805A050 56BC     ldsb    r4,[r7,r2]
0805A052 0300     lsl     r0,r0,0Ch
0805A054 5C28     ldrb    r0,[r5,r0]
0805A056 0834     lsr     r4,r6,20h
0805A058 3B04     sub     r3,4h
0805A05A 3A01     sub     r2,1h
0805A05C 2A00     cmp     r2,0h
0805A05E DADB     bge     805A018h
0805A060 4641     mov     r1,r8
0805A062 2900     cmp     r1,0h
0805A064 D00B     beq     805A07Eh
0805A066 4A0A     ldr     r2,=30056BCh
0805A068 490A     ldr     r1,=8345C28h
0805A06A 00A8     lsl     r0,r5,2h
0805A06C 1840     add     r0,r0,r1
0805A06E 7811     ldrb    r1,[r2]
0805A070 7800     ldrb    r0,[r0]
0805A072 4281     cmp     r1,r0
0805A074 D103     bne     805A07Eh
0805A076 209B     mov     r0,09Bh
0805A078 0040     lsl     r0,r0,1h
0805A07A F7A8FD51 bl      8002B20h
0805A07E 4640     mov     r0,r8
0805A080 BC38     pop     r3-r5
0805A082 4698     mov     r8,r3
0805A084 46A1     mov     r9,r4
0805A086 46AA     mov     r10,r5
0805A088 BCF0     pop     r4-r7
0805A08A BC02     pop     r1
0805A08C 4708     bx      r1
0805A08E 0000     lsl     r0,r0,0h
0805A090 56BC     ldsb    r4,[r7,r2]
0805A092 0300     lsl     r0,r0,0Ch
0805A094 5C28     ldrb    r0,[r5,r0]
0805A096 0834     lsr     r4,r6,20h
0805A098 B530     push    r4,r5,lr
0805A09A B082     add     sp,-8h
0805A09C 4C2C     ldr     r4,=30056ACh
0805A09E 482D     ldr     r0,=3000C77h
0805A0A0 7801     ldrb    r1,[r0]
0805A0A2 2003     mov     r0,3h
0805A0A4 4008     and     r0,r1
0805A0A6 0080     lsl     r0,r0,2h
0805A0A8 1904     add     r4,r0,r4
0805A0AA 7820     ldrb    r0,[r4]
0805A0AC 2800     cmp     r0,0h
0805A0AE D100     bne     805A0B2h
0805A0B0 E136     b       805A320h
0805A0B2 2300     mov     r3,0h
0805A0B4 6820     ldr     r0,[r4]
0805A0B6 0142     lsl     r2,r0,5h
0805A0B8 0F50     lsr     r0,r2,1Dh
0805A0BA 2803     cmp     r0,3h
0805A0BC D900     bls     805A0C0h
0805A0BE 2301     mov     r3,1h
0805A0C0 4925     ldr     r1,=8345C28h
0805A0C2 0F50     lsr     r0,r2,1Dh
0805A0C4 0080     lsl     r0,r0,2h
0805A0C6 1840     add     r0,r0,r1
0805A0C8 8841     ldrh    r1,[r0,2h]
0805A0CA 4824     ldr     r0,=0FFFF0000h
0805A0CC 466D     mov     r5,r13
0805A0CE 9A01     ldr     r2,[sp,4h]
0805A0D0 4002     and     r2,r0
0805A0D2 430A     orr     r2,r1
0805A0D4 9201     str     r2,[sp,4h]
0805A0D6 7928     ldrb    r0,[r5,4h]
0805A0D8 3810     sub     r0,10h
0805A0DA 0600     lsl     r0,r0,18h
0805A0DC 0A00     lsr     r0,r0,8h
0805A0DE 4920     ldr     r1,=0FF00FFFFh
0805A0E0 4011     and     r1,r2
0805A0E2 4301     orr     r1,r0
0805A0E4 9101     str     r1,[sp,4h]
0805A0E6 2000     mov     r0,0h
0805A0E8 9000     str     r0,[sp]
0805A0EA 2B00     cmp     r3,0h
0805A0EC D000     beq     805A0F0h
0805A0EE E081     b       805A1F4h
0805A0F0 7863     ldrb    r3,[r4,1h]
0805A0F2 9300     str     r3,[sp]
0805A0F4 78E1     ldrb    r1,[r4,3h]
0805A0F6 2040     mov     r0,40h
0805A0F8 4008     and     r0,r1
0805A0FA 2800     cmp     r0,0h
0805A0FC D045     beq     805A18Ah
0805A0FE 78A0     ldrb    r0,[r4,2h]
0805A100 7821     ldrb    r1,[r4]
0805A102 1A40     sub     r0,r0,r1
0805A104 0400     lsl     r0,r0,10h
0805A106 4A17     ldr     r2,=0FFFFh
0805A108 401A     and     r2,r3
0805A10A 4302     orr     r2,r0
0805A10C 9200     str     r2,[sp]
0805A10E 0C10     lsr     r0,r2,10h
0805A110 2801     cmp     r0,1h
0805A112 D917     bls     805A144h
0805A114 4B14     ldr     r3,=300009Ch
0805A116 0C12     lsr     r2,r2,10h
0805A118 8B98     ldrh    r0,[r3,1Ch]
0805A11A 4669     mov     r1,r13
0805A11C 4350     mul     r0,r2
0805A11E 8809     ldrh    r1,[r1]
0805A120 1840     add     r0,r0,r1
0805A122 6999     ldr     r1,[r3,18h]
0805A124 0040     lsl     r0,r0,1h
0805A126 1840     add     r0,r0,r1
0805A128 8802     ldrh    r2,[r0]
0805A12A 4810     ldr     r0,=3005450h
0805A12C 6881     ldr     r1,[r0,8h]
0805A12E 0050     lsl     r0,r2,1h
0805A130 1840     add     r0,r0,r1
0805A132 88A9     ldrh    r1,[r5,4h]
0805A134 8800     ldrh    r0,[r0]
0805A136 4281     cmp     r1,r0
0805A138 D11A     bne     805A170h
0805A13A 4668     mov     r0,r13
0805A13C F7FFF8C2 bl      80592C4h
0805A140 2800     cmp     r0,0h
0805A142 D122     bne     805A18Ah
0805A144 78E1     ldrb    r1,[r4,3h]
0805A146 2041     mov     r0,41h
0805A148 4240     neg     r0,r0
0805A14A 4008     and     r0,r1
0805A14C 70E0     strb    r0,[r4,3h]
0805A14E E01C     b       805A18Ah
0805A150 56AC     ldsb    r4,[r5,r2]
0805A152 0300     lsl     r0,r0,0Ch
0805A154 0C77     lsr     r7,r6,11h
0805A156 0300     lsl     r0,r0,0Ch
0805A158 5C28     ldrb    r0,[r5,r0]
0805A15A 0834     lsr     r4,r6,20h
0805A15C 0000     lsl     r0,r0,0h
0805A15E FFFFFFFF ????
0805A160 FFFFFF00 ????
0805A162 FF00FFFF ????
0805A164 FFFF0000 ????
0805A166 0000     lsl     r0,r0,0h
0805A168 009C     lsl     r4,r3,2h
0805A16A 0300     lsl     r0,r0,0Ch
0805A16C 5450     strb    r0,[r2,r1]
0805A16E 0300     lsl     r0,r0,0Ch
0805A170 78E1     ldrb    r1,[r4,3h]
0805A172 2041     mov     r0,41h
0805A174 4240     neg     r0,r0
0805A176 4008     and     r0,r1
0805A178 70E0     strb    r0,[r4,3h]
0805A17A 4668     mov     r0,r13
0805A17C 7801     ldrb    r1,[r0]
0805A17E 886A     ldrh    r2,[r5,2h]
0805A180 0612     lsl     r2,r2,18h
0805A182 0E12     lsr     r2,r2,18h
0805A184 2000     mov     r0,0h
0805A186 F000F8D3 bl      805A330h
0805A18A 78E1     ldrb    r1,[r4,3h]
0805A18C 2080     mov     r0,80h
0805A18E 4008     and     r0,r1
0805A190 2800     cmp     r0,0h
0805A192 D100     bne     805A196h
0805A194 E0A8     b       805A2E8h
0805A196 78A0     ldrb    r0,[r4,2h]
0805A198 7821     ldrb    r1,[r4]
0805A19A 1840     add     r0,r0,r1
0805A19C 466D     mov     r5,r13
0805A19E 8068     strh    r0,[r5,2h]
0805A1A0 886A     ldrh    r2,[r5,2h]
0805A1A2 4B12     ldr     r3,=300009Ch
0805A1A4 8BD8     ldrh    r0,[r3,1Eh]
0805A1A6 3802     sub     r0,2h
0805A1A8 4282     cmp     r2,r0
0805A1AA DB00     blt     805A1AEh
0805A1AC E087     b       805A2BEh
0805A1AE 8B98     ldrh    r0,[r3,1Ch]
0805A1B0 4669     mov     r1,r13
0805A1B2 4350     mul     r0,r2
0805A1B4 8809     ldrh    r1,[r1]
0805A1B6 1840     add     r0,r0,r1
0805A1B8 6999     ldr     r1,[r3,18h]
0805A1BA 0040     lsl     r0,r0,1h
0805A1BC 1840     add     r0,r0,r1
0805A1BE 8802     ldrh    r2,[r0]
0805A1C0 480B     ldr     r0,=3005450h
0805A1C2 6881     ldr     r1,[r0,8h]
0805A1C4 0050     lsl     r0,r2,1h
0805A1C6 1840     add     r0,r0,r1
0805A1C8 88A9     ldrh    r1,[r5,4h]
0805A1CA 8800     ldrh    r0,[r0]
0805A1CC 4281     cmp     r1,r0
0805A1CE D071     beq     805A2B4h
0805A1D0 78E1     ldrb    r1,[r4,3h]
0805A1D2 207F     mov     r0,7Fh
0805A1D4 4008     and     r0,r1
0805A1D6 70E0     strb    r0,[r4,3h]
0805A1D8 4668     mov     r0,r13
0805A1DA 7801     ldrb    r1,[r0]
0805A1DC 886A     ldrh    r2,[r5,2h]
0805A1DE 0612     lsl     r2,r2,18h
0805A1E0 0E12     lsr     r2,r2,18h
0805A1E2 2001     mov     r0,1h
0805A1E4 F000F8A4 bl      805A330h
0805A1E8 E07E     b       805A2E8h
0805A1EA 0000     lsl     r0,r0,0h
0805A1EC 009C     lsl     r4,r3,2h
0805A1EE 0300     lsl     r0,r0,0Ch
0805A1F0 5450     strb    r0,[r2,r1]
0805A1F2 0300     lsl     r0,r0,0Ch
0805A1F4 78A0     ldrb    r0,[r4,2h]
0805A1F6 8068     strh    r0,[r5,2h]
0805A1F8 78E1     ldrb    r1,[r4,3h]
0805A1FA 2040     mov     r0,40h
0805A1FC 4008     and     r0,r1
0805A1FE 2800     cmp     r0,0h
0805A200 D037     beq     805A272h
0805A202 7860     ldrb    r0,[r4,1h]
0805A204 7821     ldrb    r1,[r4]
0805A206 1A40     sub     r0,r0,r1
0805A208 4669     mov     r1,r13
0805A20A 8008     strh    r0,[r1]
0805A20C 0400     lsl     r0,r0,10h
0805A20E 0C00     lsr     r0,r0,10h
0805A210 2801     cmp     r0,1h
0805A212 D917     bls     805A244h
0805A214 4B0E     ldr     r3,=300009Ch
0805A216 886A     ldrh    r2,[r5,2h]
0805A218 8B98     ldrh    r0,[r3,1Ch]
0805A21A 4669     mov     r1,r13
0805A21C 4350     mul     r0,r2
0805A21E 8809     ldrh    r1,[r1]
0805A220 1840     add     r0,r0,r1
0805A222 6999     ldr     r1,[r3,18h]
0805A224 0040     lsl     r0,r0,1h
0805A226 1840     add     r0,r0,r1
0805A228 8802     ldrh    r2,[r0]
0805A22A 480A     ldr     r0,=3005450h
0805A22C 6881     ldr     r1,[r0,8h]
0805A22E 0050     lsl     r0,r2,1h
0805A230 1840     add     r0,r0,r1
0805A232 88A9     ldrh    r1,[r5,4h]
0805A234 8800     ldrh    r0,[r0]
0805A236 4281     cmp     r1,r0
0805A238 D10E     bne     805A258h
0805A23A 4668     mov     r0,r13
0805A23C F7FFF842 bl      80592C4h
0805A240 2800     cmp     r0,0h
0805A242 D116     bne     805A272h
0805A244 78E1     ldrb    r1,[r4,3h]
0805A246 2041     mov     r0,41h
0805A248 4240     neg     r0,r0
0805A24A 4008     and     r0,r1
0805A24C 70E0     strb    r0,[r4,3h]
0805A24E E010     b       805A272h
0805A250 009C     lsl     r4,r3,2h
0805A252 0300     lsl     r0,r0,0Ch
0805A254 5450     strb    r0,[r2,r1]
0805A256 0300     lsl     r0,r0,0Ch
0805A258 78E1     ldrb    r1,[r4,3h]
0805A25A 2041     mov     r0,41h
0805A25C 4240     neg     r0,r0
0805A25E 4008     and     r0,r1
0805A260 70E0     strb    r0,[r4,3h]
0805A262 4668     mov     r0,r13
0805A264 7801     ldrb    r1,[r0]
0805A266 886A     ldrh    r2,[r5,2h]
0805A268 0612     lsl     r2,r2,18h
0805A26A 0E12     lsr     r2,r2,18h
0805A26C 2002     mov     r0,2h
0805A26E F000F85F bl      805A330h
0805A272 78E1     ldrb    r1,[r4,3h]
0805A274 2080     mov     r0,80h
0805A276 4008     and     r0,r1
0805A278 2800     cmp     r0,0h
0805A27A D035     beq     805A2E8h
0805A27C 7860     ldrb    r0,[r4,1h]
0805A27E 7821     ldrb    r1,[r4]
0805A280 1840     add     r0,r0,r1
0805A282 4669     mov     r1,r13
0805A284 8008     strh    r0,[r1]
0805A286 4668     mov     r0,r13
0805A288 8802     ldrh    r2,[r0]
0805A28A 4D0F     ldr     r5,=300009Ch
0805A28C 8BA9     ldrh    r1,[r5,1Ch]
0805A28E 1E88     sub     r0,r1,2
0805A290 4282     cmp     r2,r0
0805A292 DA14     bge     805A2BEh
0805A294 466B     mov     r3,r13
0805A296 8858     ldrh    r0,[r3,2h]
0805A298 4348     mul     r0,r1
0805A29A 1880     add     r0,r0,r2
0805A29C 69A9     ldr     r1,[r5,18h]
0805A29E 0040     lsl     r0,r0,1h
0805A2A0 1840     add     r0,r0,r1
0805A2A2 8802     ldrh    r2,[r0]
0805A2A4 4809     ldr     r0,=3005450h
0805A2A6 6881     ldr     r1,[r0,8h]
0805A2A8 0050     lsl     r0,r2,1h
0805A2AA 1840     add     r0,r0,r1
0805A2AC 8899     ldrh    r1,[r3,4h]
0805A2AE 8800     ldrh    r0,[r0]
0805A2B0 4281     cmp     r1,r0
0805A2B2 D10D     bne     805A2D0h
0805A2B4 4668     mov     r0,r13
0805A2B6 F7FFF805 bl      80592C4h
0805A2BA 2800     cmp     r0,0h
0805A2BC D114     bne     805A2E8h
0805A2BE 78E1     ldrb    r1,[r4,3h]
0805A2C0 207F     mov     r0,7Fh
0805A2C2 4008     and     r0,r1
0805A2C4 70E0     strb    r0,[r4,3h]
0805A2C6 E00F     b       805A2E8h
0805A2C8 009C     lsl     r4,r3,2h
0805A2CA 0300     lsl     r0,r0,0Ch
0805A2CC 5450     strb    r0,[r2,r1]
0805A2CE 0300     lsl     r0,r0,0Ch
0805A2D0 78E1     ldrb    r1,[r4,3h]
0805A2D2 207F     mov     r0,7Fh
0805A2D4 4008     and     r0,r1
0805A2D6 70E0     strb    r0,[r4,3h]
0805A2D8 4668     mov     r0,r13
0805A2DA 7801     ldrb    r1,[r0]
0805A2DC 885A     ldrh    r2,[r3,2h]
0805A2DE 0612     lsl     r2,r2,18h
0805A2E0 0E12     lsr     r2,r2,18h
0805A2E2 2003     mov     r0,3h
0805A2E4 F000F824 bl      805A330h
0805A2E8 78E0     ldrb    r0,[r4,3h]
0805A2EA 21C0     mov     r1,0C0h
0805A2EC 4001     and     r1,r0
0805A2EE 2900     cmp     r1,0h
0805A2F0 D003     beq     805A2FAh
0805A2F2 7820     ldrb    r0,[r4]
0805A2F4 3001     add     r0,1h
0805A2F6 7020     strb    r0,[r4]
0805A2F8 E012     b       805A320h
0805A2FA 7021     strb    r1,[r4]
0805A2FC 4A0A     ldr     r2,=30056BCh
0805A2FE 490B     ldr     r1,=8345C28h
0805A300 6820     ldr     r0,[r4]
0805A302 0140     lsl     r0,r0,5h
0805A304 0F40     lsr     r0,r0,1Dh
0805A306 0080     lsl     r0,r0,2h
0805A308 1840     add     r0,r0,r1
0805A30A 7801     ldrb    r1,[r0]
0805A30C 7810     ldrb    r0,[r2]
0805A30E 4388     bic     r0,r1
0805A310 7010     strb    r0,[r2]
0805A312 2800     cmp     r0,0h
0805A314 D104     bne     805A320h
0805A316 209B     mov     r0,09Bh
0805A318 0040     lsl     r0,r0,1h
0805A31A 210A     mov     r1,0Ah
0805A31C F7A8FCB0 bl      8002C80h
0805A320 B002     add     sp,8h
0805A322 BC30     pop     r4,r5
0805A324 BC01     pop     r0
0805A326 4700     bx      r0
0805A328 56BC     ldsb    r4,[r7,r2]
0805A32A 0300     lsl     r0,r0,0Ch
0805A32C 5C28     ldrb    r0,[r5,r0]
0805A32E 0834     lsr     r4,r6,20h
0805A330 B5F0     push    r4-r7,lr
0805A332 4657     mov     r7,r10
0805A334 464E     mov     r6,r9
0805A336 4645     mov     r5,r8
0805A338 B4E0     push    r5-r7
0805A33A 0600     lsl     r0,r0,18h
0805A33C 0E05     lsr     r5,r0,18h
0805A33E 0609     lsl     r1,r1,18h
0805A340 0E09     lsr     r1,r1,18h
0805A342 4689     mov     r9,r1
0805A344 0612     lsl     r2,r2,18h
0805A346 0E12     lsr     r2,r2,18h
0805A348 4690     mov     r8,r2
0805A34A 4922     ldr     r1,=3000079h
0805A34C 200F     mov     r0,0Fh
0805A34E 7008     strb    r0,[r1]
0805A350 4C21     ldr     r4,=300009Ch
0805A352 8BA0     ldrh    r0,[r4,1Ch]
0805A354 4641     mov     r1,r8
0805A356 4341     mul     r1,r0
0805A358 1C08     mov     r0,r1
0805A35A 4448     add     r0,r9
0805A35C 69A1     ldr     r1,[r4,18h]
0805A35E 0040     lsl     r0,r0,1h
0805A360 1840     add     r0,r0,r1
0805A362 8802     ldrh    r2,[r0]
0805A364 2A00     cmp     r2,0h
0805A366 D003     beq     805A370h
0805A368 4640     mov     r0,r8
0805A36A 4649     mov     r1,r9
0805A36C F7FFFA86 bl      805987Ch
0805A370 2600     mov     r6,0h
0805A372 46A2     mov     r10,r4
0805A374 00AF     lsl     r7,r5,2h
0805A376 4A19     ldr     r2,=8345CDEh
0805A378 18BD     add     r5,r7,r2
0805A37A 0070     lsl     r0,r6,1h
0805A37C 1C79     add     r1,r7,1
0805A37E 1840     add     r0,r0,r1
0805A380 4916     ldr     r1,=8345CDEh
0805A382 1840     add     r0,r0,r1
0805A384 7800     ldrb    r0,[r0]
0805A386 0600     lsl     r0,r0,18h
0805A388 1600     asr     r0,r0,18h
0805A38A 4642     mov     r2,r8
0805A38C 1814     add     r4,r2,r0
0805A38E 4651     mov     r1,r10
0805A390 8B88     ldrh    r0,[r1,1Ch]
0805A392 4360     mul     r0,r4
0805A394 2100     mov     r1,0h
0805A396 5669     ldsb    r1,[r5,r1]
0805A398 464A     mov     r2,r9
0805A39A 1853     add     r3,r2,r1
0805A39C 18C0     add     r0,r0,r3
0805A39E 4652     mov     r2,r10
0805A3A0 6991     ldr     r1,[r2,18h]
0805A3A2 0040     lsl     r0,r0,1h
0805A3A4 1840     add     r0,r0,r1
0805A3A6 8802     ldrh    r2,[r0]
0805A3A8 2A00     cmp     r2,0h
0805A3AA D005     beq     805A3B8h
0805A3AC 0420     lsl     r0,r4,10h
0805A3AE 0C00     lsr     r0,r0,10h
0805A3B0 0419     lsl     r1,r3,10h
0805A3B2 0C09     lsr     r1,r1,10h
0805A3B4 F7FFFA62 bl      805987Ch
0805A3B8 3502     add     r5,2h
0805A3BA 3601     add     r6,1h
0805A3BC 2E01     cmp     r6,1h
0805A3BE DDDC     ble     805A37Ah
0805A3C0 4904     ldr     r1,=3000079h
0805A3C2 2000     mov     r0,0h
0805A3C4 7008     strb    r0,[r1]
0805A3C6 BC38     pop     r3-r5
0805A3C8 4698     mov     r8,r3
0805A3CA 46A1     mov     r9,r4
0805A3CC 46AA     mov     r10,r5
0805A3CE BCF0     pop     r4-r7
0805A3D0 BC01     pop     r0
0805A3D2 4700     bx      r0
0805A3D4 0079     lsl     r1,r7,1h
0805A3D6 0300     lsl     r0,r0,0Ch
0805A3D8 009C     lsl     r4,r3,2h
0805A3DA 0300     lsl     r0,r0,0Ch
0805A3DC 5CDE     ldrb    r6,[r3,r3]
0805A3DE 0834     lsr     r4,r6,20h
0805A3E0 B5F0     push    r4-r7,lr
0805A3E2 0400     lsl     r0,r0,10h
0805A3E4 0C04     lsr     r4,r0,10h
0805A3E6 1C26     mov     r6,r4
0805A3E8 0409     lsl     r1,r1,10h
0805A3EA 0C0D     lsr     r5,r1,10h
0805A3EC 1C2F     mov     r7,r5
0805A3EE 4A1F     ldr     r2,=300009Ch
0805A3F0 8B90     ldrh    r0,[r2,1Ch]
0805A3F2 1C21     mov     r1,r4
0805A3F4 4341     mul     r1,r0
0805A3F6 1C08     mov     r0,r1
0805A3F8 1828     add     r0,r5,r0
0805A3FA 0400     lsl     r0,r0,10h
0805A3FC 6991     ldr     r1,[r2,18h]
0805A3FE 0BC0     lsr     r0,r0,0Fh
0805A400 1841     add     r1,r0,r1
0805A402 2300     mov     r3,0h
0805A404 800B     strh    r3,[r1]
0805A406 6891     ldr     r1,[r2,8h]
0805A408 1840     add     r0,r0,r1
0805A40A 8003     strh    r3,[r0]
0805A40C 4818     ldr     r0,=30013BAh
0805A40E 8800     ldrh    r0,[r0]
0805A410 0981     lsr     r1,r0,6h
0805A412 1F08     sub     r0,r1,4
0805A414 42A0     cmp     r0,r4
0805A416 DC26     bgt     805A466h
0805A418 3011     add     r0,11h
0805A41A 4284     cmp     r4,r0
0805A41C DC23     bgt     805A466h
0805A41E 4815     ldr     r0,=30013B8h
0805A420 8800     ldrh    r0,[r0]
0805A422 0981     lsr     r1,r0,6h
0805A424 1F08     sub     r0,r1,4
0805A426 42A8     cmp     r0,r5
0805A428 DC1D     bgt     805A466h
0805A42A 3016     add     r0,16h
0805A42C 4285     cmp     r5,r0
0805A42E DC1A     bgt     805A466h
0805A430 4B11     ldr     r3,=6001000h
0805A432 2010     mov     r0,10h
0805A434 4028     and     r0,r5
0805A436 2800     cmp     r0,0h
0805A438 D000     beq     805A43Ch
0805A43A 4B10     ldr     r3,=6001800h
0805A43C 210F     mov     r1,0Fh
0805A43E 400E     and     r6,r1
0805A440 01B0     lsl     r0,r6,6h
0805A442 400F     and     r7,r1
0805A444 0079     lsl     r1,r7,1h
0805A446 1840     add     r0,r0,r1
0805A448 0040     lsl     r0,r0,1h
0805A44A 181B     add     r3,r3,r0
0805A44C 480C     ldr     r0,=3005450h
0805A44E 6801     ldr     r1,[r0]
0805A450 8808     ldrh    r0,[r1]
0805A452 8018     strh    r0,[r3]
0805A454 8848     ldrh    r0,[r1,2h]
0805A456 8058     strh    r0,[r3,2h]
0805A458 1C1A     mov     r2,r3
0805A45A 3240     add     r2,40h
0805A45C 8888     ldrh    r0,[r1,4h]
0805A45E 8010     strh    r0,[r2]
0805A460 3202     add     r2,2h
0805A462 88C8     ldrh    r0,[r1,6h]
0805A464 8010     strh    r0,[r2]
0805A466 BCF0     pop     r4-r7
0805A468 BC01     pop     r0
0805A46A 4700     bx      r0
0805A46C 009C     lsl     r4,r3,2h
0805A46E 0300     lsl     r0,r0,0Ch
0805A470 13BA     asr     r2,r7,0Eh
0805A472 0300     lsl     r0,r0,0Ch
0805A474 13B8     asr     r0,r7,0Eh
0805A476 0300     lsl     r0,r0,0Ch
0805A478 1000     asr     r0,r0,20h
0805A47A 0600     lsl     r0,r0,18h
0805A47C 1800     add     r0,r0,r0
0805A47E 0600     lsl     r0,r0,18h
0805A480 5450     strb    r0,[r2,r1]
0805A482 0300     lsl     r0,r0,0Ch
0805A484 B5F0     push    r4-r7,lr
0805A486 0600     lsl     r0,r0,18h
0805A488 0E05     lsr     r5,r0,18h
0805A48A 0409     lsl     r1,r1,10h
0805A48C 0C09     lsr     r1,r1,10h
0805A48E 468C     mov     r12,r1
0805A490 0412     lsl     r2,r2,10h
0805A492 0C12     lsr     r2,r2,10h
0805A494 1C16     mov     r6,r2
0805A496 041B     lsl     r3,r3,10h
0805A498 0C1B     lsr     r3,r3,10h
0805A49A 1C1F     mov     r7,r3
0805A49C 482A     ldr     r0,=300009Ch
0805A49E 00E9     lsl     r1,r5,3h
0805A4A0 1809     add     r1,r1,r0
0805A4A2 8888     ldrh    r0,[r1,4h]
0805A4A4 4350     mul     r0,r2
0805A4A6 18C0     add     r0,r0,r3
0805A4A8 6809     ldr     r1,[r1]
0805A4AA 0040     lsl     r0,r0,1h
0805A4AC 1840     add     r0,r0,r1
0805A4AE 4661     mov     r1,r12
0805A4B0 8001     strh    r1,[r0]
0805A4B2 4826     ldr     r0,=30013BAh
0805A4B4 8800     ldrh    r0,[r0]
0805A4B6 0984     lsr     r4,r0,6h
0805A4B8 1F20     sub     r0,r4,4
0805A4BA 4290     cmp     r0,r2
0805A4BC DC40     bgt     805A540h
0805A4BE 3011     add     r0,11h
0805A4C0 4282     cmp     r2,r0
0805A4C2 DC3D     bgt     805A540h
0805A4C4 4822     ldr     r0,=30013B8h
0805A4C6 8800     ldrh    r0,[r0]
0805A4C8 0984     lsr     r4,r0,6h
0805A4CA 1F20     sub     r0,r4,4
0805A4CC 4298     cmp     r0,r3
0805A4CE DC37     bgt     805A540h
0805A4D0 3016     add     r0,16h
0805A4D2 4283     cmp     r3,r0
0805A4D4 DC34     bgt     805A540h
0805A4D6 0329     lsl     r1,r5,0Ch
0805A4D8 20C0     mov     r0,0C0h
0805A4DA 04C0     lsl     r0,r0,13h
0805A4DC 180D     add     r5,r1,r0
0805A4DE 2010     mov     r0,10h
0805A4E0 4018     and     r0,r3
0805A4E2 2800     cmp     r0,0h
0805A4E4 D001     beq     805A4EAh
0805A4E6 481B     ldr     r0,=6000800h
0805A4E8 180D     add     r5,r1,r0
0805A4EA 210F     mov     r1,0Fh
0805A4EC 400E     and     r6,r1
0805A4EE 01B0     lsl     r0,r6,6h
0805A4F0 400F     and     r7,r1
0805A4F2 0079     lsl     r1,r7,1h
0805A4F4 1840     add     r0,r0,r1
0805A4F6 0040     lsl     r0,r0,1h
0805A4F8 182D     add     r5,r5,r0
0805A4FA 4661     mov     r1,r12
0805A4FC 0488     lsl     r0,r1,12h
0805A4FE 0C04     lsr     r4,r0,10h
0805A500 1C21     mov     r1,r4
0805A502 4B15     ldr     r3,=3005450h
0805A504 2001     mov     r0,1h
0805A506 4304     orr     r4,r0
0805A508 1C22     mov     r2,r4
0805A50A 681B     ldr     r3,[r3]
0805A50C 0049     lsl     r1,r1,1h
0805A50E 18C9     add     r1,r1,r3
0805A510 8808     ldrh    r0,[r1]
0805A512 8028     strh    r0,[r5]
0805A514 1C50     add     r0,r2,1
0805A516 0400     lsl     r0,r0,10h
0805A518 0C04     lsr     r4,r0,10h
0805A51A 1C21     mov     r1,r4
0805A51C 0052     lsl     r2,r2,1h
0805A51E 18D2     add     r2,r2,r3
0805A520 8810     ldrh    r0,[r2]
0805A522 8068     strh    r0,[r5,2h]
0805A524 1C2A     mov     r2,r5
0805A526 3240     add     r2,40h
0805A528 1C48     add     r0,r1,1
0805A52A 0400     lsl     r0,r0,10h
0805A52C 0049     lsl     r1,r1,1h
0805A52E 18C9     add     r1,r1,r3
0805A530 8809     ldrh    r1,[r1]
0805A532 8011     strh    r1,[r2]
0805A534 1C29     mov     r1,r5
0805A536 3142     add     r1,42h
0805A538 0BC0     lsr     r0,r0,0Fh
0805A53A 18C0     add     r0,r0,r3
0805A53C 8800     ldrh    r0,[r0]
0805A53E 8008     strh    r0,[r1]
0805A540 BCF0     pop     r4-r7
0805A542 BC01     pop     r0
0805A544 4700     bx      r0
0805A546 0000     lsl     r0,r0,0h
0805A548 009C     lsl     r4,r3,2h
0805A54A 0300     lsl     r0,r0,0Ch
0805A54C 13BA     asr     r2,r7,0Eh
0805A54E 0300     lsl     r0,r0,0Ch
0805A550 13B8     asr     r0,r7,0Eh
0805A552 0300     lsl     r0,r0,0Ch
0805A554 0800     lsr     r0,r0,20h
0805A556 0600     lsl     r0,r0,18h
0805A558 5450     strb    r0,[r2,r1]
0805A55A 0300     lsl     r0,r0,0Ch
0805A55C B5F0     push    r4-r7,lr
0805A55E 0400     lsl     r0,r0,10h
0805A560 0C00     lsr     r0,r0,10h
0805A562 4684     mov     r12,r0
0805A564 0409     lsl     r1,r1,10h
0805A566 0C0B     lsr     r3,r1,10h
0805A568 1C1E     mov     r6,r3
0805A56A 0412     lsl     r2,r2,10h
0805A56C 0C12     lsr     r2,r2,10h
0805A56E 1C17     mov     r7,r2
0805A570 4927     ldr     r1,=300009Ch
0805A572 8988     ldrh    r0,[r1,0Ch]
0805A574 4358     mul     r0,r3
0805A576 1880     add     r0,r0,r2
0805A578 6889     ldr     r1,[r1,8h]
0805A57A 0040     lsl     r0,r0,1h
0805A57C 1840     add     r0,r0,r1
0805A57E 4661     mov     r1,r12
0805A580 8001     strh    r1,[r0]
0805A582 4824     ldr     r0,=30013BAh
0805A584 8800     ldrh    r0,[r0]
0805A586 0984     lsr     r4,r0,6h
0805A588 1F20     sub     r0,r4,4
0805A58A 4298     cmp     r0,r3
0805A58C DC3C     bgt     805A608h
0805A58E 3011     add     r0,11h
0805A590 4283     cmp     r3,r0
0805A592 DC39     bgt     805A608h
0805A594 4820     ldr     r0,=30013B8h
0805A596 8800     ldrh    r0,[r0]
0805A598 0984     lsr     r4,r0,6h
0805A59A 1F20     sub     r0,r4,4
0805A59C 4290     cmp     r0,r2
0805A59E DC33     bgt     805A608h
0805A5A0 3016     add     r0,16h
0805A5A2 4282     cmp     r2,r0
0805A5A4 DC30     bgt     805A608h
0805A5A6 4D1D     ldr     r5,=6001000h
0805A5A8 2010     mov     r0,10h
0805A5AA 4010     and     r0,r2
0805A5AC 2800     cmp     r0,0h
0805A5AE D000     beq     805A5B2h
0805A5B0 4D1B     ldr     r5,=6001800h
0805A5B2 210F     mov     r1,0Fh
0805A5B4 400E     and     r6,r1
0805A5B6 01B0     lsl     r0,r6,6h
0805A5B8 400F     and     r7,r1
0805A5BA 0079     lsl     r1,r7,1h
0805A5BC 1840     add     r0,r0,r1
0805A5BE 0040     lsl     r0,r0,1h
0805A5C0 182D     add     r5,r5,r0
0805A5C2 4661     mov     r1,r12
0805A5C4 0488     lsl     r0,r1,12h
0805A5C6 0C04     lsr     r4,r0,10h
0805A5C8 1C21     mov     r1,r4
0805A5CA 4B16     ldr     r3,=3005450h
0805A5CC 2001     mov     r0,1h
0805A5CE 4304     orr     r4,r0
0805A5D0 1C22     mov     r2,r4
0805A5D2 681B     ldr     r3,[r3]
0805A5D4 0049     lsl     r1,r1,1h
0805A5D6 18C9     add     r1,r1,r3
0805A5D8 8808     ldrh    r0,[r1]
0805A5DA 8028     strh    r0,[r5]
0805A5DC 1C50     add     r0,r2,1
0805A5DE 0400     lsl     r0,r0,10h
0805A5E0 0C04     lsr     r4,r0,10h
0805A5E2 1C21     mov     r1,r4
0805A5E4 0052     lsl     r2,r2,1h
0805A5E6 18D2     add     r2,r2,r3
0805A5E8 8810     ldrh    r0,[r2]
0805A5EA 8068     strh    r0,[r5,2h]
0805A5EC 1C2A     mov     r2,r5
0805A5EE 3240     add     r2,40h
0805A5F0 1C48     add     r0,r1,1
0805A5F2 0400     lsl     r0,r0,10h
0805A5F4 0049     lsl     r1,r1,1h
0805A5F6 18C9     add     r1,r1,r3
0805A5F8 8809     ldrh    r1,[r1]
0805A5FA 8011     strh    r1,[r2]
0805A5FC 1C29     mov     r1,r5
0805A5FE 3142     add     r1,42h
0805A600 0BC0     lsr     r0,r0,0Fh
0805A602 18C0     add     r0,r0,r3
0805A604 8800     ldrh    r0,[r0]
0805A606 8008     strh    r0,[r1]
0805A608 BCF0     pop     r4-r7
0805A60A BC01     pop     r0
0805A60C 4700     bx      r0
0805A60E 0000     lsl     r0,r0,0h
0805A610 009C     lsl     r4,r3,2h
0805A612 0300     lsl     r0,r0,0Ch
0805A614 13BA     asr     r2,r7,0Eh
0805A616 0300     lsl     r0,r0,0Ch
0805A618 13B8     asr     r0,r7,0Eh
0805A61A 0300     lsl     r0,r0,0Ch
0805A61C 1000     asr     r0,r0,20h
0805A61E 0600     lsl     r0,r0,18h
0805A620 1800     add     r0,r0,r0
0805A622 0600     lsl     r0,r0,18h
0805A624 5450     strb    r0,[r2,r1]
0805A626 0300     lsl     r0,r0,0Ch
0805A628 B510     push    r4,lr
0805A62A 0409     lsl     r1,r1,10h
0805A62C 0C09     lsr     r1,r1,10h
0805A62E 0412     lsl     r2,r2,10h
0805A630 0C12     lsr     r2,r2,10h
0805A632 4C05     ldr     r4,=300009Ch
0805A634 89A3     ldrh    r3,[r4,0Ch]
0805A636 4359     mul     r1,r3
0805A638 1889     add     r1,r1,r2
0805A63A 68A2     ldr     r2,[r4,8h]
0805A63C 0049     lsl     r1,r1,1h
0805A63E 1889     add     r1,r1,r2
0805A640 8008     strh    r0,[r1]
0805A642 BC10     pop     r4
0805A644 BC01     pop     r0
0805A646 4700     bx      r0
0805A648 009C     lsl     r4,r3,2h
0805A64A 0300     lsl     r0,r0,0Ch
0805A64C B510     push    r4,lr
0805A64E 0409     lsl     r1,r1,10h
0805A650 0C09     lsr     r1,r1,10h
0805A652 0412     lsl     r2,r2,10h
0805A654 0C12     lsr     r2,r2,10h
0805A656 4C05     ldr     r4,=300009Ch
0805A658 8BA3     ldrh    r3,[r4,1Ch]
0805A65A 4359     mul     r1,r3
0805A65C 1889     add     r1,r1,r2
0805A65E 69A2     ldr     r2,[r4,18h]
0805A660 0049     lsl     r1,r1,1h
0805A662 1889     add     r1,r1,r2
0805A664 8008     strh    r0,[r1]
0805A666 BC10     pop     r4
0805A668 BC01     pop     r0
0805A66A 4700     bx      r0
0805A66C 009C     lsl     r4,r3,2h
0805A66E 0300     lsl     r0,r0,0Ch
0805A670 B500     push    lr
0805A672 2000     mov     r0,0h
0805A674 F000FBD2 bl      805AE1Ch
0805A678 4803     ldr     r0,=30013D4h
0805A67A 7800     ldrb    r0,[r0]
0805A67C 281D     cmp     r0,1Dh
0805A67E D105     bne     805A68Ch
0805A680 F000F912 bl      805A8A8h
0805A684 E01C     b       805A6C0h
0805A686 0000     lsl     r0,r0,0h
0805A688 13D4     asr     r4,r2,0Fh
0805A68A 0300     lsl     r0,r0,0Ch
0805A68C 4806     ldr     r0,=3000048h
0805A68E 7800     ldrb    r0,[r0]
0805A690 2800     cmp     r0,0h
0805A692 D115     bne     805A6C0h
0805A694 4805     ldr     r0,=3000C77h
0805A696 7801     ldrb    r1,[r0]
0805A698 2001     mov     r0,1h
0805A69A 4008     and     r0,r1
0805A69C 2800     cmp     r0,0h
0805A69E D007     beq     805A6B0h
0805A6A0 F000F964 bl      805A96Ch
0805A6A4 E00A     b       805A6BCh
0805A6A6 0000     lsl     r0,r0,0h
0805A6A8 0048     lsl     r0,r1,1h
0805A6AA 0300     lsl     r0,r0,0Ch
0805A6AC 0C77     lsr     r7,r6,11h
0805A6AE 0300     lsl     r0,r0,0Ch
0805A6B0 4804     ldr     r0,=300004Ch
0805A6B2 7800     ldrb    r0,[r0]
0805A6B4 2800     cmp     r0,0h
0805A6B6 D101     bne     805A6BCh
0805A6B8 F000F806 bl      805A6C8h
0805A6BC F000F870 bl      805A7A0h
0805A6C0 BC01     pop     r0
0805A6C2 4700     bx      r0
0805A6C4 004C     lsl     r4,r1,1h
0805A6C6 0300     lsl     r0,r0,0Ch
0805A6C8 B530     push    r4,r5,lr
0805A6CA 480B     ldr     r0,=30013D4h
0805A6CC 8A42     ldrh    r2,[r0,12h]
0805A6CE 1C05     mov     r5,r0
0805A6D0 490A     ldr     r1,=300009Ch
0805A6D2 8B88     ldrh    r0,[r1,1Ch]
0805A6D4 0180     lsl     r0,r0,6h
0805A6D6 1C0C     mov     r4,r1
0805A6D8 4282     cmp     r2,r0
0805A6DA DD00     ble     805A6DEh
0805A6DC 1C02     mov     r2,r0
0805A6DE 1193     asr     r3,r2,6h
0805A6E0 4807     ldr     r0,=3001588h
0805A6E2 3070     add     r0,70h
0805A6E4 8800     ldrh    r0,[r0]
0805A6E6 0400     lsl     r0,r0,10h
0805A6E8 1440     asr     r0,r0,11h
0805A6EA 8AAD     ldrh    r5,[r5,14h]
0805A6EC 1942     add     r2,r0,r5
0805A6EE 2A00     cmp     r2,0h
0805A6F0 DA08     bge     805A704h
0805A6F2 2200     mov     r2,0h
0805A6F4 E00B     b       805A70Eh
0805A6F6 0000     lsl     r0,r0,0h
0805A6F8 13D4     asr     r4,r2,0Fh
0805A6FA 0300     lsl     r0,r0,0Ch
0805A6FC 009C     lsl     r4,r3,2h
0805A6FE 0300     lsl     r0,r0,0Ch
0805A700 1588     asr     r0,r1,16h
0805A702 0300     lsl     r0,r0,0Ch
0805A704 8BE0     ldrh    r0,[r4,1Eh]
0805A706 0180     lsl     r0,r0,6h
0805A708 4282     cmp     r2,r0
0805A70A DD00     ble     805A70Eh
0805A70C 1C02     mov     r2,r0
0805A70E 1191     asr     r1,r2,6h
0805A710 4A0F     ldr     r2,=3005450h
0805A712 8BA0     ldrh    r0,[r4,1Ch]
0805A714 4348     mul     r0,r1
0805A716 18C0     add     r0,r0,r3
0805A718 69A1     ldr     r1,[r4,18h]
0805A71A 0040     lsl     r0,r0,1h
0805A71C 1840     add     r0,r0,r1
0805A71E 8800     ldrh    r0,[r0]
0805A720 6891     ldr     r1,[r2,8h]
0805A722 0040     lsl     r0,r0,1h
0805A724 1840     add     r0,r0,r1
0805A726 8801     ldrh    r1,[r0]
0805A728 2900     cmp     r1,0h
0805A72A D01E     beq     805A76Ah
0805A72C 1C08     mov     r0,r1
0805A72E F000F81F bl      805A770h
0805A732 0400     lsl     r0,r0,10h
0805A734 0C01     lsr     r1,r0,10h
0805A736 2900     cmp     r1,0h
0805A738 D017     beq     805A76Ah
0805A73A 4806     ldr     r0,=0FFFFh
0805A73C 4281     cmp     r1,r0
0805A73E D10D     bne     805A75Ch
0805A740 4905     ldr     r1,=30056C4h
0805A742 78C8     ldrb    r0,[r1,3h]
0805A744 7889     ldrb    r1,[r1,2h]
0805A746 2201     mov     r2,1h
0805A748 2301     mov     r3,1h
0805A74A F7FBFA41 bl      8055BD0h
0805A74E E00C     b       805A76Ah
0805A750 5450     strb    r0,[r2,r1]
0805A752 0300     lsl     r0,r0,0Ch
0805A754 FFFF0000 ????
0805A756 0000     lsl     r0,r0,0h
0805A758 56C4     ldsb    r4,[r0,r3]
0805A75A 0300     lsl     r0,r0,0Ch
0805A75C 20FF     mov     r0,0FFh
0805A75E 4008     and     r0,r1
0805A760 0A09     lsr     r1,r1,8h
0805A762 2201     mov     r2,1h
0805A764 2301     mov     r3,1h
0805A766 F7FBFA33 bl      8055BD0h
0805A76A BC30     pop     r4,r5
0805A76C BC01     pop     r0
0805A76E 4700     bx      r0
0805A770 B500     push    lr
0805A772 0400     lsl     r0,r0,10h
0805A774 0C01     lsr     r1,r0,10h
0805A776 1C0A     mov     r2,r1
0805A778 3A44     sub     r2,44h
0805A77A 0410     lsl     r0,r2,10h
0805A77C 0C00     lsr     r0,r0,10h
0805A77E 280A     cmp     r0,0Ah
0805A780 D806     bhi     805A790h
0805A782 4902     ldr     r1,=8345CC8h
0805A784 0050     lsl     r0,r2,1h
0805A786 1840     add     r0,r0,r1
0805A788 8800     ldrh    r0,[r0]
0805A78A E005     b       805A798h
0805A78C 5CC8     ldrb    r0,[r1,r3]
0805A78E 0834     lsr     r4,r6,20h
0805A790 2000     mov     r0,0h
0805A792 294F     cmp     r1,4Fh
0805A794 D100     bne     805A798h
0805A796 4801     ldr     r0,=0FFFFh
0805A798 BC02     pop     r1
0805A79A 4708     bx      r1
0805A79C FFFF0000 ????
0805A79E 0000     lsl     r0,r0,0h
0805A7A0 B5F0     push    r4-r7,lr
0805A7A2 4647     mov     r7,r8
0805A7A4 B480     push    r7
0805A7A6 4D2C     ldr     r5,=30013D4h
0805A7A8 2118     mov     r1,18h
0805A7AA 5E68     ldsh    r0,[r5,r1]
0805A7AC 0FC3     lsr     r3,r0,1Fh
0805A7AE 4C2B     ldr     r4,=3001588h
0805A7B0 1C20     mov     r0,r4
0805A7B2 3056     add     r0,56h
0805A7B4 7800     ldrb    r0,[r0]
0805A7B6 2803     cmp     r0,3h
0805A7B8 D100     bne     805A7BCh
0805A7BA 3301     add     r3,1h
0805A7BC 2B00     cmp     r3,0h
0805A7BE D16E     bne     805A89Eh
0805A7C0 8A69     ldrh    r1,[r5,12h]
0805A7C2 1C20     mov     r0,r4
0805A7C4 3072     add     r0,72h
0805A7C6 2200     mov     r2,0h
0805A7C8 5E80     ldsh    r0,[r0,r2]
0805A7CA 180B     add     r3,r1,r0
0805A7CC 0298     lsl     r0,r3,0Ah
0805A7CE 0C06     lsr     r6,r0,10h
0805A7D0 4A23     ldr     r2,=300009Ch
0805A7D2 8B93     ldrh    r3,[r2,1Ch]
0805A7D4 429E     cmp     r6,r3
0805A7D6 D900     bls     805A7DAh
0805A7D8 8B96     ldrh    r6,[r2,1Ch]
0805A7DA 1C20     mov     r0,r4
0805A7DC 306E     add     r0,6Eh
0805A7DE 2300     mov     r3,0h
0805A7E0 5EC0     ldsh    r0,[r0,r3]
0805A7E2 180B     add     r3,r1,r0
0805A7E4 2B00     cmp     r3,0h
0805A7E6 DA00     bge     805A7EAh
0805A7E8 2300     mov     r3,0h
0805A7EA 0298     lsl     r0,r3,0Ah
0805A7EC 0C01     lsr     r1,r0,10h
0805A7EE 1C20     mov     r0,r4
0805A7F0 3074     add     r0,74h
0805A7F2 2300     mov     r3,0h
0805A7F4 5EC0     ldsh    r0,[r0,r3]
0805A7F6 8AAD     ldrh    r5,[r5,14h]
0805A7F8 1943     add     r3,r0,r5
0805A7FA 1C98     add     r0,r3,2
0805A7FC 0280     lsl     r0,r0,0Ah
0805A7FE 0C05     lsr     r5,r0,10h
0805A800 8BD0     ldrh    r0,[r2,1Eh]
0805A802 4285     cmp     r5,r0
0805A804 D900     bls     805A808h
0805A806 8BD5     ldrh    r5,[r2,1Eh]
0805A808 1C0C     mov     r4,r1
0805A80A 42B4     cmp     r4,r6
0805A80C D847     bhi     805A89Eh
0805A80E 4915     ldr     r1,=3005450h
0805A810 4688     mov     r8,r1
0805A812 4F15     ldr     r7,=401h
0805A814 4912     ldr     r1,=300009Ch
0805A816 8B88     ldrh    r0,[r1,1Ch]
0805A818 4368     mul     r0,r5
0805A81A 1900     add     r0,r0,r4
0805A81C 6989     ldr     r1,[r1,18h]
0805A81E 0040     lsl     r0,r0,1h
0805A820 1840     add     r0,r0,r1
0805A822 8800     ldrh    r0,[r0]
0805A824 4642     mov     r2,r8
0805A826 6891     ldr     r1,[r2,8h]
0805A828 0040     lsl     r0,r0,1h
0805A82A 1840     add     r0,r0,r1
0805A82C 8803     ldrh    r3,[r0]
0805A82E 2B23     cmp     r3,23h
0805A830 D11C     bne     805A86Ch
0805A832 2300     mov     r3,0h
0805A834 4908     ldr     r1,=30013D4h
0805A836 7808     ldrb    r0,[r1]
0805A838 2800     cmp     r0,0h
0805A83A D001     beq     805A840h
0805A83C 2812     cmp     r0,12h
0805A83E D103     bne     805A848h
0805A840 7948     ldrb    r0,[r1,5h]
0805A842 2800     cmp     r0,0h
0805A844 D000     beq     805A848h
0805A846 2301     mov     r3,1h
0805A848 061B     lsl     r3,r3,18h
0805A84A 0E1B     lsr     r3,r3,18h
0805A84C 2004     mov     r0,4h
0805A84E 1C21     mov     r1,r4
0805A850 1C2A     mov     r2,r5
0805A852 F7FFFAA9 bl      8059DA8h
0805A856 E01D     b       805A894h
0805A858 13D4     asr     r4,r2,0Fh
0805A85A 0300     lsl     r0,r0,0Ch
0805A85C 1588     asr     r0,r1,16h
0805A85E 0300     lsl     r0,r0,0Ch
0805A860 009C     lsl     r4,r3,2h
0805A862 0300     lsl     r0,r0,0Ch
0805A864 5450     strb    r0,[r2,r1]
0805A866 0300     lsl     r0,r0,0Ch
0805A868 0401     lsl     r1,r0,10h
0805A86A 0000     lsl     r0,r0,0h
0805A86C 2B2E     cmp     r3,2Eh
0805A86E D111     bne     805A894h
0805A870 2005     mov     r0,5h
0805A872 1C21     mov     r1,r4
0805A874 1C2A     mov     r2,r5
0805A876 2301     mov     r3,1h
0805A878 F7FFFA96 bl      8059DA8h
0805A87C 2800     cmp     r0,0h
0805A87E D009     beq     805A894h
0805A880 1C38     mov     r0,r7
0805A882 1C29     mov     r1,r5
0805A884 1C22     mov     r2,r4
0805A886 F7FFFE69 bl      805A55Ch
0805A88A 1C38     mov     r0,r7
0805A88C 1C29     mov     r1,r5
0805A88E 1C22     mov     r2,r4
0805A890 F7FFFEDC bl      805A64Ch
0805A894 1C60     add     r0,r4,1
0805A896 0400     lsl     r0,r0,10h
0805A898 0C04     lsr     r4,r0,10h
0805A89A 42B4     cmp     r4,r6
0805A89C D9BA     bls     805A814h
0805A89E BC08     pop     r3
0805A8A0 4698     mov     r8,r3
0805A8A2 BCF0     pop     r4-r7
0805A8A4 BC01     pop     r0
0805A8A6 4700     bx      r0
0805A8A8 B5F0     push    r4-r7,lr
0805A8AA 4A0E     ldr     r2,=30013D4h
0805A8AC 8A11     ldrh    r1,[r2,10h]
0805A8AE 2040     mov     r0,40h
0805A8B0 4041     eor     r1,r0
0805A8B2 4248     neg     r0,r1
0805A8B4 4308     orr     r0,r1
0805A8B6 0FC7     lsr     r7,r0,1Fh
0805A8B8 8A53     ldrh    r3,[r2,12h]
0805A8BA 490B     ldr     r1,=300009Ch
0805A8BC 8B88     ldrh    r0,[r1,1Ch]
0805A8BE 0180     lsl     r0,r0,6h
0805A8C0 1C0E     mov     r6,r1
0805A8C2 4283     cmp     r3,r0
0805A8C4 DD00     ble     805A8C8h
0805A8C6 1C03     mov     r3,r0
0805A8C8 0298     lsl     r0,r3,0Ah
0805A8CA 0C05     lsr     r5,r0,10h
0805A8CC 2F00     cmp     r7,0h
0805A8CE D10F     bne     805A8F0h
0805A8D0 4806     ldr     r0,=3001588h
0805A8D2 3074     add     r0,74h
0805A8D4 2100     mov     r1,0h
0805A8D6 5E40     ldsh    r0,[r0,r1]
0805A8D8 8A92     ldrh    r2,[r2,14h]
0805A8DA 1880     add     r0,r0,r2
0805A8DC 1C03     mov     r3,r0
0805A8DE 3380     add     r3,80h
0805A8E0 E00E     b       805A900h
0805A8E2 0000     lsl     r0,r0,0h
0805A8E4 13D4     asr     r4,r2,0Fh
0805A8E6 0300     lsl     r0,r0,0Ch
0805A8E8 009C     lsl     r4,r3,2h
0805A8EA 0300     lsl     r0,r0,0Ch
0805A8EC 1588     asr     r0,r1,16h
0805A8EE 0300     lsl     r0,r0,0Ch
0805A8F0 4806     ldr     r0,=3001588h
0805A8F2 3070     add     r0,70h
0805A8F4 2100     mov     r1,0h
0805A8F6 5E40     ldsh    r0,[r0,r1]
0805A8F8 8A92     ldrh    r2,[r2,14h]
0805A8FA 1880     add     r0,r0,r2
0805A8FC 1C03     mov     r3,r0
0805A8FE 3B80     sub     r3,80h
0805A900 0418     lsl     r0,r3,10h
0805A902 0C01     lsr     r1,r0,10h
0805A904 2B00     cmp     r3,0h
0805A906 DA03     bge     805A910h
0805A908 2100     mov     r1,0h
0805A90A E007     b       805A91Ch
0805A90C 1588     asr     r0,r1,16h
0805A90E 0300     lsl     r0,r0,0Ch
0805A910 8BF2     ldrh    r2,[r6,1Eh]
0805A912 0190     lsl     r0,r2,6h
0805A914 4281     cmp     r1,r0
0805A916 DD01     ble     805A91Ch
0805A918 0590     lsl     r0,r2,16h
0805A91A 0C01     lsr     r1,r0,10h
0805A91C 098C     lsr     r4,r1,6h
0805A91E 8BB0     ldrh    r0,[r6,1Ch]
0805A920 4360     mul     r0,r4
0805A922 1940     add     r0,r0,r5
0805A924 69B1     ldr     r1,[r6,18h]
0805A926 0040     lsl     r0,r0,1h
0805A928 1840     add     r0,r0,r1
0805A92A 8803     ldrh    r3,[r0]
0805A92C 4805     ldr     r0,=3005450h
0805A92E 6881     ldr     r1,[r0,8h]
0805A930 0058     lsl     r0,r3,1h
0805A932 1840     add     r0,r0,r1
0805A934 8801     ldrh    r1,[r0]
0805A936 2300     mov     r3,0h
0805A938 2F00     cmp     r7,0h
0805A93A D105     bne     805A948h
0805A93C 2904     cmp     r1,4h
0805A93E D106     bne     805A94Eh
0805A940 E007     b       805A952h
0805A942 0000     lsl     r0,r0,0h
0805A944 5450     strb    r0,[r2,r1]
0805A946 0300     lsl     r0,r0,0Ch
0805A948 2905     cmp     r1,5h
0805A94A D100     bne     805A94Eh
0805A94C 2301     mov     r3,1h
0805A94E 2B00     cmp     r3,0h
0805A950 D009     beq     805A966h
0805A952 1C20     mov     r0,r4
0805A954 1C29     mov     r1,r5
0805A956 F004FA1D bl      805ED94h
0805A95A 2800     cmp     r0,0h
0805A95C D103     bne     805A966h
0805A95E 1C20     mov     r0,r4
0805A960 1C29     mov     r1,r5
0805A962 F004F945 bl      805EBF0h
0805A966 BCF0     pop     r4-r7
0805A968 BC01     pop     r0
0805A96A 4700     bx      r0
0805A96C B5F0     push    r4-r7,lr
0805A96E 4657     mov     r7,r10
0805A970 464E     mov     r6,r9
0805A972 4645     mov     r5,r8
0805A974 B4E0     push    r5-r7
0805A976 B08C     add     sp,-30h
0805A978 4A07     ldr     r2,=3001588h
0805A97A 1C10     mov     r0,r2
0805A97C 3072     add     r0,72h
0805A97E 8800     ldrh    r0,[r0]
0805A980 0400     lsl     r0,r0,10h
0805A982 4906     ldr     r1,=30013D4h
0805A984 1440     asr     r0,r0,11h
0805A986 8A4B     ldrh    r3,[r1,12h]
0805A988 18C4     add     r4,r0,r3
0805A98A 1C13     mov     r3,r2
0805A98C 1C0D     mov     r5,r1
0805A98E 2C00     cmp     r4,0h
0805A990 DA08     bge     805A9A4h
0805A992 2400     mov     r4,0h
0805A994 4E02     ldr     r6,=300009Ch
0805A996 E00C     b       805A9B2h
0805A998 1588     asr     r0,r1,16h
0805A99A 0300     lsl     r0,r0,0Ch
0805A99C 13D4     asr     r4,r2,0Fh
0805A99E 0300     lsl     r0,r0,0Ch
0805A9A0 009C     lsl     r4,r3,2h
0805A9A2 0300     lsl     r0,r0,0Ch
0805A9A4 4909     ldr     r1,=300009Ch
0805A9A6 8B88     ldrh    r0,[r1,1Ch]
0805A9A8 0180     lsl     r0,r0,6h
0805A9AA 1C0E     mov     r6,r1
0805A9AC 4284     cmp     r4,r0
0805A9AE DD00     ble     805A9B2h
0805A9B0 1C04     mov     r4,r0
0805A9B2 11A0     asr     r0,r4,6h
0805A9B4 9009     str     r0,[sp,24h]
0805A9B6 1C18     mov     r0,r3
0805A9B8 306E     add     r0,6Eh
0805A9BA 8800     ldrh    r0,[r0]
0805A9BC 0400     lsl     r0,r0,10h
0805A9BE 1440     asr     r0,r0,11h
0805A9C0 8A69     ldrh    r1,[r5,12h]
0805A9C2 1844     add     r4,r0,r1
0805A9C4 2C00     cmp     r4,0h
0805A9C6 DA03     bge     805A9D0h
0805A9C8 2400     mov     r4,0h
0805A9CA E006     b       805A9DAh
0805A9CC 009C     lsl     r4,r3,2h
0805A9CE 0300     lsl     r0,r0,0Ch
0805A9D0 8BB0     ldrh    r0,[r6,1Ch]
0805A9D2 0180     lsl     r0,r0,6h
0805A9D4 4284     cmp     r4,r0
0805A9D6 DD00     ble     805A9DAh
0805A9D8 1C04     mov     r4,r0
0805A9DA A909     add     r1,sp,24h
0805A9DC 11A0     asr     r0,r4,6h
0805A9DE 6048     str     r0,[r1,4h]
0805A9E0 8A6C     ldrh    r4,[r5,12h]
0805A9E2 8BB0     ldrh    r0,[r6,1Ch]
0805A9E4 0180     lsl     r0,r0,6h
0805A9E6 4284     cmp     r4,r0
0805A9E8 DD00     ble     805A9ECh
0805A9EA 1C04     mov     r4,r0
0805A9EC 11A0     asr     r0,r4,6h
0805A9EE 900B     str     r0,[sp,2Ch]
0805A9F0 1C18     mov     r0,r3
0805A9F2 3070     add     r0,70h
0805A9F4 8800     ldrh    r0,[r0]
0805A9F6 0400     lsl     r0,r0,10h
0805A9F8 1440     asr     r0,r0,11h
0805A9FA 8AAA     ldrh    r2,[r5,14h]
0805A9FC 1884     add     r4,r0,r2
0805A9FE 2C00     cmp     r4,0h
0805AA00 DA01     bge     805AA06h
0805AA02 2400     mov     r4,0h
0805AA04 E004     b       805AA10h
0805AA06 8BF0     ldrh    r0,[r6,1Eh]
0805AA08 0180     lsl     r0,r0,6h
0805AA0A 4284     cmp     r4,r0
0805AA0C DD00     ble     805AA10h
0805AA0E 1C04     mov     r4,r0
0805AA10 11A0     asr     r0,r4,6h
0805AA12 9006     str     r0,[sp,18h]
0805AA14 1C18     mov     r0,r3
0805AA16 3070     add     r0,70h
0805AA18 8800     ldrh    r0,[r0]
0805AA1A 0400     lsl     r0,r0,10h
0805AA1C 1480     asr     r0,r0,12h
0805AA1E 8AA9     ldrh    r1,[r5,14h]
0805AA20 1844     add     r4,r0,r1
0805AA22 2C00     cmp     r4,0h
0805AA24 DA01     bge     805AA2Ah
0805AA26 2400     mov     r4,0h
0805AA28 E004     b       805AA34h
0805AA2A 8BF0     ldrh    r0,[r6,1Eh]
0805AA2C 0180     lsl     r0,r0,6h
0805AA2E 4284     cmp     r4,r0
0805AA30 DD00     ble     805AA34h
0805AA32 1C04     mov     r4,r0
0805AA34 AA06     add     r2,sp,18h
0805AA36 11A0     asr     r0,r4,6h
0805AA38 6050     str     r0,[r2,4h]
0805AA3A 1C18     mov     r0,r3
0805AA3C 3070     add     r0,70h
0805AA3E 8800     ldrh    r0,[r0]
0805AA40 0400     lsl     r0,r0,10h
0805AA42 1481     asr     r1,r0,12h
0805AA44 1440     asr     r0,r0,11h
0805AA46 1809     add     r1,r1,r0
0805AA48 8AAD     ldrh    r5,[r5,14h]
0805AA4A 194C     add     r4,r1,r5
0805AA4C 2C00     cmp     r4,0h
0805AA4E DA01     bge     805AA54h
0805AA50 2400     mov     r4,0h
0805AA52 E004     b       805AA5Eh
0805AA54 8BF0     ldrh    r0,[r6,1Eh]
0805AA56 0180     lsl     r0,r0,6h
0805AA58 4284     cmp     r4,r0
0805AA5A DD00     ble     805AA5Eh
0805AA5C 1C04     mov     r4,r0
0805AA5E 11A0     asr     r0,r4,6h
0805AA60 9008     str     r0,[sp,20h]
0805AA62 4822     ldr     r0,=300009Ch
0805AA64 8B82     ldrh    r2,[r0,1Ch]
0805AA66 4690     mov     r8,r2
0805AA68 6987     ldr     r7,[r0,18h]
0805AA6A 4821     ldr     r0,=3005450h
0805AA6C 6883     ldr     r3,[r0,8h]
0805AA6E AE02     add     r6,sp,8h
0805AA70 AA09     add     r2,sp,24h
0805AA72 2501     mov     r5,1h
0805AA74 9806     ldr     r0,[sp,18h]
0805AA76 4641     mov     r1,r8
0805AA78 4341     mul     r1,r0
0805AA7A 1C08     mov     r0,r1
0805AA7C CA02     ldmia   [r2]!,r1
0805AA7E 1840     add     r0,r0,r1
0805AA80 0040     lsl     r0,r0,1h
0805AA82 19C0     add     r0,r0,r7
0805AA84 8804     ldrh    r4,[r0]
0805AA86 0060     lsl     r0,r4,1h
0805AA88 18C0     add     r0,r0,r3
0805AA8A 8800     ldrh    r0,[r0]
0805AA8C C601     stmia   [r6]!,r0
0805AA8E 3D01     sub     r5,1h
0805AA90 2D00     cmp     r5,0h
0805AA92 DAEF     bge     805AA74h
0805AA94 2500     mov     r5,0h
0805AA96 4815     ldr     r0,=300009Ch
0805AA98 8B82     ldrh    r2,[r0,1Ch]
0805AA9A 4694     mov     r12,r2
0805AA9C 6980     ldr     r0,[r0,18h]
0805AA9E 4680     mov     r8,r0
0805AAA0 4813     ldr     r0,=3005450h
0805AAA2 6886     ldr     r6,[r0,8h]
0805AAA4 AF04     add     r7,sp,10h
0805AAA6 AB07     add     r3,sp,1Ch
0805AAA8 AA09     add     r2,sp,24h
0805AAAA CB01     ldmia   [r3]!,r0
0805AAAC 4661     mov     r1,r12
0805AAAE 4341     mul     r1,r0
0805AAB0 1C08     mov     r0,r1
0805AAB2 6891     ldr     r1,[r2,8h]
0805AAB4 1840     add     r0,r0,r1
0805AAB6 0040     lsl     r0,r0,1h
0805AAB8 4440     add     r0,r8
0805AABA 8804     ldrh    r4,[r0]
0805AABC 0060     lsl     r0,r4,1h
0805AABE 1980     add     r0,r0,r6
0805AAC0 8800     ldrh    r0,[r0]
0805AAC2 C701     stmia   [r7]!,r0
0805AAC4 3501     add     r5,1h
0805AAC6 2D01     cmp     r5,1h
0805AAC8 DDEF     ble     805AAAAh
0805AACA 9902     ldr     r1,[sp,8h]
0805AACC 9A03     ldr     r2,[sp,0Ch]
0805AACE 1C08     mov     r0,r1
0805AAD0 4310     orr     r0,r2
0805AAD2 9B04     ldr     r3,[sp,10h]
0805AAD4 4318     orr     r0,r3
0805AAD6 9D05     ldr     r5,[sp,14h]
0805AAD8 4328     orr     r0,r5
0805AADA 2800     cmp     r0,0h
0805AADC D100     bne     805AAE0h
0805AADE E13E     b       805AD5Eh
0805AAE0 2401     mov     r4,1h
0805AAE2 4264     neg     r4,r4
0805AAE4 2903     cmp     r1,3h
0805AAE6 D105     bne     805AAF4h
0805AAE8 2400     mov     r4,0h
0805AAEA E00E     b       805AB0Ah
0805AAEC 009C     lsl     r4,r3,2h
0805AAEE 0300     lsl     r0,r0,0Ch
0805AAF0 5450     strb    r0,[r2,r1]
0805AAF2 0300     lsl     r0,r0,0Ch
0805AAF4 2A03     cmp     r2,3h
0805AAF6 D101     bne     805AAFCh
0805AAF8 2401     mov     r4,1h
0805AAFA E006     b       805AB0Ah
0805AAFC 2B04     cmp     r3,4h
0805AAFE D101     bne     805AB04h
0805AB00 2402     mov     r4,2h
0805AB02 E002     b       805AB0Ah
0805AB04 2D05     cmp     r5,5h
0805AB06 D100     bne     805AB0Ah
0805AB08 2403     mov     r4,3h
0805AB0A 1C60     add     r0,r4,1
0805AB0C 2800     cmp     r0,0h
0805AB0E D01D     beq     805AB4Ch
0805AB10 490D     ldr     r1,=8345CEEh
0805AB12 0062     lsl     r2,r4,1h
0805AB14 1850     add     r0,r2,r1
0805AB16 7800     ldrb    r0,[r0]
0805AB18 0080     lsl     r0,r0,2h
0805AB1A 466D     mov     r5,r13
0805AB1C 182D     add     r5,r5,r0
0805AB1E 3518     add     r5,18h
0805AB20 8828     ldrh    r0,[r5]
0805AB22 3101     add     r1,1h
0805AB24 1852     add     r2,r2,r1
0805AB26 7811     ldrb    r1,[r2]
0805AB28 0089     lsl     r1,r1,2h
0805AB2A 466C     mov     r4,r13
0805AB2C 1864     add     r4,r4,r1
0805AB2E 3424     add     r4,24h
0805AB30 8821     ldrh    r1,[r4]
0805AB32 F004F85D bl      805EBF0h
0805AB36 2800     cmp     r0,0h
0805AB38 D000     beq     805AB3Ch
0805AB3A E110     b       805AD5Eh
0805AB3C 8828     ldrh    r0,[r5]
0805AB3E 8821     ldrh    r1,[r4]
0805AB40 F004F928 bl      805ED94h
0805AB44 E10B     b       805AD5Eh
0805AB46 0000     lsl     r0,r0,0h
0805AB48 5CEE     ldrb    r6,[r5,r3]
0805AB4A 0834     lsr     r4,r6,20h
0805AB4C 4832     ldr     r0,=3000044h
0805AB4E 7800     ldrb    r0,[r0]
0805AB50 0600     lsl     r0,r0,18h
0805AB52 1600     asr     r0,r0,18h
0805AB54 2800     cmp     r0,0h
0805AB56 D000     beq     805AB5Ah
0805AB58 E101     b       805AD5Eh
0805AB5A 2200     mov     r2,0h
0805AB5C 4692     mov     r10,r2
0805AB5E 2403     mov     r4,3h
0805AB60 AB05     add     r3,sp,14h
0805AB62 4698     mov     r8,r3
0805AB64 482D     ldr     r0,=83459A0h
0805AB66 4681     mov     r9,r0
0805AB68 4641     mov     r1,r8
0805AB6A 6808     ldr     r0,[r1]
0805AB6C 2800     cmp     r0,0h
0805AB6E D100     bne     805AB72h
0805AB70 E0EE     b       805AD50h
0805AB72 3834     sub     r0,34h
0805AB74 280B     cmp     r0,0Bh
0805AB76 D900     bls     805AB7Ah
0805AB78 E0EA     b       805AD50h
0805AB7A 4929     ldr     r1,=8345C48h
0805AB7C 00C0     lsl     r0,r0,3h
0805AB7E 1840     add     r0,r0,r1
0805AB80 7805     ldrb    r5,[r0]
0805AB82 2D00     cmp     r5,0h
0805AB84 D100     bne     805AB88h
0805AB86 E0DD     b       805AD44h
0805AB88 4A26     ldr     r2,=8345CEEh
0805AB8A 0061     lsl     r1,r4,1h
0805AB8C 1C50     add     r0,r2,1
0805AB8E 1808     add     r0,r1,r0
0805AB90 7800     ldrb    r0,[r0]
0805AB92 0080     lsl     r0,r0,2h
0805AB94 466F     mov     r7,r13
0805AB96 183F     add     r7,r7,r0
0805AB98 3724     add     r7,24h
0805AB9A 7838     ldrb    r0,[r7]
0805AB9C 1889     add     r1,r1,r2
0805AB9E 7809     ldrb    r1,[r1]
0805ABA0 0089     lsl     r1,r1,2h
0805ABA2 466E     mov     r6,r13
0805ABA4 1876     add     r6,r6,r1
0805ABA6 3618     add     r6,18h
0805ABA8 7831     ldrb    r1,[r6]
0805ABAA F012F85D bl      806CC68h
0805ABAE 2800     cmp     r0,0h
0805ABB0 D100     bne     805ABB4h
0805ABB2 E0C7     b       805AD44h
0805ABB4 4918     ldr     r1,=3000044h
0805ABB6 2001     mov     r0,1h
0805ABB8 7008     strb    r0,[r1]
0805ABBA 491B     ldr     r1,=3001606h
0805ABBC 22FA     mov     r2,0FAh
0805ABBE 0092     lsl     r2,r2,2h
0805ABC0 1C10     mov     r0,r2
0805ABC2 8008     strh    r0,[r1]
0805ABC4 4919     ldr     r1,=30056A8h
0805ABC6 4643     mov     r3,r8
0805ABC8 6818     ldr     r0,[r3]
0805ABCA 8008     strh    r0,[r1]
0805ABCC 6838     ldr     r0,[r7]
0805ABCE 7088     strb    r0,[r1,2h]
0805ABD0 6830     ldr     r0,[r6]
0805ABD2 70C8     strb    r0,[r1,3h]
0805ABD4 2D01     cmp     r5,1h
0805ABD6 D133     bne     805AC40h
0805ABD8 4648     mov     r0,r9
0805ABDA 7F43     ldrb    r3,[r0,1Dh]
0805ABDC 4E14     ldr     r6,=83459C4h
0805ABDE 4D15     ldr     r5,=300002Ch
0805ABE0 7828     ldrb    r0,[r5]
0805ABE2 0080     lsl     r0,r0,2h
0805ABE4 1980     add     r0,r0,r6
0805ABE6 7842     ldrb    r2,[r0,1h]
0805ABE8 4913     ldr     r1,=83459C0h
0805ABEA 1C18     mov     r0,r3
0805ABEC 4350     mul     r0,r2
0805ABEE 7849     ldrb    r1,[r1,1h]
0805ABF0 1840     add     r0,r0,r1
0805ABF2 4B12     ldr     r3,=3001530h
0805ABF4 8859     ldrh    r1,[r3,2h]
0805ABF6 188A     add     r2,r1,r2
0805ABF8 4290     cmp     r0,r2
0805ABFA DA00     bge     805ABFEh
0805ABFC E08A     b       805AD14h
0805ABFE 2900     cmp     r1,0h
0805AC00 D101     bne     805AC06h
0805AC02 2101     mov     r1,1h
0805AC04 468A     mov     r10,r1
0805AC06 805A     strh    r2,[r3,2h]
0805AC08 7829     ldrb    r1,[r5]
0805AC0A 0089     lsl     r1,r1,2h
0805AC0C 1989     add     r1,r1,r6
0805AC0E 8918     ldrh    r0,[r3,8h]
0805AC10 7849     ldrb    r1,[r1,1h]
0805AC12 1840     add     r0,r0,r1
0805AC14 8118     strh    r0,[r3,8h]
0805AC16 E07D     b       805AD14h
0805AC18 0044     lsl     r4,r0,1h
0805AC1A 0300     lsl     r0,r0,0Ch
0805AC1C 59A0     ldr     r0,[r4,r6]
0805AC1E 0834     lsr     r4,r6,20h
0805AC20 5C48     ldrb    r0,[r1,r1]
0805AC22 0834     lsr     r4,r6,20h
0805AC24 5CEE     ldrb    r6,[r5,r3]
0805AC26 0834     lsr     r4,r6,20h
0805AC28 1606     asr     r6,r0,18h
0805AC2A 0300     lsl     r0,r0,0Ch
0805AC2C 56A8     ldsb    r0,[r5,r2]
0805AC2E 0300     lsl     r0,r0,0Ch
0805AC30 59C4     ldr     r4,[r0,r7]
0805AC32 0834     lsr     r4,r6,20h
0805AC34 002C     lsl     r4,r5,0h
0805AC36 0300     lsl     r0,r0,0Ch
0805AC38 59C0     ldr     r0,[r0,r7]
0805AC3A 0834     lsr     r4,r6,20h
0805AC3C 1530     asr     r0,r6,14h
0805AC3E 0300     lsl     r0,r0,0Ch
0805AC40 2D02     cmp     r5,2h
0805AC42 D11D     bne     805AC80h
0805AC44 464A     mov     r2,r9
0805AC46 7F13     ldrb    r3,[r2,1Ch]
0805AC48 4909     ldr     r1,=83459C4h
0805AC4A 480A     ldr     r0,=300002Ch
0805AC4C 7800     ldrb    r0,[r0]
0805AC4E 0080     lsl     r0,r0,2h
0805AC50 1840     add     r0,r0,r1
0805AC52 7802     ldrb    r2,[r0]
0805AC54 4808     ldr     r0,=83459C0h
0805AC56 1C19     mov     r1,r3
0805AC58 4351     mul     r1,r2
0805AC5A 7800     ldrb    r0,[r0]
0805AC5C 1809     add     r1,r1,r0
0805AC5E 4B07     ldr     r3,=3001530h
0805AC60 8818     ldrh    r0,[r3]
0805AC62 1880     add     r0,r0,r2
0805AC64 4281     cmp     r1,r0
0805AC66 DB55     blt     805AD14h
0805AC68 8018     strh    r0,[r3]
0805AC6A 80D8     strh    r0,[r3,6h]
0805AC6C E052     b       805AD14h
0805AC6E 0000     lsl     r0,r0,0h
0805AC70 59C4     ldr     r4,[r0,r7]
0805AC72 0834     lsr     r4,r6,20h
0805AC74 002C     lsl     r4,r5,0h
0805AC76 0300     lsl     r0,r0,0Ch
0805AC78 59C0     ldr     r0,[r0,r7]
0805AC7A 0834     lsr     r4,r6,20h
0805AC7C 1530     asr     r0,r6,14h
0805AC7E 0300     lsl     r0,r0,0Ch
0805AC80 2D03     cmp     r5,3h
0805AC82 D127     bne     805ACD4h
0805AC84 4648     mov     r0,r9
0805AC86 7F83     ldrb    r3,[r0,1Eh]
0805AC88 4E0E     ldr     r6,=83459C4h
0805AC8A 4D0F     ldr     r5,=300002Ch
0805AC8C 7828     ldrb    r0,[r5]
0805AC8E 0080     lsl     r0,r0,2h
0805AC90 1980     add     r0,r0,r6
0805AC92 7882     ldrb    r2,[r0,2h]
0805AC94 490D     ldr     r1,=83459C0h
0805AC96 1C18     mov     r0,r3
0805AC98 4350     mul     r0,r2
0805AC9A 7889     ldrb    r1,[r1,2h]
0805AC9C 1840     add     r0,r0,r1
0805AC9E 4B0C     ldr     r3,=3001530h
0805ACA0 7919     ldrb    r1,[r3,4h]
0805ACA2 188A     add     r2,r1,r2
0805ACA4 4290     cmp     r0,r2
0805ACA6 DB35     blt     805AD14h
0805ACA8 2900     cmp     r1,0h
0805ACAA D101     bne     805ACB0h
0805ACAC 2101     mov     r1,1h
0805ACAE 468A     mov     r10,r1
0805ACB0 711A     strb    r2,[r3,4h]
0805ACB2 7828     ldrb    r0,[r5]
0805ACB4 0080     lsl     r0,r0,2h
0805ACB6 1980     add     r0,r0,r6
0805ACB8 7880     ldrb    r0,[r0,2h]
0805ACBA 7A9A     ldrb    r2,[r3,0Ah]
0805ACBC 1880     add     r0,r0,r2
0805ACBE 7298     strb    r0,[r3,0Ah]
0805ACC0 E028     b       805AD14h
0805ACC2 0000     lsl     r0,r0,0h
0805ACC4 59C4     ldr     r4,[r0,r7]
0805ACC6 0834     lsr     r4,r6,20h
0805ACC8 002C     lsl     r4,r5,0h
0805ACCA 0300     lsl     r0,r0,0Ch
0805ACCC 59C0     ldr     r0,[r0,r7]
0805ACCE 0834     lsr     r4,r6,20h
0805ACD0 1530     asr     r0,r6,14h
0805ACD2 0300     lsl     r0,r0,0Ch
0805ACD4 2D04     cmp     r5,4h
0805ACD6 D11D     bne     805AD14h
0805ACD8 4648     mov     r0,r9
0805ACDA 7FC3     ldrb    r3,[r0,1Fh]
0805ACDC 4E24     ldr     r6,=83459C4h
0805ACDE 4D25     ldr     r5,=300002Ch
0805ACE0 7828     ldrb    r0,[r5]
0805ACE2 0080     lsl     r0,r0,2h
0805ACE4 1980     add     r0,r0,r6
0805ACE6 78C2     ldrb    r2,[r0,3h]
0805ACE8 4923     ldr     r1,=83459C0h
0805ACEA 1C18     mov     r0,r3
0805ACEC 4350     mul     r0,r2
0805ACEE 78C9     ldrb    r1,[r1,3h]
0805ACF0 1840     add     r0,r0,r1
0805ACF2 4B22     ldr     r3,=3001530h
0805ACF4 7959     ldrb    r1,[r3,5h]
0805ACF6 188A     add     r2,r1,r2
0805ACF8 4290     cmp     r0,r2
0805ACFA DB0B     blt     805AD14h
0805ACFC 2900     cmp     r1,0h
0805ACFE D101     bne     805AD04h
0805AD00 2101     mov     r1,1h
0805AD02 468A     mov     r10,r1
0805AD04 715A     strb    r2,[r3,5h]
0805AD06 7828     ldrb    r0,[r5]
0805AD08 0080     lsl     r0,r0,2h
0805AD0A 1980     add     r0,r0,r6
0805AD0C 78C0     ldrb    r0,[r0,3h]
0805AD0E 7ADA     ldrb    r2,[r3,0Bh]
0805AD10 1880     add     r0,r0,r2
0805AD12 72D8     strb    r0,[r3,0Bh]
0805AD14 491A     ldr     r1,=8345C48h
0805AD16 4643     mov     r3,r8
0805AD18 6818     ldr     r0,[r3]
0805AD1A 3834     sub     r0,34h
0805AD1C 00C0     lsl     r0,r0,3h
0805AD1E 1840     add     r0,r0,r1
0805AD20 7880     ldrb    r0,[r0,2h]
0805AD22 4651     mov     r1,r10
0805AD24 1845     add     r5,r0,r1
0805AD26 2001     mov     r0,1h
0805AD28 4240     neg     r0,r0
0805AD2A 4285     cmp     r5,r0
0805AD2C D00A     beq     805AD44h
0805AD2E 4815     ldr     r0,=30013D4h
0805AD30 8A83     ldrh    r3,[r0,14h]
0805AD32 8A40     ldrh    r0,[r0,12h]
0805AD34 9000     str     r0,[sp]
0805AD36 2000     mov     r0,0h
0805AD38 9001     str     r0,[sp,4h]
0805AD3A 2011     mov     r0,11h
0805AD3C 1C29     mov     r1,r5
0805AD3E 2206     mov     r2,6h
0805AD40 F7B3FAEC bl      800E31Ch
0805AD44 4810     ldr     r0,=3000044h
0805AD46 7800     ldrb    r0,[r0]
0805AD48 0600     lsl     r0,r0,18h
0805AD4A 1600     asr     r0,r0,18h
0805AD4C 2800     cmp     r0,0h
0805AD4E D106     bne     805AD5Eh
0805AD50 2204     mov     r2,4h
0805AD52 4252     neg     r2,r2
0805AD54 4490     add     r8,r2
0805AD56 3C01     sub     r4,1h
0805AD58 2C00     cmp     r4,0h
0805AD5A DB00     blt     805AD5Eh
0805AD5C E704     b       805AB68h
0805AD5E B00C     add     sp,30h
0805AD60 BC38     pop     r3-r5
0805AD62 4698     mov     r8,r3
0805AD64 46A1     mov     r9,r4
0805AD66 46AA     mov     r10,r5
0805AD68 BCF0     pop     r4-r7
0805AD6A BC01     pop     r0
0805AD6C 4700     bx      r0
0805AD6E 0000     lsl     r0,r0,0h
0805AD70 59C4     ldr     r4,[r0,r7]
0805AD72 0834     lsr     r4,r6,20h
0805AD74 002C     lsl     r4,r5,0h
0805AD76 0300     lsl     r0,r0,0Ch
0805AD78 59C0     ldr     r0,[r0,r7]
0805AD7A 0834     lsr     r4,r6,20h
0805AD7C 1530     asr     r0,r6,14h
0805AD7E 0300     lsl     r0,r0,0Ch
0805AD80 5C48     ldrb    r0,[r1,r1]
0805AD82 0834     lsr     r4,r6,20h
0805AD84 13D4     asr     r4,r2,0Fh
0805AD86 0300     lsl     r0,r0,0Ch
0805AD88 0044     lsl     r4,r0,1h
0805AD8A 0300     lsl     r0,r0,0Ch
0805AD8C B570     push    r4-r6,lr
0805AD8E 4913     ldr     r1,=3000044h
0805AD90 2000     mov     r0,0h
0805AD92 7008     strb    r0,[r1]
0805AD94 4C12     ldr     r4,=30056A8h
0805AD96 8820     ldrh    r0,[r4]
0805AD98 3834     sub     r0,34h
0805AD9A 4912     ldr     r1,=8345C48h
0805AD9C 00C0     lsl     r0,r0,3h
0805AD9E 1845     add     r5,r0,r1
0805ADA0 7828     ldrb    r0,[r5]
0805ADA2 2800     cmp     r0,0h
0805ADA4 D017     beq     805ADD6h
0805ADA6 7868     ldrb    r0,[r5,1h]
0805ADA8 2600     mov     r6,0h
0805ADAA 2800     cmp     r0,0h
0805ADAC D000     beq     805ADB0h
0805ADAE 4E0E     ldr     r6,=43Ch
0805ADB0 78E1     ldrb    r1,[r4,3h]
0805ADB2 78A2     ldrb    r2,[r4,2h]
0805ADB4 2000     mov     r0,0h
0805ADB6 F7FFFBD1 bl      805A55Ch
0805ADBA 1C30     mov     r0,r6
0805ADBC 78E1     ldrb    r1,[r4,3h]
0805ADBE 78A2     ldrb    r2,[r4,2h]
0805ADC0 F7FFFC44 bl      805A64Ch
0805ADC4 78A0     ldrb    r0,[r4,2h]
0805ADC6 78E1     ldrb    r1,[r4,3h]
0805ADC8 782A     ldrb    r2,[r5]
0805ADCA F000F969 bl      805B0A0h
0805ADCE 78A0     ldrb    r0,[r4,2h]
0805ADD0 78E1     ldrb    r1,[r4,3h]
0805ADD2 F011FF01 bl      806CBD8h
0805ADD6 BC70     pop     r4-r6
0805ADD8 BC01     pop     r0
0805ADDA 4700     bx      r0
0805ADDC 0044     lsl     r4,r0,1h
0805ADDE 0300     lsl     r0,r0,0Ch
0805ADE0 56A8     ldsb    r0,[r5,r2]
0805ADE2 0300     lsl     r0,r0,0Ch
0805ADE4 5C48     ldrb    r0,[r1,r1]
0805ADE6 0834     lsr     r4,r6,20h
0805ADE8 043C     lsl     r4,r7,10h
0805ADEA 0000     lsl     r0,r0,0h
0805ADEC B510     push    r4,lr
0805ADEE 4C0A     ldr     r4,=30013D4h
0805ADF0 8A60     ldrh    r0,[r4,12h]
0805ADF2 0980     lsr     r0,r0,6h
0805ADF4 8AA1     ldrh    r1,[r4,14h]
0805ADF6 0989     lsr     r1,r1,6h
0805ADF8 2280     mov     r2,80h
0805ADFA F000F951 bl      805B0A0h
0805ADFE 8A60     ldrh    r0,[r4,12h]
0805AE00 0980     lsr     r0,r0,6h
0805AE02 0600     lsl     r0,r0,18h
0805AE04 0E00     lsr     r0,r0,18h
0805AE06 8AA1     ldrh    r1,[r4,14h]
0805AE08 0989     lsr     r1,r1,6h
0805AE0A 0609     lsl     r1,r1,18h
0805AE0C 0E09     lsr     r1,r1,18h
0805AE0E F011FEE3 bl      806CBD8h
0805AE12 BC10     pop     r4
0805AE14 BC01     pop     r0
0805AE16 4700     bx      r0
0805AE18 13D4     asr     r4,r2,0Fh
0805AE1A 0300     lsl     r0,r0,0Ch
0805AE1C B5F0     push    r4-r7,lr
0805AE1E 464F     mov     r7,r9
0805AE20 4646     mov     r6,r8
0805AE22 B4C0     push    r6,r7
0805AE24 0600     lsl     r0,r0,18h
0805AE26 0E03     lsr     r3,r0,18h
0805AE28 481D     ldr     r0,=3001588h
0805AE2A 3056     add     r0,56h
0805AE2C 7800     ldrb    r0,[r0]
0805AE2E 2805     cmp     r0,5h
0805AE30 D16C     bne     805AF0Ch
0805AE32 2000     mov     r0,0h
0805AE34 4680     mov     r8,r0
0805AE36 386C     sub     r0,6Ch
0805AE38 4681     mov     r9,r0
0805AE3A 4A1A     ldr     r2,=30013D4h
0805AE3C 89D1     ldrh    r1,[r2,0Eh]
0805AE3E 2010     mov     r0,10h
0805AE40 4008     and     r0,r1
0805AE42 2720     mov     r7,20h
0805AE44 427F     neg     r7,r7
0805AE46 2800     cmp     r0,0h
0805AE48 D000     beq     805AE4Ch
0805AE4A 2720     mov     r7,20h
0805AE4C 7810     ldrb    r0,[r2]
0805AE4E 2815     cmp     r0,15h
0805AE50 D002     beq     805AE58h
0805AE52 283D     cmp     r0,3Dh
0805AE54 D000     beq     805AE58h
0805AE56 427F     neg     r7,r7
0805AE58 2B00     cmp     r3,0h
0805AE5A D140     bne     805AEDEh
0805AE5C 8A50     ldrh    r0,[r2,12h]
0805AE5E 19C0     add     r0,r0,r7
0805AE60 0280     lsl     r0,r0,0Ah
0805AE62 0C04     lsr     r4,r0,10h
0805AE64 1C26     mov     r6,r4
0805AE66 8A90     ldrh    r0,[r2,14h]
0805AE68 4448     add     r0,r9
0805AE6A 0280     lsl     r0,r0,0Ah
0805AE6C 0C03     lsr     r3,r0,10h
0805AE6E 1C1D     mov     r5,r3
0805AE70 4A0D     ldr     r2,=3005450h
0805AE72 490E     ldr     r1,=300009Ch
0805AE74 8B88     ldrh    r0,[r1,1Ch]
0805AE76 4358     mul     r0,r3
0805AE78 1900     add     r0,r0,r4
0805AE7A 6989     ldr     r1,[r1,18h]
0805AE7C 0040     lsl     r0,r0,1h
0805AE7E 1840     add     r0,r0,r1
0805AE80 8800     ldrh    r0,[r0]
0805AE82 6891     ldr     r1,[r2,8h]
0805AE84 0040     lsl     r0,r0,1h
0805AE86 1840     add     r0,r0,r1
0805AE88 8800     ldrh    r0,[r0]
0805AE8A 2823     cmp     r0,23h
0805AE8C D110     bne     805AEB0h
0805AE8E 2004     mov     r0,4h
0805AE90 1C21     mov     r1,r4
0805AE92 1C1A     mov     r2,r3
0805AE94 2300     mov     r3,0h
0805AE96 F7FEFF87 bl      8059DA8h
0805AE9A 2800     cmp     r0,0h
0805AE9C D01F     beq     805AEDEh
0805AE9E E032     b       805AF06h
0805AEA0 1588     asr     r0,r1,16h
0805AEA2 0300     lsl     r0,r0,0Ch
0805AEA4 13D4     asr     r4,r2,0Fh
0805AEA6 0300     lsl     r0,r0,0Ch
0805AEA8 5450     strb    r0,[r2,r1]
0805AEAA 0300     lsl     r0,r0,0Ch
0805AEAC 009C     lsl     r4,r3,2h
0805AEAE 0300     lsl     r0,r0,0Ch
0805AEB0 282E     cmp     r0,2Eh
0805AEB2 D114     bne     805AEDEh
0805AEB4 2005     mov     r0,5h
0805AEB6 1C31     mov     r1,r6
0805AEB8 1C2A     mov     r2,r5
0805AEBA 2301     mov     r3,1h
0805AEBC F7FEFF74 bl      8059DA8h
0805AEC0 2800     cmp     r0,0h
0805AEC2 D00C     beq     805AEDEh
0805AEC4 4C14     ldr     r4,=401h
0805AEC6 1C20     mov     r0,r4
0805AEC8 1C29     mov     r1,r5
0805AECA 1C32     mov     r2,r6
0805AECC F7FFFB46 bl      805A55Ch
0805AED0 1C20     mov     r0,r4
0805AED2 1C29     mov     r1,r5
0805AED4 1C32     mov     r2,r6
0805AED6 F7FFFBB9 bl      805A64Ch
0805AEDA 2000     mov     r0,0h
0805AEDC 4680     mov     r8,r0
0805AEDE 4640     mov     r0,r8
0805AEE0 2800     cmp     r0,0h
0805AEE2 D110     bne     805AF06h
0805AEE4 490D     ldr     r1,=30013D4h
0805AEE6 8A88     ldrh    r0,[r1,14h]
0805AEE8 4448     add     r0,r9
0805AEEA 8A49     ldrh    r1,[r1,12h]
0805AEEC 19C9     add     r1,r1,r7
0805AEEE F7FCFF83 bl      8057DF8h
0805AEF2 2180     mov     r1,80h
0805AEF4 0449     lsl     r1,r1,11h
0805AEF6 4001     and     r1,r0
0805AEF8 2900     cmp     r1,0h
0805AEFA D101     bne     805AF00h
0805AEFC 2001     mov     r0,1h
0805AEFE 4680     mov     r8,r0
0805AF00 4640     mov     r0,r8
0805AF02 2800     cmp     r0,0h
0805AF04 D002     beq     805AF0Ch
0805AF06 20FE     mov     r0,0FEh
0805AF08 F7ACFAEE bl      80074E8h
0805AF0C BC18     pop     r3,r4
0805AF0E 4698     mov     r8,r3
0805AF10 46A1     mov     r9,r4
0805AF12 BCF0     pop     r4-r7
0805AF14 BC01     pop     r0
0805AF16 4700     bx      r0
0805AF18 0401     lsl     r1,r0,10h
0805AF1A 0000     lsl     r0,r0,0h
0805AF1C 13D4     asr     r4,r2,0Fh
0805AF1E 0300     lsl     r0,r0,0Ch
0805AF20 B5F0     push    r4-r7,lr
0805AF22 4657     mov     r7,r10
0805AF24 464E     mov     r6,r9
0805AF26 4645     mov     r5,r8
0805AF28 B4E0     push    r5-r7
0805AF2A B081     add     sp,-4h
0805AF2C 0400     lsl     r0,r0,10h
0805AF2E 0C00     lsr     r0,r0,10h
0805AF30 9000     str     r0,[sp]
0805AF32 0409     lsl     r1,r1,10h
0805AF34 0C09     lsr     r1,r1,10h
0805AF36 4689     mov     r9,r1
0805AF38 2000     mov     r0,0h
0805AF3A 4682     mov     r10,r0
0805AF3C 4B1E     ldr     r3,=300545Ch
0805AF3E 1C1C     mov     r4,r3
0805AF40 7818     ldrb    r0,[r3]
0805AF42 07C0     lsl     r0,r0,1Fh
0805AF44 2800     cmp     r0,0h
0805AF46 D100     bne     805AF4Ah
0805AF48 E099     b       805B07Eh
0805AF4A 7858     ldrb    r0,[r3,1h]
0805AF4C 0780     lsl     r0,r0,1Eh
0805AF4E 2800     cmp     r0,0h
0805AF50 D000     beq     805AF54h
0805AF52 E094     b       805B07Eh
0805AF54 2100     mov     r1,0h
0805AF56 4688     mov     r8,r1
0805AF58 7958     ldrb    r0,[r3,5h]
0805AF5A 9A00     ldr     r2,[sp]
0805AF5C 4290     cmp     r0,r2
0805AF5E D153     bne     805B008h
0805AF60 7998     ldrb    r0,[r3,6h]
0805AF62 4548     cmp     r0,r9
0805AF64 D850     bhi     805B008h
0805AF66 3003     add     r0,3h
0805AF68 4581     cmp     r9,r0
0805AF6A DC4D     bgt     805B008h
0805AF6C 4813     ldr     r0,=8345CA8h
0805AF6E 4684     mov     r12,r0
0805AF70 78D9     ldrb    r1,[r3,3h]
0805AF72 0089     lsl     r1,r1,2h
0805AF74 4461     add     r1,r12
0805AF76 4F12     ldr     r7,=83459D0h
0805AF78 4E12     ldr     r6,=3000079h
0805AF7A 7830     ldrb    r0,[r6]
0805AF7C 0040     lsl     r0,r0,1h
0805AF7E 19C0     add     r0,r0,r7
0805AF80 8809     ldrh    r1,[r1]
0805AF82 8800     ldrh    r0,[r0]
0805AF84 4008     and     r0,r1
0805AF86 2800     cmp     r0,0h
0805AF88 D03E     beq     805B008h
0805AF8A 7899     ldrb    r1,[r3,2h]
0805AF8C 0908     lsr     r0,r1,4h
0805AF8E 3001     add     r0,1h
0805AF90 0100     lsl     r0,r0,4h
0805AF92 250F     mov     r5,0Fh
0805AF94 1C2A     mov     r2,r5
0805AF96 400A     and     r2,r1
0805AF98 4302     orr     r2,r0
0805AF9A 709A     strb    r2,[r3,2h]
0805AF9C 2101     mov     r1,1h
0805AF9E 4688     mov     r8,r1
0805AFA0 78D8     ldrb    r0,[r3,3h]
0805AFA2 2806     cmp     r0,6h
0805AFA4 D112     bne     805AFCCh
0805AFA6 4808     ldr     r0,=30054E4h
0805AFA8 7800     ldrb    r0,[r0]
0805AFAA 0600     lsl     r0,r0,18h
0805AFAC 1600     asr     r0,r0,18h
0805AFAE 2800     cmp     r0,0h
0805AFB0 D12A     bne     805B008h
0805AFB2 2202     mov     r2,2h
0805AFB4 4690     mov     r8,r2
0805AFB6 E02A     b       805B00Eh
0805AFB8 545C     strb    r4,[r3,r1]
0805AFBA 0300     lsl     r0,r0,0Ch
0805AFBC 5CA8     ldrb    r0,[r5,r2]
0805AFBE 0834     lsr     r4,r6,20h
0805AFC0 59D0     ldr     r0,[r2,r7]
0805AFC2 0834     lsr     r4,r6,20h
0805AFC4 0079     lsl     r1,r7,1h
0805AFC6 0300     lsl     r0,r0,0Ch
0805AFC8 54E4     strb    r4,[r4,r3]
0805AFCA 0300     lsl     r0,r0,0Ch
0805AFCC 2807     cmp     r0,7h
0805AFCE D10B     bne     805AFE8h
0805AFD0 4804     ldr     r0,=30054E4h
0805AFD2 7840     ldrb    r0,[r0,1h]
0805AFD4 0600     lsl     r0,r0,18h
0805AFD6 1600     asr     r0,r0,18h
0805AFD8 2800     cmp     r0,0h
0805AFDA D115     bne     805B008h
0805AFDC 2002     mov     r0,2h
0805AFDE 4680     mov     r8,r0
0805AFE0 E015     b       805B00Eh
0805AFE2 0000     lsl     r0,r0,0h
0805AFE4 54E4     strb    r4,[r4,r3]
0805AFE6 0300     lsl     r0,r0,0Ch
0805AFE8 2803     cmp     r0,3h
0805AFEA D10D     bne     805B008h
0805AFEC 7830     ldrb    r0,[r6]
0805AFEE 0040     lsl     r0,r0,1h
0805AFF0 19C0     add     r0,r0,r7
0805AFF2 8801     ldrh    r1,[r0]
0805AFF4 2008     mov     r0,8h
0805AFF6 4008     and     r0,r1
0805AFF8 2800     cmp     r0,0h
0805AFFA D005     beq     805B008h
0805AFFC 4661     mov     r1,r12
0805AFFE 7B88     ldrb    r0,[r1,0Eh]
0805B000 0100     lsl     r0,r0,4h
0805B002 402A     and     r2,r5
0805B004 4302     orr     r2,r0
0805B006 709A     strb    r2,[r3,2h]
0805B008 4642     mov     r2,r8
0805B00A 2A00     cmp     r2,0h
0805B00C D037     beq     805B07Eh
0805B00E 4640     mov     r0,r8
0805B010 2801     cmp     r0,1h
0805B012 D129     bne     805B068h
0805B014 78A2     ldrb    r2,[r4,2h]
0805B016 490D     ldr     r1,=8345CA8h
0805B018 78E0     ldrb    r0,[r4,3h]
0805B01A 0080     lsl     r0,r0,2h
0805B01C 3102     add     r1,2h
0805B01E 1840     add     r0,r0,r1
0805B020 0912     lsr     r2,r2,4h
0805B022 8800     ldrh    r0,[r0]
0805B024 4282     cmp     r2,r0
0805B026 D318     bcc     805B05Ah
0805B028 7861     ldrb    r1,[r4,1h]
0805B02A 200F     mov     r0,0Fh
0805B02C 4008     and     r0,r1
0805B02E 2204     mov     r2,4h
0805B030 4252     neg     r2,r2
0805B032 1C11     mov     r1,r2
0805B034 4008     and     r0,r1
0805B036 2101     mov     r1,1h
0805B038 4308     orr     r0,r1
0805B03A 7060     strb    r0,[r4,1h]
0805B03C 78E0     ldrb    r0,[r4,3h]
0805B03E 2802     cmp     r0,2h
0805B040 D906     bls     805B050h
0805B042 79E1     ldrb    r1,[r4,7h]
0805B044 2001     mov     r0,1h
0805B046 F003FFDD bl      805F004h
0805B04A E011     b       805B070h
0805B04C 5CA8     ldrb    r0,[r5,r2]
0805B04E 0834     lsr     r4,r6,20h
0805B050 79E1     ldrb    r1,[r4,7h]
0805B052 2002     mov     r0,2h
0805B054 F003FFD6 bl      805F004h
0805B058 E00A     b       805B070h
0805B05A 7860     ldrb    r0,[r4,1h]
0805B05C 210F     mov     r1,0Fh
0805B05E 4001     and     r1,r0
0805B060 2010     mov     r0,10h
0805B062 4301     orr     r1,r0
0805B064 7061     strb    r1,[r4,1h]
0805B066 E003     b       805B070h
0805B068 78A1     ldrb    r1,[r4,2h]
0805B06A 200F     mov     r0,0Fh
0805B06C 4008     and     r0,r1
0805B06E 70A0     strb    r0,[r4,2h]
0805B070 78A0     ldrb    r0,[r4,2h]
0805B072 2210     mov     r2,10h
0805B074 4252     neg     r2,r2
0805B076 1C11     mov     r1,r2
0805B078 4008     and     r0,r1
0805B07A 70A0     strb    r0,[r4,2h]
0805B07C E007     b       805B08Eh
0805B07E 3408     add     r4,8h
0805B080 3308     add     r3,8h
0805B082 2001     mov     r0,1h
0805B084 4482     add     r10,r0
0805B086 4651     mov     r1,r10
0805B088 290F     cmp     r1,0Fh
0805B08A DC00     bgt     805B08Eh
0805B08C E758     b       805AF40h
0805B08E 4640     mov     r0,r8
0805B090 B001     add     sp,4h
0805B092 BC38     pop     r3-r5
0805B094 4698     mov     r8,r3
0805B096 46A1     mov     r9,r4
0805B098 46AA     mov     r10,r5
0805B09A BCF0     pop     r4-r7
0805B09C BC02     pop     r1
0805B09E 4708     bx      r1
0805B0A0 B5F0     push    r4-r7,lr
0805B0A2 0400     lsl     r0,r0,10h
0805B0A4 0C06     lsr     r6,r0,10h
0805B0A6 0409     lsl     r1,r1,10h
0805B0A8 0C0F     lsr     r7,r1,10h
0805B0AA 0612     lsl     r2,r2,18h
0805B0AC 0E15     lsr     r5,r2,18h
0805B0AE 4815     ldr     r0,=3000054h
0805B0B0 7801     ldrb    r1,[r0]
0805B0B2 4684     mov     r12,r0
0805B0B4 2907     cmp     r1,7h
0805B0B6 D822     bhi     805B0FEh
0805B0B8 1C0B     mov     r3,r1
0805B0BA 2440     mov     r4,40h
0805B0BC 2201     mov     r2,1h
0805B0BE 0218     lsl     r0,r3,8h
0805B0C0 4B11     ldr     r3,=2036C00h
0805B0C2 18C1     add     r1,r0,r3
0805B0C4 2300     mov     r3,0h
0805B0C6 7808     ldrb    r0,[r1]
0805B0C8 28FF     cmp     r0,0FFh
0805B0CA D009     beq     805B0E0h
0805B0CC 3301     add     r3,1h
0805B0CE 3104     add     r1,4h
0805B0D0 42A3     cmp     r3,r4
0805B0D2 DA03     bge     805B0DCh
0805B0D4 7808     ldrb    r0,[r1]
0805B0D6 28FF     cmp     r0,0FFh
0805B0D8 D1F8     bne     805B0CCh
0805B0DA 2200     mov     r2,0h
0805B0DC 2A00     cmp     r2,0h
0805B0DE D10E     bne     805B0FEh
0805B0E0 480A     ldr     r0,=3000055h
0805B0E2 7800     ldrb    r0,[r0]
0805B0E4 7008     strb    r0,[r1]
0805B0E6 3101     add     r1,1h
0805B0E8 700D     strb    r5,[r1]
0805B0EA 3101     add     r1,1h
0805B0EC 700E     strb    r6,[r1]
0805B0EE 704F     strb    r7,[r1,1h]
0805B0F0 4807     ldr     r0,=3000063h
0805B0F2 4662     mov     r2,r12
0805B0F4 7811     ldrb    r1,[r2]
0805B0F6 1809     add     r1,r1,r0
0805B0F8 7808     ldrb    r0,[r1]
0805B0FA 3001     add     r0,1h
0805B0FC 7008     strb    r0,[r1]
0805B0FE BCF0     pop     r4-r7
0805B100 BC01     pop     r0
0805B102 4700     bx      r0
0805B104 0054     lsl     r4,r2,1h
0805B106 0300     lsl     r0,r0,0Ch
0805B108 6C00     ldr     r0,[r0,40h]
0805B10A 0203     lsl     r3,r0,8h
0805B10C 0055     lsl     r5,r2,1h
0805B10E 0300     lsl     r0,r0,0Ch
0805B110 0063     lsl     r3,r4,1h
0805B112 0300     lsl     r0,r0,0Ch
0805B114 B5F0     push    r4-r7,lr
0805B116 4657     mov     r7,r10
0805B118 464E     mov     r6,r9
0805B11A 4645     mov     r5,r8
0805B11C B4E0     push    r5-r7
0805B11E 481E     ldr     r0,=3000BF0h
0805B120 7800     ldrb    r0,[r0]
0805B122 0600     lsl     r0,r0,18h
0805B124 1600     asr     r0,r0,18h
0805B126 2800     cmp     r0,0h
0805B128 D14E     bne     805B1C8h
0805B12A 491C     ldr     r1,=3000054h
0805B12C 7808     ldrb    r0,[r1]
0805B12E 2807     cmp     r0,7h
0805B130 D84A     bhi     805B1C8h
0805B132 1C06     mov     r6,r0
0805B134 2040     mov     r0,40h
0805B136 4682     mov     r10,r0
0805B138 0230     lsl     r0,r6,8h
0805B13A 4919     ldr     r1,=2036C00h
0805B13C 1844     add     r4,r0,r1
0805B13E 2600     mov     r6,0h
0805B140 4A18     ldr     r2,=3005450h
0805B142 4691     mov     r9,r2
0805B144 4F18     ldr     r7,=3000055h
0805B146 46B8     mov     r8,r7
0805B148 4818     ldr     r0,=300009Ch
0805B14A 4684     mov     r12,r0
0805B14C 7820     ldrb    r0,[r4]
0805B14E 28FF     cmp     r0,0FFh
0805B150 D03A     beq     805B1C8h
0805B152 4641     mov     r1,r8
0805B154 7809     ldrb    r1,[r1]
0805B156 4288     cmp     r0,r1
0805B158 D132     bne     805B1C0h
0805B15A 2001     mov     r0,1h
0805B15C 5620     ldsb    r0,[r4,r0]
0805B15E 2800     cmp     r0,0h
0805B160 DB2E     blt     805B1C0h
0805B162 4665     mov     r5,r12
0805B164 8BA9     ldrh    r1,[r5,1Ch]
0805B166 78E0     ldrb    r0,[r4,3h]
0805B168 4348     mul     r0,r1
0805B16A 78A2     ldrb    r2,[r4,2h]
0805B16C 1880     add     r0,r0,r2
0805B16E 69A9     ldr     r1,[r5,18h]
0805B170 0043     lsl     r3,r0,1h
0805B172 185A     add     r2,r3,r1
0805B174 8810     ldrh    r0,[r2]
0805B176 464F     mov     r7,r9
0805B178 68B9     ldr     r1,[r7,8h]
0805B17A 0040     lsl     r0,r0,1h
0805B17C 1840     add     r0,r0,r1
0805B17E 8800     ldrh    r0,[r0]
0805B180 383C     sub     r0,3Ch
0805B182 2803     cmp     r0,3h
0805B184 D816     bhi     805B1B4h
0805B186 490A     ldr     r1,=43Ch
0805B188 1C08     mov     r0,r1
0805B18A 8010     strh    r0,[r2]
0805B18C 68A8     ldr     r0,[r5,8h]
0805B18E 1818     add     r0,r3,r0
0805B190 2200     mov     r2,0h
0805B192 8002     strh    r2,[r0]
0805B194 E014     b       805B1C0h
0805B196 0000     lsl     r0,r0,0h
0805B198 0BF0     lsr     r0,r6,0Fh
0805B19A 0300     lsl     r0,r0,0Ch
0805B19C 0054     lsl     r4,r2,1h
0805B19E 0300     lsl     r0,r0,0Ch
0805B1A0 6C00     ldr     r0,[r0,40h]
0805B1A2 0203     lsl     r3,r0,8h
0805B1A4 5450     strb    r0,[r2,r1]
0805B1A6 0300     lsl     r0,r0,0Ch
0805B1A8 0055     lsl     r5,r2,1h
0805B1AA 0300     lsl     r0,r0,0Ch
0805B1AC 009C     lsl     r4,r3,2h
0805B1AE 0300     lsl     r0,r0,0Ch
0805B1B0 043C     lsl     r4,r7,10h
0805B1B2 0000     lsl     r0,r0,0h
0805B1B4 2700     mov     r7,0h
0805B1B6 8017     strh    r7,[r2]
0805B1B8 4661     mov     r1,r12
0805B1BA 6888     ldr     r0,[r1,8h]
0805B1BC 1818     add     r0,r3,r0
0805B1BE 8007     strh    r7,[r0]
0805B1C0 3601     add     r6,1h
0805B1C2 3404     add     r4,4h
0805B1C4 4556     cmp     r6,r10
0805B1C6 DBC1     blt     805B14Ch
0805B1C8 BC38     pop     r3-r5
0805B1CA 4698     mov     r8,r3
0805B1CC 46A1     mov     r9,r4
0805B1CE 46AA     mov     r10,r5
0805B1D0 BCF0     pop     r4-r7
0805B1D2 BC01     pop     r0
0805B1D4 4700     bx      r0
0805B1D6 0000     lsl     r0,r0,0h
0805B1D8 B5F0     push    r4-r7,lr
0805B1DA 4647     mov     r7,r8
0805B1DC B480     push    r7
0805B1DE 0600     lsl     r0,r0,18h
0805B1E0 0E01     lsr     r1,r0,18h
0805B1E2 4817     ldr     r0,=3000054h
0805B1E4 7800     ldrb    r0,[r0]
0805B1E6 2804     cmp     r0,4h
0805B1E8 D124     bne     805B234h
0805B1EA 4816     ldr     r0,=3000055h
0805B1EC 7800     ldrb    r0,[r0]
0805B1EE 2804     cmp     r0,4h
0805B1F0 D120     bne     805B234h
0805B1F2 2200     mov     r2,0h
0805B1F4 0048     lsl     r0,r1,1h
0805B1F6 4914     ldr     r1,=8345CF6h
0805B1F8 1840     add     r0,r0,r1
0805B1FA 8800     ldrh    r0,[r0]
0805B1FC 4680     mov     r8,r0
0805B1FE 2400     mov     r4,0h
0805B200 0110     lsl     r0,r2,4h
0805B202 1C11     mov     r1,r2
0805B204 310D     add     r1,0Dh
0805B206 1C57     add     r7,r2,1
0805B208 4642     mov     r2,r8
0805B20A 1816     add     r6,r2,r0
0805B20C 040D     lsl     r5,r1,10h
0805B20E 19A1     add     r1,r4,r6
0805B210 0409     lsl     r1,r1,10h
0805B212 0C09     lsr     r1,r1,10h
0805B214 1D23     add     r3,r4,4
0805B216 041B     lsl     r3,r3,10h
0805B218 0C1B     lsr     r3,r3,10h
0805B21A 2000     mov     r0,0h
0805B21C 0C2A     lsr     r2,r5,10h
0805B21E F7FFF931 bl      805A484h
0805B222 1C60     add     r0,r4,1
0805B224 0400     lsl     r0,r0,10h
0805B226 0C04     lsr     r4,r0,10h
0805B228 2C06     cmp     r4,6h
0805B22A D9F0     bls     805B20Eh
0805B22C 0438     lsl     r0,r7,10h
0805B22E 0C02     lsr     r2,r0,10h
0805B230 2A04     cmp     r2,4h
0805B232 D9E4     bls     805B1FEh
0805B234 BC08     pop     r3
0805B236 4698     mov     r8,r3
0805B238 BCF0     pop     r4-r7
0805B23A BC01     pop     r0
0805B23C 4700     bx      r0
0805B23E 0000     lsl     r0,r0,0h
0805B240 0054     lsl     r4,r2,1h
0805B242 0300     lsl     r0,r0,0Ch
0805B244 0055     lsl     r5,r2,1h
0805B246 0300     lsl     r0,r0,0Ch
0805B248 5CF6     ldrb    r6,[r6,r3]
0805B24A 0834     lsr     r4,r6,20h
0805B24C B530     push    r4,r5,lr
0805B24E B081     add     sp,-4h
0805B250 21A0     mov     r1,0A0h
0805B252 04C9     lsl     r1,r1,13h
0805B254 4A09     ldr     r2,=2035400h
0805B256 2580     mov     r5,80h
0805B258 00AD     lsl     r5,r5,2h
0805B25A 2410     mov     r4,10h
0805B25C 9400     str     r4,[sp]
0805B25E 2003     mov     r0,3h
0805B260 1C2B     mov     r3,r5
0805B262 F7A7FFBF bl      80031E4h
0805B266 4906     ldr     r1,=5000200h
0805B268 4A06     ldr     r2,=2035600h
0805B26A 9400     str     r4,[sp]
0805B26C 2003     mov     r0,3h
0805B26E 1C2B     mov     r3,r5
0805B270 F7A7FFB8 bl      80031E4h
0805B274 B001     add     sp,4h
0805B276 BC30     pop     r4,r5
0805B278 BC01     pop     r0
0805B27A 4700     bx      r0
0805B27C 5400     strb    r0,[r0,r0]
0805B27E 0203     lsl     r3,r0,8h
0805B280 0200     lsl     r0,r0,8h
0805B282 0500     lsl     r0,r0,14h
0805B284 5600     ldsb    r0,[r0,r0]
0805B286 0203     lsl     r3,r0,8h
0805B288 B530     push    r4,r5,lr
0805B28A B081     add     sp,-4h
0805B28C 21A0     mov     r1,0A0h
0805B28E 04C9     lsl     r1,r1,13h
0805B290 4A09     ldr     r2,=2035000h
0805B292 2580     mov     r5,80h
0805B294 00AD     lsl     r5,r5,2h
0805B296 2410     mov     r4,10h
0805B298 9400     str     r4,[sp]
0805B29A 2003     mov     r0,3h
0805B29C 1C2B     mov     r3,r5
0805B29E F7A7FFA1 bl      80031E4h
0805B2A2 4906     ldr     r1,=5000200h
0805B2A4 4A06     ldr     r2,=2035200h
0805B2A6 9400     str     r4,[sp]
0805B2A8 2003     mov     r0,3h
0805B2AA 1C2B     mov     r3,r5
0805B2AC F7A7FF9A bl      80031E4h
0805B2B0 B001     add     sp,4h
0805B2B2 BC30     pop     r4,r5
0805B2B4 BC01     pop     r0
0805B2B6 4700     bx      r0
0805B2B8 5000     str     r0,[r0,r0]
0805B2BA 0203     lsl     r3,r0,8h
0805B2BC 0200     lsl     r0,r0,8h
0805B2BE 0500     lsl     r0,r0,14h
0805B2C0 5200     strh    r0,[r0,r0]
0805B2C2 0203     lsl     r3,r0,8h
0805B2C4 B530     push    r4,r5,lr
0805B2C6 B081     add     sp,-4h
0805B2C8 490A     ldr     r1,=2035400h
0805B2CA 4A0B     ldr     r2,=2035000h
0805B2CC 2580     mov     r5,80h
0805B2CE 00AD     lsl     r5,r5,2h
0805B2D0 2410     mov     r4,10h
0805B2D2 9400     str     r4,[sp]
0805B2D4 2003     mov     r0,3h
0805B2D6 1C2B     mov     r3,r5
0805B2D8 F7A7FF84 bl      80031E4h
0805B2DC 4907     ldr     r1,=2035600h
0805B2DE 4A08     ldr     r2,=2035200h
0805B2E0 9400     str     r4,[sp]
0805B2E2 2003     mov     r0,3h
0805B2E4 1C2B     mov     r3,r5
0805B2E6 F7A7FF7D bl      80031E4h
0805B2EA B001     add     sp,4h
0805B2EC BC30     pop     r4,r5
0805B2EE BC01     pop     r0
0805B2F0 4700     bx      r0
0805B2F2 0000     lsl     r0,r0,0h
0805B2F4 5400     strb    r0,[r0,r0]
0805B2F6 0203     lsl     r3,r0,8h
0805B2F8 5000     str     r0,[r0,r0]
0805B2FA 0203     lsl     r3,r0,8h
0805B2FC 5600     ldsb    r0,[r0,r0]
0805B2FE 0203     lsl     r3,r0,8h
0805B300 5200     strh    r0,[r0,r0]
0805B302 0203     lsl     r3,r0,8h
0805B304 B530     push    r4,r5,lr
0805B306 B081     add     sp,-4h
0805B308 21A0     mov     r1,0A0h
0805B30A 04C9     lsl     r1,r1,13h
0805B30C 4A09     ldr     r2,=2035800h
0805B30E 2580     mov     r5,80h
0805B310 00AD     lsl     r5,r5,2h
0805B312 2410     mov     r4,10h
0805B314 9400     str     r4,[sp]
0805B316 2003     mov     r0,3h
0805B318 1C2B     mov     r3,r5
0805B31A F7A7FF63 bl      80031E4h
0805B31E 4906     ldr     r1,=5000200h
0805B320 4A06     ldr     r2,=2035A00h
0805B322 9400     str     r4,[sp]
0805B324 2003     mov     r0,3h
0805B326 1C2B     mov     r3,r5
0805B328 F7A7FF5C bl      80031E4h
0805B32C B001     add     sp,4h
0805B32E BC30     pop     r4,r5
0805B330 BC01     pop     r0
0805B332 4700     bx      r0
0805B334 5800     ldr     r0,[r0,r0]
0805B336 0203     lsl     r3,r0,8h
0805B338 0200     lsl     r0,r0,8h
0805B33A 0500     lsl     r0,r0,14h
0805B33C 5A00     ldrh    r0,[r0,r0]
0805B33E 0203     lsl     r3,r0,8h
0805B340 B500     push    lr
0805B342 F7FFFF83 bl      805B24Ch
0805B346 F7FFFF9F bl      805B288h
0805B34A BC01     pop     r0
0805B34C 4700     bx      r0
0805B34E 0000     lsl     r0,r0,0h
0805B350 B530     push    r4,r5,lr
0805B352 B081     add     sp,-4h
0805B354 490A     ldr     r1,=2035400h
0805B356 4A0B     ldr     r2,=2035800h
0805B358 2580     mov     r5,80h
0805B35A 00AD     lsl     r5,r5,2h
0805B35C 2410     mov     r4,10h
0805B35E 9400     str     r4,[sp]
0805B360 2003     mov     r0,3h
0805B362 1C2B     mov     r3,r5
0805B364 F7A7FF3E bl      80031E4h
0805B368 4907     ldr     r1,=2035600h
0805B36A 4A08     ldr     r2,=2035A00h
0805B36C 9400     str     r4,[sp]
0805B36E 2003     mov     r0,3h
0805B370 1C2B     mov     r3,r5
0805B372 F7A7FF37 bl      80031E4h
0805B376 B001     add     sp,4h
0805B378 BC30     pop     r4,r5
0805B37A BC01     pop     r0
0805B37C 4700     bx      r0
0805B37E 0000     lsl     r0,r0,0h
0805B380 5400     strb    r0,[r0,r0]
0805B382 0203     lsl     r3,r0,8h
0805B384 5800     ldr     r0,[r0,r0]
0805B386 0203     lsl     r3,r0,8h
0805B388 5600     ldsb    r0,[r0,r0]
0805B38A 0203     lsl     r3,r0,8h
0805B38C 5A00     ldrh    r0,[r0,r0]
0805B38E 0203     lsl     r3,r0,8h
0805B390 B510     push    r4,lr
0805B392 B081     add     sp,-4h
0805B394 4C15     ldr     r4,=3005520h
0805B396 7921     ldrb    r1,[r4,4h]
0805B398 2900     cmp     r1,0h
0805B39A D023     beq     805B3E4h
0805B39C 2001     mov     r0,1h
0805B39E 4008     and     r0,r1
0805B3A0 2800     cmp     r0,0h
0805B3A2 D00D     beq     805B3C0h
0805B3A4 4912     ldr     r1,=2035000h
0805B3A6 22A0     mov     r2,0A0h
0805B3A8 04D2     lsl     r2,r2,13h
0805B3AA 2380     mov     r3,80h
0805B3AC 009B     lsl     r3,r3,2h
0805B3AE 2010     mov     r0,10h
0805B3B0 9000     str     r0,[sp]
0805B3B2 2003     mov     r0,3h
0805B3B4 F7A7FF16 bl      80031E4h
0805B3B8 7921     ldrb    r1,[r4,4h]
0805B3BA 20FE     mov     r0,0FEh
0805B3BC 4008     and     r0,r1
0805B3BE 7120     strb    r0,[r4,4h]
0805B3C0 7921     ldrb    r1,[r4,4h]
0805B3C2 2002     mov     r0,2h
0805B3C4 4008     and     r0,r1
0805B3C6 2800     cmp     r0,0h
0805B3C8 D00C     beq     805B3E4h
0805B3CA 490A     ldr     r1,=2035200h
0805B3CC 4A0A     ldr     r2,=5000200h
0805B3CE 2380     mov     r3,80h
0805B3D0 009B     lsl     r3,r3,2h
0805B3D2 2010     mov     r0,10h
0805B3D4 9000     str     r0,[sp]
0805B3D6 2003     mov     r0,3h
0805B3D8 F7A7FF04 bl      80031E4h
0805B3DC 7921     ldrb    r1,[r4,4h]
0805B3DE 20FD     mov     r0,0FDh
0805B3E0 4008     and     r0,r1
0805B3E2 7120     strb    r0,[r4,4h]
0805B3E4 B001     add     sp,4h
0805B3E6 BC10     pop     r4
0805B3E8 BC01     pop     r0
0805B3EA 4700     bx      r0
0805B3EC 5520     strb    r0,[r4,r4]
0805B3EE 0300     lsl     r0,r0,0Ch
0805B3F0 5000     str     r0,[r0,r0]
0805B3F2 0203     lsl     r3,r0,8h
0805B3F4 5200     strh    r0,[r0,r0]
0805B3F6 0203     lsl     r3,r0,8h
0805B3F8 0200     lsl     r0,r0,8h
0805B3FA 0500     lsl     r0,r0,14h
0805B3FC B530     push    r4,r5,lr
0805B3FE B081     add     sp,-4h
0805B400 4816     ldr     r0,=3000C72h
0805B402 2100     mov     r1,0h
0805B404 5E44     ldsh    r4,[r0,r1]
0805B406 2C02     cmp     r4,2h
0805B408 D132     bne     805B470h
0805B40A 4D15     ldr     r5,=3005520h
0805B40C 7929     ldrb    r1,[r5,4h]
0805B40E 2900     cmp     r1,0h
0805B410 D056     beq     805B4C0h
0805B412 2001     mov     r0,1h
0805B414 4008     and     r0,r1
0805B416 2800     cmp     r0,0h
0805B418 D00D     beq     805B436h
0805B41A 4912     ldr     r1,=2035000h
0805B41C 22A0     mov     r2,0A0h
0805B41E 04D2     lsl     r2,r2,13h
0805B420 2380     mov     r3,80h
0805B422 009B     lsl     r3,r3,2h
0805B424 2010     mov     r0,10h
0805B426 9000     str     r0,[sp]
0805B428 2003     mov     r0,3h
0805B42A F7A7FEDB bl      80031E4h
0805B42E 7928     ldrb    r0,[r5,4h]
0805B430 2101     mov     r1,1h
0805B432 4048     eor     r0,r1
0805B434 7128     strb    r0,[r5,4h]
0805B436 7928     ldrb    r0,[r5,4h]
0805B438 4004     and     r4,r0
0805B43A 2C00     cmp     r4,0h
0805B43C D040     beq     805B4C0h
0805B43E 490A     ldr     r1,=2035240h
0805B440 4A0A     ldr     r2,=5000240h
0805B442 23E0     mov     r3,0E0h
0805B444 005B     lsl     r3,r3,1h
0805B446 2010     mov     r0,10h
0805B448 9000     str     r0,[sp]
0805B44A 2003     mov     r0,3h
0805B44C F7A7FECA bl      80031E4h
0805B450 7928     ldrb    r0,[r5,4h]
0805B452 2102     mov     r1,2h
0805B454 4048     eor     r0,r1
0805B456 7128     strb    r0,[r5,4h]
0805B458 E032     b       805B4C0h
0805B45A 0000     lsl     r0,r0,0h
0805B45C 0C72     lsr     r2,r6,11h
0805B45E 0300     lsl     r0,r0,0Ch
0805B460 5520     strb    r0,[r4,r4]
0805B462 0300     lsl     r0,r0,0Ch
0805B464 5000     str     r0,[r0,r0]
0805B466 0203     lsl     r3,r0,8h
0805B468 5240     strh    r0,[r0,r1]
0805B46A 0203     lsl     r3,r0,8h
0805B46C 0240     lsl     r0,r0,9h
0805B46E 0500     lsl     r0,r0,14h
0805B470 4C15     ldr     r4,=3005520h
0805B472 7921     ldrb    r1,[r4,4h]
0805B474 2900     cmp     r1,0h
0805B476 D023     beq     805B4C0h
0805B478 2001     mov     r0,1h
0805B47A 4008     and     r0,r1
0805B47C 2800     cmp     r0,0h
0805B47E D00D     beq     805B49Ch
0805B480 4912     ldr     r1,=2035000h
0805B482 22A0     mov     r2,0A0h
0805B484 04D2     lsl     r2,r2,13h
0805B486 2380     mov     r3,80h
0805B488 009B     lsl     r3,r3,2h
0805B48A 2010     mov     r0,10h
0805B48C 9000     str     r0,[sp]
0805B48E 2003     mov     r0,3h
0805B490 F7A7FEA8 bl      80031E4h
0805B494 7921     ldrb    r1,[r4,4h]
0805B496 20FE     mov     r0,0FEh
0805B498 4008     and     r0,r1
0805B49A 7120     strb    r0,[r4,4h]
0805B49C 7921     ldrb    r1,[r4,4h]
0805B49E 2002     mov     r0,2h
0805B4A0 4008     and     r0,r1
0805B4A2 2800     cmp     r0,0h
0805B4A4 D00C     beq     805B4C0h
0805B4A6 490A     ldr     r1,=2035200h
0805B4A8 4A0A     ldr     r2,=5000200h
0805B4AA 2380     mov     r3,80h
0805B4AC 009B     lsl     r3,r3,2h
0805B4AE 2010     mov     r0,10h
0805B4B0 9000     str     r0,[sp]
0805B4B2 2003     mov     r0,3h
0805B4B4 F7A7FE96 bl      80031E4h
0805B4B8 7921     ldrb    r1,[r4,4h]
0805B4BA 20FD     mov     r0,0FDh
0805B4BC 4008     and     r0,r1
0805B4BE 7120     strb    r0,[r4,4h]
0805B4C0 B001     add     sp,4h
0805B4C2 BC30     pop     r4,r5
0805B4C4 BC01     pop     r0
0805B4C6 4700     bx      r0
0805B4C8 5520     strb    r0,[r4,r4]
0805B4CA 0300     lsl     r0,r0,0Ch
0805B4CC 5000     str     r0,[r0,r0]
0805B4CE 0203     lsl     r3,r0,8h
0805B4D0 5200     strh    r0,[r0,r0]
0805B4D2 0203     lsl     r3,r0,8h
0805B4D4 0200     lsl     r0,r0,8h
0805B4D6 0500     lsl     r0,r0,14h
0805B4D8 B5F0     push    r4-r7,lr
0805B4DA 4647     mov     r7,r8
0805B4DC B480     push    r7
0805B4DE B083     add     sp,-0Ch
0805B4E0 0600     lsl     r0,r0,18h
0805B4E2 0E07     lsr     r7,r0,18h
0805B4E4 4A08     ldr     r2,=8345D00h
0805B4E6 4B09     ldr     r3,=3005520h
0805B4E8 7819     ldrb    r1,[r3]
0805B4EA 0048     lsl     r0,r1,1h
0805B4EC 1840     add     r0,r0,r1
0805B4EE 00C0     lsl     r0,r0,3h
0805B4F0 1880     add     r0,r0,r2
0805B4F2 7800     ldrb    r0,[r0]
0805B4F4 4690     mov     r8,r2
0805B4F6 1C1E     mov     r6,r3
0805B4F8 2800     cmp     r0,0h
0805B4FA D009     beq     805B510h
0805B4FC 7970     ldrb    r0,[r6,5h]
0805B4FE 2503     mov     r5,3h
0805B500 2800     cmp     r0,0h
0805B502 D10B     bne     805B51Ch
0805B504 2501     mov     r5,1h
0805B506 E009     b       805B51Ch
0805B508 5D00     ldrb    r0,[r0,r4]
0805B50A 0834     lsr     r4,r6,20h
0805B50C 5520     strb    r0,[r4,r4]
0805B50E 0300     lsl     r0,r0,0Ch
0805B510 7971     ldrb    r1,[r6,5h]
0805B512 2502     mov     r5,2h
0805B514 4248     neg     r0,r1
0805B516 4308     orr     r0,r1
0805B518 17C0     asr     r0,r0,1Fh
0805B51A 4005     and     r5,r0
0805B51C 4815     ldr     r0,=2035000h
0805B51E 9002     str     r0,[sp,8h]
0805B520 4815     ldr     r0,=2035400h
0805B522 9001     str     r0,[sp,4h]
0805B524 7831     ldrb    r1,[r6]
0805B526 0048     lsl     r0,r1,1h
0805B528 1840     add     r0,r0,r1
0805B52A 00C0     lsl     r0,r0,3h
0805B52C 4440     add     r0,r8
0805B52E 8A40     ldrh    r0,[r0,12h]
0805B530 AC02     add     r4,sp,8h
0805B532 9000     str     r0,[sp]
0805B534 1C28     mov     r0,r5
0805B536 1C39     mov     r1,r7
0805B538 AA01     add     r2,sp,4h
0805B53A 1C23     mov     r3,r4
0805B53C F000FAB6 bl      805BAACh
0805B540 480E     ldr     r0,=2035200h
0805B542 9002     str     r0,[sp,8h]
0805B544 480E     ldr     r0,=2035600h
0805B546 9001     str     r0,[sp,4h]
0805B548 7831     ldrb    r1,[r6]
0805B54A 0048     lsl     r0,r1,1h
0805B54C 1840     add     r0,r0,r1
0805B54E 00C0     lsl     r0,r0,3h
0805B550 4440     add     r0,r8
0805B552 8A80     ldrh    r0,[r0,14h]
0805B554 9000     str     r0,[sp]
0805B556 1C28     mov     r0,r5
0805B558 1C39     mov     r1,r7
0805B55A AA01     add     r2,sp,4h
0805B55C 1C23     mov     r3,r4
0805B55E F000FAA5 bl      805BAACh
0805B562 2003     mov     r0,3h
0805B564 7130     strb    r0,[r6,4h]
0805B566 B003     add     sp,0Ch
0805B568 BC08     pop     r3
0805B56A 4698     mov     r8,r3
0805B56C BCF0     pop     r4-r7
0805B56E BC01     pop     r0
0805B570 4700     bx      r0
0805B572 0000     lsl     r0,r0,0h
0805B574 5000     str     r0,[r0,r0]
0805B576 0203     lsl     r3,r0,8h
0805B578 5400     strb    r0,[r0,r0]
0805B57A 0203     lsl     r3,r0,8h
0805B57C 5200     strh    r0,[r0,r0]
0805B57E 0203     lsl     r3,r0,8h
0805B580 5600     ldsb    r0,[r0,r0]
0805B582 0203     lsl     r3,r0,8h
0805B584 B5F0     push    r4-r7,lr
0805B586 B081     add     sp,-4h
0805B588 0600     lsl     r0,r0,18h
0805B58A 0E06     lsr     r6,r0,18h
0805B58C 4822     ldr     r0,=30056F4h
0805B58E 7800     ldrb    r0,[r0]
0805B590 27F0     mov     r7,0F0h
0805B592 2800     cmp     r0,0h
0805B594 D100     bne     805B598h
0805B596 3710     add     r7,10h
0805B598 21A0     mov     r1,0A0h
0805B59A 04C9     lsl     r1,r1,13h
0805B59C 4C1F     ldr     r4,=2035000h
0805B59E 2380     mov     r3,80h
0805B5A0 009B     lsl     r3,r3,2h
0805B5A2 2010     mov     r0,10h
0805B5A4 9000     str     r0,[sp]
0805B5A6 2003     mov     r0,3h
0805B5A8 1C22     mov     r2,r4
0805B5AA F7A7FE1B bl      80031E4h
0805B5AE 0170     lsl     r0,r6,5h
0805B5B0 1905     add     r5,r0,r4
0805B5B2 0134     lsl     r4,r6,4h
0805B5B4 42BC     cmp     r4,r7
0805B5B6 DA25     bge     805B604h
0805B5B8 20F8     mov     r0,0F8h
0805B5BA 0080     lsl     r0,r0,2h
0805B5BC 4684     mov     r12,r0
0805B5BE 26F8     mov     r6,0F8h
0805B5C0 01F6     lsl     r6,r6,7h
0805B5C2 200F     mov     r0,0Fh
0805B5C4 4020     and     r0,r4
0805B5C6 2800     cmp     r0,0h
0805B5C8 D018     beq     805B5FCh
0805B5CA 882A     ldrh    r2,[r5]
0805B5CC 231F     mov     r3,1Fh
0805B5CE 4013     and     r3,r2
0805B5D0 4661     mov     r1,r12
0805B5D2 4011     and     r1,r2
0805B5D4 1C30     mov     r0,r6
0805B5D6 4010     and     r0,r2
0805B5D8 0A80     lsr     r0,r0,0Ah
0805B5DA 3305     add     r3,5h
0805B5DC 04C9     lsl     r1,r1,13h
0805B5DE 22A0     mov     r2,0A0h
0805B5E0 04D2     lsl     r2,r2,13h
0805B5E2 1889     add     r1,r1,r2
0805B5E4 0E09     lsr     r1,r1,18h
0805B5E6 2B1F     cmp     r3,1Fh
0805B5E8 D900     bls     805B5ECh
0805B5EA 231F     mov     r3,1Fh
0805B5EC 291F     cmp     r1,1Fh
0805B5EE D900     bls     805B5F2h
0805B5F0 211F     mov     r1,1Fh
0805B5F2 0280     lsl     r0,r0,0Ah
0805B5F4 0149     lsl     r1,r1,5h
0805B5F6 4308     orr     r0,r1
0805B5F8 4318     orr     r0,r3
0805B5FA 8028     strh    r0,[r5]
0805B5FC 3401     add     r4,1h
0805B5FE 3502     add     r5,2h
0805B600 42BC     cmp     r4,r7
0805B602 DBDE     blt     805B5C2h
0805B604 4A06     ldr     r2,=3005520h
0805B606 7911     ldrb    r1,[r2,4h]
0805B608 2001     mov     r0,1h
0805B60A 4308     orr     r0,r1
0805B60C 7110     strb    r0,[r2,4h]
0805B60E B001     add     sp,4h
0805B610 BCF0     pop     r4-r7
0805B612 BC01     pop     r0
0805B614 4700     bx      r0
0805B616 0000     lsl     r0,r0,0h
0805B618 56F4     ldsb    r4,[r6,r3]
0805B61A 0300     lsl     r0,r0,0Ch
0805B61C 5000     str     r0,[r0,r0]
0805B61E 0203     lsl     r3,r0,8h
0805B620 5520     strb    r0,[r4,r4]
0805B622 0300     lsl     r0,r0,0Ch
0805B624 B5F0     push    r4-r7,lr
0805B626 4647     mov     r7,r8
0805B628 B480     push    r7
0805B62A 1C05     mov     r5,r0
0805B62C 1C0C     mov     r4,r1
0805B62E 0612     lsl     r2,r2,18h
0805B630 1612     asr     r2,r2,18h
0805B632 4690     mov     r8,r2
0805B634 26FF     mov     r6,0FFh
0805B636 882A     ldrh    r2,[r5]
0805B638 201F     mov     r0,1Fh
0805B63A 4010     and     r0,r2
0805B63C 23F8     mov     r3,0F8h
0805B63E 009B     lsl     r3,r3,2h
0805B640 1C19     mov     r1,r3
0805B642 1C13     mov     r3,r2
0805B644 400B     and     r3,r1
0805B646 095B     lsr     r3,r3,5h
0805B648 27F8     mov     r7,0F8h
0805B64A 01FF     lsl     r7,r7,7h
0805B64C 1C39     mov     r1,r7
0805B64E 400A     and     r2,r1
0805B650 0A92     lsr     r2,r2,0Ah
0805B652 18C0     add     r0,r0,r3
0805B654 1880     add     r0,r0,r2
0805B656 2103     mov     r1,3h
0805B658 F02FFAEC bl      808AC34h
0805B65C 4641     mov     r1,r8
0805B65E 1842     add     r2,r0,r1
0805B660 2A00     cmp     r2,0h
0805B662 DA01     bge     805B668h
0805B664 2200     mov     r2,0h
0805B666 E002     b       805B66Eh
0805B668 2A1F     cmp     r2,1Fh
0805B66A DD00     ble     805B66Eh
0805B66C 221F     mov     r2,1Fh
0805B66E 0290     lsl     r0,r2,0Ah
0805B670 0151     lsl     r1,r2,5h
0805B672 4308     orr     r0,r1
0805B674 4310     orr     r0,r2
0805B676 8020     strh    r0,[r4]
0805B678 3E01     sub     r6,1h
0805B67A 3502     add     r5,2h
0805B67C 3402     add     r4,2h
0805B67E 2E00     cmp     r6,0h
0805B680 DAD9     bge     805B636h
0805B682 BC08     pop     r3
0805B684 4698     mov     r8,r3
0805B686 BCF0     pop     r4-r7
0805B688 BC01     pop     r0
0805B68A 4700     bx      r0
0805B68C B5F0     push    r4-r7,lr
0805B68E 4657     mov     r7,r10
0805B690 464E     mov     r6,r9
0805B692 4645     mov     r5,r8
0805B694 B4E0     push    r5-r7
0805B696 B082     add     sp,-8h
0805B698 4682     mov     r10,r0
0805B69A 4688     mov     r8,r1
0805B69C 4694     mov     r12,r2
0805B69E 061B     lsl     r3,r3,18h
0805B6A0 0E1F     lsr     r7,r3,18h
0805B6A2 2F00     cmp     r7,0h
0805B6A4 D108     bne     805B6B8h
0805B6A6 2380     mov     r3,80h
0805B6A8 009B     lsl     r3,r3,2h
0805B6AA 2010     mov     r0,10h
0805B6AC 9000     str     r0,[sp]
0805B6AE 2003     mov     r0,3h
0805B6B0 4651     mov     r1,r10
0805B6B2 F7A7FD97 bl      80031E4h
0805B6B6 E04C     b       805B752h
0805B6B8 2F1E     cmp     r7,1Eh
0805B6BA D909     bls     805B6D0h
0805B6BC 2380     mov     r3,80h
0805B6BE 009B     lsl     r3,r3,2h
0805B6C0 2010     mov     r0,10h
0805B6C2 9000     str     r0,[sp]
0805B6C4 2003     mov     r0,3h
0805B6C6 4641     mov     r1,r8
0805B6C8 4662     mov     r2,r12
0805B6CA F7A7FD8B bl      80031E4h
0805B6CE E040     b       805B752h
0805B6D0 201F     mov     r0,1Fh
0805B6D2 4681     mov     r9,r0
0805B6D4 21FF     mov     r1,0FFh
0805B6D6 9101     str     r1,[sp,4h]
0805B6D8 4642     mov     r2,r8
0805B6DA 8811     ldrh    r1,[r2]
0805B6DC 1C08     mov     r0,r1
0805B6DE 464C     mov     r4,r9
0805B6E0 4020     and     r0,r4
0805B6E2 1149     asr     r1,r1,5h
0805B6E4 1C0D     mov     r5,r1
0805B6E6 4025     and     r5,r4
0805B6E8 114E     asr     r6,r1,5h
0805B6EA 4026     and     r6,r4
0805B6EC 4652     mov     r2,r10
0805B6EE 8811     ldrh    r1,[r2]
0805B6F0 1C0B     mov     r3,r1
0805B6F2 4023     and     r3,r4
0805B6F4 1149     asr     r1,r1,5h
0805B6F6 1C0A     mov     r2,r1
0805B6F8 4022     and     r2,r4
0805B6FA 114C     asr     r4,r1,5h
0805B6FC 4649     mov     r1,r9
0805B6FE 400C     and     r4,r1
0805B700 1AC0     sub     r0,r0,r3
0805B702 4378     mul     r0,r7
0805B704 2800     cmp     r0,0h
0805B706 DA00     bge     805B70Ah
0805B708 301F     add     r0,1Fh
0805B70A 1141     asr     r1,r0,5h
0805B70C 1858     add     r0,r3,r1
0805B70E 0600     lsl     r0,r0,18h
0805B710 0E03     lsr     r3,r0,18h
0805B712 1AA8     sub     r0,r5,r2
0805B714 4378     mul     r0,r7
0805B716 2800     cmp     r0,0h
0805B718 DA00     bge     805B71Ch
0805B71A 301F     add     r0,1Fh
0805B71C 1141     asr     r1,r0,5h
0805B71E 1850     add     r0,r2,r1
0805B720 0600     lsl     r0,r0,18h
0805B722 0E02     lsr     r2,r0,18h
0805B724 1B30     sub     r0,r6,r4
0805B726 4378     mul     r0,r7
0805B728 2800     cmp     r0,0h
0805B72A DA00     bge     805B72Eh
0805B72C 301F     add     r0,1Fh
0805B72E 1141     asr     r1,r0,5h
0805B730 1860     add     r0,r4,r1
0805B732 0600     lsl     r0,r0,18h
0805B734 0B80     lsr     r0,r0,0Eh
0805B736 0151     lsl     r1,r2,5h
0805B738 4308     orr     r0,r1
0805B73A 4318     orr     r0,r3
0805B73C 4662     mov     r2,r12
0805B73E 8010     strh    r0,[r2]
0805B740 9C01     ldr     r4,[sp,4h]
0805B742 3C01     sub     r4,1h
0805B744 9401     str     r4,[sp,4h]
0805B746 2002     mov     r0,2h
0805B748 4482     add     r10,r0
0805B74A 4484     add     r12,r0
0805B74C 4480     add     r8,r0
0805B74E 2C00     cmp     r4,0h
0805B750 DAC2     bge     805B6D8h
0805B752 B002     add     sp,8h
0805B754 BC38     pop     r3-r5
0805B756 4698     mov     r8,r3
0805B758 46A1     mov     r9,r4
0805B75A 46AA     mov     r10,r5
0805B75C BCF0     pop     r4-r7
0805B75E BC01     pop     r0
0805B760 4700     bx      r0
0805B762 0000     lsl     r0,r0,0h
0805B764 B5F0     push    r4-r7,lr
0805B766 4657     mov     r7,r10
0805B768 464E     mov     r6,r9
0805B76A 4645     mov     r5,r8
0805B76C B4E0     push    r5-r7
0805B76E B082     add     sp,-8h
0805B770 4681     mov     r9,r0
0805B772 4688     mov     r8,r1
0805B774 4694     mov     r12,r2
0805B776 061B     lsl     r3,r3,18h
0805B778 0E1F     lsr     r7,r3,18h
0805B77A 2F00     cmp     r7,0h
0805B77C D104     bne     805B788h
0805B77E 2010     mov     r0,10h
0805B780 9000     str     r0,[sp]
0805B782 2003     mov     r0,3h
0805B784 4649     mov     r1,r9
0805B786 E006     b       805B796h
0805B788 2F1E     cmp     r7,1Eh
0805B78A D908     bls     805B79Eh
0805B78C 2010     mov     r0,10h
0805B78E 9000     str     r0,[sp]
0805B790 2003     mov     r0,3h
0805B792 4641     mov     r1,r8
0805B794 4662     mov     r2,r12
0805B796 2320     mov     r3,20h
0805B798 F7A7FD24 bl      80031E4h
0805B79C E040     b       805B820h
0805B79E 201F     mov     r0,1Fh
0805B7A0 4682     mov     r10,r0
0805B7A2 211F     mov     r1,1Fh
0805B7A4 9101     str     r1,[sp,4h]
0805B7A6 4642     mov     r2,r8
0805B7A8 8811     ldrh    r1,[r2]
0805B7AA 1C08     mov     r0,r1
0805B7AC 4654     mov     r4,r10
0805B7AE 4020     and     r0,r4
0805B7B0 1149     asr     r1,r1,5h
0805B7B2 1C0D     mov     r5,r1
0805B7B4 4025     and     r5,r4
0805B7B6 114E     asr     r6,r1,5h
0805B7B8 4026     and     r6,r4
0805B7BA 464A     mov     r2,r9
0805B7BC 8811     ldrh    r1,[r2]
0805B7BE 1C0B     mov     r3,r1
0805B7C0 4023     and     r3,r4
0805B7C2 1149     asr     r1,r1,5h
0805B7C4 1C0A     mov     r2,r1
0805B7C6 4022     and     r2,r4
0805B7C8 114C     asr     r4,r1,5h
0805B7CA 4651     mov     r1,r10
0805B7CC 400C     and     r4,r1
0805B7CE 1AC0     sub     r0,r0,r3
0805B7D0 4378     mul     r0,r7
0805B7D2 2800     cmp     r0,0h
0805B7D4 DA00     bge     805B7D8h
0805B7D6 301F     add     r0,1Fh
0805B7D8 1141     asr     r1,r0,5h
0805B7DA 1858     add     r0,r3,r1
0805B7DC 0600     lsl     r0,r0,18h
0805B7DE 0E03     lsr     r3,r0,18h
0805B7E0 1AA8     sub     r0,r5,r2
0805B7E2 4378     mul     r0,r7
0805B7E4 2800     cmp     r0,0h
0805B7E6 DA00     bge     805B7EAh
0805B7E8 301F     add     r0,1Fh
0805B7EA 1141     asr     r1,r0,5h
0805B7EC 1850     add     r0,r2,r1
0805B7EE 0600     lsl     r0,r0,18h
0805B7F0 0E02     lsr     r2,r0,18h
0805B7F2 1B30     sub     r0,r6,r4
0805B7F4 4378     mul     r0,r7
0805B7F6 2800     cmp     r0,0h
0805B7F8 DA00     bge     805B7FCh
0805B7FA 301F     add     r0,1Fh
0805B7FC 1141     asr     r1,r0,5h
0805B7FE 1860     add     r0,r4,r1
0805B800 0600     lsl     r0,r0,18h
0805B802 0B80     lsr     r0,r0,0Eh
0805B804 0151     lsl     r1,r2,5h
0805B806 4308     orr     r0,r1
0805B808 4318     orr     r0,r3
0805B80A 4662     mov     r2,r12
0805B80C 8010     strh    r0,[r2]
0805B80E 9C01     ldr     r4,[sp,4h]
0805B810 3C01     sub     r4,1h
0805B812 9401     str     r4,[sp,4h]
0805B814 2002     mov     r0,2h
0805B816 4481     add     r9,r0
0805B818 4484     add     r12,r0
0805B81A 4480     add     r8,r0
0805B81C 2C00     cmp     r4,0h
0805B81E DAC2     bge     805B7A6h
0805B820 B002     add     sp,8h
0805B822 BC38     pop     r3-r5
0805B824 4698     mov     r8,r3
0805B826 46A1     mov     r9,r4
0805B828 46AA     mov     r10,r5
0805B82A BCF0     pop     r4-r7
0805B82C BC01     pop     r0
0805B82E 4700     bx      r0
0805B830 B5F0     push    r4-r7,lr
0805B832 4657     mov     r7,r10
0805B834 464E     mov     r6,r9
0805B836 4645     mov     r5,r8
0805B838 B4E0     push    r5-r7
0805B83A B084     add     sp,-10h
0805B83C 0400     lsl     r0,r0,10h
0805B83E 0C00     lsr     r0,r0,10h
0805B840 9001     str     r0,[sp,4h]
0805B842 0409     lsl     r1,r1,10h
0805B844 0C0D     lsr     r5,r1,10h
0805B846 0612     lsl     r2,r2,18h
0805B848 0E17     lsr     r7,r2,18h
0805B84A 2F00     cmp     r7,0h
0805B84C D118     bne     805B880h
0805B84E 4D0A     ldr     r5,=2035800h
0805B850 22A0     mov     r2,0A0h
0805B852 04D2     lsl     r2,r2,13h
0805B854 26F0     mov     r6,0F0h
0805B856 0076     lsl     r6,r6,1h
0805B858 2410     mov     r4,10h
0805B85A 9400     str     r4,[sp]
0805B85C 2003     mov     r0,3h
0805B85E 1C29     mov     r1,r5
0805B860 1C33     mov     r3,r6
0805B862 F7A7FCBF bl      80031E4h
0805B866 4A05     ldr     r2,=2035400h
0805B868 9400     str     r4,[sp]
0805B86A 2003     mov     r0,3h
0805B86C 1C29     mov     r1,r5
0805B86E 1C33     mov     r3,r6
0805B870 F7A7FCB8 bl      80031E4h
0805B874 E06B     b       805B94Eh
0805B876 0000     lsl     r0,r0,0h
0805B878 5800     ldr     r0,[r0,r0]
0805B87A 0203     lsl     r3,r0,8h
0805B87C 5400     strb    r0,[r0,r0]
0805B87E 0203     lsl     r3,r0,8h
0805B880 4937     ldr     r1,=2035800h
0805B882 4C38     ldr     r4,=2035000h
0805B884 23F0     mov     r3,0F0h
0805B886 005B     lsl     r3,r3,1h
0805B888 2010     mov     r0,10h
0805B88A 9000     str     r0,[sp]
0805B88C 2003     mov     r0,3h
0805B88E 1C22     mov     r2,r4
0805B890 F7A7FCA8 bl      80031E4h
0805B894 201F     mov     r0,1Fh
0805B896 4028     and     r0,r5
0805B898 9002     str     r0,[sp,8h]
0805B89A 20F8     mov     r0,0F8h
0805B89C 0080     lsl     r0,r0,2h
0805B89E 4028     and     r0,r5
0805B8A0 0940     lsr     r0,r0,5h
0805B8A2 4680     mov     r8,r0
0805B8A4 20F8     mov     r0,0F8h
0805B8A6 01C0     lsl     r0,r0,7h
0805B8A8 4028     and     r0,r5
0805B8AA 0A80     lsr     r0,r0,0Ah
0805B8AC 4684     mov     r12,r0
0805B8AE 2200     mov     r2,0h
0805B8B0 9901     ldr     r1,[sp,4h]
0805B8B2 4111     asr     r1,r2
0805B8B4 2001     mov     r0,1h
0805B8B6 4001     and     r1,r0
0805B8B8 1C54     add     r4,r2,1
0805B8BA 9403     str     r4,[sp,0Ch]
0805B8BC 2900     cmp     r1,0h
0805B8BE D03D     beq     805B93Ch
0805B8C0 0113     lsl     r3,r2,4h
0805B8C2 1C19     mov     r1,r3
0805B8C4 3110     add     r1,10h
0805B8C6 428B     cmp     r3,r1
0805B8C8 DA38     bge     805B93Ch
0805B8CA 20F8     mov     r0,0F8h
0805B8CC 0080     lsl     r0,r0,2h
0805B8CE 4682     mov     r10,r0
0805B8D0 24F8     mov     r4,0F8h
0805B8D2 01E4     lsl     r4,r4,7h
0805B8D4 46A1     mov     r9,r4
0805B8D6 0150     lsl     r0,r2,5h
0805B8D8 4A22     ldr     r2,=2035000h
0805B8DA 1886     add     r6,r0,r2
0805B8DC 1ACB     sub     r3,r1,r3
0805B8DE 8831     ldrh    r1,[r6]
0805B8E0 251F     mov     r5,1Fh
0805B8E2 400D     and     r5,r1
0805B8E4 4650     mov     r0,r10
0805B8E6 4008     and     r0,r1
0805B8E8 0942     lsr     r2,r0,5h
0805B8EA 4648     mov     r0,r9
0805B8EC 4008     and     r0,r1
0805B8EE 0A81     lsr     r1,r0,0Ah
0805B8F0 9C02     ldr     r4,[sp,8h]
0805B8F2 1B60     sub     r0,r4,r5
0805B8F4 4378     mul     r0,r7
0805B8F6 2800     cmp     r0,0h
0805B8F8 DA00     bge     805B8FCh
0805B8FA 300F     add     r0,0Fh
0805B8FC 1100     asr     r0,r0,4h
0805B8FE 1828     add     r0,r5,r0
0805B900 0600     lsl     r0,r0,18h
0805B902 0E05     lsr     r5,r0,18h
0805B904 4644     mov     r4,r8
0805B906 1AA0     sub     r0,r4,r2
0805B908 4378     mul     r0,r7
0805B90A 2800     cmp     r0,0h
0805B90C DA00     bge     805B910h
0805B90E 300F     add     r0,0Fh
0805B910 1100     asr     r0,r0,4h
0805B912 1810     add     r0,r2,r0
0805B914 0600     lsl     r0,r0,18h
0805B916 0E02     lsr     r2,r0,18h
0805B918 4664     mov     r4,r12
0805B91A 1A60     sub     r0,r4,r1
0805B91C 4378     mul     r0,r7
0805B91E 2800     cmp     r0,0h
0805B920 DA00     bge     805B924h
0805B922 300F     add     r0,0Fh
0805B924 1100     asr     r0,r0,4h
0805B926 1808     add     r0,r1,r0
0805B928 0600     lsl     r0,r0,18h
0805B92A 0B80     lsr     r0,r0,0Eh
0805B92C 0151     lsl     r1,r2,5h
0805B92E 4308     orr     r0,r1
0805B930 4328     orr     r0,r5
0805B932 8030     strh    r0,[r6]
0805B934 3602     add     r6,2h
0805B936 3B01     sub     r3,1h
0805B938 2B00     cmp     r3,0h
0805B93A D1D0     bne     805B8DEh
0805B93C 9A03     ldr     r2,[sp,0Ch]
0805B93E 2A0F     cmp     r2,0Fh
0805B940 DDB6     ble     805B8B0h
0805B942 4809     ldr     r0,=3005520h
0805B944 7901     ldrb    r1,[r0,4h]
0805B946 2001     mov     r0,1h
0805B948 4308     orr     r0,r1
0805B94A 4907     ldr     r1,=3005520h
0805B94C 7108     strb    r0,[r1,4h]
0805B94E B004     add     sp,10h
0805B950 BC38     pop     r3-r5
0805B952 4698     mov     r8,r3
0805B954 46A1     mov     r9,r4
0805B956 46AA     mov     r10,r5
0805B958 BCF0     pop     r4-r7
0805B95A BC01     pop     r0
0805B95C 4700     bx      r0
0805B95E 0000     lsl     r0,r0,0h
0805B960 5800     ldr     r0,[r0,r0]
0805B962 0203     lsl     r3,r0,8h
0805B964 5000     str     r0,[r0,r0]
0805B966 0203     lsl     r3,r0,8h
0805B968 5520     strb    r0,[r4,r4]
0805B96A 0300     lsl     r0,r0,0Ch
0805B96C B5F0     push    r4-r7,lr
0805B96E 4657     mov     r7,r10
0805B970 464E     mov     r6,r9
0805B972 4645     mov     r5,r8
0805B974 B4E0     push    r5-r7
0805B976 B084     add     sp,-10h
0805B978 0400     lsl     r0,r0,10h
0805B97A 0C00     lsr     r0,r0,10h
0805B97C 9001     str     r0,[sp,4h]
0805B97E 0409     lsl     r1,r1,10h
0805B980 0C0C     lsr     r4,r1,10h
0805B982 0612     lsl     r2,r2,18h
0805B984 0E16     lsr     r6,r2,18h
0805B986 2E00     cmp     r6,0h
0805B988 D118     bne     805B9BCh
0805B98A 4D09     ldr     r5,=2035A40h
0805B98C 4A09     ldr     r2,=5000240h
0805B98E 26E0     mov     r6,0E0h
0805B990 0076     lsl     r6,r6,1h
0805B992 2410     mov     r4,10h
0805B994 9400     str     r4,[sp]
0805B996 2003     mov     r0,3h
0805B998 1C29     mov     r1,r5
0805B99A 1C33     mov     r3,r6
0805B99C F7A7FC22 bl      80031E4h
0805B9A0 4A05     ldr     r2,=2035640h
0805B9A2 9400     str     r4,[sp]
0805B9A4 2003     mov     r0,3h
0805B9A6 1C29     mov     r1,r5
0805B9A8 1C33     mov     r3,r6
0805B9AA F7A7FC1B bl      80031E4h
0805B9AE E06C     b       805BA8Ah
0805B9B0 5A40     ldrh    r0,[r0,r1]
0805B9B2 0203     lsl     r3,r0,8h
0805B9B4 0240     lsl     r0,r0,9h
0805B9B6 0500     lsl     r0,r0,14h
0805B9B8 5640     ldsb    r0,[r0,r1]
0805B9BA 0203     lsl     r3,r0,8h
0805B9BC 4937     ldr     r1,=2035A40h
0805B9BE 4A38     ldr     r2,=2035240h
0805B9C0 23E0     mov     r3,0E0h
0805B9C2 005B     lsl     r3,r3,1h
0805B9C4 2010     mov     r0,10h
0805B9C6 9000     str     r0,[sp]
0805B9C8 2003     mov     r0,3h
0805B9CA F7A7FC0B bl      80031E4h
0805B9CE 201F     mov     r0,1Fh
0805B9D0 4020     and     r0,r4
0805B9D2 9002     str     r0,[sp,8h]
0805B9D4 20F8     mov     r0,0F8h
0805B9D6 0080     lsl     r0,r0,2h
0805B9D8 4020     and     r0,r4
0805B9DA 0940     lsr     r0,r0,5h
0805B9DC 4680     mov     r8,r0
0805B9DE 20F8     mov     r0,0F8h
0805B9E0 01C0     lsl     r0,r0,7h
0805B9E2 4020     and     r0,r4
0805B9E4 0A80     lsr     r0,r0,0Ah
0805B9E6 4684     mov     r12,r0
0805B9E8 2200     mov     r2,0h
0805B9EA 9901     ldr     r1,[sp,4h]
0805B9EC 4111     asr     r1,r2
0805B9EE 2001     mov     r0,1h
0805B9F0 4001     and     r1,r0
0805B9F2 1C57     add     r7,r2,1
0805B9F4 9703     str     r7,[sp,0Ch]
0805B9F6 2900     cmp     r1,0h
0805B9F8 D03E     beq     805BA78h
0805B9FA 0110     lsl     r0,r2,4h
0805B9FC 1C43     add     r3,r0,1
0805B9FE 1C01     mov     r1,r0
0805BA00 3110     add     r1,10h
0805BA02 428B     cmp     r3,r1
0805BA04 DA38     bge     805BA78h
0805BA06 20F8     mov     r0,0F8h
0805BA08 0080     lsl     r0,r0,2h
0805BA0A 4682     mov     r10,r0
0805BA0C 22F8     mov     r2,0F8h
0805BA0E 01D2     lsl     r2,r2,7h
0805BA10 4691     mov     r9,r2
0805BA12 0058     lsl     r0,r3,1h
0805BA14 4F23     ldr     r7,=2035200h
0805BA16 19C5     add     r5,r0,r7
0805BA18 1ACB     sub     r3,r1,r3
0805BA1A 8829     ldrh    r1,[r5]
0805BA1C 241F     mov     r4,1Fh
0805BA1E 400C     and     r4,r1
0805BA20 4650     mov     r0,r10
0805BA22 4008     and     r0,r1
0805BA24 0942     lsr     r2,r0,5h
0805BA26 4648     mov     r0,r9
0805BA28 4008     and     r0,r1
0805BA2A 0A81     lsr     r1,r0,0Ah
0805BA2C 9F02     ldr     r7,[sp,8h]
0805BA2E 1B38     sub     r0,r7,r4
0805BA30 4370     mul     r0,r6
0805BA32 2800     cmp     r0,0h
0805BA34 DA00     bge     805BA38h
0805BA36 300F     add     r0,0Fh
0805BA38 1100     asr     r0,r0,4h
0805BA3A 1820     add     r0,r4,r0
0805BA3C 0600     lsl     r0,r0,18h
0805BA3E 0E04     lsr     r4,r0,18h
0805BA40 4647     mov     r7,r8
0805BA42 1AB8     sub     r0,r7,r2
0805BA44 4370     mul     r0,r6
0805BA46 2800     cmp     r0,0h
0805BA48 DA00     bge     805BA4Ch
0805BA4A 300F     add     r0,0Fh
0805BA4C 1100     asr     r0,r0,4h
0805BA4E 1810     add     r0,r2,r0
0805BA50 0600     lsl     r0,r0,18h
0805BA52 0E02     lsr     r2,r0,18h
0805BA54 4667     mov     r7,r12
0805BA56 1A78     sub     r0,r7,r1
0805BA58 4370     mul     r0,r6
0805BA5A 2800     cmp     r0,0h
0805BA5C DA00     bge     805BA60h
0805BA5E 300F     add     r0,0Fh
0805BA60 1100     asr     r0,r0,4h
0805BA62 1808     add     r0,r1,r0
0805BA64 0600     lsl     r0,r0,18h
0805BA66 0B80     lsr     r0,r0,0Eh
0805BA68 0151     lsl     r1,r2,5h
0805BA6A 4308     orr     r0,r1
0805BA6C 4320     orr     r0,r4
0805BA6E 8028     strh    r0,[r5]
0805BA70 3502     add     r5,2h
0805BA72 3B01     sub     r3,1h
0805BA74 2B00     cmp     r3,0h
0805BA76 D1D0     bne     805BA1Ah
0805BA78 9A03     ldr     r2,[sp,0Ch]
0805BA7A 2A0F     cmp     r2,0Fh
0805BA7C DDB5     ble     805B9EAh
0805BA7E 480A     ldr     r0,=3005520h
0805BA80 7901     ldrb    r1,[r0,4h]
0805BA82 2002     mov     r0,2h
0805BA84 4308     orr     r0,r1
0805BA86 4908     ldr     r1,=3005520h
0805BA88 7108     strb    r0,[r1,4h]
0805BA8A B004     add     sp,10h
0805BA8C BC38     pop     r3-r5
0805BA8E 4698     mov     r8,r3
0805BA90 46A1     mov     r9,r4
0805BA92 46AA     mov     r10,r5
0805BA94 BCF0     pop     r4-r7
0805BA96 BC01     pop     r0
0805BA98 4700     bx      r0
0805BA9A 0000     lsl     r0,r0,0h
0805BA9C 5A40     ldrh    r0,[r0,r1]
0805BA9E 0203     lsl     r3,r0,8h
0805BAA0 5240     strh    r0,[r0,r1]
0805BAA2 0203     lsl     r3,r0,8h
0805BAA4 5200     strh    r0,[r0,r0]
0805BAA6 0203     lsl     r3,r0,8h
0805BAA8 5520     strb    r0,[r4,r4]
0805BAAA 0300     lsl     r0,r0,0Ch
0805BAAC B5F0     push    r4-r7,lr
0805BAAE 4657     mov     r7,r10
0805BAB0 464E     mov     r6,r9
0805BAB2 4645     mov     r5,r8
0805BAB4 B4E0     push    r5-r7
0805BAB6 B082     add     sp,-8h
0805BAB8 4691     mov     r9,r2
0805BABA 4698     mov     r8,r3
0805BABC 9A0A     ldr     r2,[sp,28h]
0805BABE 0600     lsl     r0,r0,18h
0805BAC0 0E00     lsr     r0,r0,18h
0805BAC2 4684     mov     r12,r0
0805BAC4 0609     lsl     r1,r1,18h
0805BAC6 0E0F     lsr     r7,r1,18h
0805BAC8 0412     lsl     r2,r2,10h
0805BACA 0C12     lsr     r2,r2,10h
0805BACC 9200     str     r2,[sp]
0805BACE 2200     mov     r2,0h
0805BAD0 9800     ldr     r0,[sp]
0805BAD2 4110     asr     r0,r2
0805BAD4 2101     mov     r1,1h
0805BAD6 4008     and     r0,r1
0805BAD8 2800     cmp     r0,0h
0805BADA D10A     bne     805BAF2h
0805BADC 4649     mov     r1,r9
0805BADE 6808     ldr     r0,[r1]
0805BAE0 3020     add     r0,20h
0805BAE2 6008     str     r0,[r1]
0805BAE4 4641     mov     r1,r8
0805BAE6 6808     ldr     r0,[r1]
0805BAE8 3020     add     r0,20h
0805BAEA 6008     str     r0,[r1]
0805BAEC 3201     add     r2,1h
0805BAEE 9201     str     r2,[sp,4h]
0805BAF0 E06C     b       805BBCCh
0805BAF2 3201     add     r2,1h
0805BAF4 9201     str     r2,[sp,4h]
0805BAF6 261F     mov     r6,1Fh
0805BAF8 200F     mov     r0,0Fh
0805BAFA 4682     mov     r10,r0
0805BAFC 4649     mov     r1,r9
0805BAFE 680A     ldr     r2,[r1]
0805BB00 8811     ldrh    r1,[r2]
0805BB02 1C33     mov     r3,r6
0805BB04 400B     and     r3,r1
0805BB06 20F8     mov     r0,0F8h
0805BB08 0080     lsl     r0,r0,2h
0805BB0A 4008     and     r0,r1
0805BB0C 0945     lsr     r5,r0,5h
0805BB0E 20F8     mov     r0,0F8h
0805BB10 01C0     lsl     r0,r0,7h
0805BB12 4008     and     r0,r1
0805BB14 0A84     lsr     r4,r0,0Ah
0805BB16 4660     mov     r0,r12
0805BB18 2801     cmp     r0,1h
0805BB1A D016     beq     805BB4Ah
0805BB1C 2801     cmp     r0,1h
0805BB1E DC02     bgt     805BB26h
0805BB20 2800     cmp     r0,0h
0805BB22 D006     beq     805BB32h
0805BB24 E03E     b       805BBA4h
0805BB26 4661     mov     r1,r12
0805BB28 2902     cmp     r1,2h
0805BB2A D01D     beq     805BB68h
0805BB2C 2903     cmp     r1,3h
0805BB2E D02A     beq     805BB86h
0805BB30 E038     b       805BBA4h
0805BB32 1C18     mov     r0,r3
0805BB34 4378     mul     r0,r7
0805BB36 1143     asr     r3,r0,5h
0805BB38 4033     and     r3,r6
0805BB3A 1C28     mov     r0,r5
0805BB3C 4378     mul     r0,r7
0805BB3E 1145     asr     r5,r0,5h
0805BB40 4035     and     r5,r6
0805BB42 1C20     mov     r0,r4
0805BB44 4378     mul     r0,r7
0805BB46 1144     asr     r4,r0,5h
0805BB48 E02B     b       805BBA2h
0805BB4A 1AF0     sub     r0,r6,r3
0805BB4C 4378     mul     r0,r7
0805BB4E 1140     asr     r0,r0,5h
0805BB50 1A33     sub     r3,r6,r0
0805BB52 4033     and     r3,r6
0805BB54 1B70     sub     r0,r6,r5
0805BB56 4378     mul     r0,r7
0805BB58 1140     asr     r0,r0,5h
0805BB5A 1A35     sub     r5,r6,r0
0805BB5C 4035     and     r5,r6
0805BB5E 1B30     sub     r0,r6,r4
0805BB60 4378     mul     r0,r7
0805BB62 1140     asr     r0,r0,5h
0805BB64 1A34     sub     r4,r6,r0
0805BB66 E01C     b       805BBA2h
0805BB68 1C18     mov     r0,r3
0805BB6A 4378     mul     r0,r7
0805BB6C 1140     asr     r0,r0,5h
0805BB6E 1A1B     sub     r3,r3,r0
0805BB70 4033     and     r3,r6
0805BB72 1C28     mov     r0,r5
0805BB74 4378     mul     r0,r7
0805BB76 1140     asr     r0,r0,5h
0805BB78 1A2D     sub     r5,r5,r0
0805BB7A 4035     and     r5,r6
0805BB7C 1C20     mov     r0,r4
0805BB7E 4378     mul     r0,r7
0805BB80 1140     asr     r0,r0,5h
0805BB82 1A24     sub     r4,r4,r0
0805BB84 E00D     b       805BBA2h
0805BB86 1AF0     sub     r0,r6,r3
0805BB88 4378     mul     r0,r7
0805BB8A 1140     asr     r0,r0,5h
0805BB8C 181B     add     r3,r3,r0
0805BB8E 4033     and     r3,r6
0805BB90 1B70     sub     r0,r6,r5
0805BB92 4378     mul     r0,r7
0805BB94 1140     asr     r0,r0,5h
0805BB96 182D     add     r5,r5,r0
0805BB98 4035     and     r5,r6
0805BB9A 1B30     sub     r0,r6,r4
0805BB9C 4378     mul     r0,r7
0805BB9E 1140     asr     r0,r0,5h
0805BBA0 1824     add     r4,r4,r0
0805BBA2 4034     and     r4,r6
0805BBA4 4640     mov     r0,r8
0805BBA6 6801     ldr     r1,[r0]
0805BBA8 0168     lsl     r0,r5,5h
0805BBAA 4303     orr     r3,r0
0805BBAC 02A0     lsl     r0,r4,0Ah
0805BBAE 4303     orr     r3,r0
0805BBB0 800B     strh    r3,[r1]
0805BBB2 2101     mov     r1,1h
0805BBB4 4249     neg     r1,r1
0805BBB6 448A     add     r10,r1
0805BBB8 1C90     add     r0,r2,2
0805BBBA 4649     mov     r1,r9
0805BBBC 6008     str     r0,[r1]
0805BBBE 4641     mov     r1,r8
0805BBC0 6808     ldr     r0,[r1]
0805BBC2 3002     add     r0,2h
0805BBC4 6008     str     r0,[r1]
0805BBC6 4650     mov     r0,r10
0805BBC8 2800     cmp     r0,0h
0805BBCA DA97     bge     805BAFCh
0805BBCC 9A01     ldr     r2,[sp,4h]
0805BBCE 2A0F     cmp     r2,0Fh
0805BBD0 DC00     bgt     805BBD4h
0805BBD2 E77D     b       805BAD0h
0805BBD4 B002     add     sp,8h
0805BBD6 BC38     pop     r3-r5
0805BBD8 4698     mov     r8,r3
0805BBDA 46A1     mov     r9,r4
0805BBDC 46AA     mov     r10,r5
0805BBDE BCF0     pop     r4-r7
0805BBE0 BC01     pop     r0
0805BBE2 4700     bx      r0
0805BBE4 B5F0     push    r4-r7,lr
0805BBE6 0600     lsl     r0,r0,18h
0805BBE8 0E06     lsr     r6,r0,18h
0805BBEA 46B4     mov     r12,r6
0805BBEC 0409     lsl     r1,r1,10h
0805BBEE 0C09     lsr     r1,r1,10h
0805BBF0 0612     lsl     r2,r2,18h
0805BBF2 0E15     lsr     r5,r2,18h
0805BBF4 271F     mov     r7,1Fh
0805BBF6 1C0B     mov     r3,r1
0805BBF8 403B     and     r3,r7
0805BBFA 20F8     mov     r0,0F8h
0805BBFC 0080     lsl     r0,r0,2h
0805BBFE 4008     and     r0,r1
0805BC00 0944     lsr     r4,r0,5h
0805BC02 20F8     mov     r0,0F8h
0805BC04 01C0     lsl     r0,r0,7h
0805BC06 4008     and     r0,r1
0805BC08 0A82     lsr     r2,r0,0Ah
0805BC0A 2E01     cmp     r6,1h
0805BC0C D017     beq     805BC3Eh
0805BC0E 2E01     cmp     r6,1h
0805BC10 DC02     bgt     805BC18h
0805BC12 2E00     cmp     r6,0h
0805BC14 D006     beq     805BC24h
0805BC16 E042     b       805BC9Eh
0805BC18 4660     mov     r0,r12
0805BC1A 2802     cmp     r0,2h
0805BC1C D01F     beq     805BC5Eh
0805BC1E 2803     cmp     r0,3h
0805BC20 D02D     beq     805BC7Eh
0805BC22 E03C     b       805BC9Eh
0805BC24 1C18     mov     r0,r3
0805BC26 4368     mul     r0,r5
0805BC28 1143     asr     r3,r0,5h
0805BC2A 211F     mov     r1,1Fh
0805BC2C 400B     and     r3,r1
0805BC2E 1C20     mov     r0,r4
0805BC30 4368     mul     r0,r5
0805BC32 1144     asr     r4,r0,5h
0805BC34 400C     and     r4,r1
0805BC36 1C10     mov     r0,r2
0805BC38 4368     mul     r0,r5
0805BC3A 1142     asr     r2,r0,5h
0805BC3C E02E     b       805BC9Ch
0805BC3E 1AF8     sub     r0,r7,r3
0805BC40 4368     mul     r0,r5
0805BC42 1140     asr     r0,r0,5h
0805BC44 211F     mov     r1,1Fh
0805BC46 1A0B     sub     r3,r1,r0
0805BC48 400B     and     r3,r1
0805BC4A 1B38     sub     r0,r7,r4
0805BC4C 4368     mul     r0,r5
0805BC4E 1140     asr     r0,r0,5h
0805BC50 1A0C     sub     r4,r1,r0
0805BC52 400C     and     r4,r1
0805BC54 1AB8     sub     r0,r7,r2
0805BC56 4368     mul     r0,r5
0805BC58 1140     asr     r0,r0,5h
0805BC5A 1A0A     sub     r2,r1,r0
0805BC5C E01E     b       805BC9Ch
0805BC5E 1C18     mov     r0,r3
0805BC60 4368     mul     r0,r5
0805BC62 1140     asr     r0,r0,5h
0805BC64 1A1B     sub     r3,r3,r0
0805BC66 211F     mov     r1,1Fh
0805BC68 400B     and     r3,r1
0805BC6A 1C20     mov     r0,r4
0805BC6C 4368     mul     r0,r5
0805BC6E 1140     asr     r0,r0,5h
0805BC70 1A24     sub     r4,r4,r0
0805BC72 400C     and     r4,r1
0805BC74 1C10     mov     r0,r2
0805BC76 4368     mul     r0,r5
0805BC78 1140     asr     r0,r0,5h
0805BC7A 1A12     sub     r2,r2,r0
0805BC7C E00E     b       805BC9Ch
0805BC7E 1AF8     sub     r0,r7,r3
0805BC80 4368     mul     r0,r5
0805BC82 1140     asr     r0,r0,5h
0805BC84 181B     add     r3,r3,r0
0805BC86 211F     mov     r1,1Fh
0805BC88 400B     and     r3,r1
0805BC8A 1B38     sub     r0,r7,r4
0805BC8C 4368     mul     r0,r5
0805BC8E 1140     asr     r0,r0,5h
0805BC90 1824     add     r4,r4,r0
0805BC92 400C     and     r4,r1
0805BC94 1AB8     sub     r0,r7,r2
0805BC96 4368     mul     r0,r5
0805BC98 1140     asr     r0,r0,5h
0805BC9A 1812     add     r2,r2,r0
0805BC9C 400A     and     r2,r1
0805BC9E 0160     lsl     r0,r4,5h
0805BCA0 4303     orr     r3,r0
0805BCA2 0290     lsl     r0,r2,0Ah
0805BCA4 4303     orr     r3,r0
0805BCA6 0418     lsl     r0,r3,10h
0805BCA8 0C00     lsr     r0,r0,10h
0805BCAA BCF0     pop     r4-r7
0805BCAC BC02     pop     r1
0805BCAE 4708     bx      r1
0805BCB0 B5F0     push    r4-r7,lr
0805BCB2 4806     ldr     r0,=3005520h
0805BCB4 7941     ldrb    r1,[r0,5h]
0805BCB6 1C06     mov     r6,r0
0805BCB8 2900     cmp     r1,0h
0805BCBA D00B     beq     805BCD4h
0805BCBC 4A04     ldr     r2,=8345D00h
0805BCBE 7831     ldrb    r1,[r6]
0805BCC0 0048     lsl     r0,r1,1h
0805BCC2 1840     add     r0,r0,r1
0805BCC4 00C0     lsl     r0,r0,3h
0805BCC6 1880     add     r0,r0,r2
0805BCC8 7C03     ldrb    r3,[r0,10h]
0805BCCA E00A     b       805BCE2h
0805BCCC 5520     strb    r0,[r4,r4]
0805BCCE 0300     lsl     r0,r0,0Ch
0805BCD0 5D00     ldrb    r0,[r0,r4]
0805BCD2 0834     lsr     r4,r6,20h
0805BCD4 4A08     ldr     r2,=8345D00h
0805BCD6 7831     ldrb    r1,[r6]
0805BCD8 0048     lsl     r0,r1,1h
0805BCDA 1840     add     r0,r0,r1
0805BCDC 00C0     lsl     r0,r0,3h
0805BCDE 1880     add     r0,r0,r2
0805BCE0 7A03     ldrb    r3,[r0,8h]
0805BCE2 1C17     mov     r7,r2
0805BCE4 4905     ldr     r1,=8345FD0h
0805BCE6 00DA     lsl     r2,r3,3h
0805BCE8 1850     add     r0,r2,r1
0805BCEA 7904     ldrb    r4,[r0,4h]
0805BCEC 78B0     ldrb    r0,[r6,2h]
0805BCEE 2800     cmp     r0,0h
0805BCF0 D106     bne     805BD00h
0805BCF2 2500     mov     r5,0h
0805BCF4 E00C     b       805BD10h
0805BCF6 0000     lsl     r0,r0,0h
0805BCF8 5D00     ldrb    r0,[r0,r4]
0805BCFA 0834     lsr     r4,r6,20h
0805BCFC 5FD0     ldsh    r0,[r2,r7]
0805BCFE 0834     lsr     r4,r6,20h
0805BD00 78B0     ldrb    r0,[r6,2h]
0805BD02 2502     mov     r5,2h
0805BD04 42A0     cmp     r0,r4
0805BD06 D003     beq     805BD10h
0805BD08 2501     mov     r5,1h
0805BD0A 42A0     cmp     r0,r4
0805BD0C DD00     ble     805BD10h
0805BD0E 2503     mov     r5,3h
0805BD10 2D01     cmp     r5,1h
0805BD12 DC05     bgt     805BD20h
0805BD14 1850     add     r0,r2,r1
0805BD16 78B1     ldrb    r1,[r6,2h]
0805BD18 6800     ldr     r0,[r0]
0805BD1A 1840     add     r0,r0,r1
0805BD1C 7804     ldrb    r4,[r0]
0805BD1E E000     b       805BD22h
0805BD20 2400     mov     r4,0h
0805BD22 7831     ldrb    r1,[r6]
0805BD24 0048     lsl     r0,r1,1h
0805BD26 1840     add     r0,r0,r1
0805BD28 00C0     lsl     r0,r0,3h
0805BD2A 19C0     add     r0,r0,r7
0805BD2C 7D83     ldrb    r3,[r0,16h]
0805BD2E 4806     ldr     r0,=875FD78h
0805BD30 009A     lsl     r2,r3,2h
0805BD32 1812     add     r2,r2,r0
0805BD34 1C28     mov     r0,r5
0805BD36 1C21     mov     r1,r4
0805BD38 6812     ldr     r2,[r2]
0805BD3A F02EFF61 bl      808AC00h
0805BD3E 0600     lsl     r0,r0,18h
0805BD40 2800     cmp     r0,0h
0805BD42 D103     bne     805BD4Ch
0805BD44 2000     mov     r0,0h
0805BD46 E004     b       805BD52h
0805BD48 FD780875 ????
0805BD4A 0875     lsr     r5,r6,1h
0805BD4C 2000     mov     r0,0h
0805BD4E 70B0     strb    r0,[r6,2h]
0805BD50 2001     mov     r0,1h
0805BD52 BCF0     pop     r4-r7
0805BD54 BC02     pop     r1
0805BD56 4708     bx      r1
0805BD58 B510     push    r4,lr
0805BD5A 0600     lsl     r0,r0,18h
0805BD5C 0E00     lsr     r0,r0,18h
0805BD5E 1C02     mov     r2,r0
0805BD60 0609     lsl     r1,r1,18h
0805BD62 0E09     lsr     r1,r1,18h
0805BD64 2801     cmp     r0,1h
0805BD66 D00F     beq     805BD88h
0805BD68 2801     cmp     r0,1h
0805BD6A DC02     bgt     805BD72h
0805BD6C 2800     cmp     r0,0h
0805BD6E D005     beq     805BD7Ch
0805BD70 E026     b       805BDC0h
0805BD72 2A02     cmp     r2,2h
0805BD74 D014     beq     805BDA0h
0805BD76 2A03     cmp     r2,3h
0805BD78 D01D     beq     805BDB6h
0805BD7A E021     b       805BDC0h
0805BD7C 4806     ldr     r0,=3005520h
0805BD7E 7942     ldrb    r2,[r0,5h]
0805BD80 2A00     cmp     r2,0h
0805BD82 D101     bne     805BD88h
0805BD84 4805     ldr     r0,=30013AEh
0805BD86 8002     strh    r2,[r0]
0805BD88 1C08     mov     r0,r1
0805BD8A F7FFFBA5 bl      805B4D8h
0805BD8E 4902     ldr     r1,=3005520h
0805BD90 7888     ldrb    r0,[r1,2h]
0805BD92 3001     add     r0,1h
0805BD94 7088     strb    r0,[r1,2h]
0805BD96 E013     b       805BDC0h
0805BD98 5520     strb    r0,[r4,r4]
0805BD9A 0300     lsl     r0,r0,0Ch
0805BD9C 13AE     asr     r6,r5,0Eh
0805BD9E 0300     lsl     r0,r0,0Ch
0805BDA0 4C06     ldr     r4,=3005520h
0805BDA2 7960     ldrb    r0,[r4,5h]
0805BDA4 2800     cmp     r0,0h
0805BDA6 D103     bne     805BDB0h
