
;pose 00
0801409C B5F0     push    r4-r7,r14                               
0801409E 4657     mov     r7,r10                                  
080140A0 464E     mov     r6,r9                                   
080140A2 4645     mov     r5,r8                                   
080140A4 B4E0     push    r5-r7                                   
080140A6 B083     add     sp,-0Ch                                 
080140A8 4C08     ldr     r4,=3000738h                            
080140AA 1C22     mov     r2,r4                                   
080140AC 3232     add     r2,32h                                  
080140AE 7811     ldrb    r1,[r2]      ;读取碰撞属性                             
080140B0 2009     mov     r0,9h                                   
080140B2 4308     orr     r0,r1        ;orr9                            
080140B4 7010     strb    r0,[r2]      ;再写入  似乎波离同时有才能穿透                         
080140B6 F7FFFD95 bl      8013BE4h     ;面向分配                           
080140BA 8821     ldrh    r1,[r4]                                 
080140BC 2040     mov     r0,40h                                  
080140BE 4008     and     r0,r1                                   
080140C0 2800     cmp     r0,0h        ;检查面向是否加了40h                           
080140C2 D007     beq     @@faceleft                                
080140C4 4902     ldr     r1,=300070Ch                            
080140C6 88A0     ldrh    r0,[r4,4h]                              
080140C8 3020     add     r0,20h       ;X坐标向右半格                           
080140CA E006     b       @@Peer                                

@@faceleft:                              
080140D4 491B     ldr     r1,=300070Ch                            
080140D6 88A0     ldrh    r0,[r4,4h]                              
080140D8 3820     sub     r0,20h       ;X坐标向左半格

@@Peer:                           
080140DA 8108     strh    r0,[r1,8h]    ;写入X坐标                         
080140DC 4D19     ldr     r5,=300070Ch                            
080140DE 4C1A     ldr     r4,=3000738h                            
080140E0 8860     ldrh    r0,[r4,2h]    ;读取Y坐标                          
080140E2 2200     mov     r2,0h                                   
080140E4 2300     mov     r3,0h                                   
080140E6 80E8     strh    r0,[r5,6h]    ;写入公共Y坐标                           
080140E8 1C20     mov     r0,r4                                   
080140EA 3027     add     r0,27h                                  
080140EC 2120     mov     r1,20h        ;300075f写入20h                          
080140EE 7001     strb    r1,[r0]                                 
080140F0 3001     add     r0,1h                                   
080140F2 7001     strb    r1,[r0]       ;3000760写入20h                           
080140F4 1C21     mov     r1,r4                                   
080140F6 3129     add     r1,29h                                  
080140F8 2018     mov     r0,18h        ;3000761写入18h                          
080140FA 7008     strb    r0,[r1]                                 
080140FC 2004     mov     r0,4h                                   
080140FE 8160     strh    r0,[r4,0Ah]                             
08014100 81A0     strh    r0,[r4,0Ch]                             
08014102 81E0     strh    r0,[r4,0Eh]                             
08014104 8220     strh    r0,[r4,10h]   ;四面分界全部写入4h                          
08014106 3907     sub     r1,7h                                   
08014108 2003     mov     r0,3h                                   
0801410A 7008     strb    r0,[r1]       ;300075a写入3h                          
0801410C 1C20     mov     r0,r4                                   
0801410E 3025     add     r0,25h                                  
08014110 7002     strb    r2,[r0]       ;属性写入0                          
08014112 2001     mov     r0,1h                                   
08014114 82A0     strh    r0,[r4,14h]   ;血量写入1h                          
08014116 732A     strb    r2,[r5,0Ch]   ;3000718写入0                          
08014118 80AB     strh    r3,[r5,4h]    ;3000710写入0                          
0801411A 73AA     strb    r2,[r5,0Eh]   ;300071a写入0                          
0801411C 73EA     strb    r2,[r5,0Fh]   ;300071b写入0                          
0801411E 7F60     ldrb    r0,[r4,1Dh]   ;读取ID                         
08014120 F7FFFE5E bl      8013DE0h                                
08014124 0600     lsl     r0,r0,18h     ;如果是指引激活则返回3.不激活则返回2                          
08014126 0E06     lsr     r6,r0,18h     ;如果是能力,已得则返回1,未得则返回0                          
08014128 2E01     cmp     r6,1h                                   
0801412A D91D     bls     @@Ability     ;能力                           
0801412C 1C21     mov     r1,r4                                   
0801412E 3124     add     r1,24h        ;指引的pose                          
08014130 2009     mov     r0,9h         ;pose写入9                          
08014132 7008     strb    r0,[r1]                                 
08014134 2E03     cmp     r6,3h                                   
08014136 D10B     bne     @@EventNoActivation                                
08014138 4804     ldr     r0,=82B3BB4h                            
0801413A 6028     str     r0,[r5]       ;坐下的OAM                           
0801413C 2004     mov     r0,4h                                   
0801413E F002F875 bl      801622Ch      ;生产坐下的鸟人的砖块身体                          
08014142 E041     b       @@Peer2                                

@@EventNoActivation:                               
08014150 2001     mov     r0,1h                                   
08014152 73E8     strb    r0,[r5,0Fh]   ;300071b写入1                         
08014154 4803     ldr     r0,=82B3B4Ch  ;站立的OAM                          
08014156 6028     str     r0,[r5]                                 
08014158 2004     mov     r0,4h                                   
0801415A 2102     mov     r1,2h                                   
0801415C F001FFE4 bl      8016128h      ;生产站立的鸟人砖块                            
08014160 E032     b       @@Peer2                                

@@Ability:                              
08014168 480C     ldr     r0,=82B3BB4h                            
0801416A 6028     str     r0,[r5]                                 
0801416C 2004     mov     r0,4h                                   
0801416E F002F85D bl      801622Ch      ;生产坐下的鸟人砖块身体                          
08014172 2E00     cmp     r6,0h                                   
08014174 D124     bne     @@eat                                
08014176 1C21     mov     r1,r4                                   
08014178 3124     add     r1,24h                                  
0801417A 2029     mov     r0,29h                                  
0801417C 7008     strb    r0,[r1]       ;如果能力已经被吃,则pose写入29h                          
0801417E 8821     ldrh    r1,[r4]                                 
08014180 2040     mov     r0,40h                                  
08014182 4008     and     r0,r1                                   
08014184 2800     cmp     r0,0h                                   
08014186 D00B     beq     @@faceleft2                                
08014188 7FE2     ldrb    r2,[r4,1Fh]   ;读取GFX ROW                          
0801418A 1C20     mov     r0,r4                                   
0801418C 3023     add     r0,23h                                  
0801418E 7803     ldrb    r3,[r0]       ;读取主序号                          
08014190 88E8     ldrh    r0,[r5,6h]                             
08014192 3860     sub     r0,60h        ;Y坐标向上1格半                           
08014194 9000     str     r0,[sp]                                 
08014196 8928     ldrh    r0,[r5,8h]    ;读取X坐标 向右38h,等于向右58h                          
08014198 3038     add     r0,38h                                  
0801419A E00A     b       @@Peer3                                                            

@@faceleft2:                               
080141A0 7FE2     ldrb    r2,[r4,1Fh]                             
080141A2 1C20     mov     r0,r4                                   
080141A4 3023     add     r0,23h                                  
080141A6 7803     ldrb    r3,[r0]                                 
080141A8 88E8     ldrh    r0,[r5,6h]                              
080141AA 3860     sub     r0,60h                                  
080141AC 9000     str     r0,[sp]                                 
080141AE 8928     ldrh    r0,[r5,8h]                              
080141B0 3838     sub     r0,38h       

@@Peer3:                               
080141B2 9001     str     r0,[sp,4h]                              
080141B4 9602     str     r6,[sp,8h]                              
080141B6 2000     mov     r0,0h                                   
080141B8 2100     mov     r1,0h                                   
080141BA F7FAF84D bl      800E258h      ;生产能力的球层                          
080141BE E003     b       @@Peer2  

@@eat:                              
080141C0 1C21     mov     r1,r4                                   
080141C2 3124     add     r1,24h                                  
080141C4 2009     mov     r0,9h                                   
080141C6 7008     strb    r0,[r1]       ;pose写入9

@@Peer2:                                 
080141C8 4F2F     ldr     r7,=3000738h                            
080141CA 2004     mov     r0,4h                                   
080141CC 77B8     strb    r0,[r7,1Eh]   ;3000756写入4                          
080141CE 482F     ldr     r0,=300070Ch                            
080141D0 88C5     ldrh    r5,[r0,6h]                              
080141D2 8900     ldrh    r0,[r0,8h]                              
080141D4 4682     mov     r10,r0                                  
080141D6 7FF8     ldrb    r0,[r7,1Fh]                             
080141D8 4681     mov     r9,r0                                   
080141DA 1C38     mov     r0,r7                                   
080141DC 3023     add     r0,23h                                  
080141DE 7800     ldrb    r0,[r0]                                 
080141E0 4680     mov     r8,r0                                   
080141E2 9500     str     r5,[sp]                                 
080141E4 4650     mov     r0,r10                                  
080141E6 9001     str     r0,[sp,4h]                              
080141E8 8839     ldrh    r1,[r7]                                 
080141EA 2440     mov     r4,40h                                  
080141EC 1C20     mov     r0,r4                                   
080141EE 4008     and     r0,r1                                   
080141F0 0400     lsl     r0,r0,10h                               
080141F2 0C00     lsr     r0,r0,10h                               
080141F4 9002     str     r0,[sp,8h]                              
080141F6 2001     mov     r0,1h                                   
080141F8 2102     mov     r1,2h                                   
080141FA 464A     mov     r2,r9                                   
080141FC 4643     mov     r3,r8                                   
080141FE F7FAF82B bl      800E258h     ;生产鸟人雕像眼皮1-2                             
08014202 1C39     mov     r1,r7                                   
08014204 312D     add     r1,2Dh                                  
08014206 7008     strb    r0,[r1]                                 
08014208 9500     str     r5,[sp]                                 
0801420A 4650     mov     r0,r10                                  
0801420C 9001     str     r0,[sp,4h]                              
0801420E 8839     ldrh    r1,[r7]                                 
08014210 1C20     mov     r0,r4                                   
08014212 4008     and     r0,r1                                   
08014214 0400     lsl     r0,r0,10h                               
08014216 0C00     lsr     r0,r0,10h                               
08014218 9002     str     r0,[sp,8h]                              
0801421A 2001     mov     r0,1h                                   
0801421C 2100     mov     r1,0h                                   
0801421E 464A     mov     r2,r9                                   
08014220 4643     mov     r3,r8                                   
08014222 F7FAF819 bl      800E258h    ;生产鸟人雕像上肢1-0                            
08014226 0600     lsl     r0,r0,18h                               
08014228 0E06     lsr     r6,r0,18h                               
0801422A 9500     str     r5,[sp]                                 
0801422C 4650     mov     r0,r10                                  
0801422E 9001     str     r0,[sp,4h]                              
08014230 8839     ldrh    r1,[r7]                                 
08014232 1C20     mov     r0,r4                                   
08014234 4008     and     r0,r1                                   
08014236 0400     lsl     r0,r0,10h                               
08014238 0C00     lsr     r0,r0,10h                               
0801423A 9002     str     r0,[sp,8h]                              
0801423C 2001     mov     r0,1h                                   
0801423E 2103     mov     r1,3h                                   
08014240 464A     mov     r2,r9                                   
08014242 4643     mov     r3,r8                                   
08014244 F7FAF808 bl      800E258h   ;生产鸟人雕像下肢1-3                             
08014248 9500     str     r5,[sp]                                 
0801424A 4650     mov     r0,r10                                  
0801424C 9001     str     r0,[sp,4h]                              
0801424E 8838     ldrh    r0,[r7]                                 
08014250 4004     and     r4,r0                                   
08014252 0424     lsl     r4,r4,10h                               
08014254 0C24     lsr     r4,r4,10h                               
08014256 9402     str     r4,[sp,8h]                              
08014258 2001     mov     r0,1h                                   
0801425A 2101     mov     r1,1h                                   
0801425C 464A     mov     r2,r9                                   
0801425E 4643     mov     r3,r8                                   
08014260 F7F9FFFA bl      800E258h   ;生产鸟人雕像手掌光1-1                             
08014264 0600     lsl     r0,r0,18h                               
08014266 0E00     lsr     r0,r0,18h                               
08014268 4A09     ldr     r2,=30001ACh                            
0801426A 00C1     lsl     r1,r0,3h                                
0801426C 1A09     sub     r1,r1,r0                                
0801426E 00C9     lsl     r1,r1,3h                                
08014270 1889     add     r1,r1,r2                                
08014272 312D     add     r1,2Dh                                  
08014274 700E     strb    r6,[r1]                                 
08014276 B003     add     sp,0Ch                                  
08014278 BC38     pop     r3-r5                                   
0801427A 4698     mov     r8,r3                                   
0801427C 46A1     mov     r9,r4                                   
0801427E 46AA     mov     r10,r5                                  
08014280 BCF0     pop     r4-r7                                   
08014282 BC01     pop     r0                                      
08014284 4700     bx      r0                                      

;pose9
bx r14


;pose 22h                               
                              
08014298 B530     push    r4,r5,r14                               
0801429A 4C16     ldr     r4,=3000738h                            
0801429C 1C20     mov     r0,r4                                   
0801429E 302D     add     r0,2Dh                                  
080142A0 7801     ldrb    r1,[r0]        ;读取产卵序号                         
080142A2 4A15     ldr     r2,=30001ACh                            
080142A4 00C8     lsl     r0,r1,3h                                
080142A6 1A40     sub     r0,r0,r1                                
080142A8 00C0     lsl     r0,r0,3h                                
080142AA 1880     add     r0,r0,r2                                
080142AC 3024     add     r0,24h                                  
080142AE 2200     mov     r2,0h         ;读取pose                           
080142B0 2142     mov     r1,42h                                  
080142B2 7001     strb    r1,[r0]       ;副灵pose写入42                          
080142B4 1C21     mov     r1,r4                                   
080142B6 3124     add     r1,24h                                  
080142B8 2023     mov     r0,23h                                  
080142BA 7008     strb    r0,[r1]       ;pose写入23                           
080142BC 1C25     mov     r5,r4                                   
080142BE 352C     add     r5,2Ch                                  
080142C0 2078     mov     r0,78h                                  
080142C2 7028     strb    r0,[r5]       ;偏移2C计时78h                          
080142C4 310A     add     r1,0Ah                                  
080142C6 200C     mov     r0,0Ch                                  
080142C8 7008     strb    r0,[r1]       ;偏移2D写入0Ch                          
080142CA 1C20     mov     r0,r4                                   
080142CC 302F     add     r0,2Fh                                  
080142CE 7002     strb    r2,[r0]       ;偏移2F写入0                           
080142D0 7F60     ldrb    r0,[r4,1Dh]                             
080142D2 2822     cmp     r0,22h                                  
080142D4 D105     bne     @@NoLongBeamLoc                               
080142D6 2001     mov     r0,1h                                   
080142D8 F04CF874 bl      80603C4h                                
080142DC 7828     ldrb    r0,[r5]                                 
080142DE 3028     add     r0,28h                                  
080142E0 7028     strb    r0,[r5] 

@@NoLongBeamLoc:                                
080142E2 7F60     ldrb    r0,[r4,1Dh]                             
080142E4 F7FFFAF8 bl      80138D8h                                
080142E8 203C     mov     r0,3Ch                                  
080142EA F7EFFBD5 bl      8003A98h                                
080142EE BC30     pop     r4,r5                                   
080142F0 BC01     pop     r0                                      
080142F2 4700     bx      r0                                      

;pose 23h                              
080142FC B510     push    r4,r14                                  
080142FE 4B12     ldr     r3,=3000738h                            
08014300 1C18     mov     r0,r3                                   
08014302 302D     add     r0,2Dh                                  
08014304 7801     ldrb    r1,[r0]                                 
08014306 4A11     ldr     r2,=30001ACh                            
08014308 00C8     lsl     r0,r1,3h                                
0801430A 1A40     sub     r0,r0,r1                                
0801430C 00C0     lsl     r0,r0,3h                                
0801430E 1880     add     r0,r0,r2                                
08014310 3024     add     r0,24h                                  
08014312 7800     ldrb    r0,[r0]    ;读取某副灵的ID                            
08014314 2861     cmp     r0,61h                                  
08014316 D14B     bne     @@end      ;不是61则结束                           
08014318 1C19     mov     r1,r3                                   
0801431A 312C     add     r1,2Ch                                  
0801431C 7808     ldrb    r0,[r1]    ;读取2C的值                             
0801431E 3801     sub     r0,1h                                   
08014320 7008     strb    r0,[r1]    ;减1再写入                             
08014322 0600     lsl     r0,r0,18h                               
08014324 0E02     lsr     r2,r0,18h                               
08014326 2A00     cmp     r2,0h                                   
08014328 D114     bne     @@NoOne                                
0801432A 3908     sub     r1,8h                                   
0801432C 2024     mov     r0,24h                                  
0801432E 7008     strb    r0,[r1]                                 
08014330 1C18     mov     r0,r3                                   
08014332 3020     add     r0,20h                                  
08014334 7002     strb    r2,[r0]                                 
08014336 4906     ldr     r1,=3000BF0h                            
08014338 2004     mov     r0,4h                                   
0801433A 7008     strb    r0,[r1]    ;暂停屏幕flag写入4                             
0801433C 2005     mov     r0,5h                                   
0801433E 2100     mov     r1,0h                                   
08014340 F7EFFB58 bl      80039F4h   ;改变音乐                           
08014344 E034     b       @@end                                
.pool

@@NoOne:                             
08014354 2A77     cmp     r2,77h                                  
08014356 D109     bne     @@No77                                
08014358 2000     mov     r0,0h                                   
0801435A F04CF833 bl      80603C4h   ;屏幕泛黄闪两下                            
0801435E 4802     ldr     r0,=11Bh                                
08014360 F7EEFB5A bl      8002A18h                                
08014364 E004     b       @@Peer                               
.pool

@@No77:                               
0801436C 2A77     cmp     r2,77h                                  
0801436E D81F     bhi     @@end  

@@Peer:                              
08014370 4A0C     ldr     r2,=3000738h                            
08014372 1C11     mov     r1,r2                                   
08014374 312E     add     r1,2Eh                                  
08014376 7808     ldrb    r0,[r1]    ;读取2e的值                             
08014378 3801     sub     r0,1h                                   
0801437A 7008     strb    r0,[r1]    ;减1再写入                             
0801437C 0600     lsl     r0,r0,18h                               
0801437E 0E04     lsr     r4,r0,18h                               
08014380 2C00     cmp     r4,0h                                   
08014382 D115     bne     @@end                                
08014384 200C     mov     r0,0Ch                                  
08014386 7008     strb    r0,[r1]    ;为0则再次写入0C                              
08014388 4907     ldr     r1,=82B3BC4h                            
0801438A 1C13     mov     r3,r2                                   
0801438C 332F     add     r3,2Fh                                  
0801438E 7818     ldrb    r0,[r3]    ;读取偏移2f                              
08014390 1840     add     r0,r0,r1   ;加上偏移值                             
08014392 7801     ldrb    r1,[r0]    ;读取值                              
08014394 1C10     mov     r0,r2                                   
08014396 3020     add     r0,20h                                  
08014398 7001     strb    r1,[r0]    ;写入调色板                              
0801439A 7818     ldrb    r0,[r3]    ;读取2F                             
0801439C 2802     cmp     r0,2h                                   
0801439E D905     bls     @@Less2FTwo                               
080143A0 701C     strb    r4,[r3]    ;小于等于2则直接写入0                              
080143A2 E005     b       @@end                                 

@@Less2FTwo:                             
080143AC 3001     add     r0,1h                                   
080143AE 7018     strb    r0,[r3]  

@@end:                               
080143B0 BC10     pop     r4                                      
080143B2 BC01     pop     r0                                      
080143B4 4700     bx      r0                                      


;pose24       进入小地图指引开始的pose                              
080143B8 B500     push    r14                                     
080143BA 480B     ldr     r0,=3000738h                            
080143BC 3024     add     r0,24h                                  
080143BE 2200     mov     r2,0h                                   
080143C0 2125     mov     r1,25h                                  
080143C2 7001     strb    r1,[r0]       ;pose写入25                           
080143C4 4809     ldr     r0,=300070Ch                            
080143C6 490A     ldr     r1,=82B3B5Ch                            
080143C8 6001     str     r1,[r0]       ;写入新OAM                           
080143CA 7302     strb    r2,[r0,0Ch]                             
080143CC 8082     strh    r2,[r0,4h]                              
080143CE 2001     mov     r0,1h                                   
080143D0 2101     mov     r1,1h                                   
080143D2 F001FEA9 bl      8016128h      ;去掉站立的鸟人砖块?                             
080143D6 208E     mov     r0,8Eh                                  
080143D8 0040     lsl     r0,r0,1h                                
080143DA F7EEFB1D bl      8002A18h                                
080143DE 4905     ldr     r1,=300003Eh                            
080143E0 203C     mov     r0,3Ch                                  
080143E2 8008     strh    r0,[r1]       ;不知何用                             
080143E4 BC01     pop     r0                                      
080143E6 4700     bx      r0                                       
.pool

;pose 25                              
080143F8 B510     push    r4,r14                                  
080143FA F7FCFF81 bl      8011300h                                
080143FE 4C0E     ldr     r4,=300070Ch                            
08014400 7BA0     ldrb    r0,[r4,0Eh]                             
08014402 2800     cmp     r0,0h                                   
08014404 D001     beq     801440Ah                                
08014406 F7FEF8EF bl      80125E8h                                
0801440A F7FBFC61 bl      800FCD0h                                
0801440E 2800     cmp     r0,0h                                   
08014410 D00F     beq     8014432h                                
08014412 480A     ldr     r0,=82B3BB4h                            
08014414 6020     str     r0,[r4]                                 
08014416 2000     mov     r0,0h                                   
08014418 7320     strb    r0,[r4,0Ch]                             
0801441A 80A0     strh    r0,[r4,4h]                              
0801441C 4908     ldr     r1,=3000738h                            
0801441E 1C0A     mov     r2,r1                                   
08014420 3224     add     r2,24h                                  
08014422 2027     mov     r0,27h                                  
08014424 7010     strb    r0,[r2]                                 
08014426 312C     add     r1,2Ch                                  
08014428 201E     mov     r0,1Eh                                  
0801442A 7008     strb    r0,[r1]                                 
0801442C 2004     mov     r0,4h                                   
0801442E F001FEFD bl      801622Ch                                
08014432 BC10     pop     r4                                      
08014434 BC01     pop     r0                                      
08014436 4700     bx      r0                                      
08014438 070C     lsl     r4,r1,1Ch                               
0801443A 0300     lsl     r0,r0,0Ch                               
0801443C 3BB4     sub     r3,0B4h                                 
0801443E 082B     lsr     r3,r5,20h                               
08014440 0738     lsl     r0,r7,1Ch                               
08014442 0300     lsl     r0,r0,0Ch                               
08014444 B500     push    r14                                     
08014446 4A07     ldr     r2,=3000738h                            
08014448 1C11     mov     r1,r2                                   
0801444A 312C     add     r1,2Ch                                  
0801444C 7808     ldrb    r0,[r1]                                 
0801444E 3801     sub     r0,1h                                   
08014450 7008     strb    r0,[r1]                                 
08014452 0600     lsl     r0,r0,18h                               
08014454 2800     cmp     r0,0h                                   
08014456 D102     bne     801445Eh                                
08014458 3908     sub     r1,8h                                   
0801445A 2009     mov     r0,9h                                   
0801445C 7008     strb    r0,[r1]                                 
0801445E BC01     pop     r0                                      
08014460 4700     bx      r0                                      
08014462 0000     lsl     r0,r0,0h                                
08014464 0738     lsl     r0,r7,1Ch                               
08014466 0300     lsl     r0,r0,0Ch                               
08014468 B510     push    r4,r14                                  
0801446A 4C09     ldr     r4,=3000738h                            
0801446C 7F60     ldrb    r0,[r4,1Dh]                             
0801446E F7FFFCB7 bl      8013DE0h                                
08014472 0600     lsl     r0,r0,18h                               
08014474 0E00     lsr     r0,r0,18h                               
08014476 2801     cmp     r0,1h                                   
08014478 D106     bne     8014488h                                
0801447A 1C21     mov     r1,r4                                   
0801447C 3124     add     r1,24h                                  
0801447E 202B     mov     r0,2Bh                                  
08014480 7008     strb    r0,[r1]                                 
08014482 3108     add     r1,8h                                   
08014484 2028     mov     r0,28h                                  
08014486 7008     strb    r0,[r1]                                 
08014488 BC10     pop     r4                                      
0801448A BC01     pop     r0                                      
0801448C 4700     bx      r0                                      
0801448E 0000     lsl     r0,r0,0h                                
08014490 0738     lsl     r0,r7,1Ch                               
08014492 0300     lsl     r0,r0,0Ch                               
08014494 B500     push    r14                                     
08014496 4A07     ldr     r2,=3000738h                            
08014498 1C11     mov     r1,r2                                   
0801449A 312C     add     r1,2Ch                                  
0801449C 7808     ldrb    r0,[r1]                                 
0801449E 3801     sub     r0,1h                                   
080144A0 7008     strb    r0,[r1]                                 
080144A2 0600     lsl     r0,r0,18h                               
080144A4 2800     cmp     r0,0h                                   
080144A6 D102     bne     80144AEh                                
080144A8 3908     sub     r1,8h                                   
080144AA 2009     mov     r0,9h                                   
080144AC 7008     strb    r0,[r1]                                 
080144AE BC01     pop     r0                                      
080144B0 4700     bx      r0                                      
080144B2 0000     lsl     r0,r0,0h                                
080144B4 0738     lsl     r0,r7,1Ch                               
080144B6 0300     lsl     r0,r0,0Ch                               
080144B8 B510     push    r4,r14                                  
080144BA B083     add     sp,-0Ch                                 
080144BC 4B0E     ldr     r3,=3000738h                            
080144BE 1C19     mov     r1,r3                                   
080144C0 3124     add     r1,24h                                  
080144C2 2400     mov     r4,0h                                   
080144C4 202F     mov     r0,2Fh                                  
080144C6 7008     strb    r0,[r1]                                 
080144C8 310A     add     r1,0Ah                                  
080144CA 2004     mov     r0,4h                                   
080144CC 7008     strb    r0,[r1]                                 
080144CE 1C18     mov     r0,r3                                   
080144D0 302F     add     r0,2Fh                                  
080144D2 7004     strb    r4,[r0]                                 
080144D4 7FDA     ldrb    r2,[r3,1Fh]                             
080144D6 380C     sub     r0,0Ch                                  
080144D8 7803     ldrb    r3,[r0]                                 
080144DA 4908     ldr     r1,=30013D4h                            
080144DC 8A88     ldrh    r0,[r1,14h]                             
080144DE 3818     sub     r0,18h                                  
080144E0 9000     str     r0,[sp]                                 
080144E2 8A48     ldrh    r0,[r1,12h]                             
080144E4 9001     str     r0,[sp,4h]                              
080144E6 9402     str     r4,[sp,8h]                              
080144E8 2002     mov     r0,2h                                   
080144EA 2100     mov     r1,0h                                   
080144EC F7F9FEB4 bl      800E258h                                
080144F0 B003     add     sp,0Ch                                  
080144F2 BC10     pop     r4                                      
080144F4 BC01     pop     r0                                      
080144F6 4700     bx      r0                                      
080144F8 0738     lsl     r0,r7,1Ch                               
080144FA 0300     lsl     r0,r0,0Ch                               
080144FC 13D4     asr     r4,r2,0Fh                               
080144FE 0300     lsl     r0,r0,0Ch                               
08014500 B510     push    r4,r14                                  
08014502 4A0D     ldr     r2,=3000738h                            
08014504 1C11     mov     r1,r2                                   
08014506 312E     add     r1,2Eh                                  
08014508 7808     ldrb    r0,[r1]                                 
0801450A 3801     sub     r0,1h                                   
0801450C 7008     strb    r0,[r1]                                 
0801450E 0600     lsl     r0,r0,18h                               
08014510 0E04     lsr     r4,r0,18h                               
08014512 2C00     cmp     r4,0h                                   
08014514 D116     bne     8014544h                                
08014516 2004     mov     r0,4h                                   
08014518 7008     strb    r0,[r1]                                 
0801451A 4908     ldr     r1,=82B3BC4h                            
0801451C 1C13     mov     r3,r2                                   
0801451E 332F     add     r3,2Fh                                  
08014520 7818     ldrb    r0,[r3]                                 
08014522 1840     add     r0,r0,r1                                
08014524 7801     ldrb    r1,[r0]                                 
08014526 1C10     mov     r0,r2                                   
08014528 3020     add     r0,20h                                  
0801452A 7001     strb    r1,[r0]                                 
0801452C 7818     ldrb    r0,[r3]                                 
0801452E 2802     cmp     r0,2h                                   
08014530 D906     bls     8014540h                                
08014532 701C     strb    r4,[r3]                                 
08014534 E006     b       8014544h                                
08014536 0000     lsl     r0,r0,0h                                
08014538 0738     lsl     r0,r7,1Ch                               
0801453A 0300     lsl     r0,r0,0Ch                               
0801453C 3BC4     sub     r3,0C4h                                 
0801453E 082B     lsr     r3,r5,20h                               
08014540 3001     add     r0,1h                                   
08014542 7018     strb    r0,[r3]                                 
08014544 BC10     pop     r4                                      
08014546 BC01     pop     r0                                      
08014548 4700     bx      r0                                      
0801454A 0000     lsl     r0,r0,0h                                
0801454C 4B06     ldr     r3,=3000738h                            
0801454E 1C19     mov     r1,r3                                   
08014550 3124     add     r1,24h                                  
08014552 2200     mov     r2,0h                                   
08014554 2031     mov     r0,31h                                  
08014556 7008     strb    r0,[r1]                                 
08014558 1C18     mov     r0,r3                                   
0801455A 3020     add     r0,20h                                  
0801455C 7002     strb    r2,[r0]                                 
0801455E 3108     add     r1,8h                                   
08014560 2046     mov     r0,46h                                  
08014562 7008     strb    r0,[r1]                                 
08014564 4770     bx      r14                                     
08014566 0000     lsl     r0,r0,0h                                
08014568 0738     lsl     r0,r7,1Ch                               
0801456A 0300     lsl     r0,r0,0Ch                               
0801456C B500     push    r14                                     
0801456E 4B11     ldr     r3,=3000738h                            
08014570 1C19     mov     r1,r3                                   
08014572 312C     add     r1,2Ch                                  
08014574 7808     ldrb    r0,[r1]                                 
08014576 3801     sub     r0,1h                                   
08014578 7008     strb    r0,[r1]                                 
0801457A 0600     lsl     r0,r0,18h                               
0801457C 2800     cmp     r0,0h                                   
0801457E D117     bne     80145B0h                                
08014580 1C18     mov     r0,r3                                   
08014582 302D     add     r0,2Dh                                  
08014584 7801     ldrb    r1,[r0]                                 
08014586 4A0C     ldr     r2,=30001ACh                            
08014588 00C8     lsl     r0,r1,3h                                
0801458A 1A40     sub     r0,r0,r1                                
0801458C 00C0     lsl     r0,r0,3h                                
0801458E 1880     add     r0,r0,r2                                
08014590 3024     add     r0,24h                                  
08014592 2144     mov     r1,44h                                  
08014594 7001     strb    r1,[r0]                                 
08014596 1C19     mov     r1,r3                                   
08014598 3124     add     r1,24h                                  
0801459A 200F     mov     r0,0Fh                                  
0801459C 7008     strb    r0,[r1]                                 
0801459E 4807     ldr     r0,=300070Ch                            
080145A0 7BC0     ldrb    r0,[r0,0Fh]                             
080145A2 2800     cmp     r0,0h                                   
080145A4 D004     beq     80145B0h                                
080145A6 4806     ldr     r0,=3000030h                            
080145A8 8800     ldrh    r0,[r0]                                 
080145AA 2100     mov     r1,0h                                   
080145AC F7EFFA22 bl      80039F4h                                
080145B0 BC01     pop     r0                                      
080145B2 4700     bx      r0                                      
080145B4 0738     lsl     r0,r7,1Ch                               
080145B6 0300     lsl     r0,r0,0Ch                               
080145B8 01AC     lsl     r4,r5,6h                                
080145BA 0300     lsl     r0,r0,0Ch                               
080145BC 070C     lsl     r4,r1,1Ch                               
080145BE 0300     lsl     r0,r0,0Ch                               
080145C0 0030     lsl     r0,r6,0h                                
080145C2 0300     lsl     r0,r0,0Ch                               
080145C4 B570     push    r4-r6,r14                               
080145C6 4C1A     ldr     r4,=3000738h                            
080145C8 1C20     mov     r0,r4                                   
080145CA 3023     add     r0,23h                                  
080145CC 7803     ldrb    r3,[r0]                                 
080145CE 8820     ldrh    r0,[r4]                                 
080145D0 4918     ldr     r1,=0FFFBh                              
080145D2 4001     and     r1,r0                                   
080145D4 2500     mov     r5,0h                                   
080145D6 2600     mov     r6,0h                                   
080145D8 2032     mov     r0,32h                                  
080145DA 1900     add     r0,r0,r4                                
080145DC 4684     mov     r12,r0                                  
080145DE 7802     ldrb    r2,[r0]                                 
080145E0 2001     mov     r0,1h                                   
080145E2 4310     orr     r0,r2                                   
080145E4 4662     mov     r2,r12                                  
080145E6 7010     strb    r0,[r2]                                 
080145E8 2280     mov     r2,80h                                  
080145EA 0212     lsl     r2,r2,8h                                
080145EC 1C10     mov     r0,r2                                   
080145EE 4301     orr     r1,r0                                   
080145F0 8021     strh    r1,[r4]                                 
080145F2 1C20     mov     r0,r4                                   
080145F4 3025     add     r0,25h                                  
080145F6 7005     strb    r5,[r0]                                 
080145F8 1C21     mov     r1,r4                                   
080145FA 3122     add     r1,22h                                  
080145FC 2002     mov     r0,2h                                   
080145FE 7008     strb    r0,[r1]                                 
08014600 2004     mov     r0,4h                                   
08014602 8160     strh    r0,[r4,0Ah]                             
08014604 81A0     strh    r0,[r4,0Ch]                             
08014606 81E0     strh    r0,[r4,0Eh]                             
08014608 8220     strh    r0,[r4,10h]                             
0801460A 490B     ldr     r1,=30001ACh                            
0801460C 00D8     lsl     r0,r3,3h                                
0801460E 1AC0     sub     r0,r0,r3                                
08014610 00C0     lsl     r0,r0,3h                                
08014612 1840     add     r0,r0,r1                                
08014614 7F40     ldrb    r0,[r0,1Dh]                             
08014616 F7FFFBE3 bl      8013DE0h                                
0801461A 0600     lsl     r0,r0,18h                               
0801461C 0E02     lsr     r2,r0,18h                               
0801461E 1C13     mov     r3,r2                                   
08014620 7FA1     ldrb    r1,[r4,1Eh]                             
08014622 2901     cmp     r1,1h                                   
08014624 D066     beq     80146F4h                                
08014626 2901     cmp     r1,1h                                   
08014628 DC08     bgt     801463Ch                                
0801462A 2900     cmp     r1,0h                                   
0801462C D00B     beq     8014646h                                
0801462E E07B     b       8014728h                                
08014630 0738     lsl     r0,r7,1Ch                               
08014632 0300     lsl     r0,r0,0Ch                               
08014634 FFFB     bl      lr+0FF6h                                
08014636 0000     lsl     r0,r0,0h                                
08014638 01AC     lsl     r4,r5,6h                                
0801463A 0300     lsl     r0,r0,0Ch                               
0801463C 2902     cmp     r1,2h                                   
0801463E D03E     beq     80146BEh                                
08014640 2903     cmp     r1,3h                                   
08014642 D027     beq     8014694h                                
08014644 E070     b       8014728h                                
08014646 1C21     mov     r1,r4                                   
08014648 3127     add     r1,27h                                  
0801464A 2010     mov     r0,10h                                  
0801464C 7008     strb    r0,[r1]                                 
0801464E 3101     add     r1,1h                                   
08014650 7008     strb    r0,[r1]                                 
08014652 3101     add     r1,1h                                   
08014654 201E     mov     r0,1Eh                                  
08014656 7008     strb    r0,[r1]                                 
08014658 7725     strb    r5,[r4,1Ch]                             
0801465A 82E6     strh    r6,[r4,16h]                             
0801465C 2A02     cmp     r2,2h                                   
0801465E D102     bne     8014666h                                
08014660 3905     sub     r1,5h                                   
08014662 2009     mov     r0,9h                                   
08014664 E002     b       801466Ch                                
08014666 1C21     mov     r1,r4                                   
08014668 3124     add     r1,24h                                  
0801466A 2025     mov     r0,25h                                  
0801466C 7008     strb    r0,[r1]                                 
0801466E 2B00     cmp     r3,0h                                   
08014670 D108     bne     8014684h                                
08014672 4902     ldr     r1,=3000738h                            
08014674 4802     ldr     r0,=82B5800h                            
08014676 6188     str     r0,[r1,18h]                             
08014678 E059     b       801472Eh                                
0801467A 0000     lsl     r0,r0,0h                                
0801467C 0738     lsl     r0,r7,1Ch                               
0801467E 0300     lsl     r0,r0,0Ch                               
08014680 5800     ldr     r0,[r0,r0]                              
08014682 082B     lsr     r3,r5,20h                               
08014684 4901     ldr     r1,=3000738h                            
08014686 4802     ldr     r0,=82B5810h                            
08014688 6188     str     r0,[r1,18h]                             
0801468A E050     b       801472Eh                                
0801468C 0738     lsl     r0,r7,1Ch                               
0801468E 0300     lsl     r0,r0,0Ch                               
08014690 5810     ldr     r0,[r2,r0]                              
08014692 082B     lsr     r3,r5,20h                               
08014694 1C21     mov     r1,r4                                   
08014696 3127     add     r1,27h                                  
08014698 2030     mov     r0,30h                                  
0801469A 7008     strb    r0,[r1]                                 
0801469C 1C20     mov     r0,r4                                   
0801469E 3028     add     r0,28h                                  
080146A0 7005     strb    r5,[r0]                                 
080146A2 3102     add     r1,2h                                   
080146A4 2020     mov     r0,20h                                  
080146A6 7008     strb    r0,[r1]                                 
080146A8 2A02     cmp     r2,2h                                   
080146AA D103     bne     80146B4h                                
080146AC 3905     sub     r1,5h                                   
080146AE 200F     mov     r0,0Fh                                  
080146B0 7008     strb    r0,[r1]                                 
080146B2 E03C     b       801472Eh                                
080146B4 1C21     mov     r1,r4                                   
080146B6 3124     add     r1,24h                                  
080146B8 2061     mov     r0,61h                                  
080146BA 7008     strb    r0,[r1]                                 
080146BC E037     b       801472Eh                                
080146BE 1C20     mov     r0,r4                                   
080146C0 3027     add     r0,27h                                  
080146C2 2108     mov     r1,8h                                   
080146C4 7001     strb    r1,[r0]                                 
080146C6 3001     add     r0,1h                                   
080146C8 7001     strb    r1,[r0]                                 
080146CA 3001     add     r0,1h                                   
080146CC 7001     strb    r1,[r0]                                 
080146CE 1C21     mov     r1,r4                                   
080146D0 3124     add     r1,24h                                  
080146D2 2061     mov     r0,61h                                  
080146D4 7008     strb    r0,[r1]                                 
080146D6 7725     strb    r5,[r4,1Ch]                             
080146D8 82E6     strh    r6,[r4,16h]                             
080146DA 2B02     cmp     r3,2h                                   
080146DC D104     bne     80146E8h                                
080146DE 4801     ldr     r0,=82B57F0h                            
080146E0 61A0     str     r0,[r4,18h]                             
080146E2 E024     b       801472Eh                                
080146E4 57F0     ldsb    r0,[r6,r7]                              
080146E6 082B     lsr     r3,r5,20h                               
080146E8 4801     ldr     r0,=82B57B0h                            
080146EA 61A0     str     r0,[r4,18h]                             
080146EC E01F     b       801472Eh                                
080146EE 0000     lsl     r0,r0,0h                                
080146F0 57B0     ldsb    r0,[r6,r6]                              
080146F2 082B     lsr     r3,r5,20h                               
080146F4 1C22     mov     r2,r4                                   
080146F6 3227     add     r2,27h                                  
080146F8 2010     mov     r0,10h                                  
080146FA 7010     strb    r0,[r2]                                 
080146FC 1C20     mov     r0,r4                                   
080146FE 3028     add     r0,28h                                  
08014700 7001     strb    r1,[r0]                                 
08014702 1C21     mov     r1,r4                                   
08014704 3129     add     r1,29h                                  
08014706 200C     mov     r0,0Ch                                  
08014708 7008     strb    r0,[r1]                                 
0801470A 4806     ldr     r0,=82B5A20h                            
0801470C 61A0     str     r0,[r4,18h]                             
0801470E 7725     strb    r5,[r4,1Ch]                             
08014710 82E6     strh    r6,[r4,16h]                             
08014712 3905     sub     r1,5h                                   
08014714 204F     mov     r0,4Fh                                  
08014716 7008     strb    r0,[r1]                                 
08014718 8820     ldrh    r0,[r4]                                 
0801471A 2104     mov     r1,4h                                   
0801471C 4308     orr     r0,r1                                   
0801471E 8020     strh    r0,[r4]                                 
08014720 E005     b       801472Eh                                
08014722 0000     lsl     r0,r0,0h                                
08014724 5A20     ldrh    r0,[r4,r0]                              
08014726 082B     lsr     r3,r5,20h                               
08014728 4902     ldr     r1,=3000738h                            
0801472A 2000     mov     r0,0h                                   
0801472C 8008     strh    r0,[r1]                                 
0801472E BC70     pop     r4-r6                                   
08014730 BC01     pop     r0                                      
08014732 4700     bx      r0                                      
08014734 0738     lsl     r0,r7,1Ch                               
08014736 0300     lsl     r0,r0,0Ch                               
08014738 B500     push    r14                                     
0801473A 4B0D     ldr     r3,=3000738h                            
0801473C 1C18     mov     r0,r3                                   
0801473E 302D     add     r0,2Dh                                  
08014740 7802     ldrb    r2,[r0]                                 
08014742 490C     ldr     r1,=30001ACh                            
08014744 00D0     lsl     r0,r2,3h                                
08014746 1A80     sub     r0,r0,r2                                
08014748 00C0     lsl     r0,r0,3h                                
0801474A 3118     add     r1,18h                                  
0801474C 1840     add     r0,r0,r1                                
0801474E 6801     ldr     r1,[r0]                                 
08014750 4809     ldr     r0,=82B5810h                            
08014752 4281     cmp     r1,r0                                   
08014754 D114     bne     8014780h                                
08014756 8819     ldrh    r1,[r3]                                 
08014758 2004     mov     r0,4h                                   
0801475A 4008     and     r0,r1                                   
0801475C 2800     cmp     r0,0h                                   
0801475E D017     beq     8014790h                                
08014760 4806     ldr     r0,=0FFFBh                              
08014762 4008     and     r0,r1                                   
08014764 2100     mov     r1,0h                                   
08014766 2200     mov     r2,0h                                   
08014768 8018     strh    r0,[r3]                                 
0801476A 7719     strb    r1,[r3,1Ch]                             
0801476C 82DA     strh    r2,[r3,16h]                             
0801476E E00F     b       8014790h                                
08014770 0738     lsl     r0,r7,1Ch                               
08014772 0300     lsl     r0,r0,0Ch                               
08014774 01AC     lsl     r4,r5,6h                                
08014776 0300     lsl     r0,r0,0Ch                               
08014778 5810     ldr     r0,[r2,r0]                              
0801477A 082B     lsr     r3,r5,20h                               
0801477C FFFB     bl      lr+0FF6h                                
0801477E 0000     lsl     r0,r0,0h                                
08014780 8819     ldrh    r1,[r3]                                 
08014782 2004     mov     r0,4h                                   
08014784 4008     and     r0,r1                                   
08014786 2800     cmp     r0,0h                                   
08014788 D102     bne     8014790h                                
0801478A 2004     mov     r0,4h                                   
0801478C 4308     orr     r0,r1                                   
0801478E 8018     strh    r0,[r3]                                 
08014790 BC01     pop     r0                                      
08014792 4700     bx      r0                                      
08014794 B530     push    r4,r5,r14                               
08014796 4807     ldr     r0,=3000738h                            
08014798 1C01     mov     r1,r0                                   
0801479A 3123     add     r1,23h                                  
0801479C 780C     ldrb    r4,[r1]                                 
0801479E 8883     ldrh    r3,[r0,4h]                              
080147A0 8802     ldrh    r2,[r0]                                 
080147A2 2140     mov     r1,40h                                  
080147A4 4011     and     r1,r2                                   
080147A6 1C05     mov     r5,r0                                   
080147A8 2900     cmp     r1,0h                                   
080147AA D005     beq     80147B8h                                
080147AC 1C18     mov     r0,r3                                   
080147AE 3038     add     r0,38h                                  
080147B0 E004     b       80147BCh                                
080147B2 0000     lsl     r0,r0,0h                                
080147B4 0738     lsl     r0,r7,1Ch                               
080147B6 0300     lsl     r0,r0,0Ch                               
080147B8 1C18     mov     r0,r3                                   
080147BA 3838     sub     r0,38h                                  
080147BC 0400     lsl     r0,r0,10h                               
080147BE 0C03     lsr     r3,r0,10h                               
080147C0 4818     ldr     r0,=30001ACh                            
080147C2 00E1     lsl     r1,r4,3h                                
080147C4 1B09     sub     r1,r1,r4                                
080147C6 00C9     lsl     r1,r1,3h                                
080147C8 1809     add     r1,r1,r0                                
080147CA 1C0C     mov     r4,r1                                   
080147CC 3424     add     r4,24h                                  
080147CE 7820     ldrb    r0,[r4]                                 
080147D0 2809     cmp     r0,9h                                   
080147D2 D124     bne     801481Eh                                
080147D4 4A14     ldr     r2,=30013D4h                            
080147D6 8A91     ldrh    r1,[r2,14h]                             
080147D8 8868     ldrh    r0,[r5,2h]                              
080147DA 3811     sub     r0,11h                                  
080147DC 4281     cmp     r1,r0                                   
080147DE D11E     bne     801481Eh                                
080147E0 8A51     ldrh    r1,[r2,12h]                             
080147E2 1C18     mov     r0,r3                                   
080147E4 3810     sub     r0,10h                                  
080147E6 4281     cmp     r1,r0                                   
080147E8 DD19     ble     801481Eh                                
080147EA 3020     add     r0,20h                                  
080147EC 4281     cmp     r1,r0                                   
080147EE DA16     bge     801481Eh                                
080147F0 7810     ldrb    r0,[r2]                                 
080147F2 3811     sub     r0,11h                                  
080147F4 0600     lsl     r0,r0,18h                               
080147F6 0E00     lsr     r0,r0,18h                               
080147F8 2801     cmp     r0,1h                                   
080147FA D810     bhi     801481Eh                                
080147FC 2020     mov     r0,20h                                  
080147FE F7F2FE73 bl      80074E8h                                
08014802 2200     mov     r2,0h                                   
08014804 2022     mov     r0,22h                                  
08014806 7020     strb    r0,[r4]                                 
08014808 1C29     mov     r1,r5                                   
0801480A 3124     add     r1,24h                                  
0801480C 2023     mov     r0,23h                                  
0801480E 7008     strb    r0,[r1]                                 
08014810 4806     ldr     r0,=82B5858h                            
08014812 61A8     str     r0,[r5,18h]                             
08014814 772A     strb    r2,[r5,1Ch]                             
08014816 82EA     strh    r2,[r5,16h]                             
08014818 4905     ldr     r1,=3000049h                            
0801481A 2001     mov     r0,1h                                   
0801481C 7008     strb    r0,[r1]                                 
0801481E BC30     pop     r4,r5                                   
08014820 BC01     pop     r0                                      
08014822 4700     bx      r0                                      
08014824 01AC     lsl     r4,r5,6h                                
08014826 0300     lsl     r0,r0,0Ch                               
08014828 13D4     asr     r4,r2,0Fh                               
0801482A 0300     lsl     r0,r0,0Ch                               
0801482C 5858     ldr     r0,[r3,r1]                              
0801482E 082B     lsr     r3,r5,20h                               
08014830 0049     lsl     r1,r1,1h                                
08014832 0300     lsl     r0,r0,0Ch                               
08014834 B500     push    r14                                     
08014836 4B06     ldr     r3,=30013D4h                            
08014838 4A06     ldr     r2,=3000738h                            
0801483A 8850     ldrh    r0,[r2,2h]                              
0801483C 3811     sub     r0,11h                                  
0801483E 8298     strh    r0,[r3,14h]                             
08014840 8811     ldrh    r1,[r2]                                 
08014842 2040     mov     r0,40h                                  
08014844 4008     and     r0,r1                                   
08014846 2800     cmp     r0,0h                                   
08014848 D006     beq     8014858h                                
0801484A 8890     ldrh    r0,[r2,4h]                              
0801484C 3038     add     r0,38h                                  
0801484E E005     b       801485Ch                                
08014850 13D4     asr     r4,r2,0Fh                               
08014852 0300     lsl     r0,r0,0Ch                               
08014854 0738     lsl     r0,r7,1Ch                               
08014856 0300     lsl     r0,r0,0Ch                               
08014858 8890     ldrh    r0,[r2,4h]                              
0801485A 3838     sub     r0,38h                                  
0801485C 8258     strh    r0,[r3,12h]                             
0801485E BC01     pop     r0                                      
08014860 4700     bx      r0                                      
08014862 0000     lsl     r0,r0,0h                                
08014864 B500     push    r14                                     
08014866 4B0D     ldr     r3,=3000738h                            
08014868 1C18     mov     r0,r3                                   
0801486A 3023     add     r0,23h                                  
0801486C 7801     ldrb    r1,[r0]                                 
0801486E 4A0C     ldr     r2,=30001ACh                            
08014870 00C8     lsl     r0,r1,3h                                
08014872 1A40     sub     r0,r0,r1                                
08014874 00C0     lsl     r0,r0,3h                                
08014876 1880     add     r0,r0,r2                                
08014878 3024     add     r0,24h                                  
0801487A 7800     ldrb    r0,[r0]                                 
0801487C 2827     cmp     r0,27h                                  
0801487E D103     bne     8014888h                                
08014880 1C19     mov     r1,r3                                   
08014882 3124     add     r1,24h                                  
08014884 2024     mov     r0,24h                                  
08014886 7008     strb    r0,[r1]                                 
08014888 F7FFFFD4 bl      8014834h                                
0801488C 4905     ldr     r1,=300070Ch                            
0801488E 7B88     ldrb    r0,[r1,0Eh]                             
08014890 2800     cmp     r0,0h                                   
08014892 D001     beq     8014898h                                
08014894 F7FDFEA8 bl      80125E8h                                
08014898 BC01     pop     r0                                      
0801489A 4700     bx      r0                                      
0801489C 0738     lsl     r0,r7,1Ch                               
0801489E 0300     lsl     r0,r0,0Ch                               
080148A0 01AC     lsl     r4,r5,6h                                
080148A2 0300     lsl     r0,r0,0Ch                               
080148A4 070C     lsl     r4,r1,1Ch                               
080148A6 0300     lsl     r0,r0,0Ch                               
080148A8 B530     push    r4,r5,r14                               
080148AA 4D0C     ldr     r5,=3000738h                            
080148AC 1C28     mov     r0,r5                                   
080148AE 3023     add     r0,23h                                  
080148B0 7804     ldrb    r4,[r0]                                 
080148B2 F7FFFFBF bl      8014834h                                
080148B6 490A     ldr     r1,=30001ACh                            
080148B8 00E0     lsl     r0,r4,3h                                
080148BA 1B00     sub     r0,r0,r4                                
080148BC 00C0     lsl     r0,r0,3h                                
080148BE 1840     add     r0,r0,r1                                
080148C0 3024     add     r0,24h                                  
080148C2 7800     ldrb    r0,[r0]                                 
080148C4 2809     cmp     r0,9h                                   
080148C6 D106     bne     80148D6h                                
080148C8 1C29     mov     r1,r5                                   
080148CA 3124     add     r1,24h                                  
080148CC 2200     mov     r2,0h                                   
080148CE 2025     mov     r0,25h                                  
080148D0 7008     strb    r0,[r1]                                 
080148D2 4804     ldr     r0,=3000049h                            
080148D4 7002     strb    r2,[r0]                                 
080148D6 BC30     pop     r4,r5                                   
080148D8 BC01     pop     r0                                      
080148DA 4700     bx      r0                                      
080148DC 0738     lsl     r0,r7,1Ch                               
080148DE 0300     lsl     r0,r0,0Ch                               
080148E0 01AC     lsl     r4,r5,6h                                
080148E2 0300     lsl     r0,r0,0Ch                               
080148E4 0049     lsl     r1,r1,1h                                
080148E6 0300     lsl     r0,r0,0Ch                               
080148E8 B5F0     push    r4-r7,r14                               
080148EA 4C12     ldr     r4,=3000738h                            
080148EC 1C20     mov     r0,r4                                   
080148EE 3023     add     r0,23h                                  
080148F0 7805     ldrb    r5,[r0]                                 
080148F2 69A1     ldr     r1,[r4,18h]                             
080148F4 4810     ldr     r0,=82B5800h                            
080148F6 4281     cmp     r1,r0                                   
080148F8 D110     bne     801491Ch                                
080148FA 4810     ldr     r0,=3001606h                            
080148FC 8800     ldrh    r0,[r0]                                 
080148FE 2800     cmp     r0,0h                                   
08014900 D10C     bne     801491Ch                                
08014902 490F     ldr     r1,=30001ACh                            
08014904 00E8     lsl     r0,r5,3h                                
08014906 1B40     sub     r0,r0,r5                                
08014908 00C0     lsl     r0,r0,3h                                
0801490A 1840     add     r0,r0,r1                                
0801490C 7F40     ldrb    r0,[r0,1Dh]                             
0801490E F7FFFA67 bl      8013DE0h                                
08014912 0600     lsl     r0,r0,18h                               
08014914 2800     cmp     r0,0h                                   
08014916 D001     beq     801491Ch                                
08014918 480A     ldr     r0,=82B5810h                            
0801491A 61A0     str     r0,[r4,18h]                             
0801491C 2400     mov     r4,0h                                   
0801491E 4805     ldr     r0,=3000738h                            
08014920 8883     ldrh    r3,[r0,4h]                              
08014922 8802     ldrh    r2,[r0]                                 
08014924 2140     mov     r1,40h                                  
08014926 4011     and     r1,r2                                   
08014928 1C07     mov     r7,r0                                   
0801492A 2900     cmp     r1,0h                                   
0801492C D00C     beq     8014948h                                
0801492E 1C18     mov     r0,r3                                   
08014930 3038     add     r0,38h                                  
08014932 E00B     b       801494Ch                                
08014934 0738     lsl     r0,r7,1Ch                               
08014936 0300     lsl     r0,r0,0Ch                               
08014938 5800     ldr     r0,[r0,r0]                              
0801493A 082B     lsr     r3,r5,20h                               
0801493C 1606     asr     r6,r0,18h                               
0801493E 0300     lsl     r0,r0,0Ch                               
08014940 01AC     lsl     r4,r5,6h                                
08014942 0300     lsl     r0,r0,0Ch                               
08014944 5810     ldr     r0,[r2,r0]                              
08014946 082B     lsr     r3,r5,20h                               
08014948 1C18     mov     r0,r3                                   
0801494A 3838     sub     r0,38h                                  
0801494C 0400     lsl     r0,r0,10h                               
0801494E 0C03     lsr     r3,r0,10h                               
08014950 490F     ldr     r1,=30001ACh                            
08014952 00EA     lsl     r2,r5,3h                                
08014954 1B50     sub     r0,r2,r5                                
08014956 00C0     lsl     r0,r0,3h                                
08014958 1840     add     r0,r0,r1                                
0801495A 3024     add     r0,24h                                  
0801495C 7800     ldrb    r0,[r0]                                 
0801495E 1C16     mov     r6,r2                                   
08014960 2809     cmp     r0,9h                                   
08014962 D136     bne     80149D2h                                
08014964 4A0B     ldr     r2,=30013D4h                            
08014966 8A91     ldrh    r1,[r2,14h]                             
08014968 8878     ldrh    r0,[r7,2h]                              
0801496A 3811     sub     r0,11h                                  
0801496C 4281     cmp     r1,r0                                   
0801496E D130     bne     80149D2h                                
08014970 8A51     ldrh    r1,[r2,12h]                             
08014972 1C18     mov     r0,r3                                   
08014974 3810     sub     r0,10h                                  
08014976 4281     cmp     r1,r0                                   
08014978 DD2B     ble     80149D2h                                
0801497A 3020     add     r0,20h                                  
0801497C 4281     cmp     r1,r0                                   
0801497E DA28     bge     80149D2h                                
08014980 7810     ldrb    r0,[r2]                                 
08014982 2811     cmp     r0,11h                                  
08014984 D108     bne     8014998h                                
08014986 2020     mov     r0,20h                                  
08014988 F7F2FDAE bl      80074E8h                                
0801498C E006     b       801499Ch                                
0801498E 0000     lsl     r0,r0,0h                                
08014990 01AC     lsl     r4,r5,6h                                
08014992 0300     lsl     r0,r0,0Ch                               
08014994 13D4     asr     r4,r2,0Fh                               
08014996 0300     lsl     r0,r0,0Ch                               
08014998 2820     cmp     r0,20h                                  
0801499A D102     bne     80149A2h                                
0801499C 1C60     add     r0,r4,1                                 
0801499E 0600     lsl     r0,r0,18h                               
080149A0 0E04     lsr     r4,r0,18h                               
080149A2 2C00     cmp     r4,0h                                   
080149A4 D015     beq     80149D2h                                
080149A6 490C     ldr     r1,=30001ACh                            
080149A8 1B70     sub     r0,r6,r5                                
080149AA 00C0     lsl     r0,r0,3h                                
080149AC 1840     add     r0,r0,r1                                
080149AE 3024     add     r0,24h                                  
080149B0 2500     mov     r5,0h                                   
080149B2 212E     mov     r1,2Eh                                  
080149B4 7001     strb    r1,[r0]                                 
080149B6 4C09     ldr     r4,=3000738h                            
080149B8 1C21     mov     r1,r4                                   
080149BA 3124     add     r1,24h                                  
080149BC 2027     mov     r0,27h                                  
080149BE 7008     strb    r0,[r1]                                 
080149C0 F7FFFF38 bl      8014834h                                
080149C4 4806     ldr     r0,=82B5858h                            
080149C6 61A0     str     r0,[r4,18h]                             
080149C8 7725     strb    r5,[r4,1Ch]                             
080149CA 82E5     strh    r5,[r4,16h]                             
080149CC 342C     add     r4,2Ch                                  
080149CE 201E     mov     r0,1Eh                                  
080149D0 7020     strb    r0,[r4]                                 
080149D2 BCF0     pop     r4-r7                                   
080149D4 BC01     pop     r0                                      
080149D6 4700     bx      r0                                      
080149D8 01AC     lsl     r4,r5,6h                                
080149DA 0300     lsl     r0,r0,0Ch                               
080149DC 0738     lsl     r0,r7,1Ch                               
080149DE 0300     lsl     r0,r0,0Ch                               
080149E0 5858     ldr     r0,[r3,r1]                              
080149E2 082B     lsr     r3,r5,20h                               
080149E4 B570     push    r4-r6,r14                               
080149E6 B082     add     sp,-8h                                  
080149E8 4B0F     ldr     r3,=3000738h                            
080149EA 1C18     mov     r0,r3                                   
080149EC 3023     add     r0,23h                                  
080149EE 7801     ldrb    r1,[r0]                                 
080149F0 4A0E     ldr     r2,=30001ACh                            
080149F2 00C8     lsl     r0,r1,3h                                
080149F4 1A40     sub     r0,r0,r1                                
080149F6 00C0     lsl     r0,r0,3h                                
080149F8 1880     add     r0,r0,r2                                
080149FA 1C06     mov     r6,r0                                   
080149FC 3624     add     r6,24h                                  
080149FE 7830     ldrb    r0,[r6]                                 
08014A00 1C1A     mov     r2,r3                                   
08014A02 282F     cmp     r0,2Fh                                  
08014A04 D000     beq     8014A08h                                
08014A06 E089     b       8014B1Ch                                
08014A08 1C14     mov     r4,r2                                   
08014A0A 342C     add     r4,2Ch                                  
08014A0C 7825     ldrb    r5,[r4]                                 
08014A0E 1C29     mov     r1,r5                                   
08014A10 291E     cmp     r1,1Eh                                  
08014A12 D10F     bne     8014A34h                                
08014A14 F7FBFC22 bl      801025Ch                                
08014A18 2800     cmp     r0,0h                                   
08014A1A D000     beq     8014A1Eh                                
08014A1C E07E     b       8014B1Ch                                
08014A1E 7820     ldrb    r0,[r4]                                 
08014A20 3801     sub     r0,1h                                   
08014A22 7020     strb    r0,[r4]                                 
08014A24 4902     ldr     r1,=3000996h                            
08014A26 E041     b       8014AACh                                
08014A28 0738     lsl     r0,r7,1Ch                               
08014A2A 0300     lsl     r0,r0,0Ch                               
08014A2C 01AC     lsl     r4,r5,6h                                
08014A2E 0300     lsl     r0,r0,0Ch                               
08014A30 0996     lsr     r6,r2,6h                                
08014A32 0300     lsl     r0,r0,0Ch                               
08014A34 291D     cmp     r1,1Dh                                  
08014A36 D111     bne     8014A5Ch                                
08014A38 4906     ldr     r1,=3000996h                            
08014A3A 7808     ldrb    r0,[r1]                                 
08014A3C 2800     cmp     r0,0h                                   
08014A3E D127     bne     8014A90h                                
08014A40 F7FBFC2E bl      80102A0h                                
08014A44 2800     cmp     r0,0h                                   
08014A46 D169     bne     8014B1Ch                                
08014A48 7820     ldrb    r0,[r4]                                 
08014A4A 3801     sub     r0,1h                                   
08014A4C 7020     strb    r0,[r4]                                 
08014A4E 4902     ldr     r1,=3000997h                            
08014A50 E02C     b       8014AACh                                
08014A52 0000     lsl     r0,r0,0h                                
08014A54 0996     lsr     r6,r2,6h                                
08014A56 0300     lsl     r0,r0,0Ch                               
08014A58 0997     lsr     r7,r2,6h                                
08014A5A 0300     lsl     r0,r0,0Ch                               
08014A5C 291C     cmp     r1,1Ch                                  
08014A5E D111     bne     8014A84h                                
08014A60 4906     ldr     r1,=3000997h                            
08014A62 7808     ldrb    r0,[r1]                                 
08014A64 2800     cmp     r0,0h                                   
08014A66 D113     bne     8014A90h                                
08014A68 F7FBFC3C bl      80102E4h                                
08014A6C 2800     cmp     r0,0h                                   
08014A6E D155     bne     8014B1Ch                                
08014A70 7820     ldrb    r0,[r4]                                 
08014A72 3801     sub     r0,1h                                   
08014A74 7020     strb    r0,[r4]                                 
08014A76 4902     ldr     r1,=3000998h                            
08014A78 E018     b       8014AACh                                
08014A7A 0000     lsl     r0,r0,0h                                
08014A7C 0997     lsr     r7,r2,6h                                
08014A7E 0300     lsl     r0,r0,0Ch                               
08014A80 0998     lsr     r0,r3,6h                                
08014A82 0300     lsl     r0,r0,0Ch                               
08014A84 291B     cmp     r1,1Bh                                  
08014A86 D117     bne     8014AB8h                                
08014A88 4903     ldr     r1,=3000998h                            
08014A8A 7808     ldrb    r0,[r1]                                 
08014A8C 2800     cmp     r0,0h                                   
08014A8E D005     beq     8014A9Ch                                
08014A90 3801     sub     r0,1h                                   
08014A92 7008     strb    r0,[r1]                                 
08014A94 E042     b       8014B1Ch                                
08014A96 0000     lsl     r0,r0,0h                                
08014A98 0998     lsr     r0,r3,6h                                
08014A9A 0300     lsl     r0,r0,0Ch                               
08014A9C F7FBFC44 bl      8010328h                                
08014AA0 2800     cmp     r0,0h                                   
08014AA2 D13B     bne     8014B1Ch                                
08014AA4 7820     ldrb    r0,[r4]                                 
08014AA6 3801     sub     r0,1h                                   
08014AA8 7020     strb    r0,[r4]                                 
08014AAA 4902     ldr     r1,=3000999h                            
08014AAC 200D     mov     r0,0Dh                                  
08014AAE 7008     strb    r0,[r1]                                 
08014AB0 E034     b       8014B1Ch                                
08014AB2 0000     lsl     r0,r0,0h                                
08014AB4 0999     lsr     r1,r3,6h                                
08014AB6 0300     lsl     r0,r0,0Ch                               
08014AB8 4B03     ldr     r3,=3000999h                            
08014ABA 7818     ldrb    r0,[r3]                                 
08014ABC 2800     cmp     r0,0h                                   
08014ABE D005     beq     8014ACCh                                
08014AC0 3801     sub     r0,1h                                   
08014AC2 7018     strb    r0,[r3]                                 
08014AC4 E02A     b       8014B1Ch                                
08014AC6 0000     lsl     r0,r0,0h                                
08014AC8 0999     lsr     r1,r3,6h                                
08014ACA 0300     lsl     r0,r0,0Ch                               
08014ACC 2900     cmp     r1,0h                                   
08014ACE D002     beq     8014AD6h                                
08014AD0 1E68     sub     r0,r5,1                                 
08014AD2 7020     strb    r0,[r4]                                 
08014AD4 E022     b       8014B1Ch                                
08014AD6 2030     mov     r0,30h                                  
08014AD8 7030     strb    r0,[r6]                                 
08014ADA 1C11     mov     r1,r2                                   
08014ADC 3124     add     r1,24h                                  
08014ADE 2029     mov     r0,29h                                  
08014AE0 7008     strb    r0,[r1]                                 
08014AE2 4908     ldr     r1,=3001530h                            
08014AE4 8848     ldrh    r0,[r1,2h]                              
08014AE6 2800     cmp     r0,0h                                   
08014AE8 D10E     bne     8014B08h                                
08014AEA 8889     ldrh    r1,[r1,4h]                              
08014AEC 2900     cmp     r1,0h                                   
08014AEE D10B     bne     8014B08h                                
08014AF0 8853     ldrh    r3,[r2,2h]                              
08014AF2 8890     ldrh    r0,[r2,4h]                              
08014AF4 9000     str     r0,[sp]                                 
08014AF6 9101     str     r1,[sp,4h]                              
08014AF8 2011     mov     r0,11h                                  
08014AFA 2119     mov     r1,19h                                  
08014AFC 2206     mov     r2,6h                                   
08014AFE F7F9FC0D bl      800E31Ch                                
08014B02 E00B     b       8014B1Ch                                
08014B04 1530     asr     r0,r6,14h                               
08014B06 0300     lsl     r0,r0,0Ch                               
08014B08 8853     ldrh    r3,[r2,2h]                              
08014B0A 8890     ldrh    r0,[r2,4h]                              
08014B0C 9000     str     r0,[sp]                                 
08014B0E 2000     mov     r0,0h                                   
08014B10 9001     str     r0,[sp,4h]                              
08014B12 2011     mov     r0,11h                                  
08014B14 211A     mov     r1,1Ah                                  
08014B16 2206     mov     r2,6h                                   
08014B18 F7F9FC00 bl      800E31Ch                                
08014B1C B002     add     sp,8h                                   
08014B1E BC70     pop     r4-r6                                   
08014B20 BC01     pop     r0                                      
08014B22 4700     bx      r0                                      
08014B24 4770     bx      r14                                     
08014B26 0000     lsl     r0,r0,0h                                
08014B28 B500     push    r14                                     
08014B2A 4B09     ldr     r3,=3000738h                            
08014B2C 1C18     mov     r0,r3                                   
08014B2E 3023     add     r0,23h                                  
08014B30 7801     ldrb    r1,[r0]                                 
08014B32 4A08     ldr     r2,=30001ACh                            
08014B34 00C8     lsl     r0,r1,3h                                
08014B36 1A40     sub     r0,r0,r1                                
08014B38 00C0     lsl     r0,r0,3h                                
08014B3A 1880     add     r0,r0,r2                                
08014B3C 3024     add     r0,24h                                  
08014B3E 7800     ldrb    r0,[r0]                                 
08014B40 2831     cmp     r0,31h                                  
08014B42 D103     bne     8014B4Ch                                
08014B44 1C19     mov     r1,r3                                   
08014B46 3124     add     r1,24h                                  
08014B48 202B     mov     r0,2Bh                                  
08014B4A 7008     strb    r0,[r1]                                 
08014B4C BC01     pop     r0                                      
08014B4E 4700     bx      r0                                      
08014B50 0738     lsl     r0,r7,1Ch                               
08014B52 0300     lsl     r0,r0,0Ch                               
08014B54 01AC     lsl     r4,r5,6h                                
08014B56 0300     lsl     r0,r0,0Ch                               
08014B58 B500     push    r14                                     
08014B5A 4809     ldr     r0,=3001606h                            
08014B5C 8802     ldrh    r2,[r0]                                 
08014B5E 2A00     cmp     r2,0h                                   
08014B60 D10B     bne     8014B7Ah                                
08014B62 4B08     ldr     r3,=3000738h                            
08014B64 6999     ldr     r1,[r3,18h]                             
08014B66 4808     ldr     r0,=82B5858h                            
08014B68 4281     cmp     r1,r0                                   
08014B6A D106     bne     8014B7Ah                                
08014B6C 4807     ldr     r0,=82B5800h                            
08014B6E 6198     str     r0,[r3,18h]                             
08014B70 771A     strb    r2,[r3,1Ch]                             
08014B72 82DA     strh    r2,[r3,16h]                             
08014B74 2011     mov     r0,11h                                  
08014B76 F7F2FCB7 bl      80074E8h                                
08014B7A BC01     pop     r0                                      
08014B7C 4700     bx      r0                                      
08014B7E 0000     lsl     r0,r0,0h                                
08014B80 1606     asr     r6,r0,18h                               
08014B82 0300     lsl     r0,r0,0Ch                               
08014B84 0738     lsl     r0,r7,1Ch                               
08014B86 0300     lsl     r0,r0,0Ch                               
08014B88 5858     ldr     r0,[r3,r1]                              
08014B8A 082B     lsr     r3,r5,20h                               
08014B8C 5800     ldr     r0,[r0,r0]                              
08014B8E 082B     lsr     r3,r5,20h                               
08014B90 4905     ldr     r1,=3000738h                            
08014B92 1C0A     mov     r2,r1                                   
08014B94 3224     add     r2,24h                                  
08014B96 2300     mov     r3,0h                                   
08014B98 2043     mov     r0,43h                                  
08014B9A 7010     strb    r0,[r2]                                 
08014B9C 4803     ldr     r0,=82B57D8h                            
08014B9E 6188     str     r0,[r1,18h]                             
08014BA0 770B     strb    r3,[r1,1Ch]                             
08014BA2 82CB     strh    r3,[r1,16h]                             
08014BA4 4770     bx      r14                                     
08014BA6 0000     lsl     r0,r0,0h                                
08014BA8 0738     lsl     r0,r7,1Ch                               
08014BAA 0300     lsl     r0,r0,0Ch                               
08014BAC 57D8     ldsb    r0,[r3,r7]                              
08014BAE 082B     lsr     r3,r5,20h                               
08014BB0 B500     push    r14                                     
08014BB2 F7FBF809 bl      800FBC8h                                
08014BB6 2800     cmp     r0,0h                                   
08014BB8 D009     beq     8014BCEh                                
08014BBA 4906     ldr     r1,=3000738h                            
08014BBC 1C0A     mov     r2,r1                                   
08014BBE 3224     add     r2,24h                                  
08014BC0 2300     mov     r3,0h                                   
08014BC2 2061     mov     r0,61h                                  
08014BC4 7010     strb    r0,[r2]                                 
08014BC6 4804     ldr     r0,=82B57B0h                            
08014BC8 6188     str     r0,[r1,18h]                             
08014BCA 770B     strb    r3,[r1,1Ch]                             
08014BCC 82CB     strh    r3,[r1,16h]                             
08014BCE BC01     pop     r0                                      
08014BD0 4700     bx      r0                                      
08014BD2 0000     lsl     r0,r0,0h                                
08014BD4 0738     lsl     r0,r7,1Ch                               
08014BD6 0300     lsl     r0,r0,0Ch                               
08014BD8 57B0     ldsb    r0,[r6,r6]                              
08014BDA 082B     lsr     r3,r5,20h                               
08014BDC 4905     ldr     r1,=3000738h                            
08014BDE 1C0A     mov     r2,r1                                   
08014BE0 3224     add     r2,24h                                  
08014BE2 2300     mov     r3,0h                                   
08014BE4 2045     mov     r0,45h                                  
08014BE6 7010     strb    r0,[r2]                                 
08014BE8 4803     ldr     r0,=82B57C0h                            
08014BEA 6188     str     r0,[r1,18h]                             
08014BEC 770B     strb    r3,[r1,1Ch]                             
08014BEE 82CB     strh    r3,[r1,16h]                             
08014BF0 4770     bx      r14                                     
08014BF2 0000     lsl     r0,r0,0h                                
08014BF4 0738     lsl     r0,r7,1Ch                               
08014BF6 0300     lsl     r0,r0,0Ch                               
08014BF8 57C0     ldsb    r0,[r0,r7]                              
08014BFA 082B     lsr     r3,r5,20h                               
08014BFC B500     push    r14                                     
08014BFE F7FAFFE3 bl      800FBC8h                                
08014C02 2800     cmp     r0,0h                                   
08014C04 D009     beq     8014C1Ah                                
08014C06 4906     ldr     r1,=3000738h                            
08014C08 1C0A     mov     r2,r1                                   
08014C0A 3224     add     r2,24h                                  
08014C0C 2300     mov     r3,0h                                   
08014C0E 2061     mov     r0,61h                                  
08014C10 7010     strb    r0,[r2]                                 
08014C12 4804     ldr     r0,=82B57F0h                            
08014C14 6188     str     r0,[r1,18h]                             
08014C16 770B     strb    r3,[r1,1Ch]                             
08014C18 82CB     strh    r3,[r1,16h]                             
08014C1A BC01     pop     r0                                      
08014C1C 4700     bx      r0                                      
08014C1E 0000     lsl     r0,r0,0h                                
08014C20 0738     lsl     r0,r7,1Ch                               
08014C22 0300     lsl     r0,r0,0Ch                               
08014C24 57F0     ldsb    r0,[r6,r7]                              
08014C26 082B     lsr     r3,r5,20h                               
08014C28 B500     push    r14                                     
08014C2A 4B0A     ldr     r3,=3000738h                            
08014C2C 1C18     mov     r0,r3                                   
08014C2E 3023     add     r0,23h                                  
08014C30 7800     ldrb    r0,[r0]                                 
08014C32 4A09     ldr     r2,=30001ACh                            
08014C34 00C1     lsl     r1,r0,3h                                
08014C36 1A09     sub     r1,r1,r0                                
08014C38 00C9     lsl     r1,r1,3h                                
08014C3A 1889     add     r1,r1,r2                                
08014C3C 3124     add     r1,24h                                  
08014C3E 7808     ldrb    r0,[r1]                                 
08014C40 2825     cmp     r0,25h                                  
08014C42 D10D     bne     8014C60h                                
08014C44 4905     ldr     r1,=300070Ch                            
08014C46 7B88     ldrb    r0,[r1,0Eh]                             
08014C48 2800     cmp     r0,0h                                   
08014C4A D00F     beq     8014C6Ch                                
08014C4C F7FDFCCC bl      80125E8h                                
08014C50 E00C     b       8014C6Ch                                
08014C52 0000     lsl     r0,r0,0h                                
08014C54 0738     lsl     r0,r7,1Ch                               
08014C56 0300     lsl     r0,r0,0Ch                               
08014C58 01AC     lsl     r4,r5,6h                                
08014C5A 0300     lsl     r0,r0,0Ch                               
08014C5C 070C     lsl     r4,r1,1Ch                               
08014C5E 0300     lsl     r0,r0,0Ch                               
08014C60 2827     cmp     r0,27h                                  
08014C62 D103     bne     8014C6Ch                                
08014C64 1C19     mov     r1,r3                                   
08014C66 3124     add     r1,24h                                  
08014C68 2061     mov     r0,61h                                  
08014C6A 7008     strb    r0,[r1]                                 
08014C6C BC01     pop     r0                                      
08014C6E 4700     bx      r0                                      


;主程序
08014C70 B500     push    r14                                     
08014C72 4807     ldr     r0,=3000738h                            
08014C74 1C02     mov     r2,r0                                   
08014C76 3226     add     r2,26h                                  
08014C78 2101     mov     r1,1h                                   
08014C7A 7011     strb    r1,[r2]        ;300075e写入1h                            
08014C7C 3024     add     r0,24h                                  
08014C7E 7800     ldrb    r0,[r0]                                 
08014C80 2831     cmp     r0,31h                                  
08014C82 D900     bls     @@PoseLess31                               
08014C84 E092     b       @@OtherPose 

@@PoseLess31:                               
08014C86 0080     lsl     r0,r0,2h                                
08014C88 4902     ldr     r1,=8014C98h                            
08014C8A 1840     add     r0,r0,r1                                
08014C8C 6800     ldr     r0,[r0]                                 
08014C8E 4687     mov     r15,r0 

PoseTable:
    .word 8014d60h   ;00
	.word @@OtherPose .word @@OtherPose .word @@OtherPose .word @@OtherPose
	.word @@OtherPose .word @@OtherPose .word @@OtherPose .word @@OtherPose
	.word 8014d66h   ;09
	.word @@OtherPose .word @@OtherPose .word @@OtherPose .word @@OtherPose
	.word @@OtherPose .word @@OtherPose .word @@OtherPose .word @@OtherPose
	.word @@OtherPose .word @@OtherPose .word @@OtherPose .word @@OtherPose
	.word @@OtherPose .word @@OtherPose .word @@OtherPose .word @@OtherPose
	.word @@OtherPose .word @@OtherPose .word @@OtherPose .word @@OtherPose
	.word @@OtherPose .word @@OtherPose .word @@OtherPose .word @@OtherPose
    .word 8014d6ch   ;22h
    .word 8014d72h   ;23h
	.word 8014d78h   ;24h 
	.word 8014d7eh   ;25h
	.word @@OtherPose
	.word 8014d84h   ;27h
	.word @@OtherPose  
	.word 8014d8ah   ;29h
	.word @@OtherPose
	.word 8014d90h   ;2bh
	.word @@OtherPose   
	.word @@OtherPose  
	.word 8014d96h   ;2eh
	.word 8014d9ch   ;2fh
	.word 8014da2h   ;30h
	.word 8014da8h   ;31h
	
    	
								  
08014D60 F7FFF99C bl      801409Ch     ;00  初始化                           
08014D64 E022     b       @@OtherPose                                
08014D66 F7FFFA95 bl      8014294h     ;09  站姿常态                          
08014D6A E01F     b       @@OtherPose                                
08014D6C F7FFFA94 bl      8014298h     ;22h 触发坐下?                          
08014D70 E01C     b       @@OtherPose                                
08014D72 F7FFFAC3 bl      80142FCh     ;23h 接上 闪光?                         
08014D76 E019     b       @@OtherPose                                
08014D78 F7FFFB1E bl      80143B8h     ;24h 接上 进入地图指引                         
08014D7C E016     b       @@OtherPose                                
08014D7E F7FFFB3B bl      80143F8h     ;25h 坐下过程                          
08014D82 E013     b       @@OtherPose                                
08014D84 F7FFFB5E bl      8014444h     ;27h 坐下 返回9 从9到2E                         
08014D88 E010     b       @@OtherPose                                
08014D8A F7FFFB6D bl      8014468h     ;29h 坐姿常态                          
08014D8E E00D     b       @@OtherPose                                
08014D90 F7FFFB80 bl      8014494h     ;2bh 吃能力出字幕 进入9                          
08014D94 E00A     b       @@OtherPose                                
08014D96 F7FFFB8F bl      80144B8h     ;2eh 变2F                          
08014D9A E007     b       @@OtherPose                                
08014D9C F7FFFBB0 bl      8014500h     ;2fh 恢复 完进入30  站蹲共用                        
08014DA0 E004     b       @@OtherPose                                
08014DA2 F7FFFBD3 bl      801454Ch     ;30h 到31                          
08014DA6 E001     b       @@OtherPose                                
08014DA8 F7FFFBE0 bl      801456Ch     ;31h 出字幕到0F 被samus吸干的状态

@@OtherPose:                               
08014DAC F7FCFAC0 bl      8011330h                                
08014DB0 F7FEFD4E bl      8013850h                                
08014DB4 BC01     pop     r0                                      
08014DB6 4700     bx      r0 

                                     
08014DB8 B510     push    r4,r14                                  
08014DBA 4909     ldr     r1,=3000738h                            
08014DBC 1C0A     mov     r2,r1                                   
08014DBE 3226     add     r2,26h                                  
08014DC0 2001     mov     r0,1h                                   
08014DC2 7010     strb    r0,[r2]                                 
08014DC4 1C08     mov     r0,r1                                   
08014DC6 3023     add     r0,23h                                  
08014DC8 7804     ldrb    r4,[r0]                                 
08014DCA 3001     add     r0,1h                                   
08014DCC 7800     ldrb    r0,[r0]                                 
08014DCE 2861     cmp     r0,61h                                  
08014DD0 D900     bls     8014DD4h                                
08014DD2 E0F8     b       8014FC6h                                
08014DD4 0080     lsl     r0,r0,2h                                
08014DD6 4903     ldr     r1,=8014DE8h                            
08014DD8 1840     add     r0,r0,r1                                
08014DDA 6800     ldr     r0,[r0]                                 
08014DDC 4687     mov     r15,r0                                  
08014DDE 0000     lsl     r0,r0,0h                                
08014DE0 0738     lsl     r0,r7,1Ch                               
08014DE2 0300     lsl     r0,r0,0Ch                               
08014DE4 4DE8     ldr     r5,=31291C21h                           
08014DE6 0801     lsr     r1,r0,20h                               
08014DE8 4F70     ldr     r7,=0E00AFE01h                          
08014DEA 0801     lsr     r1,r0,20h                               
08014DEC 4FC6     ldr     r7,=0E00Eh                              
08014DEE 0801     lsr     r1,r0,20h                               
08014DF0 4FC6     ldr     r7,=300070Ch                            
08014DF2 0801     lsr     r1,r0,20h                               
08014DF4 4FC6     ldr     r7,=3000738h                            
08014DF6 0801     lsr     r1,r0,20h                               
08014DF8 4FC6     ldr     r7,=875F524h                            
08014DFA 0801     lsr     r1,r0,20h                               
08014DFC 4FC6     ldr     r7,=18400048h                           
08014DFE 0801     lsr     r1,r0,20h                               
08014E00 4FC6     ldr     r7,=18C00040h                           
08014E02 0801     lsr     r1,r0,20h                               
08014E04 4FC6     ldr     r7,=89248880h                           
08014E06 0801     lsr     r1,r0,20h                               
08014E08 4FC6     ldr     r7,=80901900h                           
08014E0A 0801     lsr     r1,r0,20h                               
08014E0C 4F76     ldr     r7,=78003020h                           
08014E0E 0801     lsr     r1,r0,20h                               
08014E10 4FC6     ldr     r7,=4700h                               
08014E12 0801     lsr     r1,r0,20h                               
08014E14 4FC6     ldr     r7,=4657B5F0h                           
08014E16 0801     lsr     r1,r0,20h                               
08014E18 4FC6     ldr     r7,=4645464Eh                           
08014E1A 0801     lsr     r1,r0,20h                               
08014E1C 4FC6     ldr     r7,=0B083B4E0h                          
08014E1E 0801     lsr     r1,r0,20h                               
08014E20 4FC6     ldr     r7,=1C224C08h                           
08014E22 0801     lsr     r1,r0,20h                               
08014E24 4FBC     ldr     r7,=18400048h                           
08014E26 0801     lsr     r1,r0,20h                               
08014E28 4FC6     ldr     r7,=43082009h                           
08014E2A 0801     lsr     r1,r0,20h                               
08014E2C 4FC6     ldr     r7,=0F7FE7010h                          
08014E2E 0801     lsr     r1,r0,20h                               
08014E30 4FC6     ldr     r7,=8821FD4Bh                           
08014E32 0801     lsr     r1,r0,20h                               
08014E34 4FC6     ldr     r7,=40082040h                           
08014E36 0801     lsr     r1,r0,20h                               
08014E38 4FC6     ldr     r7,=0D0072800h                          
08014E3A 0801     lsr     r1,r0,20h                               
08014E3C 4FC6     ldr     r7,=88A04902h                           
08014E3E 0801     lsr     r1,r0,20h                               
08014E40 4FC6     ldr     r7,=0E0063020h                          
08014E42 0801     lsr     r1,r0,20h                               
08014E44 4FC6     ldr     r7,=3000738h                            
08014E46 0801     lsr     r1,r0,20h                               
08014E48 4FC6     ldr     r7,=300070Ch                            
08014E4A 0801     lsr     r1,r0,20h                               
08014E4C 4FC6     ldr     r7,=88A0491Bh                           
08014E4E 0801     lsr     r1,r0,20h                               
08014E50 4FC6     ldr     r7,=81083820h                           
08014E52 0801     lsr     r1,r0,20h                               
08014E54 4FC6     ldr     r7,=4C1A4D19h                           
08014E56 0801     lsr     r1,r0,20h                               
08014E58 4FC6     ldr     r7,=22008860h                           
08014E5A 0801     lsr     r1,r0,20h                               
08014E5C 4FC6     ldr     r7,=80E82300h                           
08014E5E 0801     lsr     r1,r0,20h                               
08014E60 4FC6     ldr     r7,=30271C20h                           
08014E62 0801     lsr     r1,r0,20h                               
08014E64 4FC6     ldr     r7,=70012120h                           
08014E66 0801     lsr     r1,r0,20h                               
08014E68 4FC6     ldr     r7,=70013001h                           
08014E6A 0801     lsr     r1,r0,20h                               
08014E6C 4FC6     ldr     r7,=31291C21h                           
08014E6E 0801     lsr     r1,r0,20h                               
08014E70 4FC6     ldr     r7,=70082018h                           
08014E72 0801     lsr     r1,r0,20h                               
08014E74 4F7C     ldr     r7,=0E015FCD7h                          
08014E76 0801     lsr     r1,r0,20h                               
08014E78 4F82     ldr     r7,=31241809h                           
08014E7A 0801     lsr     r1,r0,20h                               
08014E7C 4F88     ldr     r7,=30001ACh                            
08014E7E 0801     lsr     r1,r0,20h                               
08014E80 4FC6     ldr     r7,=70082003h                           
08014E82 0801     lsr     r1,r0,20h                               
08014E84 4F8E     ldr     r7,=880018C0h                           
08014E86 0801     lsr     r1,r0,20h                               
08014E88 4FC6     ldr     r7,=20017002h                           
08014E8A 0801     lsr     r1,r0,20h                               
08014E8C 4F98     ldr     r7,=7F914008h                           
08014E8E 0801     lsr     r1,r0,20h                               
08014E90 4FC6     ldr     r7,=73AA80ABh                           
08014E92 0801     lsr     r1,r0,20h                               
08014E94 4F9E     ldr     r7,=3000738h                            
08014E96 0801     lsr     r1,r0,20h                               
08014E98 4FC6     ldr     r7,=0FE14F7FEh                          
08014E9A 0801     lsr     r1,r0,20h                               
08014E9C 4FC6     ldr     r7,=0E060600h                           
08014E9E 0801     lsr     r1,r0,20h                               
08014EA0 4FC6     ldr     r7,=0D91D2E01h                          
08014EA2 0801     lsr     r1,r0,20h                               
08014EA4 4FC6     ldr     r7,=31241C21h                           
08014EA6 0801     lsr     r1,r0,20h                               
08014EA8 4FC6     ldr     r7,=70082009h                           
08014EAA 0801     lsr     r1,r0,20h                               
08014EAC 4FC6     ldr     r7,=0D10B2E03h                          
08014EAE 0801     lsr     r1,r0,20h                               
08014EB0 4FC6     ldr     r7,=60284804h                           
08014EB2 0801     lsr     r1,r0,20h                               
08014EB4 4FC6     ldr     r7,=0F0012004h                          
08014EB6 0801     lsr     r1,r0,20h                               
08014EB8 4FC6     ldr     r7,=0E041F82Bh                          
08014EBA 0801     lsr     r1,r0,20h                               
08014EBC 4FC6     ldr     r7,=300070Ch                            
08014EBE 0801     lsr     r1,r0,20h                               
08014EC0 4FC6     ldr     r7,=3000738h                            
08014EC2 0801     lsr     r1,r0,20h                               
08014EC4 4FC6     ldr     r7,=82BF520h                            
08014EC6 0801     lsr     r1,r0,20h                               
08014EC8 4FC6     ldr     r7,=73E82001h                           
08014ECA 0801     lsr     r1,r0,20h                               
08014ECC 4FC6     ldr     r7,=60284803h                           
08014ECE 0801     lsr     r1,r0,20h                               
08014ED0 4FC6     ldr     r7,=21022004h                           
08014ED2 0801     lsr     r1,r0,20h                               
08014ED4 4FC6     ldr     r7,=0FF9AF000h                          
08014ED6 0801     lsr     r1,r0,20h                               
08014ED8 4FC6     ldr     r7,=0E032h                              
08014EDA 0801     lsr     r1,r0,20h                               
08014EDC 4FC6     ldr     r7,=82BF4B8h                            
08014EDE 0801     lsr     r1,r0,20h                               
08014EE0 4FC6     ldr     r7,=6028480Ch                           
08014EE2 0801     lsr     r1,r0,20h                               
08014EE4 4FC6     ldr     r7,=0F0012004h                          
08014EE6 0801     lsr     r1,r0,20h                               
08014EE8 4FC6     ldr     r7,=2E00F813h                           
08014EEA 0801     lsr     r1,r0,20h                               
08014EEC 4FC6     ldr     r7,=1C21D124h                           
08014EEE 0801     lsr     r1,r0,20h                               
08014EF0 4FA4     ldr     r7,=70013001h                           
08014EF2 0801     lsr     r1,r0,20h                               
08014EF4 4FAA     ldr     r7,=30251C20h                           
08014EF6 0801     lsr     r1,r0,20h                               
08014EF8 4FB0     ldr     r7,=0D91D2E01h                          
08014EFA 0801     lsr     r1,r0,20h                               
08014EFC 4FB6     ldr     r7,=300070Ch                            
08014EFE 0801     lsr     r1,r0,20h                               
08014F00 4FC6     ldr     r7,=1C207FE2h                           
08014F02 0801     lsr     r1,r0,20h                               
08014F04 4FC6     ldr     r7,=78033023h                           
08014F06 0801     lsr     r1,r0,20h                               
08014F08 4FC6     ldr     r7,=386088E8h                           
08014F0A 0801     lsr     r1,r0,20h                               
08014F0C 4FC6     ldr     r7,=89289000h                           
08014F0E 0801     lsr     r1,r0,20h                               
08014F10 4FC6     ldr     r7,=0E00A3038h                          
08014F12 0801     lsr     r1,r0,20h                               
08014F14 4FC6     ldr     r7,=82BF520h                            
08014F16 0801     lsr     r1,r0,20h                               
08014F18 4FC6     ldr     r7,=1C207FE2h                           
08014F1A 0801     lsr     r1,r0,20h                               
08014F1C 4FC6     ldr     r7,=78033023h                           
08014F1E 0801     lsr     r1,r0,20h                               
08014F20 4FC6     ldr     r7,=386088E8h                           
08014F22 0801     lsr     r1,r0,20h                               
08014F24 4FC2     ldr     r7,=82BF520h                            
08014F26 0801     lsr     r1,r0,20h                               
08014F28 4FC6     ldr     r7,=90013838h                           
08014F2A 0801     lsr     r1,r0,20h                               
08014F2C 4FC6     ldr     r7,=20009602h                           
08014F2E 0801     lsr     r1,r0,20h                               
08014F30 4FC6     ldr     r7,=0F7F92100h                          
08014F32 0801     lsr     r1,r0,20h                               
08014F34 4FC6     ldr     r7,=0E003F803h                          
08014F36 0801     lsr     r1,r0,20h                               
08014F38 4FC6     ldr     r7,=31241C21h                           
08014F3A 0801     lsr     r1,r0,20h                               
08014F3C 4FC6     ldr     r7,=70082009h                           
08014F3E 0801     lsr     r1,r0,20h                               
08014F40 4FC6     ldr     r7,=20044F2Fh                           
08014F42 0801     lsr     r1,r0,20h                               
08014F44 4FC6     ldr     r7,=482F77B8h                           
08014F46 0801     lsr     r1,r0,20h                               
08014F48 4FC6     ldr     r7,=890088C5h                           
08014F4A 0801     lsr     r1,r0,20h                               
08014F4C 4FC6     ldr     r7,=7FF84682h                           
08014F4E 0801     lsr     r1,r0,20h                               
08014F50 4FC6     ldr     r7,=1C384681h                           
08014F52 0801     lsr     r1,r0,20h                               
08014F54 4FC6     ldr     r7,=78003023h                           
08014F56 0801     lsr     r1,r0,20h                               
08014F58 4FC6     ldr     r7,=95004680h                           
08014F5A 0801     lsr     r1,r0,20h                               
08014F5C 4FC6     ldr     r7,=90014650h                           
08014F5E 0801     lsr     r1,r0,20h                               
08014F60 4FC6     ldr     r7,=24408839h                           
08014F62 0801     lsr     r1,r0,20h                               
08014F64 4FC6     ldr     r7,=40081C20h                           
08014F66 0801     lsr     r1,r0,20h                               
08014F68 4FC6     ldr     r7,=0C000400h                           
08014F6A 0801     lsr     r1,r0,20h                               
08014F6C 4FC6     ldr     r7,=20229002h                           
08014F6E 0801     lsr     r1,r0,20h                               
08014F70 F7FFFB28 bl      80145C4h                                
08014F74 E027     b       8014FC6h                                
08014F76 F7FFFC0D bl      8014794h                                
08014F7A E024     b       8014FC6h                                
08014F7C F7FFFC72 bl      8014864h                                
08014F80 E021     b       8014FC6h                                
08014F82 F7FFFC91 bl      80148A8h                                
08014F86 E01E     b       8014FC6h                                
08014F88 F7FFFCAE bl      80148E8h                                
08014F8C E01B     b       8014FC6h                                
08014F8E F7FFFD29 bl      80149E4h                                
08014F92 F7FFFDC7 bl      8014B24h                                
08014F96 E016     b       8014FC6h                                
08014F98 F7FFFDC6 bl      8014B28h                                
08014F9C E013     b       8014FC6h                                
08014F9E F7FFFDDB bl      8014B58h                                
08014FA2 E010     b       8014FC6h                                
08014FA4 F7FFFDF4 bl      8014B90h                                
08014FA8 E00D     b       8014FC6h                                
08014FAA F7FFFE01 bl      8014BB0h                                
08014FAE E00A     b       8014FC6h                                
08014FB0 F7FFFE14 bl      8014BDCh                                
08014FB4 E007     b       8014FC6h                                
08014FB6 F7FFFE21 bl      8014BFCh                                
08014FBA E004     b       8014FC6h                                
08014FBC F7FFFE34 bl      8014C28h                                
08014FC0 E001     b       8014FC6h                                
08014FC2 F7FFFBB9 bl      8014738h                                
08014FC6 4803     ldr     r0,=3000738h                            
08014FC8 7F80     ldrb    r0,[r0,1Eh]                             
08014FCA 2803     cmp     r0,3h                                   
08014FCC D104     bne     8014FD8h                                
08014FCE F7FEFC3F bl      8013850h                                
08014FD2 E003     b       8014FDCh                                
08014FD4 0738     lsl     r0,r7,1Ch                               
08014FD6 0300     lsl     r0,r0,0Ch                               
08014FD8 F7FCF9EA bl      80113B0h                                
08014FDC 4906     ldr     r1,=3000738h                            
08014FDE 4A07     ldr     r2,=30001ACh                            
08014FE0 00E0     lsl     r0,r4,3h                                
08014FE2 1B00     sub     r0,r0,r4                                
08014FE4 00C0     lsl     r0,r0,3h                                
08014FE6 1880     add     r0,r0,r2                                
08014FE8 3020     add     r0,20h                                  
08014FEA 7800     ldrb    r0,[r0]                                 
08014FEC 3120     add     r1,20h                                  
08014FEE 7008     strb    r0,[r1]                                 
08014FF0 BC10     pop     r4                                      
08014FF2 BC01     pop     r0                                      
08014FF4 4700     bx      r0                                      
08014FF6 0000     lsl     r0,r0,0h                                
08014FF8 0738     lsl     r0,r7,1Ch                               
08014FFA 0300     lsl     r0,r0,0Ch                               
08014FFC 01AC     lsl     r4,r5,6h                                
08014FFE 0300     lsl     r0,r0,0Ch                               
08015000 B570     push    r4-r6,r14                               
08015002 4B1A     ldr     r3,=3000738h                            
08015004 1C18     mov     r0,r3                                   
08015006 3026     add     r0,26h                                  
08015008 2600     mov     r6,0h                                   
0801500A 2401     mov     r4,1h                                   
0801500C 7004     strb    r4,[r0]                                 
0801500E 3803     sub     r0,3h                                   
08015010 7802     ldrb    r2,[r0]                                 
08015012 1C1D     mov     r5,r3                                   
08015014 3524     add     r5,24h                                  
08015016 7828     ldrb    r0,[r5]                                 
08015018 2800     cmp     r0,0h                                   
0801501A D12F     bne     801507Ch                                
0801501C 8819     ldrh    r1,[r3]                                 
0801501E 4814     ldr     r0,=0FFFBh                              
08015020 4008     and     r0,r1                                   
08015022 2200     mov     r2,0h                                   
08015024 8018     strh    r0,[r3]                                 
08015026 2032     mov     r0,32h                                  
08015028 18C0     add     r0,r0,r3                                
0801502A 4684     mov     r12,r0                                  
0801502C 7800     ldrb    r0,[r0]                                 
0801502E 2101     mov     r1,1h                                   
08015030 4308     orr     r0,r1                                   
08015032 4661     mov     r1,r12                                  
08015034 7008     strb    r0,[r1]                                 
08015036 1C18     mov     r0,r3                                   
08015038 3025     add     r0,25h                                  
0801503A 7002     strb    r2,[r0]                                 
0801503C 3803     sub     r0,3h                                   
0801503E 7004     strb    r4,[r0]                                 
08015040 3005     add     r0,5h                                   
08015042 2110     mov     r1,10h                                  
08015044 7001     strb    r1,[r0]                                 
08015046 3001     add     r0,1h                                   
08015048 7001     strb    r1,[r0]                                 
0801504A 3001     add     r0,1h                                   
0801504C 7001     strb    r1,[r0]                                 
0801504E 2004     mov     r0,4h                                   
08015050 8158     strh    r0,[r3,0Ah]                             
08015052 8198     strh    r0,[r3,0Ch]                             
08015054 81D8     strh    r0,[r3,0Eh]                             
08015056 8218     strh    r0,[r3,10h]                             
08015058 2009     mov     r0,9h                                   
0801505A 7028     strb    r0,[r5]                                 
0801505C 771A     strb    r2,[r3,1Ch]                             
0801505E 82DE     strh    r6,[r3,16h]                             
08015060 4804     ldr     r0,=82B58D8h                            
08015062 6198     str     r0,[r3,18h]                             
08015064 4804     ldr     r0,=10Fh                                
08015066 F7EDFCD7 bl      8002A18h                                
0801506A E015     b       8015098h                                
0801506C 0738     lsl     r0,r7,1Ch                               
0801506E 0300     lsl     r0,r0,0Ch                               
08015070 FFFB     bl      lr+0FF6h                                
08015072 0000     lsl     r0,r0,0h                                
08015074 58D8     ldr     r0,[r3,r3]                              
08015076 082B     lsr     r3,r5,20h                               
08015078 010F     lsl     r7,r1,4h                                
0801507A 0000     lsl     r0,r0,0h                                
0801507C 4808     ldr     r0,=30001ACh                            
0801507E 00D1     lsl     r1,r2,3h                                
08015080 1A89     sub     r1,r1,r2                                
08015082 00C9     lsl     r1,r1,3h                                
08015084 1809     add     r1,r1,r0                                
08015086 3124     add     r1,24h                                  
08015088 7808     ldrb    r0,[r1]                                 
0801508A 2831     cmp     r0,31h                                  
0801508C D104     bne     8015098h                                
0801508E 801E     strh    r6,[r3]                                 
08015090 4804     ldr     r0,=10Fh                                
08015092 211E     mov     r1,1Eh                                  
08015094 F7EDFDF4 bl      8002C80h                                
08015098 BC70     pop     r4-r6                                   
0801509A BC01     pop     r0                                      
0801509C 4700     bx      r0                                      
0801509E 0000     lsl     r0,r0,0h                                
080150A0 01AC     lsl     r4,r5,6h                                
080150A2 0300     lsl     r0,r0,0Ch                               
080150A4 010F     lsl     r7,r1,4h                                
080150A6 0000     lsl     r0,r0,0h                                
080150A8 B510     push    r4,r14                                  
080150AA 4C18     ldr     r4,=300070Ch                            
080150AC 88A0     ldrh    r0,[r4,4h]                              
080150AE 6821     ldr     r1,[r4]                                 
080150B0 00C0     lsl     r0,r0,3h                                
080150B2 1840     add     r0,r0,r1                                
080150B4 6803     ldr     r3,[r0]                                 
080150B6 4A16     ldr     r2,=3000738h                            
080150B8 7F91     ldrb    r1,[r2,1Eh]                             
080150BA 0048     lsl     r0,r1,1h                                
080150BC 1840     add     r0,r0,r1                                
080150BE 0040     lsl     r0,r0,1h                                
080150C0 18C0     add     r0,r0,r3                                
080150C2 8800     ldrh    r0,[r0]                                 
080150C4 4913     ldr     r1,=875F524h                            
080150C6 0080     lsl     r0,r0,2h                                
080150C8 1840     add     r0,r0,r1                                
080150CA 6991     ldr     r1,[r2,18h]                             
080150CC 6800     ldr     r0,[r0]                                 
080150CE 4281     cmp     r1,r0                                   
080150D0 D003     beq     80150DAh                                
080150D2 6190     str     r0,[r2,18h]                             
080150D4 2000     mov     r0,0h                                   
080150D6 7710     strb    r0,[r2,1Ch]                             
080150D8 82D0     strh    r0,[r2,16h]                             
080150DA 7F91     ldrb    r1,[r2,1Eh]                             
080150DC 0048     lsl     r0,r1,1h                                
080150DE 1840     add     r0,r0,r1                                
080150E0 0040     lsl     r0,r0,1h                                
080150E2 18C0     add     r0,r0,r3                                
080150E4 8840     ldrh    r0,[r0,2h]                              
080150E6 88E1     ldrh    r1,[r4,6h]                              
080150E8 1840     add     r0,r0,r1                                
080150EA 8050     strh    r0,[r2,2h]                              
080150EC 8811     ldrh    r1,[r2]                                 
080150EE 2040     mov     r0,40h                                  
080150F0 4008     and     r0,r1                                   
080150F2 7F91     ldrb    r1,[r2,1Eh]                             
080150F4 2800     cmp     r0,0h                                   
080150F6 D00F     beq     8015118h                                
080150F8 0048     lsl     r0,r1,1h                                
080150FA 1840     add     r0,r0,r1                                
080150FC 0040     lsl     r0,r0,1h                                
080150FE 18C0     add     r0,r0,r3                                
08015100 8921     ldrh    r1,[r4,8h]                              
08015102 8880     ldrh    r0,[r0,4h]                              
08015104 1A09     sub     r1,r1,r0                                
08015106 8091     strh    r1,[r2,4h]                              
08015108 E00E     b       8015128h                                
0801510A 0000     lsl     r0,r0,0h                                
0801510C 070C     lsl     r4,r1,1Ch                               
0801510E 0300     lsl     r0,r0,0Ch                               
08015110 0738     lsl     r0,r7,1Ch                               
08015112 0300     lsl     r0,r0,0Ch                               
08015114 F524     ????                                            
08015116 0875     lsr     r5,r6,1h                                
08015118 0048     lsl     r0,r1,1h                                
0801511A 1840     add     r0,r0,r1                                
0801511C 0040     lsl     r0,r0,1h                                
0801511E 18C0     add     r0,r0,r3                                
08015120 8880     ldrh    r0,[r0,4h]                              
08015122 8924     ldrh    r4,[r4,8h]                              
08015124 1900     add     r0,r0,r4                                
08015126 8090     strh    r0,[r2,4h]                              
08015128 BC10     pop     r4                                      
0801512A BC01     pop     r0                                      
0801512C 4700     bx      r0                                      
0801512E 0000     lsl     r0,r0,0h                                
08015130 B5F0     push    r4-r7,r14                               
08015132 4657     mov     r7,r10                                  
08015134 464E     mov     r6,r9                                   
08015136 4645     mov     r5,r8                                   
08015138 B4E0     push    r5-r7                                   
0801513A B083     add     sp,-0Ch                                 
0801513C 4C08     ldr     r4,=3000738h                            
0801513E 1C22     mov     r2,r4                                   
08015140 3232     add     r2,32h                                  
08015142 7811     ldrb    r1,[r2]                                 
08015144 2009     mov     r0,9h                                   
08015146 4308     orr     r0,r1                                   
08015148 7010     strb    r0,[r2]                                 
0801514A F7FEFD4B bl      8013BE4h                                
0801514E 8821     ldrh    r1,[r4]                                 
08015150 2040     mov     r0,40h                                  
08015152 4008     and     r0,r1                                   
08015154 2800     cmp     r0,0h                                   
08015156 D007     beq     8015168h                                
08015158 4902     ldr     r1,=300070Ch                            
0801515A 88A0     ldrh    r0,[r4,4h]                              
0801515C 3020     add     r0,20h                                  
0801515E E006     b       801516Eh                                
08015160 0738     lsl     r0,r7,1Ch                               
08015162 0300     lsl     r0,r0,0Ch                               
08015164 070C     lsl     r4,r1,1Ch                               
08015166 0300     lsl     r0,r0,0Ch                               
08015168 491B     ldr     r1,=300070Ch                            
0801516A 88A0     ldrh    r0,[r4,4h]                              
0801516C 3820     sub     r0,20h                                  
0801516E 8108     strh    r0,[r1,8h]                              
08015170 4D19     ldr     r5,=300070Ch                            
08015172 4C1A     ldr     r4,=3000738h                            
08015174 8860     ldrh    r0,[r4,2h]                              
08015176 2200     mov     r2,0h                                   
08015178 2300     mov     r3,0h                                   
0801517A 80E8     strh    r0,[r5,6h]                              
0801517C 1C20     mov     r0,r4                                   
0801517E 3027     add     r0,27h                                  
08015180 2120     mov     r1,20h                                  
08015182 7001     strb    r1,[r0]                                 
08015184 3001     add     r0,1h                                   
08015186 7001     strb    r1,[r0]                                 
08015188 1C21     mov     r1,r4                                   
0801518A 3129     add     r1,29h                                  
0801518C 2018     mov     r0,18h                                  
0801518E 7008     strb    r0,[r1]                                 
08015190 2004     mov     r0,4h                                   
08015192 8160     strh    r0,[r4,0Ah]                             
08015194 81A0     strh    r0,[r4,0Ch]                             
08015196 81E0     strh    r0,[r4,0Eh]                             
08015198 8220     strh    r0,[r4,10h]                             
0801519A 3907     sub     r1,7h                                   
0801519C 2003     mov     r0,3h                                   
0801519E 7008     strb    r0,[r1]                                 
080151A0 1C20     mov     r0,r4                                   
080151A2 3025     add     r0,25h                                  
080151A4 7002     strb    r2,[r0]                                 
080151A6 2001     mov     r0,1h                                   
080151A8 82A0     strh    r0,[r4,14h]                             
080151AA 732A     strb    r2,[r5,0Ch]                             
080151AC 80AB     strh    r3,[r5,4h]                              
080151AE 73AA     strb    r2,[r5,0Eh]                             
080151B0 73EA     strb    r2,[r5,0Fh]                             
080151B2 7F60     ldrb    r0,[r4,1Dh]                             
080151B4 F7FEFE14 bl      8013DE0h                                
080151B8 0600     lsl     r0,r0,18h                               
080151BA 0E06     lsr     r6,r0,18h                               
080151BC 2E01     cmp     r6,1h                                   
080151BE D91D     bls     80151FCh                                
080151C0 1C21     mov     r1,r4                                   
080151C2 3124     add     r1,24h                                  
080151C4 2009     mov     r0,9h                                   
080151C6 7008     strb    r0,[r1]                                 
080151C8 2E03     cmp     r6,3h                                   
080151CA D10B     bne     80151E4h                                
080151CC 4804     ldr     r0,=82BF520h                            
080151CE 6028     str     r0,[r5]                                 
080151D0 2004     mov     r0,4h                                   
080151D2 F001F82B bl      801622Ch                                
080151D6 E041     b       801525Ch                                
080151D8 070C     lsl     r4,r1,1Ch                               
080151DA 0300     lsl     r0,r0,0Ch                               
080151DC 0738     lsl     r0,r7,1Ch                               
080151DE 0300     lsl     r0,r0,0Ch                               
080151E0 F520     ????                                            
080151E2 082B     lsr     r3,r5,20h                               
080151E4 2001     mov     r0,1h                                   
080151E6 73E8     strb    r0,[r5,0Fh]                             
080151E8 4803     ldr     r0,=82BF4B8h                            
080151EA 6028     str     r0,[r5]                                 
080151EC 2004     mov     r0,4h                                   
080151EE 2102     mov     r1,2h                                   
080151F0 F000FF9A bl      8016128h                                
080151F4 E032     b       801525Ch                                
080151F6 0000     lsl     r0,r0,0h                                
080151F8 F4B8     ????                                            
080151FA 082B     lsr     r3,r5,20h                               
080151FC 480C     ldr     r0,=82BF520h                            
080151FE 6028     str     r0,[r5]                                 
08015200 2004     mov     r0,4h                                   
08015202 F001F813 bl      801622Ch                                
08015206 2E00     cmp     r6,0h                                   
08015208 D124     bne     8015254h                                
0801520A 1C21     mov     r1,r4                                   
0801520C 3124     add     r1,24h                                  
0801520E 2029     mov     r0,29h                                  
08015210 7008     strb    r0,[r1]                                 
08015212 8821     ldrh    r1,[r4]                                 
08015214 2040     mov     r0,40h                                  
08015216 4008     and     r0,r1                                   
08015218 2800     cmp     r0,0h                                   
0801521A D00B     beq     8015234h                                
0801521C 7FE2     ldrb    r2,[r4,1Fh]                             
0801521E 1C20     mov     r0,r4                                   
08015220 3023     add     r0,23h                                  
08015222 7803     ldrb    r3,[r0]                                 
08015224 88E8     ldrh    r0,[r5,6h]                              
08015226 3860     sub     r0,60h                                  
08015228 9000     str     r0,[sp]                                 
0801522A 8928     ldrh    r0,[r5,8h]                              
0801522C 3038     add     r0,38h                                  
0801522E E00A     b       8015246h                                
08015230 F520     ????                                            
08015232 082B     lsr     r3,r5,20h                               
08015234 7FE2     ldrb    r2,[r4,1Fh]                             
08015236 1C20     mov     r0,r4                                   
08015238 3023     add     r0,23h                                  
0801523A 7803     ldrb    r3,[r0]                                 
0801523C 88E8     ldrh    r0,[r5,6h]                              
0801523E 3860     sub     r0,60h                                  
08015240 9000     str     r0,[sp]                                 
08015242 8928     ldrh    r0,[r5,8h]                              
08015244 3838     sub     r0,38h                                  
08015246 9001     str     r0,[sp,4h]                              
08015248 9602     str     r6,[sp,8h]                              
0801524A 2000     mov     r0,0h                                   
0801524C 2100     mov     r1,0h                                   
0801524E F7F9F803 bl      800E258h                                
08015252 E003     b       801525Ch                                
08015254 1C21     mov     r1,r4                                   
08015256 3124     add     r1,24h                                  
08015258 2009     mov     r0,9h                                   
0801525A 7008     strb    r0,[r1]                                 
0801525C 4F2F     ldr     r7,=3000738h                            
0801525E 2004     mov     r0,4h                                   
08015260 77B8     strb    r0,[r7,1Eh]                             
08015262 482F     ldr     r0,=300070Ch                            
08015264 88C5     ldrh    r5,[r0,6h]                              
08015266 8900     ldrh    r0,[r0,8h]                              
08015268 4682     mov     r10,r0                                  
0801526A 7FF8     ldrb    r0,[r7,1Fh]                             
0801526C 4681     mov     r9,r0                                   
0801526E 1C38     mov     r0,r7                                   
08015270 3023     add     r0,23h                                  
08015272 7800     ldrb    r0,[r0]                                 
08015274 4680     mov     r8,r0                                   
08015276 9500     str     r5,[sp]                                 
08015278 4650     mov     r0,r10                                  
0801527A 9001     str     r0,[sp,4h]                              
0801527C 8839     ldrh    r1,[r7]                                 
0801527E 2440     mov     r4,40h                                  
08015280 1C20     mov     r0,r4                                   
08015282 4008     and     r0,r1                                   
08015284 0400     lsl     r0,r0,10h                               
08015286 0C00     lsr     r0,r0,10h                               
08015288 9002     str     r0,[sp,8h]                              
0801528A 2022     mov     r0,22h                                  
0801528C 2102     mov     r1,2h                                   
0801528E 464A     mov     r2,r9                                   
08015290 4643     mov     r3,r8                                   
08015292 F7F8FFE1 bl      800E258h                                
08015296 1C39     mov     r1,r7                                   
08015298 312D     add     r1,2Dh                                  
0801529A 7008     strb    r0,[r1]                                 
0801529C 9500     str     r5,[sp]                                 
0801529E 4650     mov     r0,r10                                  
080152A0 9001     str     r0,[sp,4h]                              
080152A2 8839     ldrh    r1,[r7]                                 
080152A4 1C20     mov     r0,r4                                   
080152A6 4008     and     r0,r1                                   
080152A8 0400     lsl     r0,r0,10h                               
080152AA 0C00     lsr     r0,r0,10h                               
080152AC 9002     str     r0,[sp,8h]                              
080152AE 2022     mov     r0,22h                                  
080152B0 2100     mov     r1,0h                                   
080152B2 464A     mov     r2,r9                                   
080152B4 4643     mov     r3,r8                                   
080152B6 F7F8FFCF bl      800E258h                                
080152BA 0600     lsl     r0,r0,18h                               
080152BC 0E06     lsr     r6,r0,18h                               
080152BE 9500     str     r5,[sp]                                 
080152C0 4650     mov     r0,r10                                  
080152C2 9001     str     r0,[sp,4h]                              
080152C4 8839     ldrh    r1,[r7]                                 
080152C6 1C20     mov     r0,r4                                   
080152C8 4008     and     r0,r1                                   
080152CA 0400     lsl     r0,r0,10h                               
080152CC 0C00     lsr     r0,r0,10h                               
080152CE 9002     str     r0,[sp,8h]                              
080152D0 2022     mov     r0,22h                                  
080152D2 2103     mov     r1,3h                                   
080152D4 464A     mov     r2,r9                                   
080152D6 4643     mov     r3,r8                                   
080152D8 F7F8FFBE bl      800E258h                                
080152DC 9500     str     r5,[sp]                                 
080152DE 4650     mov     r0,r10                                  
080152E0 9001     str     r0,[sp,4h]                              
080152E2 8838     ldrh    r0,[r7]                                 
080152E4 4004     and     r4,r0                                   
080152E6 0424     lsl     r4,r4,10h                               
080152E8 0C24     lsr     r4,r4,10h                               
080152EA 9402     str     r4,[sp,8h]                              
080152EC 2022     mov     r0,22h                                  
080152EE 2101     mov     r1,1h                                   
080152F0 464A     mov     r2,r9                                   
080152F2 4643     mov     r3,r8                                   
080152F4 F7F8FFB0 bl      800E258h                                
080152F8 0600     lsl     r0,r0,18h                               
080152FA 0E00     lsr     r0,r0,18h                               
080152FC 4A09     ldr     r2,=30001ACh                            
080152FE 00C1     lsl     r1,r0,3h                                
08015300 1A09     sub     r1,r1,r0                                
08015302 00C9     lsl     r1,r1,3h                                
08015304 1889     add     r1,r1,r2                                
08015306 312D     add     r1,2Dh                                  
08015308 700E     strb    r6,[r1]                                 
0801530A B003     add     sp,0Ch                                  
0801530C BC38     pop     r3-r5                                   
0801530E 4698     mov     r8,r3                                   
08015310 46A1     mov     r9,r4                                   
08015312 46AA     mov     r10,r5                                  
08015314 BCF0     pop     r4-r7                                   
08015316 BC01     pop     r0                                      
08015318 4700     bx      r0                                      
0801531A 0000     lsl     r0,r0,0h                                
0801531C 0738     lsl     r0,r7,1Ch                               
0801531E 0300     lsl     r0,r0,0Ch                               
08015320 070C     lsl     r4,r1,1Ch                               
08015322 0300     lsl     r0,r0,0Ch                               
08015324 01AC     lsl     r4,r5,6h                                
08015326 0300     lsl     r0,r0,0Ch                               
08015328 4770     bx      r14                                     
0801532A 0000     lsl     r0,r0,0h                                
0801532C B500     push    r14                                     
0801532E 4B11     ldr     r3,=3000738h                            
08015330 1C18     mov     r0,r3                                   
08015332 302D     add     r0,2Dh                                  
08015334 7801     ldrb    r1,[r0]                                 
08015336 4A10     ldr     r2,=30001ACh                            
08015338 00C8     lsl     r0,r1,3h                                
0801533A 1A40     sub     r0,r0,r1                                
0801533C 00C0     lsl     r0,r0,3h                                
0801533E 1880     add     r0,r0,r2                                
08015340 3024     add     r0,24h                                  
08015342 2200     mov     r2,0h                                   
08015344 2142     mov     r1,42h                                  
08015346 7001     strb    r1,[r0]                                 
08015348 1C19     mov     r1,r3                                   
0801534A 3124     add     r1,24h                                  
0801534C 2023     mov     r0,23h                                  
0801534E 7008     strb    r0,[r1]                                 
08015350 3108     add     r1,8h                                   
08015352 2078     mov     r0,78h                                  
08015354 7008     strb    r0,[r1]                                 
08015356 3102     add     r1,2h                                   
08015358 200C     mov     r0,0Ch                                  
0801535A 7008     strb    r0,[r1]                                 
0801535C 1C18     mov     r0,r3                                   
0801535E 302F     add     r0,2Fh                                  
08015360 7002     strb    r2,[r0]                                 
08015362 7F58     ldrb    r0,[r3,1Dh]                             
08015364 F7FEFAB8 bl      80138D8h                                
08015368 203C     mov     r0,3Ch                                  
0801536A F7EEFB95 bl      8003A98h                                
0801536E BC01     pop     r0                                      
08015370 4700     bx      r0                                      
08015372 0000     lsl     r0,r0,0h                                
08015374 0738     lsl     r0,r7,1Ch                               
08015376 0300     lsl     r0,r0,0Ch                               
08015378 01AC     lsl     r4,r5,6h                                
0801537A 0300     lsl     r0,r0,0Ch                               
0801537C B510     push    r4,r14                                  
0801537E 4B12     ldr     r3,=3000738h                            
08015380 1C18     mov     r0,r3                                   
08015382 302D     add     r0,2Dh                                  
08015384 7801     ldrb    r1,[r0]                                 
08015386 4A11     ldr     r2,=30001ACh                            
08015388 00C8     lsl     r0,r1,3h                                
0801538A 1A40     sub     r0,r0,r1                                
0801538C 00C0     lsl     r0,r0,3h                                
0801538E 1880     add     r0,r0,r2                                
08015390 3024     add     r0,24h                                  
08015392 7800     ldrb    r0,[r0]                                 
08015394 2861     cmp     r0,61h                                  
08015396 D14B     bne     8015430h                                
08015398 1C19     mov     r1,r3                                   
0801539A 312C     add     r1,2Ch                                  
0801539C 7808     ldrb    r0,[r1]                                 
0801539E 3801     sub     r0,1h                                   
080153A0 7008     strb    r0,[r1]                                 
080153A2 0600     lsl     r0,r0,18h                               
080153A4 0E02     lsr     r2,r0,18h                               
080153A6 2A00     cmp     r2,0h                                   
080153A8 D114     bne     80153D4h                                
080153AA 3908     sub     r1,8h                                   
080153AC 2024     mov     r0,24h                                  
080153AE 7008     strb    r0,[r1]                                 
080153B0 1C18     mov     r0,r3                                   
080153B2 3020     add     r0,20h                                  
080153B4 7002     strb    r2,[r0]                                 
080153B6 4906     ldr     r1,=3000BF0h                            
080153B8 2004     mov     r0,4h                                   
080153BA 7008     strb    r0,[r1]                                 
080153BC 2005     mov     r0,5h                                   
080153BE 2100     mov     r1,0h                                   
080153C0 F7EEFB18 bl      80039F4h                                
080153C4 E034     b       8015430h                                
080153C6 0000     lsl     r0,r0,0h                                
080153C8 0738     lsl     r0,r7,1Ch                               
080153CA 0300     lsl     r0,r0,0Ch                               
080153CC 01AC     lsl     r4,r5,6h                                
080153CE 0300     lsl     r0,r0,0Ch                               
080153D0 0BF0     lsr     r0,r6,0Fh                               
080153D2 0300     lsl     r0,r0,0Ch                               
080153D4 2A77     cmp     r2,77h                                  
080153D6 D109     bne     80153ECh                                
080153D8 2000     mov     r0,0h                                   
080153DA F04AFFF3 bl      80603C4h                                
080153DE 4802     ldr     r0,=11Bh                                
080153E0 F7EDFB1A bl      8002A18h                                
080153E4 E004     b       80153F0h                                
080153E6 0000     lsl     r0,r0,0h                                
080153E8 011B     lsl     r3,r3,4h                                
080153EA 0000     lsl     r0,r0,0h                                
080153EC 2A77     cmp     r2,77h                                  
080153EE D81F     bhi     8015430h                                
080153F0 4A0C     ldr     r2,=3000738h                            
080153F2 1C11     mov     r1,r2                                   
080153F4 312E     add     r1,2Eh                                  
080153F6 7808     ldrb    r0,[r1]                                 
080153F8 3801     sub     r0,1h                                   
080153FA 7008     strb    r0,[r1]                                 
080153FC 0600     lsl     r0,r0,18h                               
080153FE 0E04     lsr     r4,r0,18h                               
08015400 2C00     cmp     r4,0h                                   
08015402 D115     bne     8015430h                                
08015404 200C     mov     r0,0Ch                                  
08015406 7008     strb    r0,[r1]                                 
08015408 4907     ldr     r1,=82BF530h                            
0801540A 1C13     mov     r3,r2                                   
0801540C 332F     add     r3,2Fh                                  
0801540E 7818     ldrb    r0,[r3]                                 
08015410 1840     add     r0,r0,r1                                
08015412 7801     ldrb    r1,[r0]                                 
08015414 1C10     mov     r0,r2                                   
08015416 3020     add     r0,20h                                  
08015418 7001     strb    r1,[r0]                                 
0801541A 7818     ldrb    r0,[r3]                                 
0801541C 2802     cmp     r0,2h                                   
0801541E D905     bls     801542Ch                                
08015420 701C     strb    r4,[r3]                                 
08015422 E005     b       8015430h                                
08015424 0738     lsl     r0,r7,1Ch                               
08015426 0300     lsl     r0,r0,0Ch                               
08015428 F530     ????                                            
0801542A 082B     lsr     r3,r5,20h                               
0801542C 3001     add     r0,1h                                   
0801542E 7018     strb    r0,[r3]                                 
08015430 BC10     pop     r4                                      
08015432 BC01     pop     r0                                      
08015434 4700     bx      r0                                      
08015436 0000     lsl     r0,r0,0h                                
08015438 B500     push    r14                                     
0801543A 480B     ldr     r0,=3000738h                            
0801543C 3024     add     r0,24h                                  
0801543E 2200     mov     r2,0h                                   
08015440 2125     mov     r1,25h                                  
08015442 7001     strb    r1,[r0]                                 
08015444 4809     ldr     r0,=300070Ch                            
08015446 490A     ldr     r1,=82BF4C8h                            
08015448 6001     str     r1,[r0]                                 
0801544A 7302     strb    r2,[r0,0Ch]                             
0801544C 8082     strh    r2,[r0,4h]                              
0801544E 2001     mov     r0,1h                                   
08015450 2101     mov     r1,1h                                   
08015452 F000FE69 bl      8016128h                                
08015456 208E     mov     r0,8Eh                                  
08015458 0040     lsl     r0,r0,1h                                
0801545A F7EDFADD bl      8002A18h                                
0801545E 4905     ldr     r1,=300003Eh                            
08015460 203C     mov     r0,3Ch                                  
08015462 8008     strh    r0,[r1]                                 
08015464 BC01     pop     r0                                      
08015466 4700     bx      r0                                      
08015468 0738     lsl     r0,r7,1Ch                               
0801546A 0300     lsl     r0,r0,0Ch                               
0801546C 070C     lsl     r4,r1,1Ch                               
0801546E 0300     lsl     r0,r0,0Ch                               
08015470 F4C8     ????                                            
08015472 082B     lsr     r3,r5,20h                               
08015474 003E     lsl     r6,r7,0h                                
08015476 0300     lsl     r0,r0,0Ch                               
08015478 B510     push    r4,r14                                  
0801547A F7FBFF41 bl      8011300h                                
0801547E 4C0E     ldr     r4,=300070Ch                            
08015480 7BA0     ldrb    r0,[r4,0Eh]                             
08015482 2800     cmp     r0,0h                                   
08015484 D001     beq     801548Ah                                
08015486 F7FDF8AF bl      80125E8h                                
0801548A F7FAFC21 bl      800FCD0h                                
0801548E 2800     cmp     r0,0h                                   
08015490 D00F     beq     80154B2h                                
08015492 480A     ldr     r0,=82BF520h                            
08015494 6020     str     r0,[r4]                                 
08015496 2000     mov     r0,0h                                   
08015498 7320     strb    r0,[r4,0Ch]                             
0801549A 80A0     strh    r0,[r4,4h]                              
0801549C 4908     ldr     r1,=3000738h                            
0801549E 1C0A     mov     r2,r1                                   
080154A0 3224     add     r2,24h                                  
080154A2 2027     mov     r0,27h                                  
080154A4 7010     strb    r0,[r2]                                 
080154A6 312C     add     r1,2Ch                                  
080154A8 201E     mov     r0,1Eh                                  
080154AA 7008     strb    r0,[r1]                                 
080154AC 2004     mov     r0,4h                                   
080154AE F000FEBD bl      801622Ch                                
080154B2 BC10     pop     r4                                      
080154B4 BC01     pop     r0                                      
080154B6 4700     bx      r0                                      
080154B8 070C     lsl     r4,r1,1Ch                               
080154BA 0300     lsl     r0,r0,0Ch                               
080154BC F520     ????                                            
080154BE 082B     lsr     r3,r5,20h                               
080154C0 0738     lsl     r0,r7,1Ch                               
080154C2 0300     lsl     r0,r0,0Ch                               
080154C4 B500     push    r14                                     
080154C6 4A07     ldr     r2,=3000738h                            
080154C8 1C11     mov     r1,r2                                   
080154CA 312C     add     r1,2Ch                                  
080154CC 7808     ldrb    r0,[r1]                                 
080154CE 3801     sub     r0,1h                                   
080154D0 7008     strb    r0,[r1]                                 
080154D2 0600     lsl     r0,r0,18h                               
080154D4 2800     cmp     r0,0h                                   
080154D6 D102     bne     80154DEh                                
080154D8 3908     sub     r1,8h                                   
080154DA 2009     mov     r0,9h                                   
080154DC 7008     strb    r0,[r1]                                 
080154DE BC01     pop     r0                                      
080154E0 4700     bx      r0                                      
080154E2 0000     lsl     r0,r0,0h                                
080154E4 0738     lsl     r0,r7,1Ch                               
080154E6 0300     lsl     r0,r0,0Ch                               
080154E8 B510     push    r4,r14                                  
080154EA 4C09     ldr     r4,=3000738h                            
080154EC 7F60     ldrb    r0,[r4,1Dh]                             
080154EE F7FEFC77 bl      8013DE0h                                
080154F2 0600     lsl     r0,r0,18h                               
080154F4 0E00     lsr     r0,r0,18h                               
080154F6 2801     cmp     r0,1h                                   
080154F8 D106     bne     8015508h                                
080154FA 1C21     mov     r1,r4                                   
080154FC 3124     add     r1,24h                                  
080154FE 202B     mov     r0,2Bh                                  
08015500 7008     strb    r0,[r1]                                 
08015502 3108     add     r1,8h                                   
08015504 2028     mov     r0,28h                                  
08015506 7008     strb    r0,[r1]                                 
08015508 BC10     pop     r4                                      
0801550A BC01     pop     r0                                      
0801550C 4700     bx      r0                                      
0801550E 0000     lsl     r0,r0,0h                                
08015510 0738     lsl     r0,r7,1Ch                               
08015512 0300     lsl     r0,r0,0Ch                               
08015514 B500     push    r14                                     
08015516 4A07     ldr     r2,=3000738h                            
08015518 1C11     mov     r1,r2                                   
0801551A 312C     add     r1,2Ch                                  
0801551C 7808     ldrb    r0,[r1]                                 
0801551E 3801     sub     r0,1h                                   
08015520 7008     strb    r0,[r1]                                 
08015522 0600     lsl     r0,r0,18h                               
08015524 2800     cmp     r0,0h                                   
08015526 D102     bne     801552Eh                                
08015528 3908     sub     r1,8h                                   
0801552A 2009     mov     r0,9h                                   
0801552C 7008     strb    r0,[r1]                                 
0801552E BC01     pop     r0                                      
08015530 4700     bx      r0                                      
08015532 0000     lsl     r0,r0,0h                                
08015534 0738     lsl     r0,r7,1Ch                               
08015536 0300     lsl     r0,r0,0Ch                               
08015538 B510     push    r4,r14                                  
0801553A B083     add     sp,-0Ch                                 
0801553C 4B0E     ldr     r3,=3000738h                            
0801553E 1C19     mov     r1,r3                                   
08015540 3124     add     r1,24h                                  
08015542 2400     mov     r4,0h                                   
08015544 202F     mov     r0,2Fh                                  
08015546 7008     strb    r0,[r1]                                 
08015548 310A     add     r1,0Ah                                  
0801554A 2004     mov     r0,4h                                   
0801554C 7008     strb    r0,[r1]                                 
0801554E 1C18     mov     r0,r3                                   
08015550 302F     add     r0,2Fh                                  
08015552 7004     strb    r4,[r0]                                 
08015554 7FDA     ldrb    r2,[r3,1Fh]                             
08015556 380C     sub     r0,0Ch                                  
08015558 7803     ldrb    r3,[r0]                                 
0801555A 4908     ldr     r1,=30013D4h                            
0801555C 8A88     ldrh    r0,[r1,14h]                             
0801555E 3818     sub     r0,18h                                  
08015560 9000     str     r0,[sp]                                 
08015562 8A48     ldrh    r0,[r1,12h]                             
08015564 9001     str     r0,[sp,4h]                              
08015566 9402     str     r4,[sp,8h]                              
08015568 2023     mov     r0,23h                                  
0801556A 2100     mov     r1,0h                                   
0801556C F7F8FE74 bl      800E258h                                
08015570 B003     add     sp,0Ch                                  
08015572 BC10     pop     r4                                      
08015574 BC01     pop     r0                                      
08015576 4700     bx      r0                                      
08015578 0738     lsl     r0,r7,1Ch                               
0801557A 0300     lsl     r0,r0,0Ch                               
0801557C 13D4     asr     r4,r2,0Fh                               
0801557E 0300     lsl     r0,r0,0Ch                               
08015580 B510     push    r4,r14                                  
08015582 4A0D     ldr     r2,=3000738h                            
08015584 1C11     mov     r1,r2                                   
08015586 312E     add     r1,2Eh                                  
08015588 7808     ldrb    r0,[r1]                                 
0801558A 3801     sub     r0,1h                                   
0801558C 7008     strb    r0,[r1]                                 
0801558E 0600     lsl     r0,r0,18h                               
08015590 0E04     lsr     r4,r0,18h                               
08015592 2C00     cmp     r4,0h                                   
08015594 D116     bne     80155C4h                                
08015596 2004     mov     r0,4h                                   
08015598 7008     strb    r0,[r1]                                 
0801559A 4908     ldr     r1,=82BF530h                            
0801559C 1C13     mov     r3,r2                                   
0801559E 332F     add     r3,2Fh                                  
080155A0 7818     ldrb    r0,[r3]                                 
080155A2 1840     add     r0,r0,r1                                
080155A4 7801     ldrb    r1,[r0]                                 
080155A6 1C10     mov     r0,r2                                   
080155A8 3020     add     r0,20h                                  
080155AA 7001     strb    r1,[r0]                                 
080155AC 7818     ldrb    r0,[r3]                                 
080155AE 2802     cmp     r0,2h                                   
080155B0 D906     bls     80155C0h                                
080155B2 701C     strb    r4,[r3]                                 
080155B4 E006     b       80155C4h                                
080155B6 0000     lsl     r0,r0,0h                                
080155B8 0738     lsl     r0,r7,1Ch                               
080155BA 0300     lsl     r0,r0,0Ch                               
080155BC F530     ????                                            
080155BE 082B     lsr     r3,r5,20h                               
080155C0 3001     add     r0,1h                                   
080155C2 7018     strb    r0,[r3]                                 
080155C4 BC10     pop     r4                                      
080155C6 BC01     pop     r0                                      
080155C8 4700     bx      r0                                      
080155CA 0000     lsl     r0,r0,0h                                
080155CC 4B06     ldr     r3,=3000738h                            
080155CE 1C19     mov     r1,r3                                   
080155D0 3124     add     r1,24h                                  
080155D2 2200     mov     r2,0h                                   
080155D4 2031     mov     r0,31h                                  
080155D6 7008     strb    r0,[r1]                                 
080155D8 1C18     mov     r0,r3                                   
080155DA 3020     add     r0,20h                                  
080155DC 7002     strb    r2,[r0]                                 
080155DE 3108     add     r1,8h                                   
080155E0 2046     mov     r0,46h                                  
080155E2 7008     strb    r0,[r1]                                 
080155E4 4770     bx      r14                                     
080155E6 0000     lsl     r0,r0,0h                                
080155E8 0738     lsl     r0,r7,1Ch                               
080155EA 0300     lsl     r0,r0,0Ch                               
080155EC B500     push    r14                                     
080155EE 4B11     ldr     r3,=3000738h                            
080155F0 1C19     mov     r1,r3                                   
080155F2 312C     add     r1,2Ch                                  
080155F4 7808     ldrb    r0,[r1]                                 
080155F6 3801     sub     r0,1h                                   
080155F8 7008     strb    r0,[r1]                                 
080155FA 0600     lsl     r0,r0,18h                               
080155FC 2800     cmp     r0,0h                                   
080155FE D117     bne     8015630h                                
08015600 1C18     mov     r0,r3                                   
08015602 302D     add     r0,2Dh                                  
08015604 7801     ldrb    r1,[r0]                                 
08015606 4A0C     ldr     r2,=30001ACh                            
08015608 00C8     lsl     r0,r1,3h                                
0801560A 1A40     sub     r0,r0,r1                                
0801560C 00C0     lsl     r0,r0,3h                                
0801560E 1880     add     r0,r0,r2                                
08015610 3024     add     r0,24h                                  
08015612 2144     mov     r1,44h                                  
08015614 7001     strb    r1,[r0]                                 
08015616 1C19     mov     r1,r3                                   
08015618 3124     add     r1,24h                                  
0801561A 200F     mov     r0,0Fh                                  
0801561C 7008     strb    r0,[r1]                                 
0801561E 4807     ldr     r0,=300070Ch                            
08015620 7BC0     ldrb    r0,[r0,0Fh]                             
08015622 2800     cmp     r0,0h                                   
08015624 D004     beq     8015630h                                
08015626 4806     ldr     r0,=3000030h                            
08015628 8800     ldrh    r0,[r0]                                 
0801562A 2100     mov     r1,0h                                   
0801562C F7EEF9E2 bl      80039F4h                                
08015630 BC01     pop     r0                                      
08015632 4700     bx      r0                                      
08015634 0738     lsl     r0,r7,1Ch                               
08015636 0300     lsl     r0,r0,0Ch                               
08015638 01AC     lsl     r4,r5,6h                                
0801563A 0300     lsl     r0,r0,0Ch                               
0801563C 070C     lsl     r4,r1,1Ch                               
0801563E 0300     lsl     r0,r0,0Ch                               
08015640 0030     lsl     r0,r6,0h                                
08015642 0300     lsl     r0,r0,0Ch                               
08015644 B570     push    r4-r6,r14                               
08015646 4C1A     ldr     r4,=3000738h                            
08015648 1C20     mov     r0,r4                                   
0801564A 3023     add     r0,23h                                  
0801564C 7803     ldrb    r3,[r0]                                 
0801564E 8820     ldrh    r0,[r4]                                 
08015650 4918     ldr     r1,=0FFFBh                              
08015652 4001     and     r1,r0                                   
08015654 2500     mov     r5,0h                                   
08015656 2600     mov     r6,0h                                   
08015658 2032     mov     r0,32h                                  
0801565A 1900     add     r0,r0,r4                                
0801565C 4684     mov     r12,r0                                  
0801565E 7802     ldrb    r2,[r0]                                 
08015660 2001     mov     r0,1h                                   
08015662 4310     orr     r0,r2                                   
08015664 4662     mov     r2,r12                                  
08015666 7010     strb    r0,[r2]                                 
08015668 2280     mov     r2,80h                                  
0801566A 0212     lsl     r2,r2,8h                                
0801566C 1C10     mov     r0,r2                                   
0801566E 4301     orr     r1,r0                                   
08015670 8021     strh    r1,[r4]                                 
08015672 1C20     mov     r0,r4                                   
08015674 3025     add     r0,25h                                  
08015676 7005     strb    r5,[r0]                                 
08015678 1C21     mov     r1,r4                                   
0801567A 3122     add     r1,22h                                  
0801567C 2002     mov     r0,2h                                   
0801567E 7008     strb    r0,[r1]                                 
08015680 2004     mov     r0,4h                                   
08015682 8160     strh    r0,[r4,0Ah]                             
08015684 81A0     strh    r0,[r4,0Ch]                             
08015686 81E0     strh    r0,[r4,0Eh]                             
08015688 8220     strh    r0,[r4,10h]                             
0801568A 490B     ldr     r1,=30001ACh                            
0801568C 00D8     lsl     r0,r3,3h                                
0801568E 1AC0     sub     r0,r0,r3                                
08015690 00C0     lsl     r0,r0,3h                                
08015692 1840     add     r0,r0,r1                                
08015694 7F40     ldrb    r0,[r0,1Dh]                             
08015696 F7FEFBA3 bl      8013DE0h                                
0801569A 0600     lsl     r0,r0,18h                               
0801569C 0E02     lsr     r2,r0,18h                               
0801569E 1C13     mov     r3,r2                                   
080156A0 7FA1     ldrb    r1,[r4,1Eh]                             
080156A2 2901     cmp     r1,1h                                   
080156A4 D066     beq     8015774h                                
080156A6 2901     cmp     r1,1h                                   
080156A8 DC08     bgt     80156BCh                                
080156AA 2900     cmp     r1,0h                                   
080156AC D00B     beq     80156C6h                                
080156AE E07B     b       80157A8h                                
080156B0 0738     lsl     r0,r7,1Ch                               
080156B2 0300     lsl     r0,r0,0Ch                               
080156B4 FFFB     bl      lr+0FF6h                                
080156B6 0000     lsl     r0,r0,0h                                
080156B8 01AC     lsl     r4,r5,6h                                
080156BA 0300     lsl     r0,r0,0Ch                               
080156BC 2902     cmp     r1,2h                                   
080156BE D03E     beq     801573Eh                                
080156C0 2903     cmp     r1,3h                                   
080156C2 D027     beq     8015714h                                
080156C4 E070     b       80157A8h                                
080156C6 1C21     mov     r1,r4                                   
080156C8 3127     add     r1,27h                                  
080156CA 2010     mov     r0,10h                                  
080156CC 7008     strb    r0,[r1]                                 
080156CE 3101     add     r1,1h                                   
080156D0 7008     strb    r0,[r1]                                 
080156D2 3101     add     r1,1h                                   
080156D4 201E     mov     r0,1Eh                                  
080156D6 7008     strb    r0,[r1]                                 
080156D8 7725     strb    r5,[r4,1Ch]                             
080156DA 82E6     strh    r6,[r4,16h]                             
080156DC 2A02     cmp     r2,2h                                   
080156DE D102     bne     80156E6h                                
080156E0 3905     sub     r1,5h                                   
080156E2 2009     mov     r0,9h                                   
080156E4 E002     b       80156ECh                                
080156E6 1C21     mov     r1,r4                                   
080156E8 3124     add     r1,24h                                  
080156EA 2025     mov     r0,25h                                  
080156EC 7008     strb    r0,[r1]                                 
080156EE 2B00     cmp     r3,0h                                   
080156F0 D108     bne     8015704h                                
080156F2 4902     ldr     r1,=3000738h                            
080156F4 4802     ldr     r0,=82C1288h                            
080156F6 6188     str     r0,[r1,18h]                             
080156F8 E059     b       80157AEh                                
080156FA 0000     lsl     r0,r0,0h                                
080156FC 0738     lsl     r0,r7,1Ch                               
080156FE 0300     lsl     r0,r0,0Ch                               
08015700 1288     asr     r0,r1,0Ah                               
08015702 082C     lsr     r4,r5,20h                               
08015704 4901     ldr     r1,=3000738h                            
08015706 4802     ldr     r0,=82C1298h                            
08015708 6188     str     r0,[r1,18h]                             
0801570A E050     b       80157AEh                                
0801570C 0738     lsl     r0,r7,1Ch                               
0801570E 0300     lsl     r0,r0,0Ch                               
08015710 1298     asr     r0,r3,0Ah                               
08015712 082C     lsr     r4,r5,20h                               
08015714 1C21     mov     r1,r4                                   
08015716 3127     add     r1,27h                                  
08015718 2030     mov     r0,30h                                  
0801571A 7008     strb    r0,[r1]                                 
0801571C 1C20     mov     r0,r4                                   
0801571E 3028     add     r0,28h                                  
08015720 7005     strb    r5,[r0]                                 
08015722 3102     add     r1,2h                                   
08015724 2020     mov     r0,20h                                  
08015726 7008     strb    r0,[r1]                                 
08015728 2A02     cmp     r2,2h                                   
0801572A D103     bne     8015734h                                
0801572C 3905     sub     r1,5h                                   
0801572E 200F     mov     r0,0Fh                                  
08015730 7008     strb    r0,[r1]                                 
08015732 E03C     b       80157AEh                                
08015734 1C21     mov     r1,r4                                   
08015736 3124     add     r1,24h                                  
08015738 2061     mov     r0,61h                                  
0801573A 7008     strb    r0,[r1]                                 
0801573C E037     b       80157AEh                                
0801573E 1C20     mov     r0,r4                                   
08015740 3027     add     r0,27h                                  
08015742 2108     mov     r1,8h                                   
08015744 7001     strb    r1,[r0]                                 
08015746 3001     add     r0,1h                                   
08015748 7001     strb    r1,[r0]                                 
0801574A 3001     add     r0,1h                                   
0801574C 7001     strb    r1,[r0]                                 
0801574E 1C21     mov     r1,r4                                   
08015750 3124     add     r1,24h                                  
08015752 2061     mov     r0,61h                                  
08015754 7008     strb    r0,[r1]                                 
08015756 7725     strb    r5,[r4,1Ch]                             
08015758 82E6     strh    r6,[r4,16h]                             
0801575A 2B02     cmp     r3,2h                                   
0801575C D104     bne     8015768h                                
0801575E 4801     ldr     r0,=82C1278h                            
08015760 61A0     str     r0,[r4,18h]                             
08015762 E024     b       80157AEh                                
08015764 1278     asr     r0,r7,9h                                
08015766 082C     lsr     r4,r5,20h                               
08015768 4801     ldr     r0,=82C1238h                            
0801576A 61A0     str     r0,[r4,18h]                             
0801576C E01F     b       80157AEh                                
0801576E 0000     lsl     r0,r0,0h                                
08015770 1238     asr     r0,r7,8h                                
08015772 082C     lsr     r4,r5,20h                               
08015774 1C22     mov     r2,r4                                   
08015776 3227     add     r2,27h                                  
08015778 2010     mov     r0,10h                                  
0801577A 7010     strb    r0,[r2]                                 
0801577C 1C20     mov     r0,r4                                   
0801577E 3028     add     r0,28h                                  
08015780 7001     strb    r1,[r0]                                 
08015782 1C21     mov     r1,r4                                   
08015784 3129     add     r1,29h                                  
08015786 200C     mov     r0,0Ch                                  
08015788 7008     strb    r0,[r1]                                 
0801578A 4806     ldr     r0,=82C14A8h                            
0801578C 61A0     str     r0,[r4,18h]                             
0801578E 7725     strb    r5,[r4,1Ch]                             
08015790 82E6     strh    r6,[r4,16h]                             
08015792 3905     sub     r1,5h                                   
08015794 204F     mov     r0,4Fh                                  
08015796 7008     strb    r0,[r1]                                 
08015798 8820     ldrh    r0,[r4]                                 
0801579A 2104     mov     r1,4h                                   
0801579C 4308     orr     r0,r1                                   
0801579E 8020     strh    r0,[r4]                                 
080157A0 E005     b       80157AEh                                
080157A2 0000     lsl     r0,r0,0h                                
080157A4 14A8     asr     r0,r5,12h                               
080157A6 082C     lsr     r4,r5,20h                               
080157A8 4902     ldr     r1,=3000738h                            
080157AA 2000     mov     r0,0h                                   
080157AC 8008     strh    r0,[r1]                                 
080157AE BC70     pop     r4-r6                                   
080157B0 BC01     pop     r0                                      
080157B2 4700     bx      r0                                      
080157B4 0738     lsl     r0,r7,1Ch                               
080157B6 0300     lsl     r0,r0,0Ch                               
080157B8 B500     push    r14                                     
080157BA 4B0D     ldr     r3,=3000738h                            
080157BC 1C18     mov     r0,r3                                   
080157BE 302D     add     r0,2Dh                                  
080157C0 7802     ldrb    r2,[r0]                                 
080157C2 490C     ldr     r1,=30001ACh                            
080157C4 00D0     lsl     r0,r2,3h                                
080157C6 1A80     sub     r0,r0,r2                                
080157C8 00C0     lsl     r0,r0,3h                                
080157CA 3118     add     r1,18h                                  
080157CC 1840     add     r0,r0,r1                                
080157CE 6801     ldr     r1,[r0]                                 
080157D0 4809     ldr     r0,=82C1298h                            
080157D2 4281     cmp     r1,r0                                   
080157D4 D114     bne     8015800h                                
080157D6 8819     ldrh    r1,[r3]                                 
080157D8 2004     mov     r0,4h                                   
080157DA 4008     and     r0,r1                                   
080157DC 2800     cmp     r0,0h                                   
080157DE D017     beq     8015810h                                
080157E0 4806     ldr     r0,=0FFFBh                              
080157E2 4008     and     r0,r1                                   
080157E4 2100     mov     r1,0h                                   
080157E6 2200     mov     r2,0h                                   
080157E8 8018     strh    r0,[r3]                                 
080157EA 7719     strb    r1,[r3,1Ch]                             
080157EC 82DA     strh    r2,[r3,16h]                             
080157EE E00F     b       8015810h                                
080157F0 0738     lsl     r0,r7,1Ch                               
080157F2 0300     lsl     r0,r0,0Ch                               
080157F4 01AC     lsl     r4,r5,6h                                
080157F6 0300     lsl     r0,r0,0Ch                               
080157F8 1298     asr     r0,r3,0Ah                               
080157FA 082C     lsr     r4,r5,20h                               
080157FC FFFB     bl      lr+0FF6h                                
080157FE 0000     lsl     r0,r0,0h                                
08015800 8819     ldrh    r1,[r3]                                 
08015802 2004     mov     r0,4h                                   
08015804 4008     and     r0,r1                                   
08015806 2800     cmp     r0,0h                                   
08015808 D102     bne     8015810h                                
0801580A 2004     mov     r0,4h                                   
0801580C 4308     orr     r0,r1                                   
0801580E 8018     strh    r0,[r3]                                 
08015810 BC01     pop     r0                                      
08015812 4700     bx      r0                                      
08015814 B530     push    r4,r5,r14                               
08015816 4807     ldr     r0,=3000738h                            
08015818 1C01     mov     r1,r0                                   
0801581A 3123     add     r1,23h                                  
0801581C 780C     ldrb    r4,[r1]                                 
0801581E 8883     ldrh    r3,[r0,4h]                              
08015820 8802     ldrh    r2,[r0]                                 
08015822 2140     mov     r1,40h                                  
08015824 4011     and     r1,r2                                   
08015826 1C05     mov     r5,r0                                   
08015828 2900     cmp     r1,0h                                   
0801582A D005     beq     8015838h                                
0801582C 1C18     mov     r0,r3                                   
0801582E 3038     add     r0,38h                                  
08015830 E004     b       801583Ch                                
08015832 0000     lsl     r0,r0,0h                                
08015834 0738     lsl     r0,r7,1Ch                               
08015836 0300     lsl     r0,r0,0Ch                               
08015838 1C18     mov     r0,r3                                   
0801583A 3838     sub     r0,38h                                  
0801583C 0400     lsl     r0,r0,10h                               
0801583E 0C03     lsr     r3,r0,10h                               
08015840 4818     ldr     r0,=30001ACh                            
08015842 00E1     lsl     r1,r4,3h                                
08015844 1B09     sub     r1,r1,r4                                
08015846 00C9     lsl     r1,r1,3h                                
08015848 1809     add     r1,r1,r0                                
0801584A 1C0C     mov     r4,r1                                   
0801584C 3424     add     r4,24h                                  
0801584E 7820     ldrb    r0,[r4]                                 
08015850 2809     cmp     r0,9h                                   
08015852 D124     bne     801589Eh                                
08015854 4A14     ldr     r2,=30013D4h                            
08015856 8A91     ldrh    r1,[r2,14h]                             
08015858 8868     ldrh    r0,[r5,2h]                              
0801585A 3811     sub     r0,11h                                  
0801585C 4281     cmp     r1,r0                                   
0801585E D11E     bne     801589Eh                                
08015860 8A51     ldrh    r1,[r2,12h]                             
08015862 1C18     mov     r0,r3                                   
08015864 3810     sub     r0,10h                                  
08015866 4281     cmp     r1,r0                                   
08015868 DD19     ble     801589Eh                                
0801586A 3020     add     r0,20h                                  
0801586C 4281     cmp     r1,r0                                   
0801586E DA16     bge     801589Eh                                
08015870 7810     ldrb    r0,[r2]                                 
08015872 3811     sub     r0,11h                                  
08015874 0600     lsl     r0,r0,18h                               
08015876 0E00     lsr     r0,r0,18h                               
08015878 2801     cmp     r0,1h                                   
0801587A D810     bhi     801589Eh                                
0801587C 2020     mov     r0,20h                                  
0801587E F7F1FE33 bl      80074E8h                                
08015882 2200     mov     r2,0h                                   
08015884 2022     mov     r0,22h                                  
08015886 7020     strb    r0,[r4]                                 
08015888 1C29     mov     r1,r5                                   
0801588A 3124     add     r1,24h                                  
0801588C 2023     mov     r0,23h                                  
0801588E 7008     strb    r0,[r1]                                 
08015890 4806     ldr     r0,=82C12E0h                            
08015892 61A8     str     r0,[r5,18h]                             
08015894 772A     strb    r2,[r5,1Ch]                             
08015896 82EA     strh    r2,[r5,16h]                             
08015898 4905     ldr     r1,=3000049h                            
0801589A 2001     mov     r0,1h                                   
0801589C 7008     strb    r0,[r1]                                 
0801589E BC30     pop     r4,r5                                   
080158A0 BC01     pop     r0                                      
080158A2 4700     bx      r0                                      
080158A4 01AC     lsl     r4,r5,6h                                
080158A6 0300     lsl     r0,r0,0Ch                               
080158A8 13D4     asr     r4,r2,0Fh                               
080158AA 0300     lsl     r0,r0,0Ch                               
080158AC 12E0     asr     r0,r4,0Bh                               
080158AE 082C     lsr     r4,r5,20h                               
080158B0 0049     lsl     r1,r1,1h                                
080158B2 0300     lsl     r0,r0,0Ch                               
080158B4 B500     push    r14                                     
080158B6 4B06     ldr     r3,=30013D4h                            
080158B8 4A06     ldr     r2,=3000738h                            
080158BA 8850     ldrh    r0,[r2,2h]                              
080158BC 3811     sub     r0,11h                                  
080158BE 8298     strh    r0,[r3,14h]                             
080158C0 8811     ldrh    r1,[r2]                                 
080158C2 2040     mov     r0,40h                                  
080158C4 4008     and     r0,r1                                   
080158C6 2800     cmp     r0,0h                                   
080158C8 D006     beq     80158D8h                                
080158CA 8890     ldrh    r0,[r2,4h]                              
080158CC 3038     add     r0,38h                                  
080158CE E005     b       80158DCh                                
080158D0 13D4     asr     r4,r2,0Fh                               
080158D2 0300     lsl     r0,r0,0Ch                               
080158D4 0738     lsl     r0,r7,1Ch                               
080158D6 0300     lsl     r0,r0,0Ch                               
080158D8 8890     ldrh    r0,[r2,4h]                              
080158DA 3838     sub     r0,38h                                  
080158DC 8258     strh    r0,[r3,12h]                             
080158DE BC01     pop     r0                                      
080158E0 4700     bx      r0                                      
080158E2 0000     lsl     r0,r0,0h                                
080158E4 B500     push    r14                                     
080158E6 4B0D     ldr     r3,=3000738h                            
080158E8 1C18     mov     r0,r3                                   
080158EA 3023     add     r0,23h                                  
080158EC 7801     ldrb    r1,[r0]                                 
080158EE 4A0C     ldr     r2,=30001ACh                            
080158F0 00C8     lsl     r0,r1,3h                                
080158F2 1A40     sub     r0,r0,r1                                
080158F4 00C0     lsl     r0,r0,3h                                
080158F6 1880     add     r0,r0,r2                                
080158F8 3024     add     r0,24h                                  
080158FA 7800     ldrb    r0,[r0]                                 
080158FC 2827     cmp     r0,27h                                  
080158FE D103     bne     8015908h                                
08015900 1C19     mov     r1,r3                                   
08015902 3124     add     r1,24h                                  
08015904 2024     mov     r0,24h                                  
08015906 7008     strb    r0,[r1]                                 
08015908 F7FFFFD4 bl      80158B4h                                
0801590C 4905     ldr     r1,=300070Ch                            
0801590E 7B88     ldrb    r0,[r1,0Eh]                             
08015910 2800     cmp     r0,0h                                   
08015912 D001     beq     8015918h                                
08015914 F7FCFE68 bl      80125E8h                                
08015918 BC01     pop     r0                                      
0801591A 4700     bx      r0                                      
0801591C 0738     lsl     r0,r7,1Ch                               
0801591E 0300     lsl     r0,r0,0Ch                               
08015920 01AC     lsl     r4,r5,6h                                
08015922 0300     lsl     r0,r0,0Ch                               
08015924 070C     lsl     r4,r1,1Ch                               
08015926 0300     lsl     r0,r0,0Ch                               
08015928 B530     push    r4,r5,r14                               
0801592A 4D0C     ldr     r5,=3000738h                            
0801592C 1C28     mov     r0,r5                                   
0801592E 3023     add     r0,23h                                  
08015930 7804     ldrb    r4,[r0]                                 
08015932 F7FFFFBF bl      80158B4h                                
08015936 490A     ldr     r1,=30001ACh                            
08015938 00E0     lsl     r0,r4,3h                                
0801593A 1B00     sub     r0,r0,r4                                
0801593C 00C0     lsl     r0,r0,3h                                
0801593E 1840     add     r0,r0,r1                                
08015940 3024     add     r0,24h                                  
08015942 7800     ldrb    r0,[r0]                                 
08015944 2809     cmp     r0,9h                                   
08015946 D106     bne     8015956h                                
08015948 1C29     mov     r1,r5                                   
0801594A 3124     add     r1,24h                                  
0801594C 2200     mov     r2,0h                                   
0801594E 2025     mov     r0,25h                                  
08015950 7008     strb    r0,[r1]                                 
08015952 4804     ldr     r0,=3000049h                            
08015954 7002     strb    r2,[r0]                                 
08015956 BC30     pop     r4,r5                                   
08015958 BC01     pop     r0                                      
0801595A 4700     bx      r0                                      
0801595C 0738     lsl     r0,r7,1Ch                               
0801595E 0300     lsl     r0,r0,0Ch                               
08015960 01AC     lsl     r4,r5,6h                                
08015962 0300     lsl     r0,r0,0Ch                               
08015964 0049     lsl     r1,r1,1h                                
08015966 0300     lsl     r0,r0,0Ch                               
08015968 B5F0     push    r4-r7,r14                               
0801596A 4C12     ldr     r4,=3000738h                            
0801596C 1C20     mov     r0,r4                                   
0801596E 3023     add     r0,23h                                  
08015970 7805     ldrb    r5,[r0]                                 
08015972 69A1     ldr     r1,[r4,18h]                             
08015974 4810     ldr     r0,=82C1288h                            
08015976 4281     cmp     r1,r0                                   
08015978 D10F     bne     801599Ah                                
0801597A 4810     ldr     r0,=3001606h                            
0801597C 8800     ldrh    r0,[r0]                                 
0801597E 2800     cmp     r0,0h                                   
08015980 D10B     bne     801599Ah                                
08015982 490F     ldr     r1,=30001ACh                            
08015984 00E8     lsl     r0,r5,3h                                
08015986 1B40     sub     r0,r0,r5                                
08015988 00C0     lsl     r0,r0,3h                                
0801598A 1840     add     r0,r0,r1                                
0801598C 7F40     ldrb    r0,[r0,1Dh]                             
0801598E F7FEFA27 bl      8013DE0h                                
08015992 2800     cmp     r0,0h                                   
08015994 D001     beq     801599Ah                                
08015996 480B     ldr     r0,=82C1298h                            
08015998 61A0     str     r0,[r4,18h]                             
0801599A 2400     mov     r4,0h                                   
0801599C 4805     ldr     r0,=3000738h                            
0801599E 8883     ldrh    r3,[r0,4h]                              
080159A0 8802     ldrh    r2,[r0]                                 
080159A2 2140     mov     r1,40h                                  
080159A4 4011     and     r1,r2                                   
080159A6 1C07     mov     r7,r0                                   
080159A8 2900     cmp     r1,0h                                   
080159AA D00D     beq     80159C8h                                
080159AC 1C18     mov     r0,r3                                   
080159AE 3038     add     r0,38h                                  
080159B0 E00C     b       80159CCh                                
080159B2 0000     lsl     r0,r0,0h                                
080159B4 0738     lsl     r0,r7,1Ch                               
080159B6 0300     lsl     r0,r0,0Ch                               
080159B8 1288     asr     r0,r1,0Ah                               
080159BA 082C     lsr     r4,r5,20h                               
080159BC 1606     asr     r6,r0,18h                               
080159BE 0300     lsl     r0,r0,0Ch                               
080159C0 01AC     lsl     r4,r5,6h                                
080159C2 0300     lsl     r0,r0,0Ch                               
080159C4 1298     asr     r0,r3,0Ah                               
080159C6 082C     lsr     r4,r5,20h                               
080159C8 1C18     mov     r0,r3                                   
080159CA 3838     sub     r0,38h                                  
080159CC 0400     lsl     r0,r0,10h                               
080159CE 0C03     lsr     r3,r0,10h                               
080159D0 490F     ldr     r1,=30001ACh                            
080159D2 00EA     lsl     r2,r5,3h                                
080159D4 1B50     sub     r0,r2,r5                                
080159D6 00C0     lsl     r0,r0,3h                                
080159D8 1840     add     r0,r0,r1                                
080159DA 3024     add     r0,24h                                  
080159DC 7800     ldrb    r0,[r0]                                 
080159DE 1C16     mov     r6,r2                                   
080159E0 2809     cmp     r0,9h                                   
080159E2 D136     bne     8015A52h                                
080159E4 4A0B     ldr     r2,=30013D4h                            
080159E6 8A91     ldrh    r1,[r2,14h]                             
080159E8 8878     ldrh    r0,[r7,2h]                              
080159EA 3811     sub     r0,11h                                  
080159EC 4281     cmp     r1,r0                                   
080159EE D130     bne     8015A52h                                
080159F0 8A51     ldrh    r1,[r2,12h]                             
080159F2 1C18     mov     r0,r3                                   
080159F4 3810     sub     r0,10h                                  
080159F6 4281     cmp     r1,r0                                   
080159F8 DD2B     ble     8015A52h                                
080159FA 3020     add     r0,20h                                  
080159FC 4281     cmp     r1,r0                                   
080159FE DA28     bge     8015A52h                                
08015A00 7810     ldrb    r0,[r2]                                 
08015A02 2811     cmp     r0,11h                                  
08015A04 D108     bne     8015A18h                                
08015A06 2020     mov     r0,20h                                  
08015A08 F7F1FD6E bl      80074E8h                                
08015A0C E006     b       8015A1Ch                                
08015A0E 0000     lsl     r0,r0,0h                                
08015A10 01AC     lsl     r4,r5,6h                                
08015A12 0300     lsl     r0,r0,0Ch                               
08015A14 13D4     asr     r4,r2,0Fh                               
08015A16 0300     lsl     r0,r0,0Ch                               
08015A18 2820     cmp     r0,20h                                  
08015A1A D102     bne     8015A22h                                
08015A1C 1C60     add     r0,r4,1                                 
08015A1E 0600     lsl     r0,r0,18h                               
08015A20 0E04     lsr     r4,r0,18h                               
08015A22 2C00     cmp     r4,0h                                   
08015A24 D015     beq     8015A52h                                
08015A26 490C     ldr     r1,=30001ACh                            
08015A28 1B70     sub     r0,r6,r5                                
08015A2A 00C0     lsl     r0,r0,3h                                
08015A2C 1840     add     r0,r0,r1                                
08015A2E 3024     add     r0,24h                                  
08015A30 2500     mov     r5,0h                                   
08015A32 212E     mov     r1,2Eh                                  
08015A34 7001     strb    r1,[r0]                                 
08015A36 4C09     ldr     r4,=3000738h                            
08015A38 1C21     mov     r1,r4                                   
08015A3A 3124     add     r1,24h                                  
08015A3C 2027     mov     r0,27h                                  
08015A3E 7008     strb    r0,[r1]                                 
08015A40 F7FFFF38 bl      80158B4h                                
08015A44 4806     ldr     r0,=82C12E0h                            
08015A46 61A0     str     r0,[r4,18h]                             
08015A48 7725     strb    r5,[r4,1Ch]                             
08015A4A 82E5     strh    r5,[r4,16h]                             
08015A4C 342C     add     r4,2Ch                                  
08015A4E 201E     mov     r0,1Eh                                  
08015A50 7020     strb    r0,[r4]                                 
08015A52 BCF0     pop     r4-r7                                   
08015A54 BC01     pop     r0                                      
08015A56 4700     bx      r0                                      
08015A58 01AC     lsl     r4,r5,6h                                
08015A5A 0300     lsl     r0,r0,0Ch                               
08015A5C 0738     lsl     r0,r7,1Ch                               
08015A5E 0300     lsl     r0,r0,0Ch                               
08015A60 12E0     asr     r0,r4,0Bh                               
08015A62 082C     lsr     r4,r5,20h                               
08015A64 B570     push    r4-r6,r14                               
08015A66 B082     add     sp,-8h                                  
08015A68 4B0F     ldr     r3,=3000738h                            
08015A6A 1C18     mov     r0,r3                                   
08015A6C 3023     add     r0,23h                                  
08015A6E 7801     ldrb    r1,[r0]                                 
08015A70 4A0E     ldr     r2,=30001ACh                            
08015A72 00C8     lsl     r0,r1,3h                                
08015A74 1A40     sub     r0,r0,r1                                
08015A76 00C0     lsl     r0,r0,3h                                
08015A78 1880     add     r0,r0,r2                                
08015A7A 1C06     mov     r6,r0                                   
08015A7C 3624     add     r6,24h                                  
08015A7E 7830     ldrb    r0,[r6]                                 
08015A80 1C1A     mov     r2,r3                                   
08015A82 282F     cmp     r0,2Fh                                  
08015A84 D000     beq     8015A88h                                
08015A86 E089     b       8015B9Ch                                
08015A88 1C14     mov     r4,r2                                   
08015A8A 342C     add     r4,2Ch                                  
08015A8C 7825     ldrb    r5,[r4]                                 
08015A8E 1C29     mov     r1,r5                                   
08015A90 291E     cmp     r1,1Eh                                  
08015A92 D10F     bne     8015AB4h                                
08015A94 F7FAFBE2 bl      801025Ch                                
08015A98 2800     cmp     r0,0h                                   
08015A9A D000     beq     8015A9Eh                                
08015A9C E07E     b       8015B9Ch                                
08015A9E 7820     ldrb    r0,[r4]                                 
08015AA0 3801     sub     r0,1h                                   
08015AA2 7020     strb    r0,[r4]                                 
08015AA4 4902     ldr     r1,=3000996h                            
08015AA6 E041     b       8015B2Ch                                
08015AA8 0738     lsl     r0,r7,1Ch                               
08015AAA 0300     lsl     r0,r0,0Ch                               
08015AAC 01AC     lsl     r4,r5,6h                                
08015AAE 0300     lsl     r0,r0,0Ch                               
08015AB0 0996     lsr     r6,r2,6h                                
08015AB2 0300     lsl     r0,r0,0Ch                               
08015AB4 291D     cmp     r1,1Dh                                  
08015AB6 D111     bne     8015ADCh                                
08015AB8 4906     ldr     r1,=3000996h                            
08015ABA 7808     ldrb    r0,[r1]                                 
08015ABC 2800     cmp     r0,0h                                   
08015ABE D127     bne     8015B10h                                
08015AC0 F7FAFBEE bl      80102A0h                                
08015AC4 2800     cmp     r0,0h                                   
08015AC6 D169     bne     8015B9Ch                                
08015AC8 7820     ldrb    r0,[r4]                                 
08015ACA 3801     sub     r0,1h                                   
08015ACC 7020     strb    r0,[r4]                                 
08015ACE 4902     ldr     r1,=3000997h                            
08015AD0 E02C     b       8015B2Ch                                
08015AD2 0000     lsl     r0,r0,0h                                
08015AD4 0996     lsr     r6,r2,6h                                
08015AD6 0300     lsl     r0,r0,0Ch                               
08015AD8 0997     lsr     r7,r2,6h                                
08015ADA 0300     lsl     r0,r0,0Ch                               
08015ADC 291C     cmp     r1,1Ch                                  
08015ADE D111     bne     8015B04h                                
08015AE0 4906     ldr     r1,=3000997h                            
08015AE2 7808     ldrb    r0,[r1]                                 
08015AE4 2800     cmp     r0,0h                                   
08015AE6 D113     bne     8015B10h                                
08015AE8 F7FAFBFC bl      80102E4h                                
08015AEC 2800     cmp     r0,0h                                   
08015AEE D155     bne     8015B9Ch                                
08015AF0 7820     ldrb    r0,[r4]                                 
08015AF2 3801     sub     r0,1h                                   
08015AF4 7020     strb    r0,[r4]                                 
08015AF6 4902     ldr     r1,=3000998h                            
08015AF8 E018     b       8015B2Ch                                
08015AFA 0000     lsl     r0,r0,0h                                
08015AFC 0997     lsr     r7,r2,6h                                
08015AFE 0300     lsl     r0,r0,0Ch                               
08015B00 0998     lsr     r0,r3,6h                                
08015B02 0300     lsl     r0,r0,0Ch                               
08015B04 291B     cmp     r1,1Bh                                  
08015B06 D117     bne     8015B38h                                
08015B08 4903     ldr     r1,=3000998h                            
08015B0A 7808     ldrb    r0,[r1]                                 
08015B0C 2800     cmp     r0,0h                                   
08015B0E D005     beq     8015B1Ch                                
08015B10 3801     sub     r0,1h                                   
08015B12 7008     strb    r0,[r1]                                 
08015B14 E042     b       8015B9Ch                                
08015B16 0000     lsl     r0,r0,0h                                
08015B18 0998     lsr     r0,r3,6h                                
08015B1A 0300     lsl     r0,r0,0Ch                               
08015B1C F7FAFC04 bl      8010328h                                
08015B20 2800     cmp     r0,0h                                   
08015B22 D13B     bne     8015B9Ch                                
08015B24 7820     ldrb    r0,[r4]                                 
08015B26 3801     sub     r0,1h                                   
08015B28 7020     strb    r0,[r4]                                 
08015B2A 4902     ldr     r1,=3000999h                            
08015B2C 200D     mov     r0,0Dh                                  
08015B2E 7008     strb    r0,[r1]                                 
08015B30 E034     b       8015B9Ch                                
08015B32 0000     lsl     r0,r0,0h                                
08015B34 0999     lsr     r1,r3,6h                                
08015B36 0300     lsl     r0,r0,0Ch                               
08015B38 4B03     ldr     r3,=3000999h                            
08015B3A 7818     ldrb    r0,[r3]                                 
08015B3C 2800     cmp     r0,0h                                   
08015B3E D005     beq     8015B4Ch                                
08015B40 3801     sub     r0,1h                                   
08015B42 7018     strb    r0,[r3]                                 
08015B44 E02A     b       8015B9Ch                                
08015B46 0000     lsl     r0,r0,0h                                
08015B48 0999     lsr     r1,r3,6h                                
08015B4A 0300     lsl     r0,r0,0Ch                               
08015B4C 2900     cmp     r1,0h                                   
08015B4E D002     beq     8015B56h                                
08015B50 1E68     sub     r0,r5,1                                 
08015B52 7020     strb    r0,[r4]                                 
08015B54 E022     b       8015B9Ch                                
08015B56 2030     mov     r0,30h                                  
08015B58 7030     strb    r0,[r6]                                 
08015B5A 1C11     mov     r1,r2                                   
08015B5C 3124     add     r1,24h                                  
08015B5E 2029     mov     r0,29h                                  
08015B60 7008     strb    r0,[r1]                                 
08015B62 4908     ldr     r1,=3001530h                            
08015B64 8848     ldrh    r0,[r1,2h]                              
08015B66 2800     cmp     r0,0h                                   
08015B68 D10E     bne     8015B88h                                
08015B6A 8889     ldrh    r1,[r1,4h]                              
08015B6C 2900     cmp     r1,0h                                   
08015B6E D10B     bne     8015B88h                                
08015B70 8853     ldrh    r3,[r2,2h]                              
08015B72 8890     ldrh    r0,[r2,4h]                              
08015B74 9000     str     r0,[sp]                                 
08015B76 9101     str     r1,[sp,4h]                              
08015B78 2011     mov     r0,11h                                  
08015B7A 2119     mov     r1,19h                                  
08015B7C 2206     mov     r2,6h                                   
08015B7E F7F8FBCD bl      800E31Ch                                
08015B82 E00B     b       8015B9Ch                                
08015B84 1530     asr     r0,r6,14h                               
08015B86 0300     lsl     r0,r0,0Ch                               
08015B88 8853     ldrh    r3,[r2,2h]                              
08015B8A 8890     ldrh    r0,[r2,4h]                              
08015B8C 9000     str     r0,[sp]                                 
08015B8E 2000     mov     r0,0h                                   
08015B90 9001     str     r0,[sp,4h]                              
08015B92 2011     mov     r0,11h                                  
08015B94 211A     mov     r1,1Ah                                  
08015B96 2206     mov     r2,6h                                   
08015B98 F7F8FBC0 bl      800E31Ch                                
08015B9C B002     add     sp,8h                                   
08015B9E BC70     pop     r4-r6                                   
08015BA0 BC01     pop     r0                                      
08015BA2 4700     bx      r0                                      
08015BA4 4770     bx      r14                                     
08015BA6 0000     lsl     r0,r0,0h                                
08015BA8 B500     push    r14                                     
08015BAA 4B09     ldr     r3,=3000738h                            
08015BAC 1C18     mov     r0,r3                                   
08015BAE 3023     add     r0,23h                                  
08015BB0 7801     ldrb    r1,[r0]                                 
08015BB2 4A08     ldr     r2,=30001ACh                            
08015BB4 00C8     lsl     r0,r1,3h                                
08015BB6 1A40     sub     r0,r0,r1                                
08015BB8 00C0     lsl     r0,r0,3h                                
08015BBA 1880     add     r0,r0,r2                                
08015BBC 3024     add     r0,24h                                  
08015BBE 7800     ldrb    r0,[r0]                                 
08015BC0 2831     cmp     r0,31h                                  
08015BC2 D103     bne     8015BCCh                                
08015BC4 1C19     mov     r1,r3                                   
08015BC6 3124     add     r1,24h                                  
08015BC8 202B     mov     r0,2Bh                                  
08015BCA 7008     strb    r0,[r1]                                 
08015BCC BC01     pop     r0                                      
08015BCE 4700     bx      r0                                      
08015BD0 0738     lsl     r0,r7,1Ch                               
08015BD2 0300     lsl     r0,r0,0Ch                               
08015BD4 01AC     lsl     r4,r5,6h                                
08015BD6 0300     lsl     r0,r0,0Ch                               
08015BD8 B500     push    r14                                     
08015BDA 4809     ldr     r0,=3001606h                            
08015BDC 8802     ldrh    r2,[r0]                                 
08015BDE 2A00     cmp     r2,0h                                   
08015BE0 D10B     bne     8015BFAh                                
08015BE2 4B08     ldr     r3,=3000738h                            
08015BE4 6999     ldr     r1,[r3,18h]                             
08015BE6 4808     ldr     r0,=82C12E0h                            
08015BE8 4281     cmp     r1,r0                                   
08015BEA D106     bne     8015BFAh                                
08015BEC 4807     ldr     r0,=82C1288h                            
08015BEE 6198     str     r0,[r3,18h]                             
08015BF0 771A     strb    r2,[r3,1Ch]                             
08015BF2 82DA     strh    r2,[r3,16h]                             
08015BF4 2011     mov     r0,11h                                  
08015BF6 F7F1FC77 bl      80074E8h                                
08015BFA BC01     pop     r0                                      
08015BFC 4700     bx      r0                                      
08015BFE 0000     lsl     r0,r0,0h                                
08015C00 1606     asr     r6,r0,18h                               
08015C02 0300     lsl     r0,r0,0Ch                               
08015C04 0738     lsl     r0,r7,1Ch                               
08015C06 0300     lsl     r0,r0,0Ch                               
08015C08 12E0     asr     r0,r4,0Bh                               
08015C0A 082C     lsr     r4,r5,20h                               
08015C0C 1288     asr     r0,r1,0Ah                               
08015C0E 082C     lsr     r4,r5,20h                               
08015C10 4905     ldr     r1,=3000738h                            
08015C12 1C0A     mov     r2,r1                                   
08015C14 3224     add     r2,24h                                  
08015C16 2300     mov     r3,0h                                   
08015C18 2043     mov     r0,43h                                  
08015C1A 7010     strb    r0,[r2]                                 
08015C1C 4803     ldr     r0,=82C1260h                            
08015C1E 6188     str     r0,[r1,18h]                             
08015C20 770B     strb    r3,[r1,1Ch]                             
08015C22 82CB     strh    r3,[r1,16h]                             
08015C24 4770     bx      r14                                     
08015C26 0000     lsl     r0,r0,0h                                
08015C28 0738     lsl     r0,r7,1Ch                               
08015C2A 0300     lsl     r0,r0,0Ch                               
08015C2C 1260     asr     r0,r4,9h                                
08015C2E 082C     lsr     r4,r5,20h                               
08015C30 B500     push    r14                                     
08015C32 F7F9FFC9 bl      800FBC8h                                
08015C36 2800     cmp     r0,0h                                   
08015C38 D009     beq     8015C4Eh                                
08015C3A 4906     ldr     r1,=3000738h                            
08015C3C 1C0A     mov     r2,r1                                   
08015C3E 3224     add     r2,24h                                  
08015C40 2300     mov     r3,0h                                   
08015C42 2061     mov     r0,61h                                  
08015C44 7010     strb    r0,[r2]                                 
08015C46 4804     ldr     r0,=82C1238h                            
08015C48 6188     str     r0,[r1,18h]                             
08015C4A 770B     strb    r3,[r1,1Ch]                             
08015C4C 82CB     strh    r3,[r1,16h]                             
08015C4E BC01     pop     r0                                      
08015C50 4700     bx      r0                                      
08015C52 0000     lsl     r0,r0,0h                                
08015C54 0738     lsl     r0,r7,1Ch                               
08015C56 0300     lsl     r0,r0,0Ch                               
08015C58 1238     asr     r0,r7,8h                                
08015C5A 082C     lsr     r4,r5,20h                               
08015C5C 4905     ldr     r1,=3000738h                            
08015C5E 1C0A     mov     r2,r1                                   
08015C60 3224     add     r2,24h                                  
08015C62 2300     mov     r3,0h                                   
08015C64 2045     mov     r0,45h                                  
08015C66 7010     strb    r0,[r2]                                 
08015C68 4803     ldr     r0,=82C1248h                            
08015C6A 6188     str     r0,[r1,18h]                             
08015C6C 770B     strb    r3,[r1,1Ch]                             
08015C6E 82CB     strh    r3,[r1,16h]                             



