0801F0D0 B530     push    r4,r5,lr
0801F0D2 4C05     ldr     r4,=3000738h
0801F0D4 1C21     mov     r1,r4
0801F0D6 312C     add     r1,2Ch
0801F0D8 7808     ldrb    r0,[r1]
0801F0DA 1C05     mov     r5,r0
0801F0DC 2D00     cmp     r5,0h
0801F0DE D005     beq     801F0ECh
0801F0E0 3801     sub     r0,1h
0801F0E2 7008     strb    r0,[r1]
0801F0E4 E017     b       801F116h
0801F0E6 0000     lsl     r0,r0,0h
0801F0E8 0738     lsl     r0,r7,1Ch
0801F0EA 0300     lsl     r0,r0,0Ch
0801F0EC 2080     mov     r0,80h
0801F0EE 0080     lsl     r0,r0,2h
0801F0F0 21C0     mov     r1,0C0h
0801F0F2 0049     lsl     r1,r1,1h
0801F0F4 F7F0FEA8 bl      800FE48h
0801F0F8 0600     lsl     r0,r0,18h
0801F0FA 0E00     lsr     r0,r0,18h
0801F0FC 2801     cmp     r0,1h
0801F0FE D10A     bne     801F116h
0801F100 1C21     mov     r1,r4
0801F102 3124     add     r1,24h
0801F104 2035     mov     r0,35h
0801F106 7008     strb    r0,[r1]
0801F108 1C20     mov     r0,r4
0801F10A 302F     add     r0,2Fh
0801F10C 7005     strb    r5,[r0]
0801F10E 8821     ldrh    r1,[r4]
0801F110 4802     ldr     r0,=0FFFBh
0801F112 4008     and     r0,r1
0801F114 8020     strh    r0,[r4]
0801F116 BC30     pop     r4,r5
0801F118 BC01     pop     r0
0801F11A 4700     bx      r0
0801F11C FFFB0000 ????
0801F11E 0000     lsl     r0,r0,0h

;pose 35 上升
0801F120 B570     push    r4-r6,lr
0801F122 4C10     ldr     r4,=3000738h
0801F124 8865     ldrh    r5,[r4,2h]    ;读取Y坐标
0801F126 88E0     ldrh    r0,[r4,6h]    ;读取备份的Y坐标
0801F128 38A0     sub     r0,0A0h
0801F12A 42A8     cmp     r0,r5
0801F12C DD1E     ble     @@NoFourBlockHigh
0801F12E 1C28     mov     r0,r5
0801F130 3830     sub     r0,30h
0801F132 88A1     ldrh    r1,[r4,4h]    ;读取X坐标
0801F134 3920     sub     r1,20h
0801F136 F7F0FAA7 bl      800F688h      ;检查上面是否有砖是否有砖
0801F13A 4E0B     ldr     r6,=30007F1h
0801F13C 7830     ldrb    r0,[r6]
0801F13E 2811     cmp     r0,11h
0801F140 D008     beq     @@Haveblock
0801F142 8860     ldrh    r0,[r4,2h]
0801F144 3830     sub     r0,30h
0801F146 88A1     ldrh    r1,[r4,4h]
0801F148 3120     add     r1,20h
0801F14A F7F0FA9D bl      800F688h
0801F14E 7830     ldrb    r0,[r6]
0801F150 2811     cmp     r0,11h
0801F152 D10B     bne     @@NoTop

@@HaveBlock:
0801F154 F7FFFF60 bl      801F018h
0801F158 1C21     mov     r1,r4
0801F15A 3124     add     r1,24h
0801F15C 2037     mov     r0,37h
0801F15E 7008     strb    r0,[r1]       ;下落准备
0801F160 E034     b       @@end


@@NoFourBlockHigh:
0801F16C 4C09     ldr     r4,=3000738h
0801F16E 1C23     mov     r3,r4
0801F170 332F     add     r3,2Fh
0801F172 781A     ldrb    r2,[r3]
0801F174 4808     ldr     r0,=82D14E0h     ;读取速度值
0801F176 0051     lsl     r1,r2,1h
0801F178 1809     add     r1,r1,r0
0801F17A 2000     mov     r0,0h
0801F17C 5E09     ldsh    r1,[r1,r0]
0801F17E 4807     ldr     r0,=7FFFh
0801F180 4281     cmp     r1,r0
0801F182 D10D     bne     801F1A0h
0801F184 F7FFFF48 bl      801F018h
0801F188 1C21     mov     r1,r4
0801F18A 3124     add     r1,24h
0801F18C 2037     mov     r0,37h
0801F18E 7008     strb    r0,[r1]         ;如果上升值用完了则下落准备
0801F190 E00B     b       801F1AAh

@@NoTop:
0801F1A0 1C50     add     r0,r2,1
0801F1A2 7018     strb    r0,[r3]
0801F1A4 8860     ldrh    r0,[r4,2h]
0801F1A6 1840     add     r0,r0,r1        ;速度写入
0801F1A8 8060     strh    r0,[r4,2h]
0801F1AA 4C0A     ldr     r4,=3000738h
0801F1AC 8861     ldrh    r1,[r4,2h]
0801F1AE 88A2     ldrh    r2,[r4,4h]
0801F1B0 1C28     mov     r0,r5
0801F1B2 2301     mov     r3,1h
0801F1B4 F7F2FA8A bl      80116CCh
0801F1B8 2800     cmp     r0,0h
0801F1BA D007     beq     @@end
0801F1BC 8821     ldrh    r1,[r4]
0801F1BE 2002     mov     r0,2h
0801F1C0 4008     and     r0,r1
0801F1C2 2800     cmp     r0,0h
0801F1C4 D002     beq     @@end
0801F1C6 4804     ldr     r0,=155h
0801F1C8 F7E3FC26 bl      8002A18h

@@end:
0801F1CC BC70     pop     r4-r6
0801F1CE BC01     pop     r0
0801F1D0 4700     bx      r0
0801F1D2 0000     lsl     r0,r0,0h
0801F1D4 0738     lsl     r0,r7,1Ch
0801F1D6 0300     lsl     r0,r0,0Ch
0801F1D8 0155     lsl     r5,r2,5h
0801F1DA 0000     lsl     r0,r0,0h
0801F1DC B500     push    lr
0801F1DE F7F0FCF3 bl      800FBC8h
0801F1E2 2800     cmp     r0,0h
0801F1E4 D009     beq     801F1FAh
0801F1E6 F7FFFF29 bl      801F03Ch
0801F1EA 4905     ldr     r1,=3000738h
0801F1EC 1C0A     mov     r2,r1
0801F1EE 3224     add     r2,24h
0801F1F0 2300     mov     r3,0h
0801F1F2 2039     mov     r0,39h
0801F1F4 7010     strb    r0,[r2]
0801F1F6 312F     add     r1,2Fh
0801F1F8 700B     strb    r3,[r1]
0801F1FA BC01     pop     r0
0801F1FC 4700     bx      r0
0801F1FE 0000     lsl     r0,r0,0h
0801F200 0738     lsl     r0,r7,1Ch
0801F202 0300     lsl     r0,r0,0Ch

;pose 39
0801F204 B570     push    r4-r6,lr
0801F206 4B0A     ldr     r3,=3000738h
0801F208 885D     ldrh    r5,[r3,2h]
0801F20A 202F     mov     r0,2Fh
0801F20C 18C0     add     r0,r0,r3
0801F20E 4684     mov     r12,r0
0801F210 7801     ldrb    r1,[r0]
0801F212 4C08     ldr     r4,=82D1562h
0801F214 0048     lsl     r0,r1,1h
0801F216 1900     add     r0,r0,r4
0801F218 2600     mov     r6,0h
0801F21A 5F82     ldsh    r2,[r0,r6]
0801F21C 4806     ldr     r0,=7FFFh
0801F21E 4282     cmp     r2,r0
0801F220 D10C     bne     801F23Ch
0801F222 1E48     sub     r0,r1,1
0801F224 0040     lsl     r0,r0,1h
0801F226 1900     add     r0,r0,r4
0801F228 2100     mov     r1,0h
0801F22A 5E40     ldsh    r0,[r0,r1]
0801F22C 1828     add     r0,r5,r0
0801F22E E00A     b       801F246h
0801F230 0738     lsl     r0,r7,1Ch
0801F232 0300     lsl     r0,r0,0Ch
0801F234 1562     asr     r2,r4,15h
0801F236 082D     lsr     r5,r5,20h
0801F238 7FFF     ldrb    r7,[r7,1Fh]
0801F23A 0000     lsl     r0,r0,0h
0801F23C 1C48     add     r0,r1,1
0801F23E 4666     mov     r6,r12
0801F240 7030     strb    r0,[r6]
0801F242 8858     ldrh    r0,[r3,2h]
0801F244 1880     add     r0,r0,r2
0801F246 8058     strh    r0,[r3,2h]
0801F248 4C0E     ldr     r4,=3000738h
0801F24A 8861     ldrh    r1,[r4,2h]
0801F24C 88A2     ldrh    r2,[r4,4h]
0801F24E 1C28     mov     r0,r5
0801F250 2302     mov     r3,2h
0801F252 F7F2FA61 bl      8011718h
0801F256 2800     cmp     r0,0h
0801F258 D008     beq     801F26Ch
0801F25A 8821     ldrh    r1,[r4]
0801F25C 2002     mov     r0,2h
0801F25E 4008     and     r0,r1
0801F260 2800     cmp     r0,0h
0801F262 D003     beq     801F26Ch
0801F264 20AB     mov     r0,0ABh
0801F266 0040     lsl     r0,r0,1h
0801F268 F7E3FBD6 bl      8002A18h
0801F26C 4805     ldr     r0,=3000738h
0801F26E 88C1     ldrh    r1,[r0,6h]
0801F270 8842     ldrh    r2,[r0,2h]
0801F272 4291     cmp     r1,r2
0801F274 D202     bcs     801F27Ch
0801F276 8041     strh    r1,[r0,2h]
0801F278 F7FFFF16 bl      801F0A8h
0801F27C BC70     pop     r4-r6
0801F27E BC01     pop     r0
0801F280 4700     bx      r0
0801F282 0000     lsl     r0,r0,0h
0801F284 0738     lsl     r0,r7,1Ch
0801F286 0300     lsl     r0,r0,0Ch
0801F288 B510     push    r4,lr
0801F28A B081     add     sp,-4h
0801F28C 490E     ldr     r1,=3000738h
0801F28E 1C0B     mov     r3,r1
0801F290 3332     add     r3,32h
0801F292 781A     ldrb    r2,[r3]
0801F294 2402     mov     r4,2h
0801F296 1C20     mov     r0,r4
0801F298 4010     and     r0,r2
0801F29A 2800     cmp     r0,0h
0801F29C D00A     beq     801F2B4h
0801F29E 20FD     mov     r0,0FDh
0801F2A0 4010     and     r0,r2
0801F2A2 7018     strb    r0,[r3]
0801F2A4 8809     ldrh    r1,[r1]
0801F2A6 1C20     mov     r0,r4
0801F2A8 4008     and     r0,r1
0801F2AA 2800     cmp     r0,0h
0801F2AC D002     beq     801F2B4h
0801F2AE 4807     ldr     r0,=157h
0801F2B0 F7E3FC36 bl      8002B20h
0801F2B4 4C04     ldr     r4,=3000738h
0801F2B6 1C20     mov     r0,r4
0801F2B8 3030     add     r0,30h
0801F2BA 7800     ldrb    r0,[r0]
0801F2BC 2800     cmp     r0,0h
0801F2BE D007     beq     801F2D0h
0801F2C0 F7F0FE92 bl      800FFE8h
0801F2C4 E0A3     b       801F40Eh
0801F2C6 0000     lsl     r0,r0,0h
0801F2C8 0738     lsl     r0,r7,1Ch
0801F2CA 0300     lsl     r0,r0,0Ch
0801F2CC 0157     lsl     r7,r2,5h
0801F2CE 0000     lsl     r0,r0,0h
0801F2D0 F7F1FFD6 bl      8011280h
0801F2D4 2800     cmp     r0,0h
0801F2D6 D000     beq     801F2DAh
0801F2D8 E099     b       801F40Eh
0801F2DA 1C20     mov     r0,r4
0801F2DC 3024     add     r0,24h
0801F2DE 7800     ldrb    r0,[r0]
0801F2E0 2839     cmp     r0,39h
0801F2E2 D900     bls     801F2E6h
0801F2E4 E08A     b       801F3FCh
0801F2E6 0080     lsl     r0,r0,2h
0801F2E8 4901     ldr     r1,=801F2F4h
0801F2EA 1840     add     r0,r0,r1
0801F2EC 6800     ldr     r0,[r0]
0801F2EE 4687     mov     r15,r0
0801F2F0 F2F40801 ????
0801F2F2 0801     lsr     r1,r0,20h
0801F2F4 F3DC0801 ????
0801F2F6 0801     lsr     r1,r0,20h
0801F2F8 F3FC0801 ????
0801F2FA 0801     lsr     r1,r0,20h
0801F2FC F3FC0801 ????
0801F2FE 0801     lsr     r1,r0,20h
0801F300 F3FC0801 ????
0801F302 0801     lsr     r1,r0,20h
0801F304 F3FC0801 ????
0801F306 0801     lsr     r1,r0,20h
0801F308 F3FC0801 ????
0801F30A 0801     lsr     r1,r0,20h
0801F30C F3FC0801 ????
0801F30E 0801     lsr     r1,r0,20h
0801F310 F3FC0801 ????
0801F312 0801     lsr     r1,r0,20h
0801F314 F3FC0801 ????
0801F316 0801     lsr     r1,r0,20h
0801F318 F3FC0801 ????
0801F31A 0801     lsr     r1,r0,20h
0801F31C F3FC0801 ????
0801F31E 0801     lsr     r1,r0,20h
0801F320 F3FC0801 ????
0801F322 0801     lsr     r1,r0,20h
0801F324 F3FC0801 ????
0801F326 0801     lsr     r1,r0,20h
0801F328 F3FC0801 ????
0801F32A 0801     lsr     r1,r0,20h
0801F32C F3E00801 ????
0801F32E 0801     lsr     r1,r0,20h
0801F330 F3E40801 ????
0801F332 0801     lsr     r1,r0,20h
0801F334 F3FC0801 ????
0801F336 0801     lsr     r1,r0,20h
0801F338 F3FC0801 ????
0801F33A 0801     lsr     r1,r0,20h
0801F33C F3FC0801 ????
0801F33E 0801     lsr     r1,r0,20h
0801F340 F3FC0801 ????
0801F342 0801     lsr     r1,r0,20h
0801F344 F3FC0801 ????
0801F346 0801     lsr     r1,r0,20h
0801F348 F3FC0801 ????
0801F34A 0801     lsr     r1,r0,20h
0801F34C F3FC0801 ????
0801F34E 0801     lsr     r1,r0,20h
0801F350 F3FC0801 ????
0801F352 0801     lsr     r1,r0,20h
0801F354 F3FC0801 ????
0801F356 0801     lsr     r1,r0,20h
0801F358 F3FC0801 ????
0801F35A 0801     lsr     r1,r0,20h
0801F35C F3FC0801 ????
0801F35E 0801     lsr     r1,r0,20h
0801F360 F3FC0801 ????
0801F362 0801     lsr     r1,r0,20h
0801F364 F3FC0801 ????
0801F366 0801     lsr     r1,r0,20h
0801F368 F3FC0801 ????
0801F36A 0801     lsr     r1,r0,20h
0801F36C F3FC0801 ????
0801F36E 0801     lsr     r1,r0,20h
0801F370 F3FC0801 ????
0801F372 0801     lsr     r1,r0,20h
0801F374 F3FC0801 ????
0801F376 0801     lsr     r1,r0,20h
0801F378 F3FC0801 ????
0801F37A 0801     lsr     r1,r0,20h
0801F37C F3FC0801 ????
0801F37E 0801     lsr     r1,r0,20h
0801F380 F3FC0801 ????
0801F382 0801     lsr     r1,r0,20h
0801F384 F3FC0801 ????
0801F386 0801     lsr     r1,r0,20h
0801F388 F3FC0801 ????
0801F38A 0801     lsr     r1,r0,20h
0801F38C F3FC0801 ????
0801F38E 0801     lsr     r1,r0,20h
0801F390 F3FC0801 ????
0801F392 0801     lsr     r1,r0,20h
0801F394 F3FC0801 ????
0801F396 0801     lsr     r1,r0,20h
0801F398 F3FC0801 ????
0801F39A 0801     lsr     r1,r0,20h
0801F39C F3FC0801 ????
0801F39E 0801     lsr     r1,r0,20h
0801F3A0 F3FC0801 ????
0801F3A2 0801     lsr     r1,r0,20h
0801F3A4 F3FC0801 ????
0801F3A6 0801     lsr     r1,r0,20h
0801F3A8 F3FC0801 ????
0801F3AA 0801     lsr     r1,r0,20h
0801F3AC F3FC0801 ????
0801F3AE 0801     lsr     r1,r0,20h
0801F3B0 F3FC0801 ????
0801F3B2 0801     lsr     r1,r0,20h
0801F3B4 F3FC0801 ????
0801F3B6 0801     lsr     r1,r0,20h
0801F3B8 F3FC0801 ????
0801F3BA 0801     lsr     r1,r0,20h
0801F3BC F3FC0801 ????
0801F3BE 0801     lsr     r1,r0,20h
0801F3C0 F3FC0801 ????
0801F3C2 0801     lsr     r1,r0,20h
0801F3C4 F3FC0801 ????
0801F3C6 0801     lsr     r1,r0,20h
0801F3C8 F3EA0801 ????
0801F3CA 0801     lsr     r1,r0,20h
0801F3CC F3FC0801 ????
0801F3CE 0801     lsr     r1,r0,20h
0801F3D0 F3F00801 ????
0801F3D2 0801     lsr     r1,r0,20h
0801F3D4 F3FC0801 ????
0801F3D6 0801     lsr     r1,r0,20h
0801F3D8 F3F60801 ????
0801F3DA 0801     lsr     r1,r0,20h
0801F3DC F7FFFE3E bl      801F05Ch
0801F3E0 F7FFFE62 bl      801F0A8h
0801F3E4 F7FFFE74 bl      801F0D0h
0801F3E8 E011     b       801F40Eh
0801F3EA F7FFFE99 bl      801F120h
0801F3EE E00E     b       801F40Eh
0801F3F0 F7FFFEF4 bl      801F1DCh
0801F3F4 E00B     b       801F40Eh
0801F3F6 F7FFFF05 bl      801F204h
0801F3FA E008     b       801F40Eh
0801F3FC 4806     ldr     r0,=3000738h
0801F3FE 8841     ldrh    r1,[r0,2h]
0801F400 8882     ldrh    r2,[r0,4h]
0801F402 2020     mov     r0,20h
0801F404 9000     str     r0,[sp]
0801F406 2000     mov     r0,0h
0801F408 2301     mov     r3,1h
0801F40A F7F1FE3B bl      8011084h
0801F40E B001     add     sp,4h
0801F410 BC10     pop     r4
0801F412 BC01     pop     r0
0801F414 4700     bx      r0
0801F416 0000     lsl     r0,r0,0h
0801F418 0738     lsl     r0,r7,1Ch
0801F41A 0300     lsl     r0,r0,0Ch
0801F41C B570     push    r4-r6,lr
0801F41E B083     add     sp,-0Ch
0801F420 4C1F     ldr     r4,=3000738h
0801F422 8860     ldrh    r0,[r4,2h]
0801F424 3080     add     r0,80h
0801F426 2600     mov     r6,0h
0801F428 8060     strh    r0,[r4,2h]
0801F42A 1C21     mov     r1,r4
0801F42C 3127     add     r1,27h
0801F42E 2080     mov     r0,80h
0801F430 7008     strb    r0,[r1]
0801F432 3101     add     r1,1h
0801F434 2010     mov     r0,10h
0801F436 7008     strb    r0,[r1]
0801F438 3101     add     r1,1h
0801F43A 201C     mov     r0,1Ch
0801F43C 7008     strb    r0,[r1]
0801F43E 20FE     mov     r0,0FEh
0801F440 0200     lsl     r0,r0,8h
0801F442 8160     strh    r0,[r4,0Ah]
0801F444 4817     ldr     r0,=0FFE0h
0801F446 81E0     strh    r0,[r4,0Eh]
0801F448 2020     mov     r0,20h
0801F44A 8220     strh    r0,[r4,10h]
0801F44C 1C20     mov     r0,r4
0801F44E 3025     add     r0,25h
0801F450 7006     strb    r6,[r0]
0801F452 3907     sub     r1,7h
0801F454 2004     mov     r0,4h
0801F456 7008     strb    r0,[r1]
0801F458 1C20     mov     r0,r4
0801F45A 3021     add     r0,21h
0801F45C 2201     mov     r2,1h
0801F45E 7002     strb    r2,[r0]
0801F460 82A2     strh    r2,[r4,14h]
0801F462 1C23     mov     r3,r4
0801F464 3332     add     r3,32h
0801F466 7819     ldrb    r1,[r3]
0801F468 2008     mov     r0,8h
0801F46A 4308     orr     r0,r1
0801F46C 7018     strb    r0,[r3]
0801F46E 480E     ldr     r0,=3001530h
0801F470 7C00     ldrb    r0,[r0,10h]
0801F472 490E     ldr     r1,=3000054h
0801F474 7809     ldrb    r1,[r1]
0801F476 4108     asr     r0,r1
0801F478 4010     and     r0,r2
0801F47A 2800     cmp     r0,0h
0801F47C D103     bne     801F486h
0801F47E 480C     ldr     r0,=30001A8h
0801F480 8805     ldrh    r5,[r0]
0801F482 2D00     cmp     r5,0h
0801F484 D01A     beq     801F4BCh
0801F486 480B     ldr     r0,=0FFC0h
0801F488 81A0     strh    r0,[r4,0Ch]
0801F48A 1C21     mov     r1,r4
0801F48C 3124     add     r1,24h
0801F48E 200F     mov     r0,0Fh
0801F490 7008     strb    r0,[r1]
0801F492 4809     ldr     r0,=82D3788h
0801F494 61A0     str     r0,[r4,18h]
0801F496 2013     mov     r0,13h
0801F498 82E0     strh    r0,[r4,16h]
0801F49A 7726     strb    r6,[r4,1Ch]
0801F49C E030     b       801F500h
0801F49E 0000     lsl     r0,r0,0h
0801F4A0 0738     lsl     r0,r7,1Ch
0801F4A2 0300     lsl     r0,r0,0Ch
0801F4A4 FFE00000 ????
0801F4A6 0000     lsl     r0,r0,0h
0801F4A8 1530     asr     r0,r6,14h
0801F4AA 0300     lsl     r0,r0,0Ch
0801F4AC 0054     lsl     r4,r2,1h
0801F4AE 0300     lsl     r0,r0,0Ch
0801F4B0 01A8     lsl     r0,r5,6h
0801F4B2 0300     lsl     r0,r0,0Ch
0801F4B4 FFC00000 ????
0801F4B6 0000     lsl     r0,r0,0h
0801F4B8 3788     add     r7,88h
0801F4BA 082D     lsr     r5,r5,20h
0801F4BC 2040     mov     r0,40h
0801F4BE 81A0     strh    r0,[r4,0Ch]
0801F4C0 1C21     mov     r1,r4
0801F4C2 3124     add     r1,24h
0801F4C4 2009     mov     r0,9h
0801F4C6 7008     strb    r0,[r1]
0801F4C8 480F     ldr     r0,=82D36F8h
0801F4CA 61A0     str     r0,[r4,18h]
0801F4CC 82E5     strh    r5,[r4,16h]
0801F4CE 7726     strb    r6,[r4,1Ch]
0801F4D0 7FE2     ldrb    r2,[r4,1Fh]
0801F4D2 1C26     mov     r6,r4
0801F4D4 3623     add     r6,23h
0801F4D6 7833     ldrb    r3,[r6]
0801F4D8 8860     ldrh    r0,[r4,2h]
0801F4DA 9000     str     r0,[sp]
0801F4DC 88A0     ldrh    r0,[r4,4h]
0801F4DE 9001     str     r0,[sp,4h]
0801F4E0 9502     str     r5,[sp,8h]
0801F4E2 2034     mov     r0,34h
0801F4E4 2100     mov     r1,0h
0801F4E6 F7EEFEB7 bl      800E258h
0801F4EA 7FE2     ldrb    r2,[r4,1Fh]
0801F4EC 7833     ldrb    r3,[r6]
0801F4EE 8860     ldrh    r0,[r4,2h]
0801F4F0 9000     str     r0,[sp]
0801F4F2 88A0     ldrh    r0,[r4,4h]
0801F4F4 9001     str     r0,[sp,4h]
0801F4F6 9502     str     r5,[sp,8h]
0801F4F8 2034     mov     r0,34h
0801F4FA 2101     mov     r1,1h
0801F4FC F7EEFEAC bl      800E258h
0801F500 B003     add     sp,0Ch
0801F502 BC70     pop     r4-r6
0801F504 BC01     pop     r0
0801F506 4700     bx      r0
0801F508 36F8     add     r6,0F8h
0801F50A 082D     lsr     r5,r5,20h
0801F50C B5F0     push    r4-r7,lr
0801F50E 464F     mov     r7,r9
0801F510 4646     mov     r6,r8
0801F512 B4C0     push    r6,r7
0801F514 4F19     ldr     r7,=30013D4h
0801F516 8AB8     ldrh    r0,[r7,14h]
0801F518 4681     mov     r9,r0
0801F51A 8A78     ldrh    r0,[r7,12h]
0801F51C 4680     mov     r8,r0
0801F51E 4D18     ldr     r5,=3000738h
0801F520 8868     ldrh    r0,[r5,2h]
0801F522 3080     add     r0,80h
0801F524 0400     lsl     r0,r0,10h
0801F526 0C06     lsr     r6,r0,10h
0801F528 88A8     ldrh    r0,[r5,4h]
0801F52A 3060     add     r0,60h
0801F52C 0400     lsl     r0,r0,10h
0801F52E 0C04     lsr     r4,r0,10h
0801F530 F7F0FF1C bl      801036Ch
0801F534 1C01     mov     r1,r0
0801F536 2900     cmp     r1,0h
0801F538 D12C     bne     801F594h
0801F53A 1E70     sub     r0,r6,1
0801F53C 4581     cmp     r9,r0
0801F53E D129     bne     801F594h
0801F540 1C20     mov     r0,r4
0801F542 3840     sub     r0,40h
0801F544 4540     cmp     r0,r8
0801F546 DA25     bge     801F594h
0801F548 3080     add     r0,80h
0801F54A 4540     cmp     r0,r8
0801F54C DD22     ble     801F594h
0801F54E 480D     ldr     r0,=82D3708h
0801F550 61A8     str     r0,[r5,18h]
0801F552 2200     mov     r2,0h
0801F554 82E9     strh    r1,[r5,16h]
0801F556 772A     strb    r2,[r5,1Ch]
0801F558 1C29     mov     r1,r5
0801F55A 3124     add     r1,24h
0801F55C 2023     mov     r0,23h
0801F55E 7008     strb    r0,[r1]
0801F560 827C     strh    r4,[r7,12h]
0801F562 79B8     ldrb    r0,[r7,6h]
0801F564 2800     cmp     r0,0h
0801F566 D000     beq     801F56Ah
0801F568 71BA     strb    r2,[r7,6h]
0801F56A 89F9     ldrh    r1,[r7,0Eh]
0801F56C 2010     mov     r0,10h
0801F56E 4008     and     r0,r1
0801F570 2800     cmp     r0,0h
0801F572 D009     beq     801F588h
0801F574 202E     mov     r0,2Eh
0801F576 F7E7FFB7 bl      80074E8h
0801F57A E008     b       801F58Eh
0801F57C 13D4     asr     r4,r2,0Fh
0801F57E 0300     lsl     r0,r0,0Ch
0801F580 0738     lsl     r0,r7,1Ch
0801F582 0300     lsl     r0,r0,0Ch
0801F584 3708     add     r7,8h
0801F586 082D     lsr     r5,r5,20h
0801F588 202D     mov     r0,2Dh
0801F58A F7E7FFAD bl      80074E8h
0801F58E 4804     ldr     r0,=123h
0801F590 F7E3FA42 bl      8002A18h
0801F594 BC18     pop     r3,r4
0801F596 4698     mov     r8,r3
0801F598 46A1     mov     r9,r4
0801F59A BCF0     pop     r4-r7
0801F59C BC01     pop     r0
0801F59E 4700     bx      r0
0801F5A0 0123     lsl     r3,r4,4h
0801F5A2 0000     lsl     r0,r0,0h
0801F5A4 B500     push    lr
0801F5A6 F7F0FB0F bl      800FBC8h
0801F5AA 2800     cmp     r0,0h
0801F5AC D00F     beq     801F5CEh
0801F5AE 4809     ldr     r0,=3000738h
0801F5B0 4909     ldr     r1,=82D3758h
0801F5B2 6181     str     r1,[r0,18h]
0801F5B4 2300     mov     r3,0h
0801F5B6 2100     mov     r1,0h
0801F5B8 82C1     strh    r1,[r0,16h]
0801F5BA 7703     strb    r3,[r0,1Ch]
0801F5BC 1C02     mov     r2,r0
0801F5BE 3224     add     r2,24h
0801F5C0 2125     mov     r1,25h
0801F5C2 7011     strb    r1,[r2]
0801F5C4 302C     add     r0,2Ch
0801F5C6 2146     mov     r1,46h
0801F5C8 7001     strb    r1,[r0]
0801F5CA 4804     ldr     r0,=30013D4h
0801F5CC 7283     strb    r3,[r0,0Ah]
0801F5CE BC01     pop     r0
0801F5D0 4700     bx      r0
0801F5D2 0000     lsl     r0,r0,0h
0801F5D4 0738     lsl     r0,r7,1Ch
0801F5D6 0300     lsl     r0,r0,0Ch
0801F5D8 3758     add     r7,58h
0801F5DA 082D     lsr     r5,r5,20h
0801F5DC 13D4     asr     r4,r2,0Fh
0801F5DE 0300     lsl     r0,r0,0Ch
0801F5E0 B510     push    r4,lr
0801F5E2 490A     ldr     r1,=3000738h
0801F5E4 1C0C     mov     r4,r1
0801F5E6 342C     add     r4,2Ch
0801F5E8 7820     ldrb    r0,[r4]
0801F5EA 1E42     sub     r2,r0,1
0801F5EC 7022     strb    r2,[r4]
0801F5EE 0610     lsl     r0,r2,18h
0801F5F0 0E03     lsr     r3,r0,18h
0801F5F2 2B00     cmp     r3,0h
0801F5F4 D10E     bne     801F614h
0801F5F6 4806     ldr     r0,=82D3778h
0801F5F8 6188     str     r0,[r1,18h]
0801F5FA 2000     mov     r0,0h
0801F5FC 82CB     strh    r3,[r1,16h]
0801F5FE 7708     strb    r0,[r1,1Ch]
0801F600 3124     add     r1,24h
0801F602 2027     mov     r0,27h
0801F604 7008     strb    r0,[r1]
0801F606 200A     mov     r0,0Ah
0801F608 7020     strb    r0,[r4]
0801F60A E00A     b       801F622h
0801F60C 0738     lsl     r0,r7,1Ch
0801F60E 0300     lsl     r0,r0,0Ch
0801F610 3778     add     r7,78h
0801F612 082D     lsr     r5,r5,20h
0801F614 0610     lsl     r0,r2,18h
0801F616 0E00     lsr     r0,r0,18h
0801F618 280A     cmp     r0,0Ah
0801F61A D102     bne     801F622h
0801F61C 4902     ldr     r1,=3000BF0h
0801F61E 2005     mov     r0,5h
0801F620 7008     strb    r0,[r1]
0801F622 BC10     pop     r4
0801F624 BC01     pop     r0
0801F626 4700     bx      r0
0801F628 0BF0     lsr     r0,r6,0Fh
0801F62A 0300     lsl     r0,r0,0Ch
0801F62C B510     push    r4,lr
0801F62E B082     add     sp,-8h
0801F630 4A09     ldr     r2,=3000738h
0801F632 1C11     mov     r1,r2
0801F634 312C     add     r1,2Ch
0801F636 7808     ldrb    r0,[r1]
0801F638 3801     sub     r0,1h
0801F63A 7008     strb    r0,[r1]
0801F63C 0600     lsl     r0,r0,18h
0801F63E 1C14     mov     r4,r2
0801F640 2800     cmp     r0,0h
0801F642 D142     bne     801F6CAh
0801F644 4805     ldr     r0,=3000054h
0801F646 7800     ldrb    r0,[r0]
0801F648 2806     cmp     r0,6h
0801F64A D823     bhi     801F694h
0801F64C 0080     lsl     r0,r0,2h
0801F64E 4904     ldr     r1,=801F664h
0801F650 1840     add     r0,r0,r1
0801F652 6800     ldr     r0,[r0]
0801F654 4687     mov     r15,r0
0801F656 0000     lsl     r0,r0,0h
0801F658 0738     lsl     r0,r7,1Ch
0801F65A 0300     lsl     r0,r0,0Ch
0801F65C 0054     lsl     r4,r2,1h
0801F65E 0300     lsl     r0,r0,0Ch
0801F660 F6640801 ????
0801F662 0801     lsr     r1,r0,20h
0801F664 F6800801 ????
0801F666 0801     lsr     r1,r0,20h
0801F668 F6840801 ????
0801F66A 0801     lsr     r1,r0,20h
0801F66C F6880801 ????
0801F66E 0801     lsr     r1,r0,20h
0801F670 F68C0801 ????
0801F672 0801     lsr     r1,r0,20h
0801F674 F6940801 ????
0801F676 0801     lsr     r1,r0,20h
0801F678 F6940801 ????
0801F67A 0801     lsr     r1,r0,20h
0801F67C F6900801 ????
0801F67E 0801     lsr     r1,r0,20h
0801F680 211B     mov     r1,1Bh
0801F682 E008     b       801F696h
0801F684 211C     mov     r1,1Ch
0801F686 E006     b       801F696h
0801F688 211D     mov     r1,1Dh
0801F68A E004     b       801F696h
0801F68C 211E     mov     r1,1Eh
0801F68E E002     b       801F696h
0801F690 211F     mov     r1,1Fh
0801F692 E000     b       801F696h
0801F694 2123     mov     r1,23h
0801F696 8863     ldrh    r3,[r4,2h]
0801F698 88A0     ldrh    r0,[r4,4h]
0801F69A 9000     str     r0,[sp]
0801F69C 2000     mov     r0,0h
0801F69E 9001     str     r0,[sp,4h]
0801F6A0 2011     mov     r0,11h
0801F6A2 2206     mov     r2,6h
0801F6A4 F7EEFE3A bl      800E31Ch
0801F6A8 1C21     mov     r1,r4
0801F6AA 312D     add     r1,2Dh
0801F6AC 7008     strb    r0,[r1]
0801F6AE 2200     mov     r2,0h
0801F6B0 4808     ldr     r0,=0FFC0h
0801F6B2 81A0     strh    r0,[r4,0Ch]
0801F6B4 3909     sub     r1,9h
0801F6B6 2029     mov     r0,29h
0801F6B8 7008     strb    r0,[r1]
0801F6BA 4907     ldr     r1,=30013D4h
0801F6BC 774A     strb    r2,[r1,1Dh]
0801F6BE 2001     mov     r0,1h
0801F6C0 7288     strb    r0,[r1,0Ah]
0801F6C2 4806     ldr     r0,=123h
0801F6C4 210A     mov     r1,0Ah
0801F6C6 F7E3FADB bl      8002C80h
0801F6CA B002     add     sp,8h
0801F6CC BC10     pop     r4
0801F6CE BC01     pop     r0
0801F6D0 4700     bx      r0
0801F6D2 0000     lsl     r0,r0,0h
0801F6D4 FFC00000 ????
0801F6D6 0000     lsl     r0,r0,0h
0801F6D8 13D4     asr     r4,r2,0Fh
0801F6DA 0300     lsl     r0,r0,0Ch
0801F6DC 0123     lsl     r3,r4,4h
0801F6DE 0000     lsl     r0,r0,0h
0801F6E0 B500     push    lr
0801F6E2 4B0B     ldr     r3,=3000738h
0801F6E4 1C18     mov     r0,r3
0801F6E6 302D     add     r0,2Dh
0801F6E8 7801     ldrb    r1,[r0]
0801F6EA 4A0A     ldr     r2,=30001ACh
0801F6EC 00C8     lsl     r0,r1,3h
0801F6EE 1A40     sub     r0,r0,r1
0801F6F0 00C0     lsl     r0,r0,3h
0801F6F2 1880     add     r0,r0,r2
0801F6F4 3024     add     r0,24h
0801F6F6 7800     ldrb    r0,[r0]
0801F6F8 2825     cmp     r0,25h
0801F6FA D106     bne     801F70Ah
0801F6FC 1C19     mov     r1,r3
0801F6FE 3124     add     r1,24h
0801F700 202B     mov     r0,2Bh
0801F702 7008     strb    r0,[r1]
0801F704 3108     add     r1,8h
0801F706 200A     mov     r0,0Ah
0801F708 7008     strb    r0,[r1]
0801F70A BC01     pop     r0
0801F70C 4700     bx      r0
0801F70E 0000     lsl     r0,r0,0h
0801F710 0738     lsl     r0,r7,1Ch
0801F712 0300     lsl     r0,r0,0Ch
0801F714 01AC     lsl     r4,r5,6h
0801F716 0300     lsl     r0,r0,0Ch
0801F718 B500     push    lr
0801F71A 4A07     ldr     r2,=3000738h
0801F71C 1C11     mov     r1,r2
0801F71E 312C     add     r1,2Ch
0801F720 7808     ldrb    r0,[r1]
0801F722 3801     sub     r0,1h
0801F724 7008     strb    r0,[r1]
0801F726 0600     lsl     r0,r0,18h
0801F728 2800     cmp     r0,0h
0801F72A D102     bne     801F732h
0801F72C 3908     sub     r1,8h
0801F72E 202D     mov     r0,2Dh
0801F730 7008     strb    r0,[r1]
0801F732 BC01     pop     r0
0801F734 4700     bx      r0
0801F736 0000     lsl     r0,r0,0h
0801F738 0738     lsl     r0,r7,1Ch
0801F73A 0300     lsl     r0,r0,0Ch
0801F73C B500     push    lr
0801F73E 490A     ldr     r1,=3000738h
0801F740 1C0A     mov     r2,r1
0801F742 3224     add     r2,24h
0801F744 2300     mov     r3,0h
0801F746 202F     mov     r0,2Fh
0801F748 7010     strb    r0,[r2]
0801F74A 4808     ldr     r0,=82D3788h
0801F74C 6188     str     r0,[r1,18h]
0801F74E 2000     mov     r0,0h
0801F750 82CB     strh    r3,[r1,16h]
0801F752 7708     strb    r0,[r1,1Ch]
0801F754 2001     mov     r0,1h
0801F756 F7E7FEC7 bl      80074E8h
0801F75A 2092     mov     r0,092h
0801F75C 0040     lsl     r0,r0,1h
0801F75E F7E3F95B bl      8002A18h
0801F762 BC01     pop     r0
0801F764 4700     bx      r0
0801F766 0000     lsl     r0,r0,0h
0801F768 0738     lsl     r0,r7,1Ch
0801F76A 0300     lsl     r0,r0,0Ch
0801F76C 3788     add     r7,88h
0801F76E 082D     lsr     r5,r5,20h
0801F770 B500     push    lr
0801F772 4807     ldr     r0,=3000738h
0801F774 1C02     mov     r2,r0
0801F776 3226     add     r2,26h
0801F778 2101     mov     r1,1h
0801F77A 7011     strb    r1,[r2]
0801F77C 3024     add     r0,24h
0801F77E 7800     ldrb    r0,[r0]
0801F780 282D     cmp     r0,2Dh
0801F782 D87C     bhi     801F87Eh
0801F784 0080     lsl     r0,r0,2h
0801F786 4903     ldr     r1,=801F798h
0801F788 1840     add     r0,r0,r1
0801F78A 6800     ldr     r0,[r0]
0801F78C 4687     mov     r15,r0
0801F78E 0000     lsl     r0,r0,0h
0801F790 0738     lsl     r0,r7,1Ch
0801F792 0300     lsl     r0,r0,0Ch
0801F794 F7980801 ????
0801F796 0801     lsr     r1,r0,20h
0801F798 F8500801 ????
0801F79A 0801     lsr     r1,r0,20h
0801F79C F87E0801 ????
0801F79E 0801     lsr     r1,r0,20h
0801F7A0 F87E0801 ????
0801F7A2 0801     lsr     r1,r0,20h
0801F7A4 F87E0801 ????
0801F7A6 0801     lsr     r1,r0,20h
0801F7A8 F87E0801 ????
0801F7AA 0801     lsr     r1,r0,20h
0801F7AC F87E0801 ????
0801F7AE 0801     lsr     r1,r0,20h
0801F7B0 F87E0801 ????
0801F7B2 0801     lsr     r1,r0,20h
0801F7B4 F87E0801 ????
0801F7B6 0801     lsr     r1,r0,20h
0801F7B8 F87E0801 ????
0801F7BA 0801     lsr     r1,r0,20h
0801F7BC F8560801 ????
0801F7BE 0801     lsr     r1,r0,20h
0801F7C0 F87E0801 ????
0801F7C2 0801     lsr     r1,r0,20h
0801F7C4 F87E0801 ????
0801F7C6 0801     lsr     r1,r0,20h
0801F7C8 F87E0801 ????
0801F7CA 0801     lsr     r1,r0,20h
0801F7CC F87E0801 ????
0801F7CE 0801     lsr     r1,r0,20h
0801F7D0 F87E0801 ????
0801F7D2 0801     lsr     r1,r0,20h
0801F7D4 F87E0801 ????
0801F7D6 0801     lsr     r1,r0,20h
0801F7D8 F87E0801 ????
0801F7DA 0801     lsr     r1,r0,20h
0801F7DC F87E0801 ????
0801F7DE 0801     lsr     r1,r0,20h
0801F7E0 F87E0801 ????
0801F7E2 0801     lsr     r1,r0,20h
0801F7E4 F87E0801 ????
0801F7E6 0801     lsr     r1,r0,20h
0801F7E8 F87E0801 ????
0801F7EA 0801     lsr     r1,r0,20h
0801F7EC F87E0801 ????
0801F7EE 0801     lsr     r1,r0,20h
0801F7F0 F87E0801 ????
0801F7F2 0801     lsr     r1,r0,20h
0801F7F4 F87E0801 ????
0801F7F6 0801     lsr     r1,r0,20h
0801F7F8 F87E0801 ????
0801F7FA 0801     lsr     r1,r0,20h
0801F7FC F87E0801 ????
0801F7FE 0801     lsr     r1,r0,20h
0801F800 F87E0801 ????
0801F802 0801     lsr     r1,r0,20h
0801F804 F87E0801 ????
0801F806 0801     lsr     r1,r0,20h
0801F808 F87E0801 ????
0801F80A 0801     lsr     r1,r0,20h
0801F80C F87E0801 ????
0801F80E 0801     lsr     r1,r0,20h
0801F810 F87E0801 ????
0801F812 0801     lsr     r1,r0,20h
0801F814 F87E0801 ????
0801F816 0801     lsr     r1,r0,20h
0801F818 F87E0801 ????
0801F81A 0801     lsr     r1,r0,20h
0801F81C F87E0801 ????
0801F81E 0801     lsr     r1,r0,20h
0801F820 F87E0801 ????
0801F822 0801     lsr     r1,r0,20h
0801F824 F85C0801 ????
0801F826 0801     lsr     r1,r0,20h
0801F828 F87E0801 ????
0801F82A 0801     lsr     r1,r0,20h
0801F82C F8620801 ????
0801F82E 0801     lsr     r1,r0,20h
0801F830 F87E0801 ????
0801F832 0801     lsr     r1,r0,20h
0801F834 F8680801 ????
0801F836 0801     lsr     r1,r0,20h
0801F838 F87E0801 ????
0801F83A 0801     lsr     r1,r0,20h
0801F83C F86E0801 ????
0801F83E 0801     lsr     r1,r0,20h
0801F840 F87E0801 ????
0801F842 0801     lsr     r1,r0,20h
0801F844 F8740801 ????
0801F846 0801     lsr     r1,r0,20h
0801F848 F87E0801 ????
0801F84A 0801     lsr     r1,r0,20h
0801F84C F87A0801 ????
0801F84E 0801     lsr     r1,r0,20h
0801F850 F7FFFDE4 bl      801F41Ch
0801F854 E013     b       801F87Eh
0801F856 F7FFFE59 bl      801F50Ch
0801F85A E010     b       801F87Eh
0801F85C F7FFFEA2 bl      801F5A4h
0801F860 E00D     b       801F87Eh
0801F862 F7FFFEBD bl      801F5E0h
0801F866 E00A     b       801F87Eh
0801F868 F7FFFEE0 bl      801F62Ch
0801F86C E007     b       801F87Eh
0801F86E F7FFFF37 bl      801F6E0h
0801F872 E004     b       801F87Eh
0801F874 F7FFFF50 bl      801F718h
0801F878 E001     b       801F87Eh
0801F87A F7FFFF5F bl      801F73Ch
0801F87E BC01     pop     r0
0801F880 4700     bx      r0
0801F882 0000     lsl     r0,r0,0h
0801F884 B5F0     push    r4-r7,lr
0801F886 4C0A     ldr     r4,=3000738h
0801F888 1C20     mov     r0,r4
0801F88A 3026     add     r0,26h
0801F88C 2500     mov     r5,0h
0801F88E 2701     mov     r7,1h
0801F890 7007     strb    r7,[r0]
0801F892 3803     sub     r0,3h
0801F894 7802     ldrb    r2,[r0]
0801F896 1C26     mov     r6,r4
0801F898 3624     add     r6,24h
0801F89A 7830     ldrb    r0,[r6]
0801F89C 2823     cmp     r0,23h
0801F89E D061     beq     801F964h
0801F8A0 2823     cmp     r0,23h
0801F8A2 DC07     bgt     801F8B4h
0801F8A4 2800     cmp     r0,0h
0801F8A6 D008     beq     801F8BAh
0801F8A8 2809     cmp     r0,9h
0801F8AA D03D     beq     801F928h
0801F8AC E07D     b       801F9AAh
0801F8AE 0000     lsl     r0,r0,0h
0801F8B0 0738     lsl     r0,r7,1Ch
0801F8B2 0300     lsl     r0,r0,0Ch
0801F8B4 2825     cmp     r0,25h
0801F8B6 D073     beq     801F9A0h
0801F8B8 E077     b       801F9AAh
0801F8BA 8821     ldrh    r1,[r4]
0801F8BC 4815     ldr     r0,=0FFFBh
0801F8BE 4008     and     r0,r1
0801F8C0 2200     mov     r2,0h
0801F8C2 8020     strh    r0,[r4]
0801F8C4 1C23     mov     r3,r4
0801F8C6 3332     add     r3,32h
0801F8C8 7818     ldrb    r0,[r3]
0801F8CA 2101     mov     r1,1h
0801F8CC 4308     orr     r0,r1
0801F8CE 7018     strb    r0,[r3]
0801F8D0 1C20     mov     r0,r4
0801F8D2 3025     add     r0,25h
0801F8D4 7002     strb    r2,[r0]
0801F8D6 1C21     mov     r1,r4
0801F8D8 3122     add     r1,22h
0801F8DA 2003     mov     r0,3h
0801F8DC 7008     strb    r0,[r1]
0801F8DE 1C20     mov     r0,r4
0801F8E0 3021     add     r0,21h
0801F8E2 7007     strb    r7,[r0]
0801F8E4 3105     add     r1,5h
0801F8E6 2020     mov     r0,20h
0801F8E8 7008     strb    r0,[r1]
0801F8EA 1C20     mov     r0,r4
0801F8EC 3028     add     r0,28h
0801F8EE 7002     strb    r2,[r0]
0801F8F0 3102     add     r1,2h
0801F8F2 2018     mov     r0,18h
0801F8F4 7008     strb    r0,[r1]
0801F8F6 8165     strh    r5,[r4,0Ah]
0801F8F8 81A5     strh    r5,[r4,0Ch]
0801F8FA 81E5     strh    r5,[r4,0Eh]
0801F8FC 8225     strh    r5,[r4,10h]
0801F8FE 7722     strb    r2,[r4,1Ch]
0801F900 82E5     strh    r5,[r4,16h]
0801F902 2009     mov     r0,9h
0801F904 7030     strb    r0,[r6]
0801F906 7FA0     ldrb    r0,[r4,1Eh]
0801F908 2800     cmp     r0,0h
0801F90A D107     bne     801F91Ch
0801F90C 4802     ldr     r0,=82D3830h
0801F90E 61A0     str     r0,[r4,18h]
0801F910 E04B     b       801F9AAh
0801F912 0000     lsl     r0,r0,0h
0801F914 FFFB0000 ????
0801F916 0000     lsl     r0,r0,0h
0801F918 3830     sub     r0,30h
0801F91A 082D     lsr     r5,r5,20h
0801F91C 4801     ldr     r0,=82D38A8h
0801F91E 61A0     str     r0,[r4,18h]
0801F920 E043     b       801F9AAh
0801F922 0000     lsl     r0,r0,0h
0801F924 38A8     sub     r0,0A8h
0801F926 082D     lsr     r5,r5,20h
0801F928 4809     ldr     r0,=30001ACh
0801F92A 00D1     lsl     r1,r2,3h
0801F92C 1A89     sub     r1,r1,r2
0801F92E 00C9     lsl     r1,r1,3h
0801F930 1809     add     r1,r1,r0
0801F932 3124     add     r1,24h
0801F934 7808     ldrb    r0,[r1]
0801F936 2825     cmp     r0,25h
0801F938 D137     bne     801F9AAh
0801F93A 7725     strb    r5,[r4,1Ch]
0801F93C 82E5     strh    r5,[r4,16h]
0801F93E 2023     mov     r0,23h
0801F940 7030     strb    r0,[r6]
0801F942 7FA0     ldrb    r0,[r4,1Eh]
0801F944 2800     cmp     r0,0h
0801F946 D107     bne     801F958h
0801F948 4802     ldr     r0,=82D3858h
0801F94A 61A0     str     r0,[r4,18h]
0801F94C E02D     b       801F9AAh
0801F94E 0000     lsl     r0,r0,0h
0801F950 01AC     lsl     r4,r5,6h
0801F952 0300     lsl     r0,r0,0Ch
0801F954 3858     sub     r0,58h
0801F956 082D     lsr     r5,r5,20h
0801F958 4801     ldr     r0,=82D38E0h
0801F95A 61A0     str     r0,[r4,18h]
0801F95C E025     b       801F9AAh
0801F95E 0000     lsl     r0,r0,0h
0801F960 38E0     sub     r0,0E0h
0801F962 082D     lsr     r5,r5,20h
0801F964 4809     ldr     r0,=30001ACh
0801F966 00D1     lsl     r1,r2,3h
0801F968 1A89     sub     r1,r1,r2
0801F96A 00C9     lsl     r1,r1,3h
0801F96C 1809     add     r1,r1,r0
0801F96E 3124     add     r1,24h
0801F970 7808     ldrb    r0,[r1]
0801F972 2827     cmp     r0,27h
0801F974 D119     bne     801F9AAh
0801F976 7725     strb    r5,[r4,1Ch]
0801F978 82E5     strh    r5,[r4,16h]
0801F97A 2025     mov     r0,25h
0801F97C 7030     strb    r0,[r6]
0801F97E 7FA0     ldrb    r0,[r4,1Eh]
0801F980 2800     cmp     r0,0h
0801F982 D107     bne     801F994h
0801F984 4802     ldr     r0,=82D3880h
0801F986 61A0     str     r0,[r4,18h]
0801F988 E00F     b       801F9AAh
0801F98A 0000     lsl     r0,r0,0h
0801F98C 01AC     lsl     r4,r5,6h
0801F98E 0300     lsl     r0,r0,0Ch
0801F990 3880     sub     r0,80h
0801F992 082D     lsr     r5,r5,20h
0801F994 4801     ldr     r0,=82D3918h
0801F996 61A0     str     r0,[r4,18h]
0801F998 E007     b       801F9AAh
0801F99A 0000     lsl     r0,r0,0h
0801F99C 3918     sub     r1,18h
0801F99E 082D     lsr     r5,r5,20h
0801F9A0 F7F0F912 bl      800FBC8h
0801F9A4 2800     cmp     r0,0h
0801F9A6 D000     beq     801F9AAh
0801F9A8 8025     strh    r5,[r4]
0801F9AA BCF0     pop     r4-r7
0801F9AC BC01     pop     r0
0801F9AE 4700     bx      r0
0801F9B0 B510     push    r4,lr
0801F9B2 2400     mov     r4,0h
0801F9B4 480A     ldr     r0,=30013D4h
0801F9B6 8A82     ldrh    r2,[r0,14h]
0801F9B8 8A43     ldrh    r3,[r0,12h]
0801F9BA 490A     ldr     r1,=3000738h
0801F9BC 8848     ldrh    r0,[r1,2h]
0801F9BE 8889     ldrh    r1,[r1,4h]
0801F9C0 3841     sub     r0,41h
0801F9C2 4282     cmp     r2,r0
0801F9C4 D107     bne     801F9D6h
0801F9C6 1C08     mov     r0,r1
0801F9C8 3840     sub     r0,40h
0801F9CA 4298     cmp     r0,r3
0801F9CC DA03     bge     801F9D6h
0801F9CE 3080     add     r0,80h
0801F9D0 4298     cmp     r0,r3
0801F9D2 DD00     ble     801F9D6h
0801F9D4 2401     mov     r4,1h
0801F9D6 1C20     mov     r0,r4
0801F9D8 BC10     pop     r4
0801F9DA BC02     pop     r1
0801F9DC 4708     bx      r1
0801F9DE 0000     lsl     r0,r0,0h
0801F9E0 13D4     asr     r4,r2,0Fh
0801F9E2 0300     lsl     r0,r0,0Ch
0801F9E4 0738     lsl     r0,r7,1Ch
0801F9E6 0300     lsl     r0,r0,0Ch
0801F9E8 B510     push    r4,lr
0801F9EA B083     add     sp,-0Ch
0801F9EC 4B12     ldr     r3,=3000738h
0801F9EE 1C1C     mov     r4,r3
0801F9F0 3432     add     r4,32h
0801F9F2 7821     ldrb    r1,[r4]
0801F9F4 2001     mov     r0,1h
0801F9F6 2200     mov     r2,0h
0801F9F8 4308     orr     r0,r1
0801F9FA 7020     strb    r0,[r4]
0801F9FC 2400     mov     r4,0h
0801F9FE 80DA     strh    r2,[r3,6h]
0801FA00 1C18     mov     r0,r3
0801FA02 3025     add     r0,25h
0801FA04 7004     strb    r4,[r0]
0801FA06 3002     add     r0,2h
0801FA08 2110     mov     r1,10h
0801FA0A 7001     strb    r1,[r0]
0801FA0C 3001     add     r0,1h
0801FA0E 7001     strb    r1,[r0]
0801FA10 1C19     mov     r1,r3
0801FA12 3129     add     r1,29h
0801FA14 2028     mov     r0,28h
0801FA16 7008     strb    r0,[r1]
0801FA18 4908     ldr     r1,=0FFFCh
0801FA1A 8159     strh    r1,[r3,0Ah]
0801FA1C 2004     mov     r0,4h
0801FA1E 8198     strh    r0,[r3,0Ch]
0801FA20 81D9     strh    r1,[r3,0Eh]
0801FA22 8218     strh    r0,[r3,10h]
0801FA24 4806     ldr     r0,=30001A8h
0801FA26 8800     ldrh    r0,[r0]
0801FA28 2800     cmp     r0,0h
0801FA2A D00B     beq     801FA44h
0801FA2C 1C19     mov     r1,r3
0801FA2E 312E     add     r1,2Eh
0801FA30 2001     mov     r0,1h
0801FA32 7008     strb    r0,[r1]
0801FA34 E009     b       801FA4Ah
0801FA36 0000     lsl     r0,r0,0h
0801FA38 0738     lsl     r0,r7,1Ch
0801FA3A 0300     lsl     r0,r0,0Ch
0801FA3C FFFC0000 ????
0801FA3E 0000     lsl     r0,r0,0h
0801FA40 01A8     lsl     r0,r5,6h
0801FA42 0300     lsl     r0,r0,0Ch
0801FA44 1C18     mov     r0,r3
0801FA46 302E     add     r0,2Eh
0801FA48 7004     strb    r4,[r0]
0801FA4A 4C0C     ldr     r4,=3000738h
0801FA4C 2000     mov     r0,0h
0801FA4E 7720     strb    r0,[r4,1Ch]
0801FA50 82E0     strh    r0,[r4,16h]
0801FA52 1C21     mov     r1,r4
0801FA54 312C     add     r1,2Ch
0801FA56 200A     mov     r0,0Ah
0801FA58 7008     strb    r0,[r1]
0801FA5A 1C20     mov     r0,r4
0801FA5C 302E     add     r0,2Eh
0801FA5E 7800     ldrb    r0,[r0]
0801FA60 2800     cmp     r0,0h
0801FA62 D104     bne     801FA6Eh
0801FA64 F033FF80 bl      8053968h
0801FA68 1C01     mov     r1,r0
0801FA6A 2900     cmp     r1,0h
0801FA6C D00A     beq     801FA84h
0801FA6E 4804     ldr     r0,=82D4DF4h
0801FA70 61A0     str     r0,[r4,18h]
0801FA72 1C21     mov     r1,r4
0801FA74 3124     add     r1,24h
0801FA76 2051     mov     r0,51h
0801FA78 E02B     b       801FAD2h
0801FA7A 0000     lsl     r0,r0,0h
0801FA7C 0738     lsl     r0,r7,1Ch
0801FA7E 0300     lsl     r0,r0,0Ch
0801FA80 4DF4     ldr     r5,=1A4000C8h
0801FA82 082D     lsr     r5,r5,20h
0801FA84 480E     ldr     r0,=3000C1Dh
0801FA86 7800     ldrb    r0,[r0]
0801FA88 0600     lsl     r0,r0,18h
0801FA8A 1600     asr     r0,r0,18h
0801FA8C 2800     cmp     r0,0h
0801FA8E D01B     beq     801FAC8h
0801FA90 7FE2     ldrb    r2,[r4,1Fh]
0801FA92 1C20     mov     r0,r4
0801FA94 3023     add     r0,23h
0801FA96 7803     ldrb    r3,[r0]
0801FA98 8860     ldrh    r0,[r4,2h]
0801FA9A 9000     str     r0,[sp]
0801FA9C 88A0     ldrh    r0,[r4,4h]
0801FA9E 9001     str     r0,[sp,4h]
0801FAA0 9102     str     r1,[sp,8h]
0801FAA2 200D     mov     r0,0Dh
0801FAA4 2100     mov     r1,0h
0801FAA6 F7EEFBD7 bl      800E258h
0801FAAA 4806     ldr     r0,=82D4DC4h
0801FAAC 61A0     str     r0,[r4,18h]
0801FAAE 1C21     mov     r1,r4
0801FAB0 3124     add     r1,24h
0801FAB2 2028     mov     r0,28h
0801FAB4 7008     strb    r0,[r1]
0801FAB6 20AA     mov     r0,0AAh
0801FAB8 0040     lsl     r0,r0,1h
0801FABA 80E0     strh    r0,[r4,6h]
0801FABC E00A     b       801FAD4h
0801FABE 0000     lsl     r0,r0,0h
0801FAC0 0C1D     lsr     r5,r3,10h
0801FAC2 0300     lsl     r0,r0,0Ch
0801FAC4 4DC4     ldr     r5,=203C3108h
0801FAC6 082D     lsr     r5,r5,20h
0801FAC8 480E     ldr     r0,=82D4CFCh
0801FACA 61A0     str     r0,[r4,18h]
0801FACC 1C21     mov     r1,r4
0801FACE 3124     add     r1,24h
0801FAD0 2009     mov     r0,9h
0801FAD2 7008     strb    r0,[r1]
0801FAD4 4C0C     ldr     r4,=3000738h
0801FAD6 7FE2     ldrb    r2,[r4,1Fh]
0801FAD8 1C20     mov     r0,r4
0801FADA 3023     add     r0,23h
0801FADC 7803     ldrb    r3,[r0]
0801FADE 8860     ldrh    r0,[r4,2h]
0801FAE0 490A     ldr     r1,=0FFFFFE00h
0801FAE2 1840     add     r0,r0,r1
0801FAE4 9000     str     r0,[sp]
0801FAE6 88A0     ldrh    r0,[r4,4h]
0801FAE8 9001     str     r0,[sp,4h]
0801FAEA 2000     mov     r0,0h
0801FAEC 9002     str     r0,[sp,8h]
0801FAEE 200D     mov     r0,0Dh
0801FAF0 2103     mov     r1,3h
0801FAF2 F7EEFBB1 bl      800E258h
0801FAF6 342F     add     r4,2Fh
0801FAF8 7020     strb    r0,[r4]
0801FAFA B003     add     sp,0Ch
0801FAFC BC10     pop     r4
0801FAFE BC01     pop     r0
0801FB00 4700     bx      r0
0801FB02 0000     lsl     r0,r0,0h
0801FB04 4CFC     ldr     r4,=0FFFCh
0801FB06 082D     lsr     r5,r5,20h
0801FB08 0738     lsl     r0,r7,1Ch
0801FB0A 0300     lsl     r0,r0,0Ch
0801FB0C FE00FFFF ????
0801FB0E FFFFB500 ????
0801FB10 B500     push    lr
0801FB12 F7FFFF4D bl      801F9B0h
0801FB16 0600     lsl     r0,r0,18h
0801FB18 2800     cmp     r0,0h
0801FB1A D01D     beq     801FB58h
0801FB1C F7F0FC26 bl      801036Ch
0801FB20 2800     cmp     r0,0h
0801FB22 D119     bne     801FB58h
0801FB24 4B0A     ldr     r3,=3000738h
0801FB26 1C19     mov     r1,r3
0801FB28 312C     add     r1,2Ch
0801FB2A 7808     ldrb    r0,[r1]
0801FB2C 3801     sub     r0,1h
0801FB2E 7008     strb    r0,[r1]
0801FB30 0600     lsl     r0,r0,18h
0801FB32 0E02     lsr     r2,r0,18h
0801FB34 2A00     cmp     r2,0h
0801FB36 D113     bne     801FB60h
0801FB38 3908     sub     r1,8h
0801FB3A 2023     mov     r0,23h
0801FB3C 7008     strb    r0,[r1]
0801FB3E 4805     ldr     r0,=82D4D34h
0801FB40 6198     str     r0,[r3,18h]
0801FB42 771A     strb    r2,[r3,1Ch]
0801FB44 82DA     strh    r2,[r3,16h]
0801FB46 2089     mov     r0,89h
0801FB48 0040     lsl     r0,r0,1h
0801FB4A F7E2FF65 bl      8002A18h
0801FB4E E007     b       801FB60h
0801FB50 0738     lsl     r0,r7,1Ch
0801FB52 0300     lsl     r0,r0,0Ch
0801FB54 4D34     ldr     r5,=49057011h
0801FB56 082D     lsr     r5,r5,20h
0801FB58 4802     ldr     r0,=3000738h
0801FB5A 302C     add     r0,2Ch
0801FB5C 210A     mov     r1,0Ah
0801FB5E 7001     strb    r1,[r0]
0801FB60 BC01     pop     r0
0801FB62 4700     bx      r0
0801FB64 0738     lsl     r0,r7,1Ch
0801FB66 0300     lsl     r0,r0,0Ch
0801FB68 B500     push    lr
0801FB6A F7F0F82D bl      800FBC8h
0801FB6E 2800     cmp     r0,0h
0801FB70 D009     beq     801FB86h
0801FB72 4906     ldr     r1,=3000738h
0801FB74 1C0A     mov     r2,r1
0801FB76 3224     add     r2,24h
0801FB78 2300     mov     r3,0h
0801FB7A 2025     mov     r0,25h
0801FB7C 7010     strb    r0,[r2]
0801FB7E 4804     ldr     r0,=82D4D54h
0801FB80 6188     str     r0,[r1,18h]
0801FB82 770B     strb    r3,[r1,1Ch]
0801FB84 82CB     strh    r3,[r1,16h]
0801FB86 BC01     pop     r0
0801FB88 4700     bx      r0
0801FB8A 0000     lsl     r0,r0,0h
0801FB8C 0738     lsl     r0,r7,1Ch
0801FB8E 0300     lsl     r0,r0,0Ch
0801FB90 4D54     ldr     r5,=0E0477008h
0801FB92 082D     lsr     r5,r5,20h
0801FB94 B510     push    r4,lr
0801FB96 F7FFFF0B bl      801F9B0h
0801FB9A 0600     lsl     r0,r0,18h
0801FB9C 0E03     lsr     r3,r0,18h
0801FB9E 2B00     cmp     r3,0h
0801FBA0 D022     beq     801FBE8h
0801FBA2 F7F0FBE3 bl      801036Ch
0801FBA6 2800     cmp     r0,0h
0801FBA8 D12A     bne     801FC00h
0801FBAA 4A0C     ldr     r2,=3000738h
0801FBAC 1C11     mov     r1,r2
0801FBAE 3124     add     r1,24h
0801FBB0 2042     mov     r0,42h
0801FBB2 7008     strb    r0,[r1]
0801FBB4 3108     add     r1,8h
0801FBB6 2004     mov     r0,4h
0801FBB8 7008     strb    r0,[r1]
0801FBBA 4C09     ldr     r4,=30013D4h
0801FBBC 8890     ldrh    r0,[r2,4h]
0801FBBE 8260     strh    r0,[r4,12h]
0801FBC0 79A0     ldrb    r0,[r4,6h]
0801FBC2 2800     cmp     r0,0h
0801FBC4 D001     beq     801FBCAh
0801FBC6 2000     mov     r0,0h
0801FBC8 71A0     strb    r0,[r4,6h]
0801FBCA 201F     mov     r0,1Fh
0801FBCC F7E7FC8C bl      80074E8h
0801FBD0 2101     mov     r1,1h
0801FBD2 72A1     strb    r1,[r4,0Ah]
0801FBD4 4803     ldr     r0,=3000049h
0801FBD6 7001     strb    r1,[r0]
0801FBD8 E012     b       801FC00h
0801FBDA 0000     lsl     r0,r0,0h
0801FBDC 0738     lsl     r0,r7,1Ch
0801FBDE 0300     lsl     r0,r0,0Ch
0801FBE0 13D4     asr     r4,r2,0Fh
0801FBE2 0300     lsl     r0,r0,0Ch
0801FBE4 0049     lsl     r1,r1,1h
0801FBE6 0300     lsl     r0,r0,0Ch
0801FBE8 4907     ldr     r1,=3000738h
0801FBEA 1C0A     mov     r2,r1
0801FBEC 3224     add     r2,24h
0801FBEE 2027     mov     r0,27h
0801FBF0 7010     strb    r0,[r2]
0801FBF2 4806     ldr     r0,=82D4DD4h
0801FBF4 6188     str     r0,[r1,18h]
0801FBF6 770B     strb    r3,[r1,1Ch]
0801FBF8 82CB     strh    r3,[r1,16h]
0801FBFA 4805     ldr     r0,=113h
0801FBFC F7E2FF0C bl      8002A18h
0801FC00 BC10     pop     r4
0801FC02 BC01     pop     r0
0801FC04 4700     bx      r0
0801FC06 0000     lsl     r0,r0,0h
0801FC08 0738     lsl     r0,r7,1Ch
0801FC0A 0300     lsl     r0,r0,0Ch
0801FC0C 4DD4     ldr     r5,=7008200Ch
0801FC0E 082D     lsr     r5,r5,20h
0801FC10 0113     lsl     r3,r2,4h
0801FC12 0000     lsl     r0,r0,0h
0801FC14 B500     push    lr
0801FC16 F7EFFFD7 bl      800FBC8h
0801FC1A 2800     cmp     r0,0h
0801FC1C D00C     beq     801FC38h
0801FC1E 4807     ldr     r0,=3000738h
0801FC20 1C02     mov     r2,r0
0801FC22 3224     add     r2,24h
0801FC24 2300     mov     r3,0h
0801FC26 2109     mov     r1,9h
0801FC28 7011     strb    r1,[r2]
0801FC2A 4905     ldr     r1,=82D4CFCh
0801FC2C 6181     str     r1,[r0,18h]
0801FC2E 7703     strb    r3,[r0,1Ch]
0801FC30 82C3     strh    r3,[r0,16h]
0801FC32 302C     add     r0,2Ch
0801FC34 210A     mov     r1,0Ah
0801FC36 7001     strb    r1,[r0]
0801FC38 BC01     pop     r0
0801FC3A 4700     bx      r0
0801FC3C 0738     lsl     r0,r7,1Ch
0801FC3E 0300     lsl     r0,r0,0Ch
0801FC40 4CFC     ldr     r4,=2800FDC9h
0801FC42 082D     lsr     r5,r5,20h
0801FC44 B510     push    r4,lr
0801FC46 4904     ldr     r1,=3000738h
0801FC48 88C8     ldrh    r0,[r1,6h]
0801FC4A 1C04     mov     r4,r0
0801FC4C 2C00     cmp     r4,0h
0801FC4E D005     beq     801FC5Ch
0801FC50 3801     sub     r0,1h
0801FC52 80C8     strh    r0,[r1,6h]
0801FC54 E00B     b       801FC6Eh
0801FC56 0000     lsl     r0,r0,0h
0801FC58 0738     lsl     r0,r7,1Ch
0801FC5A 0300     lsl     r0,r0,0Ch
0801FC5C 1C08     mov     r0,r1
0801FC5E 3024     add     r0,24h
0801FC60 2129     mov     r1,29h
0801FC62 7001     strb    r1,[r0]
0801FC64 201E     mov     r0,1Eh
0801FC66 F7E7FC3F bl      80074E8h
0801FC6A 4802     ldr     r0,=3000049h
0801FC6C 7004     strb    r4,[r0]
0801FC6E BC10     pop     r4
0801FC70 BC01     pop     r0
0801FC72 4700     bx      r0
0801FC74 0049     lsl     r1,r1,1h
0801FC76 0300     lsl     r0,r0,0Ch
0801FC78 B500     push    lr
0801FC7A F7FFFE99 bl      801F9B0h
0801FC7E 0600     lsl     r0,r0,18h
0801FC80 0E03     lsr     r3,r0,18h
0801FC82 2B00     cmp     r3,0h
0801FC84 D10B     bne     801FC9Eh
0801FC86 4907     ldr     r1,=3000738h
0801FC88 1C0A     mov     r2,r1
0801FC8A 3224     add     r2,24h
0801FC8C 2027     mov     r0,27h
0801FC8E 7010     strb    r0,[r2]
0801FC90 4805     ldr     r0,=82D4DD4h
0801FC92 6188     str     r0,[r1,18h]
0801FC94 770B     strb    r3,[r1,1Ch]
0801FC96 82CB     strh    r3,[r1,16h]
0801FC98 4804     ldr     r0,=113h
0801FC9A F7E2FEBD bl      8002A18h
0801FC9E BC01     pop     r0
0801FCA0 4700     bx      r0
0801FCA2 0000     lsl     r0,r0,0h
0801FCA4 0738     lsl     r0,r7,1Ch
0801FCA6 0300     lsl     r0,r0,0Ch
0801FCA8 4DD4     ldr     r5,=0E004h
0801FCAA 082D     lsr     r5,r5,20h
0801FCAC 0113     lsl     r3,r2,4h
0801FCAE 0000     lsl     r0,r0,0h
0801FCB0 B5F0     push    r4-r7,lr
0801FCB2 B083     add     sp,-0Ch
0801FCB4 4D0C     ldr     r5,=3000738h
0801FCB6 1C2A     mov     r2,r5
0801FCB8 322C     add     r2,2Ch
0801FCBA 7810     ldrb    r0,[r2]
0801FCBC 1C06     mov     r6,r0
0801FCBE 2E00     cmp     r6,0h
0801FCC0 D014     beq     801FCECh
0801FCC2 3801     sub     r0,1h
0801FCC4 7010     strb    r0,[r2]
0801FCC6 0600     lsl     r0,r0,18h
0801FCC8 0E01     lsr     r1,r0,18h
0801FCCA 2900     cmp     r1,0h
0801FCCC D154     bne     801FD78h
0801FCCE 886B     ldrh    r3,[r5,2h]
0801FCD0 88A8     ldrh    r0,[r5,4h]
0801FCD2 9000     str     r0,[sp]
0801FCD4 9101     str     r1,[sp,4h]
0801FCD6 2011     mov     r0,11h
0801FCD8 2116     mov     r1,16h
0801FCDA 2206     mov     r2,6h
0801FCDC F7EEFB1E bl      800E31Ch
0801FCE0 1C29     mov     r1,r5
0801FCE2 312D     add     r1,2Dh
0801FCE4 7008     strb    r0,[r1]
0801FCE6 E047     b       801FD78h
0801FCE8 0738     lsl     r0,r7,1Ch
0801FCEA 0300     lsl     r0,r0,0Ch
0801FCEC 1C28     mov     r0,r5
0801FCEE 302D     add     r0,2Dh
0801FCF0 7801     ldrb    r1,[r0]
0801FCF2 4F1B     ldr     r7,=30001ACh
0801FCF4 00C8     lsl     r0,r1,3h
0801FCF6 1A40     sub     r0,r0,r1
0801FCF8 00C0     lsl     r0,r0,3h
0801FCFA 19C1     add     r1,r0,r7
0801FCFC 1C08     mov     r0,r1
0801FCFE 3024     add     r0,24h
0801FD00 7800     ldrb    r0,[r0]
0801FD02 2825     cmp     r0,25h
0801FD04 D138     bne     801FD78h
0801FD06 1C08     mov     r0,r1
0801FD08 302D     add     r0,2Dh
0801FD0A 7800     ldrb    r0,[r0]
0801FD0C 2801     cmp     r0,1h
0801FD0E D12D     bne     801FD6Ch
0801FD10 4814     ldr     r0,=82D4D8Ch
0801FD12 61A8     str     r0,[r5,18h]
0801FD14 772E     strb    r6,[r5,1Ch]
0801FD16 2400     mov     r4,0h
0801FD18 82EE     strh    r6,[r5,16h]
0801FD1A 1C29     mov     r1,r5
0801FD1C 3124     add     r1,24h
0801FD1E 2043     mov     r0,43h
0801FD20 7008     strb    r0,[r1]
0801FD22 7FEA     ldrb    r2,[r5,1Fh]
0801FD24 1C28     mov     r0,r5
0801FD26 3023     add     r0,23h
0801FD28 7803     ldrb    r3,[r0]
0801FD2A 8868     ldrh    r0,[r5,2h]
0801FD2C 9000     str     r0,[sp]
0801FD2E 88A8     ldrh    r0,[r5,4h]
0801FD30 9001     str     r0,[sp,4h]
0801FD32 9602     str     r6,[sp,8h]
0801FD34 200D     mov     r0,0Dh
0801FD36 2100     mov     r1,0h
0801FD38 F7EEFA8E bl      800E258h
0801FD3C 1C28     mov     r0,r5
0801FD3E 302F     add     r0,2Fh
0801FD40 7801     ldrb    r1,[r0]
0801FD42 00C8     lsl     r0,r1,3h
0801FD44 1A40     sub     r0,r0,r1
0801FD46 00C0     lsl     r0,r0,3h
0801FD48 19C0     add     r0,r0,r7
0801FD4A 3024     add     r0,24h
0801FD4C 2144     mov     r1,44h
0801FD4E 7001     strb    r1,[r0]
0801FD50 4805     ldr     r0,=30013D4h
0801FD52 7284     strb    r4,[r0,0Ah]
0801FD54 208A     mov     r0,8Ah
0801FD56 0040     lsl     r0,r0,1h
0801FD58 F7E2FE5E bl      8002A18h
0801FD5C E00C     b       801FD78h
0801FD5E 0000     lsl     r0,r0,0h
0801FD60 01AC     lsl     r4,r5,6h
0801FD62 0300     lsl     r0,r0,0Ch
0801FD64 4D8C     ldr     r5,=1C187008h
0801FD66 082D     lsr     r5,r5,20h
0801FD68 13D4     asr     r4,r2,0Fh
0801FD6A 0300     lsl     r0,r0,0Ch
0801FD6C 1C28     mov     r0,r5
0801FD6E 3024     add     r0,24h
0801FD70 214B     mov     r1,4Bh
0801FD72 7001     strb    r1,[r0]
0801FD74 200A     mov     r0,0Ah
0801FD76 7010     strb    r0,[r2]
0801FD78 B003     add     sp,0Ch
0801FD7A BCF0     pop     r4-r7
0801FD7C BC01     pop     r0
0801FD7E 4700     bx      r0
0801FD80 B500     push    lr
0801FD82 4A06     ldr     r2,=3000738h
0801FD84 1C10     mov     r0,r2
0801FD86 302F     add     r0,2Fh
0801FD88 7803     ldrb    r3,[r0]
0801FD8A 8AD1     ldrh    r1,[r2,16h]
0801FD8C 2001     mov     r0,1h
0801FD8E 4008     and     r0,r1
0801FD90 2800     cmp     r0,0h
0801FD92 D005     beq     801FDA0h
0801FD94 1C10     mov     r0,r2
0801FD96 3020     add     r0,20h
0801FD98 2200     mov     r2,0h
0801FD9A E004     b       801FDA6h
0801FD9C 0738     lsl     r0,r7,1Ch
0801FD9E 0300     lsl     r0,r0,0Ch
0801FDA0 1C10     mov     r0,r2
0801FDA2 3020     add     r0,20h
0801FDA4 2202     mov     r2,2h
0801FDA6 7002     strb    r2,[r0]
0801FDA8 4904     ldr     r1,=30001ACh
0801FDAA 00D8     lsl     r0,r3,3h
0801FDAC 1AC0     sub     r0,r0,r3
0801FDAE 00C0     lsl     r0,r0,3h
0801FDB0 1840     add     r0,r0,r1
0801FDB2 3020     add     r0,20h
0801FDB4 7002     strb    r2,[r0]
0801FDB6 BC01     pop     r0
0801FDB8 4700     bx      r0
0801FDBA 0000     lsl     r0,r0,0h
0801FDBC 01AC     lsl     r4,r5,6h
0801FDBE 0300     lsl     r0,r0,0Ch
0801FDC0 480D     ldr     r0,=3000738h
0801FDC2 4684     mov     r12,r0
0801FDC4 480D     ldr     r0,=82D4DC4h
0801FDC6 4661     mov     r1,r12
0801FDC8 6188     str     r0,[r1,18h]
0801FDCA 2000     mov     r0,0h
0801FDCC 7708     strb    r0,[r1,1Ch]
0801FDCE 2300     mov     r3,0h
0801FDD0 82C8     strh    r0,[r1,16h]
0801FDD2 3124     add     r1,24h
0801FDD4 2047     mov     r0,47h
0801FDD6 7008     strb    r0,[r1]
0801FDD8 3108     add     r1,8h
0801FDDA 203C     mov     r0,3Ch
0801FDDC 7008     strb    r0,[r1]
0801FDDE 4660     mov     r0,r12
0801FDE0 3020     add     r0,20h
0801FDE2 7003     strb    r3,[r0]
0801FDE4 4A06     ldr     r2,=30001ACh
0801FDE6 300F     add     r0,0Fh
0801FDE8 7801     ldrb    r1,[r0]
0801FDEA 00C8     lsl     r0,r1,3h
0801FDEC 1A40     sub     r0,r0,r1
0801FDEE 00C0     lsl     r0,r0,3h
0801FDF0 1880     add     r0,r0,r2
0801FDF2 3020     add     r0,20h
0801FDF4 7003     strb    r3,[r0]
0801FDF6 4770     bx      r14
0801FDF8 0738     lsl     r0,r7,1Ch
0801FDFA 0300     lsl     r0,r0,0Ch
0801FDFC 4DC4     ldr     r5,=46844811h
0801FDFE 082D     lsr     r5,r5,20h
0801FE00 01AC     lsl     r4,r5,6h
0801FE02 0300     lsl     r0,r0,0Ch
0801FE04 B510     push    r4,lr
0801FE06 B082     add     sp,-8h
0801FE08 4C0E     ldr     r4,=3000738h
0801FE0A 1C21     mov     r1,r4
0801FE0C 312C     add     r1,2Ch
0801FE0E 7808     ldrb    r0,[r1]
0801FE10 3801     sub     r0,1h
0801FE12 7008     strb    r0,[r1]
0801FE14 0600     lsl     r0,r0,18h
0801FE16 0E02     lsr     r2,r0,18h
0801FE18 2A00     cmp     r2,0h
0801FE1A D10E     bne     801FE3Ah
0801FE1C 3908     sub     r1,8h
0801FE1E 2049     mov     r0,49h
0801FE20 7008     strb    r0,[r1]
0801FE22 8863     ldrh    r3,[r4,2h]
0801FE24 88A0     ldrh    r0,[r4,4h]
0801FE26 9000     str     r0,[sp]
0801FE28 9201     str     r2,[sp,4h]
0801FE2A 2011     mov     r0,11h
0801FE2C 2117     mov     r1,17h
0801FE2E 2206     mov     r2,6h
0801FE30 F7EEFA74 bl      800E31Ch
0801FE34 1C21     mov     r1,r4
0801FE36 312D     add     r1,2Dh
0801FE38 7008     strb    r0,[r1]
0801FE3A B002     add     sp,8h
0801FE3C BC10     pop     r4
0801FE3E BC01     pop     r0
0801FE40 4700     bx      r0
0801FE42 0000     lsl     r0,r0,0h
0801FE44 0738     lsl     r0,r7,1Ch
0801FE46 0300     lsl     r0,r0,0Ch
0801FE48 B500     push    lr
0801FE4A 4B0B     ldr     r3,=3000738h
0801FE4C 1C18     mov     r0,r3
0801FE4E 302D     add     r0,2Dh
0801FE50 7801     ldrb    r1,[r0]
0801FE52 4A0A     ldr     r2,=30001ACh
0801FE54 00C8     lsl     r0,r1,3h
0801FE56 1A40     sub     r0,r0,r1
0801FE58 00C0     lsl     r0,r0,3h
0801FE5A 1880     add     r0,r0,r2
0801FE5C 3024     add     r0,24h
0801FE5E 7800     ldrb    r0,[r0]
0801FE60 2825     cmp     r0,25h
0801FE62 D106     bne     801FE72h
0801FE64 1C19     mov     r1,r3
0801FE66 3124     add     r1,24h
0801FE68 204B     mov     r0,4Bh
0801FE6A 7008     strb    r0,[r1]
0801FE6C 3108     add     r1,8h
0801FE6E 200A     mov     r0,0Ah
0801FE70 7008     strb    r0,[r1]
0801FE72 BC01     pop     r0
0801FE74 4700     bx      r0
0801FE76 0000     lsl     r0,r0,0h
0801FE78 0738     lsl     r0,r7,1Ch
0801FE7A 0300     lsl     r0,r0,0Ch
0801FE7C 01AC     lsl     r4,r5,6h
0801FE7E 0300     lsl     r0,r0,0Ch
0801FE80 B500     push    lr
0801FE82 4A07     ldr     r2,=3000738h
0801FE84 1C11     mov     r1,r2
0801FE86 312C     add     r1,2Ch
0801FE88 7808     ldrb    r0,[r1]
0801FE8A 3801     sub     r0,1h
0801FE8C 7008     strb    r0,[r1]
0801FE8E 0600     lsl     r0,r0,18h
0801FE90 2800     cmp     r0,0h
0801FE92 D102     bne     801FE9Ah
0801FE94 3908     sub     r1,8h
0801FE96 2028     mov     r0,28h
0801FE98 7008     strb    r0,[r1]
0801FE9A BC01     pop     r0
0801FE9C 4700     bx      r0
0801FE9E 0000     lsl     r0,r0,0h
0801FEA0 0738     lsl     r0,r7,1Ch
0801FEA2 0300     lsl     r0,r0,0Ch
0801FEA4 B530     push    r4,r5,lr
0801FEA6 4B12     ldr     r3,=3000738h
0801FEA8 1C18     mov     r0,r3
0801FEAA 3023     add     r0,23h
0801FEAC 7804     ldrb    r4,[r0]
0801FEAE 8819     ldrh    r1,[r3]
0801FEB0 4810     ldr     r0,=0FFFBh
0801FEB2 4008     and     r0,r1
0801FEB4 2500     mov     r5,0h
0801FEB6 2200     mov     r2,0h
0801FEB8 8018     strh    r0,[r3]
0801FEBA 2032     mov     r0,32h
0801FEBC 18C0     add     r0,r0,r3
0801FEBE 4684     mov     r12,r0
0801FEC0 7801     ldrb    r1,[r0]
0801FEC2 2001     mov     r0,1h
0801FEC4 4308     orr     r0,r1
0801FEC6 4661     mov     r1,r12
0801FEC8 7008     strb    r0,[r1]
0801FECA 1C18     mov     r0,r3
0801FECC 3025     add     r0,25h
0801FECE 7005     strb    r5,[r0]
0801FED0 4909     ldr     r1,=0FFFCh
0801FED2 8159     strh    r1,[r3,0Ah]
0801FED4 2004     mov     r0,4h
0801FED6 8198     strh    r0,[r3,0Ch]
0801FED8 81D9     strh    r1,[r3,0Eh]
0801FEDA 8218     strh    r0,[r3,10h]
0801FEDC 771D     strb    r5,[r3,1Ch]
0801FEDE 82DA     strh    r2,[r3,16h]
0801FEE0 7F98     ldrb    r0,[r3,1Eh]
0801FEE2 2801     cmp     r0,1h
0801FEE4 D03A     beq     801FF5Ch
0801FEE6 2801     cmp     r0,1h
0801FEE8 DC08     bgt     801FEFCh
0801FEEA 2800     cmp     r0,0h
0801FEEC D00B     beq     801FF06h
0801FEEE E089     b       8020004h
0801FEF0 0738     lsl     r0,r7,1Ch
0801FEF2 0300     lsl     r0,r0,0Ch
0801FEF4 FFFB0000 ????
0801FEF6 0000     lsl     r0,r0,0h
0801FEF8 FFFC0000 ????
0801FEFA 0000     lsl     r0,r0,0h
0801FEFC 2802     cmp     r0,2h
0801FEFE D043     beq     801FF88h
0801FF00 2803     cmp     r0,3h
0801FF02 D059     beq     801FFB8h
0801FF04 E07E     b       8020004h
0801FF06 1C19     mov     r1,r3
0801FF08 3127     add     r1,27h
0801FF0A 2050     mov     r0,50h
0801FF0C 7008     strb    r0,[r1]
0801FF0E 1C18     mov     r0,r3
0801FF10 3028     add     r0,28h
0801FF12 7005     strb    r5,[r0]
0801FF14 3102     add     r1,2h
0801FF16 2018     mov     r0,18h
0801FF18 7008     strb    r0,[r1]
0801FF1A 4909     ldr     r1,=30001ACh
0801FF1C 00E0     lsl     r0,r4,3h
0801FF1E 1B00     sub     r0,r0,r4
0801FF20 00C0     lsl     r0,r0,3h
0801FF22 1840     add     r0,r0,r1
0801FF24 3024     add     r0,24h
0801FF26 7800     ldrb    r0,[r0]
0801FF28 2828     cmp     r0,28h
0801FF2A D10D     bne     801FF48h
0801FF2C 4805     ldr     r0,=82D5024h
0801FF2E 6198     str     r0,[r3,18h]
0801FF30 209B     mov     r0,09Bh
0801FF32 0040     lsl     r0,r0,1h
0801FF34 80D8     strh    r0,[r3,6h]
0801FF36 1C19     mov     r1,r3
0801FF38 3124     add     r1,24h
0801FF3A 2025     mov     r0,25h
0801FF3C 7008     strb    r0,[r1]
0801FF3E E063     b       8020008h
0801FF40 01AC     lsl     r4,r5,6h
0801FF42 0300     lsl     r0,r0,0Ch
0801FF44 5024     str     r4,[r4,r0]
0801FF46 082D     lsr     r5,r5,20h
0801FF48 4803     ldr     r0,=82D4E84h
0801FF4A 6198     str     r0,[r3,18h]
0801FF4C 1C19     mov     r1,r3
0801FF4E 3124     add     r1,24h
0801FF50 2009     mov     r0,9h
0801FF52 7008     strb    r0,[r1]
0801FF54 E058     b       8020008h
0801FF56 0000     lsl     r0,r0,0h
0801FF58 4E84     ldr     r6,=2B000C03h
0801FF5A 082D     lsr     r5,r5,20h
0801FF5C 1C19     mov     r1,r3
0801FF5E 3122     add     r1,22h
0801FF60 200C     mov     r0,0Ch
0801FF62 7008     strb    r0,[r1]
0801FF64 4807     ldr     r0,=82D4FBCh
0801FF66 6198     str     r0,[r3,18h]
0801FF68 3105     add     r1,5h
0801FF6A 2050     mov     r0,50h
0801FF6C 7008     strb    r0,[r1]
0801FF6E 1C18     mov     r0,r3
0801FF70 3028     add     r0,28h
0801FF72 7005     strb    r5,[r0]
0801FF74 3102     add     r1,2h
0801FF76 2018     mov     r0,18h
0801FF78 7008     strb    r0,[r1]
0801FF7A 3905     sub     r1,5h
0801FF7C 2029     mov     r0,29h
0801FF7E 7008     strb    r0,[r1]
0801FF80 E042     b       8020008h
0801FF82 0000     lsl     r0,r0,0h
0801FF84 4FBC     ldr     r7,=80203CCh
0801FF86 082D     lsr     r5,r5,20h
0801FF88 1C19     mov     r1,r3
0801FF8A 3122     add     r1,22h
0801FF8C 2005     mov     r0,5h
0801FF8E 7008     strb    r0,[r1]
0801FF90 4808     ldr     r0,=82D50ECh
0801FF92 6198     str     r0,[r3,18h]
0801FF94 3105     add     r1,5h
0801FF96 2008     mov     r0,8h
0801FF98 7008     strb    r0,[r1]
0801FF9A 1C18     mov     r0,r3
0801FF9C 3028     add     r0,28h
0801FF9E 7005     strb    r5,[r0]
0801FFA0 3102     add     r1,2h
0801FFA2 2018     mov     r0,18h
0801FFA4 7008     strb    r0,[r1]
0801FFA6 3905     sub     r1,5h
0801FFA8 202B     mov     r0,2Bh
0801FFAA 7008     strb    r0,[r1]
0801FFAC 3108     add     r1,8h
0801FFAE 2060     mov     r0,60h
0801FFB0 7008     strb    r0,[r1]
0801FFB2 E029     b       8020008h
0801FFB4 50EC     str     r4,[r5,r3]
0801FFB6 082D     lsr     r5,r5,20h
0801FFB8 1C19     mov     r1,r3
0801FFBA 3122     add     r1,22h
0801FFBC 7008     strb    r0,[r1]
0801FFBE 1C18     mov     r0,r3
0801FFC0 3027     add     r0,27h
0801FFC2 2220     mov     r2,20h
0801FFC4 7002     strb    r2,[r0]
0801FFC6 3106     add     r1,6h
0801FFC8 2040     mov     r0,40h
0801FFCA 7008     strb    r0,[r1]
0801FFCC 1C18     mov     r0,r3
0801FFCE 3029     add     r0,29h
0801FFD0 7002     strb    r2,[r0]
0801FFD2 3904     sub     r1,4h
0801FFD4 2043     mov     r0,43h
0801FFD6 7008     strb    r0,[r1]
0801FFD8 4905     ldr     r1,=30001ACh
0801FFDA 00E0     lsl     r0,r4,3h
0801FFDC 1B00     sub     r0,r0,r4
0801FFDE 00C0     lsl     r0,r0,3h
0801FFE0 1840     add     r0,r0,r1
0801FFE2 3024     add     r0,24h
0801FFE4 7800     ldrb    r0,[r0]
0801FFE6 2828     cmp     r0,28h
0801FFE8 D106     bne     801FFF8h
0801FFEA 4802     ldr     r0,=82D4E44h
0801FFEC 6198     str     r0,[r3,18h]
0801FFEE E00B     b       8020008h
0801FFF0 01AC     lsl     r4,r5,6h
0801FFF2 0300     lsl     r0,r0,0Ch
0801FFF4 4E44     ldr     r6,=82D5024h
0801FFF6 082D     lsr     r5,r5,20h
0801FFF8 4801     ldr     r0,=82D4E04h
0801FFFA 6198     str     r0,[r3,18h]
0801FFFC E004     b       8020008h
0801FFFE 0000     lsl     r0,r0,0h
08020000 4E04     ldr     r6,=48054904h
08020002 082D     lsr     r5,r5,20h
08020004 2000     mov     r0,0h
08020006 8018     strh    r0,[r3]
08020008 BC30     pop     r4,r5
0802000A BC01     pop     r0
0802000C 4700     bx      r0
0802000E 0000     lsl     r0,r0,0h
08020010 4770     bx      r14
08020012 0000     lsl     r0,r0,0h
08020014 4904     ldr     r1,=3000738h
08020016 4805     ldr     r0,=82D4E14h
08020018 6188     str     r0,[r1,18h]
0802001A 2000     mov     r0,0h
0802001C 7708     strb    r0,[r1,1Ch]
0802001E 82C8     strh    r0,[r1,16h]
08020020 3124     add     r1,24h
08020022 2045     mov     r0,45h
08020024 7008     strb    r0,[r1]
08020026 4770     bx      r14
08020028 0738     lsl     r0,r7,1Ch
0802002A 0300     lsl     r0,r0,0Ch
0802002C 4E14     ldr     r6,=3000738h
0802002E 082D     lsr     r5,r5,20h
08020030 B500     push    lr
08020032 F7EFFDC9 bl      800FBC8h
08020036 2800     cmp     r0,0h
08020038 D009     beq     802004Eh
0802003A 4906     ldr     r1,=3000738h
0802003C 1C0A     mov     r2,r1
0802003E 3224     add     r2,24h
08020040 2300     mov     r3,0h
08020042 2043     mov     r0,43h
08020044 7010     strb    r0,[r2]
08020046 4804     ldr     r0,=82D4E44h
08020048 6188     str     r0,[r1,18h]
0802004A 770B     strb    r3,[r1,1Ch]
0802004C 82CB     strh    r3,[r1,16h]
0802004E BC01     pop     r0
08020050 4700     bx      r0
08020052 0000     lsl     r0,r0,0h
08020054 0738     lsl     r0,r7,1Ch
08020056 0300     lsl     r0,r0,0Ch
08020058 4E44     ldr     r6,=2B000C03h
0802005A 082D     lsr     r5,r5,20h
0802005C B500     push    lr
0802005E 4908     ldr     r1,=3000738h
08020060 4808     ldr     r0,=82D4E54h
08020062 6188     str     r0,[r1,18h]
08020064 2000     mov     r0,0h
08020066 7708     strb    r0,[r1,1Ch]
08020068 82C8     strh    r0,[r1,16h]
0802006A 3124     add     r1,24h
0802006C 2047     mov     r0,47h
0802006E 7008     strb    r0,[r1]
08020070 4905     ldr     r1,=30013D4h
08020072 2001     mov     r0,1h
08020074 7288     strb    r0,[r1,0Ah]
08020076 4805     ldr     r0,=115h
08020078 F7E2FCCE bl      8002A18h
0802007C BC01     pop     r0
0802007E 4700     bx      r0
08020080 0738     lsl     r0,r7,1Ch
08020082 0300     lsl     r0,r0,0Ch
08020084 4E54     ldr     r6,=80082000h
08020086 082D     lsr     r5,r5,20h
08020088 13D4     asr     r4,r2,0Fh
0802008A 0300     lsl     r0,r0,0Ch
0802008C 0115     lsl     r5,r2,4h
0802008E 0000     lsl     r0,r0,0h
08020090 B500     push    lr
08020092 F7EFFD99 bl      800FBC8h
08020096 2800     cmp     r0,0h
08020098 D009     beq     80200AEh
0802009A 4906     ldr     r1,=3000738h
0802009C 1C0A     mov     r2,r1
0802009E 3224     add     r2,24h
080200A0 2300     mov     r3,0h
080200A2 2043     mov     r0,43h
080200A4 7010     strb    r0,[r2]
080200A6 4804     ldr     r0,=82D4E04h
080200A8 6188     str     r0,[r1,18h]
080200AA 770B     strb    r3,[r1,1Ch]
080200AC 82CB     strh    r3,[r1,16h]
080200AE BC01     pop     r0
080200B0 4700     bx      r0
080200B2 0000     lsl     r0,r0,0h
080200B4 0738     lsl     r0,r7,1Ch
080200B6 0300     lsl     r0,r0,0Ch
080200B8 4E04     ldr     r6,=24003124h
080200BA 082D     lsr     r5,r5,20h
080200BC B530     push    r4,r5,lr
080200BE B083     add     sp,-0Ch
080200C0 F7EFFD82 bl      800FBC8h
080200C4 2800     cmp     r0,0h
080200C6 D019     beq     80200FCh
080200C8 4D0E     ldr     r5,=3000738h
080200CA 1C29     mov     r1,r5
080200CC 3124     add     r1,24h
080200CE 2400     mov     r4,0h
