0800DF84 B5F0     push    r4-r7,lr
0800DF86 4657     mov     r7,r10
0800DF88 464E     mov     r6,r9
0800DF8A 4645     mov     r5,r8
0800DF8C B4E0     push    r5-r7
0800DF8E 2700     mov     r7,0h
0800DF90 4D32     ldr     r5,=3000078h   ;SpriteSet 号
0800DF92 4E33     ldr     r6,=875F31Ch
0800DF94 4C33     ldr     r4,=30006ECh   ;精灵set IDs
0800DF96 2300     mov     r3,0h
0800DF98 2210     mov     r2,10h
0800DF9A 4933     ldr     r1,=30006FBh   ;精灵set GfxRow
0800DF9C 1938     add     r0,r7,r4
0800DF9E 7002     strb    r2,[r0]
0800DFA0 1878     add     r0,r7,r1
0800DFA2 7003     strb    r3,[r0]
0800DFA4 3701     add     r7,1h
0800DFA6 2F0E     cmp     r7,0Eh
0800DFA8 DDF8     ble     800DF9Ch
0800DFAA 20FF     mov     r0,0FFh
0800DFAC 4681     mov     r9,r0
0800DFAE 7829     ldrb    r1,[r5]
0800DFB0 2970     cmp     r1,70h
0800DFB2 DD05     ble     800DFC0h
0800DFB4 482D     ldr     r0,=3000054h
0800DFB6 7800     ldrb    r0,[r0]
0800DFB8 2100     mov     r1,0h
0800DFBA 2807     cmp     r0,7h
0800DFBC D900     bls     800DFC0h
0800DFBE 2171     mov     r1,71h
0800DFC0 2700     mov     r7,0h
0800DFC2 0088     lsl     r0,r1,2h
0800DFC4 1981     add     r1,r0,r6
0800DFC6 6809     ldr     r1,[r1]
0800DFC8 780D     ldrb    r5,[r1]
0800DFCA 784E     ldrb    r6,[r1,1h]
0800DFCC 2101     mov     r1,1h
0800DFCE 4688     mov     r8,r1
0800DFD0 4682     mov     r10,r0
0800DFD2 2D00     cmp     r5,0h
0800DFD4 D03B     beq     800E04Eh
0800DFD6 4823     ldr     r0,=30006ECh
0800DFD8 1838     add     r0,r7,r0
0800DFDA 7005     strb    r5,[r0]
0800DFDC 4922     ldr     r1,=30006FBh
0800DFDE 1879     add     r1,r7,r1
0800DFE0 2207     mov     r2,7h
0800DFE2 1C30     mov     r0,r6
0800DFE4 4010     and     r0,r2
0800DFE6 7008     strb    r0,[r1]
0800DFE8 454E     cmp     r6,r9
0800DFEA D021     beq     800E030h
0800DFEC 46B1     mov     r9,r6
0800DFEE 2E08     cmp     r6,8h
0800DFF0 D01E     beq     800E030h
0800DFF2 3D10     sub     r5,10h
0800DFF4 4C1E     ldr     r4,=875EBF8h
0800DFF6 00AD     lsl     r5,r5,2h
0800DFF8 192C     add     r4,r5,r4
0800DFFA 6820     ldr     r0,[r4]
0800DFFC 02F1     lsl     r1,r6,0Bh
0800DFFE 4A1D     ldr     r2,=6014000h
0800E000 1889     add     r1,r1,r2
0800E002 F7F7F8CF bl      80051A4h
0800E006 6820     ldr     r0,[r4]
0800E008 7842     ldrb    r2,[r0,1h]
0800E00A 7881     ldrb    r1,[r0,2h]
0800E00C 0209     lsl     r1,r1,8h
0800E00E 4B1A     ldr     r3,=40000D4h
0800E010 481A     ldr     r0,=875EEF0h
0800E012 182D     add     r5,r5,r0
0800E014 6828     ldr     r0,[r5]
0800E016 6018     str     r0,[r3]
0800E018 0170     lsl     r0,r6,5h
0800E01A 4C19     ldr     r4,=5000300h
0800E01C 1900     add     r0,r0,r4
0800E01E 6058     str     r0,[r3,4h]
0800E020 430A     orr     r2,r1
0800E022 12D0     asr     r0,r2,0Bh
0800E024 0100     lsl     r0,r0,4h
0800E026 2180     mov     r1,80h
0800E028 0609     lsl     r1,r1,18h
0800E02A 4308     orr     r0,r1
0800E02C 6098     str     r0,[r3,8h]
0800E02E 6898     ldr     r0,[r3,8h]
0800E030 3701     add     r7,1h
0800E032 2F0E     cmp     r7,0Eh
0800E034 DC0B     bgt     800E04Eh
0800E036 480A     ldr     r0,=875F31Ch
0800E038 4450     add     r0,r10
0800E03A 6801     ldr     r1,[r0]
0800E03C 4642     mov     r2,r8
0800E03E 0050     lsl     r0,r2,1h
0800E040 1840     add     r0,r0,r1
0800E042 7805     ldrb    r5,[r0]
0800E044 7846     ldrb    r6,[r0,1h]
0800E046 2401     mov     r4,1h
0800E048 44A0     add     r8,r4
0800E04A 2D00     cmp     r5,0h
0800E04C D1C3     bne     800DFD6h
0800E04E BC38     pop     r3-r5
0800E050 4698     mov     r8,r3
0800E052 46A1     mov     r9,r4
0800E054 46AA     mov     r10,r5
0800E056 BCF0     pop     r4-r7
0800E058 BC01     pop     r0
0800E05A 4700     bx      r0
0800E05C 0078     lsl     r0,r7,1h
0800E05E 0300     lsl     r0,r0,0Ch
0800E060 F31C0875 ????
0800E062 0875     lsr     r5,r6,1h
0800E064 06EC     lsl     r4,r5,1Bh
0800E066 0300     lsl     r0,r0,0Ch
0800E068 06FB     lsl     r3,r7,1Bh
0800E06A 0300     lsl     r0,r0,0Ch
0800E06C 0054     lsl     r4,r2,1h
0800E06E 0300     lsl     r0,r0,0Ch
0800E070 EBF8     ????
0800E072 0875     lsr     r5,r6,1h
0800E074 4000     and     r0,r0
0800E076 0601     lsl     r1,r0,18h
0800E078 00D4     lsl     r4,r2,3h
0800E07A 0400     lsl     r0,r0,10h
0800E07C EEF0     ????
0800E07E 0875     lsr     r5,r6,1h
0800E080 0300     lsl     r0,r0,0Ch
0800E082 0500     lsl     r0,r0,14h
0800E084 B500     push    lr
0800E086 0600     lsl     r0,r0,18h
0800E088 0609     lsl     r1,r1,18h
0800E08A 22F0     mov     r2,0F0h
0800E08C 0612     lsl     r2,r2,18h
0800E08E 1880     add     r0,r0,r2
0800E090 4A05     ldr     r2,=875EBF8h
0800E092 0D80     lsr     r0,r0,16h
0800E094 1880     add     r0,r0,r2
0800E096 6800     ldr     r0,[r0]
0800E098 0B49     lsr     r1,r1,0Dh
0800E09A 4A04     ldr     r2,=6014000h
0800E09C 1889     add     r1,r1,r2
0800E09E F7F7F881 bl      80051A4h
0800E0A2 BC01     pop     r0
0800E0A4 4700     bx      r0
0800E0A6 0000     lsl     r0,r0,0h
0800E0A8 EBF8     ????
0800E0AA 0875     lsr     r5,r6,1h
0800E0AC 4000     and     r0,r0
0800E0AE 0601     lsl     r1,r0,18h
0800E0B0 B510     push    r4,lr
0800E0B2 0600     lsl     r0,r0,18h
0800E0B4 0609     lsl     r1,r1,18h
0800E0B6 0612     lsl     r2,r2,18h
0800E0B8 23F0     mov     r3,0F0h
0800E0BA 061B     lsl     r3,r3,18h
0800E0BC 18C0     add     r0,r0,r3
0800E0BE 4C09     ldr     r4,=40000D4h
0800E0C0 4B09     ldr     r3,=875EEF0h
0800E0C2 0D80     lsr     r0,r0,16h
0800E0C4 18C0     add     r0,r0,r3
0800E0C6 6800     ldr     r0,[r0]
0800E0C8 6020     str     r0,[r4]
0800E0CA 0CC9     lsr     r1,r1,13h
0800E0CC 4807     ldr     r0,=5000300h
0800E0CE 1809     add     r1,r1,r0
0800E0D0 6061     str     r1,[r4,4h]
0800E0D2 0D12     lsr     r2,r2,14h
0800E0D4 2080     mov     r0,80h
0800E0D6 0600     lsl     r0,r0,18h
0800E0D8 4302     orr     r2,r0
0800E0DA 60A2     str     r2,[r4,8h]
0800E0DC 68A0     ldr     r0,[r4,8h]
0800E0DE BC10     pop     r4
0800E0E0 BC01     pop     r0
0800E0E2 4700     bx      r0
0800E0E4 00D4     lsl     r4,r2,3h
0800E0E6 0400     lsl     r0,r0,10h
0800E0E8 EEF0     ????
0800E0EA 0875     lsr     r5,r6,1h
0800E0EC 0300     lsl     r0,r0,0Ch
0800E0EE 0500     lsl     r0,r0,14h
0800E0F0 B570     push    r4-r6,lr
0800E0F2 480E     ldr     r0,=30001ACh
0800E0F4 2600     mov     r6,0h
0800E0F6 2500     mov     r5,0h
0800E0F8 24FF     mov     r4,0FFh
0800E0FA 1C01     mov     r1,r0
0800E0FC 311E     add     r1,1Eh
0800E0FE 1C03     mov     r3,r0
0800E100 2217     mov     r2,17h
0800E102 801D     strh    r5,[r3]
0800E104 74CE     strb    r6,[r1,13h]
0800E106 7808     ldrb    r0,[r1]
0800E108 4320     orr     r0,r4
0800E10A 7008     strb    r0,[r1]
0800E10C 3138     add     r1,38h
0800E10E 3338     add     r3,38h
0800E110 3A01     sub     r2,1h
0800E112 2A00     cmp     r2,0h
0800E114 DAF5     bge     800E102h
0800E116 4906     ldr     r1,=3000770h
0800E118 2200     mov     r2,0h
0800E11A 1C08     mov     r0,r1
0800E11C 3070     add     r0,70h
0800E11E 72C2     strb    r2,[r0,0Bh]
0800E120 3810     sub     r0,10h
0800E122 4288     cmp     r0,r1
0800E124 DAFB     bge     800E11Eh
0800E126 BC70     pop     r4-r6
0800E128 BC01     pop     r0
0800E12A 4700     bx      r0
0800E12C 01AC     lsl     r4,r5,6h
0800E12E 0300     lsl     r0,r0,0Ch
0800E130 0770     lsl     r0,r6,1Dh
0800E132 0300     lsl     r0,r0,0Ch
0800E134 B530     push    r4,r5,lr
0800E136 2400     mov     r4,0h
0800E138 490F     ldr     r1,=30000BCh
0800E13A 6888     ldr     r0,[r1,8h]
0800E13C 7803     ldrb    r3,[r0]
0800E13E 2BFF     cmp     r3,0FFh
0800E140 D016     beq     800E170h
0800E142 1C0D     mov     r5,r1
0800E144 68A9     ldr     r1,[r5,8h]
0800E146 0060     lsl     r0,r4,1h
0800E148 1900     add     r0,r0,r4
0800E14A 1840     add     r0,r0,r1
0800E14C 7842     ldrb    r2,[r0,1h]
0800E14E 7880     ldrb    r0,[r0,2h]
0800E150 1C19     mov     r1,r3
0800E152 1C23     mov     r3,r4
0800E154 F000F812 bl      800E17Ch
0800E158 1C60     add     r0,r4,1
0800E15A 0600     lsl     r0,r0,18h
0800E15C 0E04     lsr     r4,r0,18h
0800E15E 2C17     cmp     r4,17h
0800E160 D806     bhi     800E170h
0800E162 68A9     ldr     r1,[r5,8h]
0800E164 0060     lsl     r0,r4,1h
0800E166 1900     add     r0,r0,r4
0800E168 1840     add     r0,r0,r1
0800E16A 7803     ldrb    r3,[r0]
0800E16C 2BFF     cmp     r3,0FFh
0800E16E D1E9     bne     800E144h
0800E170 BC30     pop     r4,r5
0800E172 BC01     pop     r0
0800E174 4700     bx      r0
0800E176 0000     lsl     r0,r0,0h
0800E178 00BC     lsl     r4,r7,2h
0800E17A 0300     lsl     r0,r0,0Ch
0800E17C B5F0     push    r4-r7,lr
0800E17E 4657     mov     r7,r10
0800E180 464E     mov     r6,r9
0800E182 4645     mov     r5,r8
0800E184 B4E0     push    r5-r7
0800E186 0600     lsl     r0,r0,18h
0800E188 0E04     lsr     r4,r0,18h
0800E18A 0409     lsl     r1,r1,10h
0800E18C 0C08     lsr     r0,r1,10h
0800E18E 0412     lsl     r2,r2,10h
0800E190 0C15     lsr     r5,r2,10h
0800E192 061B     lsl     r3,r3,18h
0800E194 0E1B     lsr     r3,r3,18h
0800E196 469A     mov     r10,r3
0800E198 2700     mov     r7,0h
0800E19A 4A16     ldr     r2,=30001ACh
0800E19C 23A8     mov     r3,0A8h
0800E19E 00DB     lsl     r3,r3,3h
0800E1A0 18D1     add     r1,r2,r3
0800E1A2 428A     cmp     r2,r1
0800E1A4 D250     bcs     800E248h
0800E1A6 2601     mov     r6,1h
0800E1A8 2300     mov     r3,0h
0800E1AA 0180     lsl     r0,r0,6h
0800E1AC 3040     add     r0,40h
0800E1AE 4681     mov     r9,r0
0800E1B0 4688     mov     r8,r1
0800E1B2 201D     mov     r0,1Dh
0800E1B4 1880     add     r0,r0,r2
0800E1B6 4684     mov     r12,r0
0800E1B8 01A8     lsl     r0,r5,6h
0800E1BA 1C05     mov     r5,r0
0800E1BC 3520     add     r5,20h
0800E1BE 8811     ldrh    r1,[r2]
0800E1C0 1C30     mov     r0,r6
0800E1C2 4008     and     r0,r1
0800E1C4 2800     cmp     r0,0h
0800E1C6 D137     bne     800E238h
0800E1C8 2100     mov     r1,0h
0800E1CA 8016     strh    r6,[r2]
0800E1CC 207F     mov     r0,7Fh
0800E1CE 4004     and     r4,r0
0800E1D0 2C10     cmp     r4,10h
0800E1D2 D915     bls     800E200h
0800E1D4 1E61     sub     r1,r4,1
0800E1D6 0609     lsl     r1,r1,18h
0800E1D8 20F0     mov     r0,0F0h
0800E1DA 0500     lsl     r0,r0,14h
0800E1DC 4008     and     r0,r1
0800E1DE 0E04     lsr     r4,r0,18h
0800E1E0 4905     ldr     r1,=30006FBh
0800E1E2 1860     add     r0,r4,r1
0800E1E4 7800     ldrb    r0,[r0]
0800E1E6 4661     mov     r1,r12
0800E1E8 7088     strb    r0,[r1,2h]
0800E1EA 4904     ldr     r1,=30006ECh
0800E1EC 1860     add     r0,r4,r1
0800E1EE 7800     ldrb    r0,[r0]
0800E1F0 E009     b       800E206h
0800E1F2 0000     lsl     r0,r0,0h
0800E1F4 01AC     lsl     r4,r5,6h
0800E1F6 0300     lsl     r0,r0,0Ch
0800E1F8 06FB     lsl     r3,r7,1Bh
0800E1FA 0300     lsl     r0,r0,0Ch
0800E1FC 06EC     lsl     r4,r5,1Bh
0800E1FE 0300     lsl     r0,r0,0Ch
0800E200 4660     mov     r0,r12
0800E202 7081     strb    r1,[r0,2h]
0800E204 1E60     sub     r0,r4,1
0800E206 4661     mov     r1,r12
0800E208 7008     strb    r0,[r1]
0800E20A 4660     mov     r0,r12
0800E20C 7543     strb    r3,[r0,15h]
0800E20E 4649     mov     r1,r9
0800E210 8051     strh    r1,[r2,2h]
0800E212 8095     strh    r5,[r2,4h]
0800E214 4651     mov     r1,r10
0800E216 7041     strb    r1,[r0,1h]
0800E218 2002     mov     r0,2h
0800E21A 4661     mov     r1,r12
0800E21C 7108     strb    r0,[r1,4h]
0800E21E 2004     mov     r0,4h
0800E220 7148     strb    r0,[r1,5h]
0800E222 71CB     strb    r3,[r1,7h]
0800E224 8293     strh    r3,[r2,14h]
0800E226 738B     strb    r3,[r1,0Eh]
0800E228 70CB     strb    r3,[r1,3h]
0800E22A 758B     strb    r3,[r1,16h]
0800E22C 75CB     strb    r3,[r1,17h]
0800E22E 724E     strb    r6,[r1,9h]
0800E230 718F     strb    r7,[r1,6h]
0800E232 74CB     strb    r3,[r1,13h]
0800E234 750B     strb    r3,[r1,14h]
0800E236 E007     b       800E248h
0800E238 1C78     add     r0,r7,1
0800E23A 0600     lsl     r0,r0,18h
0800E23C 0E07     lsr     r7,r0,18h
0800E23E 2038     mov     r0,38h
0800E240 4484     add     r12,r0
0800E242 3238     add     r2,38h
0800E244 4542     cmp     r2,r8
0800E246 D3BA     bcc     800E1BEh
0800E248 BC38     pop     r3-r5
0800E24A 4698     mov     r8,r3
0800E24C 46A1     mov     r9,r4
0800E24E 46AA     mov     r10,r5
0800E250 BCF0     pop     r4-r7
0800E252 BC01     pop     r0
0800E254 4700     bx      r0
0800E256 0000     lsl     r0,r0,0h
0800E258 B5F0     push    r4-r7,lr
0800E25A 4657     mov     r7,r10
0800E25C 464E     mov     r6,r9
0800E25E 4645     mov     r5,r8
0800E260 B4E0     push    r5-r7
0800E262 B081     add     sp,-4h
0800E264 9C09     ldr     r4,[sp,24h]
0800E266 9D0A     ldr     r5,[sp,28h]
0800E268 9E0B     ldr     r6,[sp,2Ch]
0800E26A 0600     lsl     r0,r0,18h
0800E26C 0E00     lsr     r0,r0,18h
0800E26E 4681     mov     r9,r0
0800E270 0609     lsl     r1,r1,18h
0800E272 0E09     lsr     r1,r1,18h
0800E274 468A     mov     r10,r1
0800E276 0612     lsl     r2,r2,18h
0800E278 0E12     lsr     r2,r2,18h
0800E27A 4690     mov     r8,r2
0800E27C 061B     lsl     r3,r3,18h
0800E27E 0E1B     lsr     r3,r3,18h
0800E280 9300     str     r3,[sp]
0800E282 0424     lsl     r4,r4,10h
0800E284 0C27     lsr     r7,r4,10h
0800E286 042D     lsl     r5,r5,10h
0800E288 0C2D     lsr     r5,r5,10h
0800E28A 0436     lsl     r6,r6,10h
0800E28C 0C36     lsr     r6,r6,10h
0800E28E 2400     mov     r4,0h
0800E290 4A17     ldr     r2,=30001ACh
0800E292 21A8     mov     r1,0A8h
0800E294 00C9     lsl     r1,r1,3h
0800E296 1850     add     r0,r2,r1
0800E298 4282     cmp     r2,r0
0800E29A D234     bcs     800E306h
0800E29C 2007     mov     r0,7h
0800E29E 2100     mov     r1,0h
0800E2A0 4306     orr     r6,r0
0800E2A2 201D     mov     r0,1Dh
0800E2A4 1880     add     r0,r0,r2
0800E2A6 4684     mov     r12,r0
0800E2A8 8810     ldrh    r0,[r2]
0800E2AA 2301     mov     r3,1h
0800E2AC 4003     and     r3,r0
0800E2AE 2B00     cmp     r3,0h
0800E2B0 D120     bne     800E2F4h
0800E2B2 8016     strh    r6,[r2]
0800E2B4 2080     mov     r0,80h
0800E2B6 4666     mov     r6,r12
0800E2B8 7570     strb    r0,[r6,15h]
0800E2BA 4640     mov     r0,r8
0800E2BC 70B0     strb    r0,[r6,2h]
0800E2BE 4648     mov     r0,r9
0800E2C0 7030     strb    r0,[r6]
0800E2C2 8057     strh    r7,[r2,2h]
0800E2C4 8095     strh    r5,[r2,4h]
0800E2C6 4655     mov     r5,r10
0800E2C8 7075     strb    r5,[r6,1h]
0800E2CA 2002     mov     r0,2h
0800E2CC 7130     strb    r0,[r6,4h]
0800E2CE 2004     mov     r0,4h
0800E2D0 7170     strb    r0,[r6,5h]
0800E2D2 71F1     strb    r1,[r6,7h]
0800E2D4 8293     strh    r3,[r2,14h]
0800E2D6 73B1     strb    r1,[r6,0Eh]
0800E2D8 70F1     strb    r1,[r6,3h]
0800E2DA 75B1     strb    r1,[r6,16h]
0800E2DC 75F1     strb    r1,[r6,17h]
0800E2DE 2001     mov     r0,1h
0800E2E0 7270     strb    r0,[r6,9h]
0800E2E2 466A     mov     r2,r13
0800E2E4 7812     ldrb    r2,[r2]
0800E2E6 71B2     strb    r2,[r6,6h]
0800E2E8 74F1     strb    r1,[r6,13h]
0800E2EA 7531     strb    r1,[r6,14h]
0800E2EC 1C20     mov     r0,r4
0800E2EE E00B     b       800E308h
0800E2F0 01AC     lsl     r4,r5,6h
0800E2F2 0300     lsl     r0,r0,0Ch
0800E2F4 1C60     add     r0,r4,1
0800E2F6 0600     lsl     r0,r0,18h
0800E2F8 0E04     lsr     r4,r0,18h
0800E2FA 2038     mov     r0,38h
0800E2FC 4484     add     r12,r0
0800E2FE 3238     add     r2,38h
0800E300 4805     ldr     r0,=30006ECh
0800E302 4282     cmp     r2,r0
0800E304 D3D0     bcc     800E2A8h
0800E306 20FF     mov     r0,0FFh
0800E308 B001     add     sp,4h
0800E30A BC38     pop     r3-r5
0800E30C 4698     mov     r8,r3
0800E30E 46A1     mov     r9,r4
0800E310 46AA     mov     r10,r5
0800E312 BCF0     pop     r4-r7
0800E314 BC02     pop     r1
0800E316 4708     bx      r1
0800E318 06EC     lsl     r4,r5,1Bh
0800E31A 0300     lsl     r0,r0,0Ch
0800E31C B5F0     push    r4-r7,lr
0800E31E 4657     mov     r7,r10
0800E320 464E     mov     r6,r9
0800E322 4645     mov     r5,r8
0800E324 B4E0     push    r5-r7
0800E326 9C08     ldr     r4,[sp,20h]
0800E328 9D09     ldr     r5,[sp,24h]
0800E32A 0600     lsl     r0,r0,18h
0800E32C 0E00     lsr     r0,r0,18h
0800E32E 4681     mov     r9,r0
0800E330 0609     lsl     r1,r1,18h
0800E332 0E09     lsr     r1,r1,18h
0800E334 468A     mov     r10,r1
0800E336 0612     lsl     r2,r2,18h
0800E338 0E17     lsr     r7,r2,18h
0800E33A 041B     lsl     r3,r3,10h
0800E33C 0C1B     lsr     r3,r3,10h
0800E33E 4698     mov     r8,r3
0800E340 0424     lsl     r4,r4,10h
0800E342 0C26     lsr     r6,r4,10h
0800E344 042D     lsl     r5,r5,10h
0800E346 0C2D     lsr     r5,r5,10h
0800E348 2400     mov     r4,0h
0800E34A 4A17     ldr     r2,=30001ACh
0800E34C 21A8     mov     r1,0A8h
0800E34E 00C9     lsl     r1,r1,3h
0800E350 1850     add     r0,r2,r1
0800E352 4282     cmp     r2,r0
0800E354 D233     bcs     800E3BEh
0800E356 2007     mov     r0,7h
0800E358 2100     mov     r1,0h
0800E35A 4305     orr     r5,r0
0800E35C 201D     mov     r0,1Dh
0800E35E 1880     add     r0,r0,r2
0800E360 4684     mov     r12,r0
0800E362 8810     ldrh    r0,[r2]
0800E364 2301     mov     r3,1h
0800E366 4003     and     r3,r0
0800E368 2B00     cmp     r3,0h
0800E36A D11F     bne     800E3ACh
0800E36C 8015     strh    r5,[r2]
0800E36E 4665     mov     r5,r12
0800E370 7569     strb    r1,[r5,15h]
0800E372 70AF     strb    r7,[r5,2h]
0800E374 4648     mov     r0,r9
0800E376 7028     strb    r0,[r5]
0800E378 4645     mov     r5,r8
0800E37A 8055     strh    r5,[r2,2h]
0800E37C 8096     strh    r6,[r2,4h]
0800E37E 4655     mov     r5,r10
0800E380 4660     mov     r0,r12
0800E382 7045     strb    r5,[r0,1h]
0800E384 2002     mov     r0,2h
0800E386 4665     mov     r5,r12
0800E388 7128     strb    r0,[r5,4h]
0800E38A 2004     mov     r0,4h
0800E38C 7168     strb    r0,[r5,5h]
0800E38E 71E9     strb    r1,[r5,7h]
0800E390 8293     strh    r3,[r2,14h]
0800E392 73A9     strb    r1,[r5,0Eh]
0800E394 70E9     strb    r1,[r5,3h]
0800E396 75A9     strb    r1,[r5,16h]
0800E398 75E9     strb    r1,[r5,17h]
0800E39A 2001     mov     r0,1h
0800E39C 7268     strb    r0,[r5,9h]
0800E39E 71AC     strb    r4,[r5,6h]
0800E3A0 74E9     strb    r1,[r5,13h]
0800E3A2 7529     strb    r1,[r5,14h]
0800E3A4 1C20     mov     r0,r4
0800E3A6 E00B     b       800E3C0h
0800E3A8 01AC     lsl     r4,r5,6h
0800E3AA 0300     lsl     r0,r0,0Ch
0800E3AC 1C60     add     r0,r4,1
0800E3AE 0600     lsl     r0,r0,18h
0800E3B0 0E04     lsr     r4,r0,18h
0800E3B2 2038     mov     r0,38h
0800E3B4 4484     add     r12,r0
0800E3B6 3238     add     r2,38h
0800E3B8 4805     ldr     r0,=30006ECh
0800E3BA 4282     cmp     r2,r0
0800E3BC D3D1     bcc     800E362h
0800E3BE 20FF     mov     r0,0FFh
0800E3C0 BC38     pop     r3-r5
0800E3C2 4698     mov     r8,r3
0800E3C4 46A1     mov     r9,r4
0800E3C6 46AA     mov     r10,r5
0800E3C8 BCF0     pop     r4-r7
0800E3CA BC02     pop     r1
0800E3CC 4708     bx      r1
0800E3CE 0000     lsl     r0,r0,0h
0800E3D0 06EC     lsl     r4,r5,1Bh
0800E3D2 0300     lsl     r0,r0,0Ch
0800E3D4 B5F0     push    r4-r7,lr
0800E3D6 4657     mov     r7,r10
0800E3D8 464E     mov     r6,r9
0800E3DA 4645     mov     r5,r8
0800E3DC B4E0     push    r5-r7
0800E3DE B081     add     sp,-4h
0800E3E0 9C09     ldr     r4,[sp,24h]
0800E3E2 9D0A     ldr     r5,[sp,28h]
0800E3E4 9E0B     ldr     r6,[sp,2Ch]
0800E3E6 0600     lsl     r0,r0,18h
0800E3E8 0E00     lsr     r0,r0,18h
0800E3EA 4681     mov     r9,r0
0800E3EC 0609     lsl     r1,r1,18h
0800E3EE 0E09     lsr     r1,r1,18h
0800E3F0 468A     mov     r10,r1
0800E3F2 0612     lsl     r2,r2,18h
0800E3F4 0E12     lsr     r2,r2,18h
0800E3F6 4690     mov     r8,r2
0800E3F8 061B     lsl     r3,r3,18h
0800E3FA 0E1B     lsr     r3,r3,18h
0800E3FC 9300     str     r3,[sp]
0800E3FE 0424     lsl     r4,r4,10h
0800E400 0C27     lsr     r7,r4,10h
0800E402 042D     lsl     r5,r5,10h
0800E404 0C2D     lsr     r5,r5,10h
0800E406 0436     lsl     r6,r6,10h
0800E408 0C36     lsr     r6,r6,10h
0800E40A 2400     mov     r4,0h
0800E40C 4A17     ldr     r2,=30001ACh
0800E40E 21A8     mov     r1,0A8h
0800E410 00C9     lsl     r1,r1,3h
0800E412 1850     add     r0,r2,r1
0800E414 4282     cmp     r2,r0
0800E416 D234     bcs     800E482h
0800E418 2007     mov     r0,7h
0800E41A 2100     mov     r1,0h
0800E41C 4306     orr     r6,r0
0800E41E 201D     mov     r0,1Dh
0800E420 1880     add     r0,r0,r2
0800E422 4684     mov     r12,r0
0800E424 8810     ldrh    r0,[r2]
0800E426 2301     mov     r3,1h
0800E428 4003     and     r3,r0
0800E42A 2B00     cmp     r3,0h
0800E42C D120     bne     800E470h
0800E42E 8016     strh    r6,[r2]
0800E430 4666     mov     r6,r12
0800E432 7571     strb    r1,[r6,15h]
0800E434 4640     mov     r0,r8
0800E436 70B0     strb    r0,[r6,2h]
0800E438 4648     mov     r0,r9
0800E43A 7030     strb    r0,[r6]
0800E43C 8057     strh    r7,[r2,2h]
0800E43E 8095     strh    r5,[r2,4h]
0800E440 4655     mov     r5,r10
0800E442 7075     strb    r5,[r6,1h]
0800E444 2002     mov     r0,2h
0800E446 7130     strb    r0,[r6,4h]
0800E448 2004     mov     r0,4h
0800E44A 7170     strb    r0,[r6,5h]
0800E44C 71F1     strb    r1,[r6,7h]
0800E44E 8293     strh    r3,[r2,14h]
0800E450 73B1     strb    r1,[r6,0Eh]
0800E452 70F1     strb    r1,[r6,3h]
0800E454 75B1     strb    r1,[r6,16h]
0800E456 75F1     strb    r1,[r6,17h]
0800E458 2001     mov     r0,1h
0800E45A 7270     strb    r0,[r6,9h]
0800E45C 466A     mov     r2,r13
0800E45E 7812     ldrb    r2,[r2]
0800E460 71B2     strb    r2,[r6,6h]
0800E462 74F1     strb    r1,[r6,13h]
0800E464 7531     strb    r1,[r6,14h]
0800E466 1C20     mov     r0,r4
0800E468 E00C     b       800E484h
0800E46A 0000     lsl     r0,r0,0h
0800E46C 01AC     lsl     r4,r5,6h
0800E46E 0300     lsl     r0,r0,0Ch
0800E470 1C60     add     r0,r4,1
0800E472 0600     lsl     r0,r0,18h
0800E474 0E04     lsr     r4,r0,18h
0800E476 2038     mov     r0,38h
0800E478 4484     add     r12,r0
0800E47A 3238     add     r2,38h
0800E47C 4805     ldr     r0,=30006ECh
0800E47E 4282     cmp     r2,r0
0800E480 D3D0     bcc     800E424h
0800E482 20FF     mov     r0,0FFh
0800E484 B001     add     sp,4h
0800E486 BC38     pop     r3-r5
0800E488 4698     mov     r8,r3
0800E48A 46A1     mov     r9,r4
0800E48C 46AA     mov     r10,r5
0800E48E BCF0     pop     r4-r7
0800E490 BC02     pop     r1
0800E492 4708     bx      r1
0800E494 06EC     lsl     r4,r5,1Bh
0800E496 0300     lsl     r0,r0,0Ch
0800E498 B510     push    r4,lr
0800E49A F004F81F bl      80124DCh
0800E49E 0600     lsl     r0,r0,18h
0800E4A0 0E04     lsr     r4,r0,18h
0800E4A2 2C07     cmp     r4,7h
0800E4A4 D82D     bhi     800E502h
0800E4A6 4818     ldr     r0,=30001ACh
0800E4A8 4684     mov     r12,r0
0800E4AA 2200     mov     r2,0h
0800E4AC 2300     mov     r3,0h
0800E4AE 4817     ldr     r0,=8017h
0800E4B0 4661     mov     r1,r12
0800E4B2 8008     strh    r0,[r1]
0800E4B4 3132     add     r1,32h
0800E4B6 2020     mov     r0,20h
0800E4B8 7008     strb    r0,[r1]
0800E4BA 4660     mov     r0,r12
0800E4BC 77C4     strb    r4,[r0,1Fh]
0800E4BE 2074     mov     r0,74h
0800E4C0 4661     mov     r1,r12
0800E4C2 7748     strb    r0,[r1,1Dh]
0800E4C4 4912     ldr     r1,=30013D4h
0800E4C6 8A88     ldrh    r0,[r1,14h]
0800E4C8 4664     mov     r4,r12
0800E4CA 8060     strh    r0,[r4,2h]
0800E4CC 8A48     ldrh    r0,[r1,12h]
0800E4CE 80A0     strh    r0,[r4,4h]
0800E4D0 4660     mov     r0,r12
0800E4D2 3021     add     r0,21h
0800E4D4 7002     strb    r2,[r0]
0800E4D6 3001     add     r0,1h
0800E4D8 2101     mov     r1,1h
0800E4DA 7001     strb    r1,[r0]
0800E4DC 3002     add     r0,2h
0800E4DE 7002     strb    r2,[r0]
0800E4E0 82A3     strh    r3,[r4,14h]
0800E4E2 3007     add     r0,7h
0800E4E4 7002     strb    r2,[r0]
0800E4E6 380B     sub     r0,0Bh
0800E4E8 7002     strb    r2,[r0]
0800E4EA 3013     add     r0,13h
0800E4EC 7002     strb    r2,[r0]
0800E4EE 3001     add     r0,1h
0800E4F0 7002     strb    r2,[r0]
0800E4F2 380E     sub     r0,0Eh
0800E4F4 7001     strb    r1,[r0]
0800E4F6 3803     sub     r0,3h
0800E4F8 7002     strb    r2,[r0]
0800E4FA 300D     add     r0,0Dh
0800E4FC 7002     strb    r2,[r0]
0800E4FE 3001     add     r0,1h
0800E500 7002     strb    r2,[r0]
0800E502 BC10     pop     r4
0800E504 BC01     pop     r0
0800E506 4700     bx      r0
0800E508 01AC     lsl     r4,r5,6h
0800E50A 0300     lsl     r0,r0,0Ch
0800E50C 8017     strh    r7,[r2]
0800E50E 0000     lsl     r0,r0,0h
0800E510 13D4     asr     r4,r2,0Fh
0800E512 0300     lsl     r0,r0,0Ch
0800E514 B5F0     push    r4-r7,lr
0800E516 464F     mov     r7,r9
0800E518 4646     mov     r6,r8
0800E51A B4C0     push    r6,r7
0800E51C 0400     lsl     r0,r0,10h
0800E51E 0C05     lsr     r5,r0,10h
0800E520 0409     lsl     r1,r1,10h
0800E522 0C09     lsr     r1,r1,10h
0800E524 4A1B     ldr     r2,=3001588h
0800E526 1C10     mov     r0,r2
0800E528 3072     add     r0,72h
0800E52A 8800     ldrh    r0,[r0]
0800E52C 1A09     sub     r1,r1,r0
0800E52E 0409     lsl     r1,r1,10h
0800E530 0C0C     lsr     r4,r1,10h
0800E532 46A1     mov     r9,r4
0800E534 1C17     mov     r7,r2
0800E536 376E     add     r7,6Eh
0800E538 2000     mov     r0,0h
0800E53A 5E39     ldsh    r1,[r7,r0]
0800E53C 1861     add     r1,r4,r1
0800E53E 1C28     mov     r0,r5
0800E540 F001F8A2 bl      800F688h
0800E544 4E14     ldr     r6,=30007F1h
0800E546 7832     ldrb    r2,[r6]
0800E548 4690     mov     r8,r2
0800E54A 2A00     cmp     r2,0h
0800E54C D11B     bne     800E586h
0800E54E 1C28     mov     r0,r5
0800E550 3840     sub     r0,40h
0800E552 2200     mov     r2,0h
0800E554 5EB9     ldsh    r1,[r7,r2]
0800E556 1861     add     r1,r4,r1
0800E558 F001F896 bl      800F688h
0800E55C 7830     ldrb    r0,[r6]
0800E55E 2800     cmp     r0,0h
0800E560 D003     beq     800E56Ah
0800E562 F001FFA1 bl      80104A8h
0800E566 2800     cmp     r0,0h
0800E568 D00D     beq     800E586h
0800E56A 4A0C     ldr     r2,=30013D4h
0800E56C 4648     mov     r0,r9
0800E56E 8250     strh    r0,[r2,12h]
0800E570 89D1     ldrh    r1,[r2,0Eh]
0800E572 2010     mov     r0,10h
0800E574 4008     and     r0,r1
0800E576 2800     cmp     r0,0h
0800E578 D005     beq     800E586h
0800E57A 4809     ldr     r0,=3001530h
0800E57C 88C0     ldrh    r0,[r0,6h]
0800E57E 2800     cmp     r0,0h
0800E580 D001     beq     800E586h
0800E582 4640     mov     r0,r8
0800E584 82D0     strh    r0,[r2,16h]
0800E586 BC18     pop     r3,r4
0800E588 4698     mov     r8,r3
0800E58A 46A1     mov     r9,r4
0800E58C BCF0     pop     r4-r7
0800E58E BC01     pop     r0
0800E590 4700     bx      r0
0800E592 0000     lsl     r0,r0,0h
0800E594 1588     asr     r0,r1,16h
0800E596 0300     lsl     r0,r0,0Ch
0800E598 07F1     lsl     r1,r6,1Fh
0800E59A 0300     lsl     r0,r0,0Ch
0800E59C 13D4     asr     r4,r2,0Fh
0800E59E 0300     lsl     r0,r0,0Ch
0800E5A0 1530     asr     r0,r6,14h
0800E5A2 0300     lsl     r0,r0,0Ch
0800E5A4 B5F0     push    r4-r7,lr
0800E5A6 464F     mov     r7,r9
0800E5A8 4646     mov     r6,r8
0800E5AA B4C0     push    r6,r7
0800E5AC 0400     lsl     r0,r0,10h
0800E5AE 0C05     lsr     r5,r0,10h
0800E5B0 0409     lsl     r1,r1,10h
0800E5B2 0C09     lsr     r1,r1,10h
0800E5B4 4A1B     ldr     r2,=3001588h
0800E5B6 1C10     mov     r0,r2
0800E5B8 306E     add     r0,6Eh
0800E5BA 8800     ldrh    r0,[r0]
0800E5BC 1A09     sub     r1,r1,r0
0800E5BE 0409     lsl     r1,r1,10h
0800E5C0 0C0C     lsr     r4,r1,10h
0800E5C2 46A1     mov     r9,r4
0800E5C4 1C17     mov     r7,r2
0800E5C6 3772     add     r7,72h
0800E5C8 2000     mov     r0,0h
0800E5CA 5E39     ldsh    r1,[r7,r0]
0800E5CC 1861     add     r1,r4,r1
0800E5CE 1C28     mov     r0,r5
0800E5D0 F001F85A bl      800F688h
0800E5D4 4E14     ldr     r6,=30007F1h
0800E5D6 7832     ldrb    r2,[r6]
0800E5D8 4690     mov     r8,r2
0800E5DA 2A00     cmp     r2,0h
0800E5DC D11C     bne     800E618h
0800E5DE 1C28     mov     r0,r5
0800E5E0 3840     sub     r0,40h
0800E5E2 2200     mov     r2,0h
0800E5E4 5EB9     ldsh    r1,[r7,r2]
0800E5E6 1861     add     r1,r4,r1
0800E5E8 F001F84E bl      800F688h
0800E5EC 7830     ldrb    r0,[r6]
0800E5EE 2800     cmp     r0,0h
0800E5F0 D003     beq     800E5FAh
0800E5F2 F001FF59 bl      80104A8h
0800E5F6 2800     cmp     r0,0h
0800E5F8 D00E     beq     800E618h
0800E5FA 4A0C     ldr     r2,=30013D4h
0800E5FC 4648     mov     r0,r9
0800E5FE 3001     add     r0,1h
0800E600 8250     strh    r0,[r2,12h]
0800E602 89D1     ldrh    r1,[r2,0Eh]
0800E604 2020     mov     r0,20h
0800E606 4008     and     r0,r1
0800E608 2800     cmp     r0,0h
0800E60A D005     beq     800E618h
0800E60C 4808     ldr     r0,=3001530h
0800E60E 88C0     ldrh    r0,[r0,6h]
0800E610 2800     cmp     r0,0h
0800E612 D001     beq     800E618h
0800E614 4640     mov     r0,r8
0800E616 82D0     strh    r0,[r2,16h]
0800E618 BC18     pop     r3,r4
0800E61A 4698     mov     r8,r3
0800E61C 46A1     mov     r9,r4
0800E61E BCF0     pop     r4-r7
0800E620 BC01     pop     r0
0800E622 4700     bx      r0
0800E624 1588     asr     r0,r1,16h
0800E626 0300     lsl     r0,r0,0Ch
0800E628 07F1     lsl     r1,r6,1Fh
0800E62A 0300     lsl     r0,r0,0Ch
0800E62C 13D4     asr     r4,r2,0Fh
0800E62E 0300     lsl     r0,r0,0Ch
0800E630 1530     asr     r0,r6,14h
0800E632 0300     lsl     r0,r0,0Ch
0800E634 B5F0     push    r4-r7,lr
0800E636 1C0B     mov     r3,r1
0800E638 0600     lsl     r0,r0,18h
0800E63A 0E07     lsr     r7,r0,18h
0800E63C 0412     lsl     r2,r2,10h
0800E63E 0C14     lsr     r4,r2,10h
0800E640 1C18     mov     r0,r3
0800E642 3032     add     r0,32h
0800E644 7801     ldrb    r1,[r0]
0800E646 2080     mov     r0,80h
0800E648 4008     and     r0,r1
0800E64A 2800     cmp     r0,0h
0800E64C D004     beq     800E658h
0800E64E 4A01     ldr     r2,=82B1BE4h
0800E650 E003     b       800E65Ah
0800E652 0000     lsl     r0,r0,0h
0800E654 1BE4     sub     r4,r4,r7
0800E656 082B     lsr     r3,r5,20h
0800E658 4A0A     ldr     r2,=82B0D68h
0800E65A 7F59     ldrb    r1,[r3,1Dh]
0800E65C 00C8     lsl     r0,r1,3h
0800E65E 1840     add     r0,r0,r1
0800E660 0040     lsl     r0,r0,1h
0800E662 3202     add     r2,2h
0800E664 1880     add     r0,r0,r2
0800E666 8803     ldrh    r3,[r0]
0800E668 1C18     mov     r0,r3
0800E66A 4360     mul     r0,r4
0800E66C 0405     lsl     r5,r0,10h
0800E66E 0C2B     lsr     r3,r5,10h
0800E670 4905     ldr     r1,=3001530h
0800E672 7BCA     ldrb    r2,[r1,0Fh]
0800E674 1C14     mov     r4,r2
0800E676 2030     mov     r0,30h
0800E678 4010     and     r0,r2
0800E67A 1C0E     mov     r6,r1
0800E67C 2830     cmp     r0,30h
0800E67E D105     bne     800E68Ch
0800E680 0C6B     lsr     r3,r5,11h
0800E682 E014     b       800E6AEh
0800E684 0D68     lsr     r0,r5,15h
0800E686 082B     lsr     r3,r5,20h
0800E688 1530     asr     r0,r6,14h
0800E68A 0300     lsl     r0,r0,0Ch
0800E68C 2020     mov     r0,20h
0800E68E 4002     and     r2,r0
0800E690 2A00     cmp     r2,0h
0800E692 D002     beq     800E69Ah
0800E694 00D8     lsl     r0,r3,3h
0800E696 1AC0     sub     r0,r0,r3
0800E698 E004     b       800E6A4h
0800E69A 2010     mov     r0,10h
0800E69C 4004     and     r4,r0
0800E69E 2C00     cmp     r4,0h
0800E6A0 D005     beq     800E6AEh
0800E6A2 00D8     lsl     r0,r3,3h
0800E6A4 210A     mov     r1,0Ah
0800E6A6 F07CFAC5 bl      808AC34h
0800E6AA 0400     lsl     r0,r0,10h
0800E6AC 0C03     lsr     r3,r0,10h
0800E6AE 4803     ldr     r0,=300002Ch
0800E6B0 7800     ldrb    r0,[r0]
0800E6B2 2800     cmp     r0,0h
0800E6B4 D104     bne     800E6C0h
0800E6B6 085B     lsr     r3,r3,1h
0800E6B8 E006     b       800E6C8h
0800E6BA 0000     lsl     r0,r0,0h
0800E6BC 002C     lsl     r4,r5,0h
0800E6BE 0300     lsl     r0,r0,0Ch
0800E6C0 2802     cmp     r0,2h
0800E6C2 D101     bne     800E6C8h
0800E6C4 0458     lsl     r0,r3,11h
0800E6C6 0C03     lsr     r3,r0,10h
0800E6C8 2B00     cmp     r3,0h
0800E6CA D100     bne     800E6CEh
0800E6CC 2301     mov     r3,1h
0800E6CE 88F0     ldrh    r0,[r6,6h]
0800E6D0 4298     cmp     r0,r3
0800E6D2 D908     bls     800E6E6h
0800E6D4 1AC0     sub     r0,r0,r3
0800E6D6 80F0     strh    r0,[r6,6h]
0800E6D8 2F00     cmp     r7,0h
0800E6DA D002     beq     800E6E2h
0800E6DC 20FA     mov     r0,0FAh
0800E6DE F7F8FF03 bl      80074E8h
0800E6E2 2001     mov     r0,1h
0800E6E4 E005     b       800E6F2h
0800E6E6 2000     mov     r0,0h
0800E6E8 80F0     strh    r0,[r6,6h]
0800E6EA 20FA     mov     r0,0FAh
0800E6EC F7F8FEFC bl      80074E8h
0800E6F0 2000     mov     r0,0h
0800E6F2 BCF0     pop     r4-r7
0800E6F4 BC02     pop     r1
0800E6F6 4708     bx      r1
0800E6F8 B5F0     push    r4-r7,lr
0800E6FA 4647     mov     r7,r8
0800E6FC B480     push    r7
0800E6FE 9C06     ldr     r4,[sp,18h]
0800E700 9D07     ldr     r5,[sp,1Ch]
0800E702 46A8     mov     r8,r5
0800E704 9D08     ldr     r5,[sp,20h]
0800E706 9E09     ldr     r6,[sp,24h]
0800E708 0400     lsl     r0,r0,10h
0800E70A 0409     lsl     r1,r1,10h
0800E70C 0C09     lsr     r1,r1,10h
0800E70E 0412     lsl     r2,r2,10h
0800E710 0C12     lsr     r2,r2,10h
0800E712 041B     lsl     r3,r3,10h
0800E714 0C1B     lsr     r3,r3,10h
0800E716 0424     lsl     r4,r4,10h
0800E718 0C24     lsr     r4,r4,10h
0800E71A 4647     mov     r7,r8
0800E71C 043F     lsl     r7,r7,10h
0800E71E 46B8     mov     r8,r7
0800E720 042D     lsl     r5,r5,10h
0800E722 0C2D     lsr     r5,r5,10h
0800E724 0436     lsl     r6,r6,10h
0800E726 0C36     lsr     r6,r6,10h
0800E728 4580     cmp     r8,r0
0800E72A D307     bcc     800E73Ch
0800E72C 428C     cmp     r4,r1
0800E72E D205     bcs     800E73Ch
0800E730 4296     cmp     r6,r2
0800E732 D303     bcc     800E73Ch
0800E734 429D     cmp     r5,r3
0800E736 D201     bcs     800E73Ch
0800E738 2001     mov     r0,1h
0800E73A E000     b       800E73Eh
0800E73C 2000     mov     r0,0h
0800E73E BC08     pop     r3
0800E740 4698     mov     r8,r3
0800E742 BCF0     pop     r4-r7
0800E744 BC02     pop     r1
0800E746 4708     bx      r1
0800E748 B5F0     push    r4-r7,lr
0800E74A 4657     mov     r7,r10
0800E74C 464E     mov     r6,r9
0800E74E 4645     mov     r5,r8
0800E750 B4E0     push    r5-r7
0800E752 B090     add     sp,-40h
0800E754 481C     ldr     r0,=30013D4h
0800E756 4682     mov     r10,r0
0800E758 2100     mov     r1,0h
0800E75A 9104     str     r1,[sp,10h]
0800E75C 8A82     ldrh    r2,[r0,14h]
0800E75E 9205     str     r2,[sp,14h]
0800E760 8A43     ldrh    r3,[r0,12h]
0800E762 9306     str     r3,[sp,18h]
0800E764 4819     ldr     r0,=3001600h
0800E766 8800     ldrh    r0,[r0]
0800E768 900B     str     r0,[sp,2Ch]
0800E76A 4919     ldr     r1,=3001588h
0800E76C 1C08     mov     r0,r1
0800E76E 3070     add     r0,70h
0800E770 8800     ldrh    r0,[r0]
0800E772 1810     add     r0,r2,r0
0800E774 0400     lsl     r0,r0,10h
0800E776 0C00     lsr     r0,r0,10h
0800E778 9007     str     r0,[sp,1Ch]
0800E77A 1C08     mov     r0,r1
0800E77C 3074     add     r0,74h
0800E77E 8800     ldrh    r0,[r0]
0800E780 1810     add     r0,r2,r0
0800E782 0400     lsl     r0,r0,10h
0800E784 0C00     lsr     r0,r0,10h
0800E786 9008     str     r0,[sp,20h]
0800E788 1C08     mov     r0,r1
0800E78A 306E     add     r0,6Eh
0800E78C 8800     ldrh    r0,[r0]
0800E78E 1818     add     r0,r3,r0
0800E790 0400     lsl     r0,r0,10h
0800E792 0C00     lsr     r0,r0,10h
0800E794 9009     str     r0,[sp,24h]
0800E796 1C08     mov     r0,r1
0800E798 3072     add     r0,72h
0800E79A 8800     ldrh    r0,[r0]
0800E79C 1818     add     r0,r3,r0
0800E79E 0400     lsl     r0,r0,10h
0800E7A0 0C00     lsr     r0,r0,10h
0800E7A2 900A     str     r0,[sp,28h]
0800E7A4 4651     mov     r1,r10
0800E7A6 7808     ldrb    r0,[r1]
0800E7A8 2826     cmp     r0,26h
0800E7AA D128     bne     800E7FEh
0800E7AC 7908     ldrb    r0,[r1,4h]
0800E7AE 2800     cmp     r0,0h
0800E7B0 D02B     beq     800E80Ah
0800E7B2 2801     cmp     r0,1h
0800E7B4 D10E     bne     800E7D4h
0800E7B6 9807     ldr     r0,[sp,1Ch]
0800E7B8 3820     sub     r0,20h
0800E7BA 0400     lsl     r0,r0,10h
0800E7BC 0C00     lsr     r0,r0,10h
0800E7BE 9007     str     r0,[sp,1Ch]
0800E7C0 9808     ldr     r0,[sp,20h]
0800E7C2 3020     add     r0,20h
0800E7C4 E017     b       800E7F6h
0800E7C6 0000     lsl     r0,r0,0h
0800E7C8 13D4     asr     r4,r2,0Fh
0800E7CA 0300     lsl     r0,r0,0Ch
0800E7CC 1600     asr     r0,r0,18h
0800E7CE 0300     lsl     r0,r0,0Ch
0800E7D0 1588     asr     r0,r1,16h
0800E7D2 0300     lsl     r0,r0,0Ch
0800E7D4 9809     ldr     r0,[sp,24h]
0800E7D6 3818     sub     r0,18h
0800E7D8 0400     lsl     r0,r0,10h
0800E7DA 0C00     lsr     r0,r0,10h
0800E7DC 9009     str     r0,[sp,24h]
0800E7DE 980A     ldr     r0,[sp,28h]
0800E7E0 3018     add     r0,18h
0800E7E2 0400     lsl     r0,r0,10h
0800E7E4 0C00     lsr     r0,r0,10h
0800E7E6 900A     str     r0,[sp,28h]
0800E7E8 9807     ldr     r0,[sp,1Ch]
0800E7EA 3818     sub     r0,18h
0800E7EC 0400     lsl     r0,r0,10h
0800E7EE 0C00     lsr     r0,r0,10h
0800E7F0 9007     str     r0,[sp,1Ch]
0800E7F2 9808     ldr     r0,[sp,20h]
0800E7F4 3018     add     r0,18h
0800E7F6 0400     lsl     r0,r0,10h
0800E7F8 0C00     lsr     r0,r0,10h
0800E7FA 9008     str     r0,[sp,20h]
0800E7FC E00F     b       800E81Eh
0800E7FE 2822     cmp     r0,22h
0800E800 D10D     bne     800E81Eh
0800E802 4652     mov     r2,r10
0800E804 7910     ldrb    r0,[r2,4h]
0800E806 2800     cmp     r0,0h
0800E808 D109     bne     800E81Eh
0800E80A 9809     ldr     r0,[sp,24h]
0800E80C 3820     sub     r0,20h
0800E80E 0400     lsl     r0,r0,10h
0800E810 0C00     lsr     r0,r0,10h
0800E812 9009     str     r0,[sp,24h]
0800E814 980A     ldr     r0,[sp,28h]
0800E816 3020     add     r0,20h
0800E818 0400     lsl     r0,r0,10h
0800E81A 0C00     lsr     r0,r0,10h
0800E81C 900A     str     r0,[sp,28h]
0800E81E 4E33     ldr     r6,=30001ACh
0800E820 23A8     mov     r3,0A8h
0800E822 00DB     lsl     r3,r3,3h
0800E824 18F0     add     r0,r6,r3
0800E826 4286     cmp     r6,r0
0800E828 D301     bcc     800E82Eh
0800E82A F000FD73 bl      800F314h
0800E82E 8830     ldrh    r0,[r6]
0800E830 2103     mov     r1,3h
0800E832 4008     and     r0,r1
0800E834 2803     cmp     r0,3h
0800E836 D001     beq     800E83Ch
0800E838 F000FD66 bl      800F308h
0800E83C 1C30     mov     r0,r6
0800E83E 3026     add     r0,26h
0800E840 7804     ldrb    r4,[r0]
0800E842 900F     str     r0,[sp,3Ch]
0800E844 2C00     cmp     r4,0h
0800E846 D001     beq     800E84Ch
0800E848 F000FD5E bl      800F308h
0800E84C 8872     ldrh    r2,[r6,2h]
0800E84E 920C     str     r2,[sp,30h]
0800E850 88B3     ldrh    r3,[r6,4h]
0800E852 930D     str     r3,[sp,34h]
0800E854 8970     ldrh    r0,[r6,0Ah]
0800E856 1810     add     r0,r2,r0
0800E858 0400     lsl     r0,r0,10h
0800E85A 0C05     lsr     r5,r0,10h
0800E85C 89B0     ldrh    r0,[r6,0Ch]
0800E85E 1810     add     r0,r2,r0
0800E860 0400     lsl     r0,r0,10h
0800E862 0C00     lsr     r0,r0,10h
0800E864 4681     mov     r9,r0
0800E866 89F0     ldrh    r0,[r6,0Eh]
0800E868 1818     add     r0,r3,r0
0800E86A 0400     lsl     r0,r0,10h
0800E86C 0C00     lsr     r0,r0,10h
0800E86E 4680     mov     r8,r0
0800E870 8A30     ldrh    r0,[r6,10h]
0800E872 1818     add     r0,r3,r0
0800E874 0400     lsl     r0,r0,10h
0800E876 0C07     lsr     r7,r0,10h
0800E878 9500     str     r5,[sp]
0800E87A 4648     mov     r0,r9
0800E87C 9001     str     r0,[sp,4h]
0800E87E 4641     mov     r1,r8
0800E880 9102     str     r1,[sp,8h]
0800E882 9703     str     r7,[sp,0Ch]
0800E884 9807     ldr     r0,[sp,1Ch]
0800E886 9908     ldr     r1,[sp,20h]
0800E888 9A09     ldr     r2,[sp,24h]
0800E88A 9B0A     ldr     r3,[sp,28h]
0800E88C F7FFFF34 bl      800E6F8h
0800E890 2800     cmp     r0,0h
0800E892 D101     bne     800E898h
0800E894 F000FD38 bl      800F308h
0800E898 4815     ldr     r0,=30007F2h
0800E89A 7004     strb    r4,[r0]
0800E89C 464A     mov     r2,r9
0800E89E 1B50     sub     r0,r2,r5
0800E8A0 0FC1     lsr     r1,r0,1Fh
0800E8A2 1840     add     r0,r0,r1
0800E8A4 1040     asr     r0,r0,1h
0800E8A6 1828     add     r0,r5,r0
0800E8A8 0400     lsl     r0,r0,10h
0800E8AA 0C02     lsr     r2,r0,10h
0800E8AC 4643     mov     r3,r8
0800E8AE 1AF8     sub     r0,r7,r3
0800E8B0 0FC1     lsr     r1,r0,1Fh
0800E8B2 1840     add     r0,r0,r1
0800E8B4 1040     asr     r0,r0,1h
0800E8B6 4440     add     r0,r8
0800E8B8 0400     lsl     r0,r0,10h
0800E8BA 0C00     lsr     r0,r0,10h
0800E8BC 4684     mov     r12,r0
0800E8BE 2400     mov     r4,0h
0800E8C0 1F10     sub     r0,r2,4
0800E8C2 9908     ldr     r1,[sp,20h]
0800E8C4 4288     cmp     r0,r1
0800E8C6 DD05     ble     800E8D4h
0800E8C8 4653     mov     r3,r10
0800E8CA 2118     mov     r1,18h
0800E8CC 5E58     ldsh    r0,[r3,r1]
0800E8CE 2818     cmp     r0,18h
0800E8D0 DC00     bgt     800E8D4h
0800E8D2 2401     mov     r4,1h
0800E8D4 1D10     add     r0,r2,4
0800E8D6 9A07     ldr     r2,[sp,1Ch]
0800E8D8 4290     cmp     r0,r2
0800E8DA DA01     bge     800E8E0h
0800E8DC 2002     mov     r0,2h
0800E8DE 4304     orr     r4,r0
0800E8E0 9B0B     ldr     r3,[sp,2Ch]
0800E8E2 459C     cmp     r12,r3
0800E8E4 D306     bcc     800E8F4h
0800E8E6 2004     mov     r0,4h
0800E8E8 E005     b       800E8F6h
0800E8EA 0000     lsl     r0,r0,0h
0800E8EC 01AC     lsl     r4,r5,6h
0800E8EE 0300     lsl     r0,r0,0Ch
0800E8F0 07F2     lsl     r2,r6,1Fh
0800E8F2 0300     lsl     r0,r0,0Ch
0800E8F4 2008     mov     r0,8h
0800E8F6 4304     orr     r4,r0
0800E8F8 0620     lsl     r0,r4,18h
0800E8FA 0E04     lsr     r4,r0,18h
0800E8FC 1C30     mov     r0,r6
0800E8FE 3030     add     r0,30h
0800E900 7800     ldrb    r0,[r0]
0800E902 2800     cmp     r0,0h
0800E904 D100     bne     800E908h
0800E906 E07C     b       800EA02h
0800E908 F001FECE bl      80106A8h
0800E90C 2800     cmp     r0,0h
0800E90E D001     beq     800E914h
0800E910 F000FCF6 bl      800F300h
0800E914 1C30     mov     r0,r6
0800E916 4651     mov     r1,r10
0800E918 F001FDEE bl      80104F8h
0800E91C 2800     cmp     r0,0h
0800E91E D001     beq     800E924h
0800E920 F000FCEE bl      800F300h
0800E924 F001FED0 bl      80106C8h
0800E928 2800     cmp     r0,0h
0800E92A D004     beq     800E936h
0800E92C 20FE     mov     r0,0FEh
0800E92E F7F8FDDB bl      80074E8h
0800E932 F000FCE5 bl      800F300h
0800E936 9805     ldr     r0,[sp,14h]
0800E938 3818     sub     r0,18h
0800E93A 42A8     cmp     r0,r5
0800E93C DA26     bge     800E98Ch
0800E93E 4811     ldr     r0,=3001588h
0800E940 3070     add     r0,70h
0800E942 2100     mov     r1,0h
0800E944 5E40     ldsh    r0,[r0,r1]
0800E946 3001     add     r0,1h
0800E948 1828     add     r0,r5,r0
0800E94A 9906     ldr     r1,[sp,18h]
0800E94C F000FE9C bl      800F688h
0800E950 480D     ldr     r0,=30007F1h
0800E952 7800     ldrb    r0,[r0]
0800E954 2800     cmp     r0,0h
0800E956 D001     beq     800E95Ch
0800E958 F000FCD2 bl      800F300h
0800E95C 4652     mov     r2,r10
0800E95E 2318     mov     r3,18h
0800E960 5ED0     ldsh    r0,[r2,r3]
0800E962 2800     cmp     r0,0h
0800E964 DD01     ble     800E96Ah
0800E966 F000FCCB bl      800F300h
0800E96A 1C68     add     r0,r5,1
0800E96C 8290     strh    r0,[r2,14h]
0800E96E 8831     ldrh    r1,[r6]
0800E970 2280     mov     r2,80h
0800E972 0152     lsl     r2,r2,5h
0800E974 1C10     mov     r0,r2
0800E976 4308     orr     r0,r1
0800E978 8030     strh    r0,[r6]
0800E97A 1C31     mov     r1,r6
0800E97C 3131     add     r1,31h
0800E97E 2002     mov     r0,2h
0800E980 F000FCBD bl      800F2FEh
0800E984 1588     asr     r0,r1,16h
0800E986 0300     lsl     r0,r0,0Ch
0800E988 07F1     lsl     r1,r6,1Fh
0800E98A 0300     lsl     r0,r0,0Ch
0800E98C 9807     ldr     r0,[sp,1Ch]
0800E98E 3010     add     r0,10h
0800E990 4548     cmp     r0,r9
0800E992 DD29     ble     800E9E8h
0800E994 4811     ldr     r0,=3001588h
0800E996 1C04     mov     r4,r0
0800E998 3470     add     r4,70h
0800E99A 2300     mov     r3,0h
0800E99C 5EE0     ldsh    r0,[r4,r3]
0800E99E 4649     mov     r1,r9
0800E9A0 1A08     sub     r0,r1,r0
0800E9A2 9906     ldr     r1,[sp,18h]
0800E9A4 F000FE70 bl      800F688h
0800E9A8 480D     ldr     r0,=30007F1h
0800E9AA 7801     ldrb    r1,[r0]
0800E9AC 2900     cmp     r1,0h
0800E9AE D001     beq     800E9B4h
0800E9B0 F000FCA6 bl      800F300h
0800E9B4 8820     ldrh    r0,[r4]
0800E9B6 464A     mov     r2,r9
0800E9B8 1A10     sub     r0,r2,r0
0800E9BA 4653     mov     r3,r10
0800E9BC 8298     strh    r0,[r3,14h]
0800E9BE 2218     mov     r2,18h
0800E9C0 5E98     ldsh    r0,[r3,r2]
0800E9C2 2800     cmp     r0,0h
0800E9C4 DC01     bgt     800E9CAh
0800E9C6 F000FC9B bl      800F300h
0800E9CA 4806     ldr     r0,=3001530h
0800E9CC 88C0     ldrh    r0,[r0,6h]
0800E9CE 2800     cmp     r0,0h
0800E9D0 D101     bne     800E9D6h
0800E9D2 F000FC95 bl      800F300h
0800E9D6 8319     strh    r1,[r3,18h]
0800E9D8 F000FC92 bl      800F300h
0800E9DC 1588     asr     r0,r1,16h
0800E9DE 0300     lsl     r0,r0,0Ch
0800E9E0 07F1     lsl     r1,r6,1Fh
0800E9E2 0300     lsl     r0,r0,0Ch
0800E9E4 1530     asr     r0,r6,14h
0800E9E6 0300     lsl     r0,r0,0Ch
0800E9E8 9B06     ldr     r3,[sp,18h]
0800E9EA 4543     cmp     r3,r8
0800E9EC D303     bcc     800E9F6h
0800E9EE 42BB     cmp     r3,r7
0800E9F0 D801     bhi     800E9F6h
0800E9F2 F000FC85 bl      800F300h
0800E9F6 2004     mov     r0,4h
0800E9F8 4004     and     r4,r0
0800E9FA 2C00     cmp     r4,0h
0800E9FC D000     beq     800EA00h
0800E9FE E312     b       800F026h
0800EA00 E316     b       800F030h
0800EA02 1C30     mov     r0,r6
0800EA04 3025     add     r0,25h
0800EA06 7801     ldrb    r1,[r0]
0800EA08 900E     str     r0,[sp,38h]
0800EA0A 2924     cmp     r1,24h
0800EA0C D901     bls     800EA12h
0800EA0E F000FC71 bl      800F2F4h
0800EA12 0088     lsl     r0,r1,2h
0800EA14 4901     ldr     r1,=800EA20h
0800EA16 1840     add     r0,r0,r1
0800EA18 6800     ldr     r0,[r0]
0800EA1A 4687     mov     r15,r0
0800EA1C EA20     ????
0800EA1E 0800     lsr     r0,r0,20h
0800EA20 F3000800 ????
0800EA22 0800     lsr     r0,r0,20h
0800EA24 EAC6     ????
0800EA26 0800     lsr     r0,r0,20h
0800EA28 EBA0     ????
0800EA2A 0800     lsr     r0,r0,20h
0800EA2C EC0C     ????
0800EA2E 0800     lsr     r0,r0,20h
0800EA30 EE36     ????
0800EA32 0800     lsr     r0,r0,20h
0800EA34 EECE     ????
0800EA36 0800     lsr     r0,r0,20h
0800EA38 EE2E     ????
0800EA3A 0800     lsr     r0,r0,20h
0800EA3C F1600800 ????
0800EA3E 0800     lsr     r0,r0,20h
0800EA40 F2F40800 ????
0800EA42 0800     lsr     r0,r0,20h
0800EA44 EF2E     ????
0800EA46 0800     lsr     r0,r0,20h
0800EA48 F0A80800 ????
0800EA4A 0800     lsr     r0,r0,20h
0800EA4C F03A0800 ????
0800EA4E 0800     lsr     r0,r0,20h
0800EA50 F0100800 ????
0800EA52 0800     lsr     r0,r0,20h
0800EA54 EE84     ????
0800EA56 0800     lsr     r0,r0,20h
0800EA58 EE7C     ????
0800EA5A 0800     lsr     r0,r0,20h
0800EA5C EE6C     ????
0800EA5E 0800     lsr     r0,r0,20h
0800EA60 EF68     ????
0800EA62 0800     lsr     r0,r0,20h
0800EA64 EF70     ????
0800EA66 0800     lsr     r0,r0,20h
0800EA68 EE36     ????
0800EA6A 0800     lsr     r0,r0,20h
0800EA6C EE2E     ????
0800EA6E 0800     lsr     r0,r0,20h
0800EA70 EF16     ????
0800EA72 0800     lsr     r0,r0,20h
0800EA74 EDFC     ????
0800EA76 0800     lsr     r0,r0,20h
0800EA78 ED6A     ????
0800EA7A 0800     lsr     r0,r0,20h
0800EA7C F1900800 ????
0800EA7E 0800     lsr     r0,r0,20h
0800EA80 F2000800 ????
0800EA82 0800     lsr     r0,r0,20h
0800EA84 ECB4     ????
0800EA86 0800     lsr     r0,r0,20h
0800EA88 EF90     ????
0800EA8A 0800     lsr     r0,r0,20h
0800EA8C EAB4     ????
0800EA8E 0800     lsr     r0,r0,20h
0800EA90 F25A0800 ????
0800EA92 0800     lsr     r0,r0,20h
0800EA94 F2C00800 ????
0800EA96 0800     lsr     r0,r0,20h
0800EA98 ED5C     ????
0800EA9A 0800     lsr     r0,r0,20h
0800EA9C ED5C     ????
0800EA9E 0800     lsr     r0,r0,20h
0800EAA0 ED5C     ????
0800EAA2 0800     lsr     r0,r0,20h
0800EAA4 ED5C     ????
0800EAA6 0800     lsr     r0,r0,20h
0800EAA8 ED5C     ????
0800EAAA 0800     lsr     r0,r0,20h
0800EAAC ED5C     ????
0800EAAE 0800     lsr     r0,r0,20h
0800EAB0 ED5C     ????
0800EAB2 0800     lsr     r0,r0,20h
0800EAB4 8831     ldrh    r1,[r6]
0800EAB6 2280     mov     r2,80h
0800EAB8 0112     lsl     r2,r2,4h
0800EABA 1C10     mov     r0,r2
0800EABC 4308     orr     r0,r1
0800EABE 8030     strh    r0,[r6]
0800EAC0 491B     ldr     r1,=30007F2h
0800EAC2 2001     mov     r0,1h
0800EAC4 7008     strb    r0,[r1]
0800EAC6 F001FDEF bl      80106A8h
0800EACA 2800     cmp     r0,0h
0800EACC D001     beq     800EAD2h
0800EACE F000FC17 bl      800F300h
0800EAD2 1C30     mov     r0,r6
0800EAD4 4651     mov     r1,r10
0800EAD6 F001FD0F bl      80104F8h
0800EADA 2800     cmp     r0,0h
0800EADC D001     beq     800EAE2h
0800EADE F000FC0F bl      800F300h
0800EAE2 9805     ldr     r0,[sp,14h]
0800EAE4 3818     sub     r0,18h
0800EAE6 42A8     cmp     r0,r5
0800EAE8 DA28     bge     800EB3Ch
0800EAEA 4812     ldr     r0,=3001588h
0800EAEC 3070     add     r0,70h
0800EAEE 2300     mov     r3,0h
0800EAF0 5EC0     ldsh    r0,[r0,r3]
0800EAF2 3001     add     r0,1h
0800EAF4 1828     add     r0,r5,r0
0800EAF6 9906     ldr     r1,[sp,18h]
0800EAF8 F000FDC6 bl      800F688h
0800EAFC 480E     ldr     r0,=30007F1h
0800EAFE 7800     ldrb    r0,[r0]
0800EB00 2800     cmp     r0,0h
0800EB02 D001     beq     800EB08h
0800EB04 F000FBFC bl      800F300h
0800EB08 4651     mov     r1,r10
0800EB0A 2218     mov     r2,18h
0800EB0C 5E88     ldsh    r0,[r1,r2]
0800EB0E 2800     cmp     r0,0h
0800EB10 DD01     ble     800EB16h
0800EB12 F000FBF5 bl      800F300h
0800EB16 1C68     add     r0,r5,1
0800EB18 8288     strh    r0,[r1,14h]
0800EB1A 8831     ldrh    r1,[r6]
0800EB1C 2380     mov     r3,80h
0800EB1E 015B     lsl     r3,r3,5h
0800EB20 1C18     mov     r0,r3
0800EB22 4308     orr     r0,r1
0800EB24 8030     strh    r0,[r6]
0800EB26 1C31     mov     r1,r6
0800EB28 3131     add     r1,31h
0800EB2A 2002     mov     r0,2h
0800EB2C F000FBE7 bl      800F2FEh
0800EB30 07F2     lsl     r2,r6,1Fh
0800EB32 0300     lsl     r0,r0,0Ch
0800EB34 1588     asr     r0,r1,16h
0800EB36 0300     lsl     r0,r0,0Ch
0800EB38 07F1     lsl     r1,r6,1Fh
0800EB3A 0300     lsl     r0,r0,0Ch
0800EB3C 9807     ldr     r0,[sp,1Ch]
0800EB3E 3010     add     r0,10h
0800EB40 4548     cmp     r0,r9
0800EB42 DD25     ble     800EB90h
0800EB44 480F     ldr     r0,=3001588h
0800EB46 1C04     mov     r4,r0
0800EB48 3470     add     r4,70h
0800EB4A 2100     mov     r1,0h
0800EB4C 5E60     ldsh    r0,[r4,r1]
0800EB4E 464A     mov     r2,r9
0800EB50 1A10     sub     r0,r2,r0
0800EB52 9906     ldr     r1,[sp,18h]
0800EB54 F000FD98 bl      800F688h
0800EB58 480B     ldr     r0,=30007F1h
0800EB5A 7801     ldrb    r1,[r0]
0800EB5C 2900     cmp     r1,0h
0800EB5E D000     beq     800EB62h
0800EB60 E3CE     b       800F300h
0800EB62 8820     ldrh    r0,[r4]
0800EB64 464B     mov     r3,r9
0800EB66 1A18     sub     r0,r3,r0
0800EB68 4652     mov     r2,r10
0800EB6A 8290     strh    r0,[r2,14h]
0800EB6C 2318     mov     r3,18h
0800EB6E 5ED0     ldsh    r0,[r2,r3]
0800EB70 2800     cmp     r0,0h
0800EB72 DC00     bgt     800EB76h
0800EB74 E3C4     b       800F300h
0800EB76 4805     ldr     r0,=3001530h
0800EB78 88C0     ldrh    r0,[r0,6h]
0800EB7A 2800     cmp     r0,0h
0800EB7C D100     bne     800EB80h
0800EB7E E3BF     b       800F300h
0800EB80 8311     strh    r1,[r2,18h]
0800EB82 E3BD     b       800F300h
0800EB84 1588     asr     r0,r1,16h
0800EB86 0300     lsl     r0,r0,0Ch
0800EB88 07F1     lsl     r1,r6,1Fh
0800EB8A 0300     lsl     r0,r0,0Ch
0800EB8C 1530     asr     r0,r6,14h
0800EB8E 0300     lsl     r0,r0,0Ch
0800EB90 9806     ldr     r0,[sp,18h]
0800EB92 4540     cmp     r0,r8
0800EB94 D200     bcs     800EB98h
0800EB96 E72E     b       800E9F6h
0800EB98 42B8     cmp     r0,r7
0800EB9A D800     bhi     800EB9Eh
0800EB9C E3B0     b       800F300h
0800EB9E E72A     b       800E9F6h
0800EBA0 F001FD82 bl      80106A8h
0800EBA4 2800     cmp     r0,0h
0800EBA6 D000     beq     800EBAAh
0800EBA8 E3AA     b       800F300h
0800EBAA 1C30     mov     r0,r6
0800EBAC 4651     mov     r1,r10
0800EBAE F001FCA3 bl      80104F8h
0800EBB2 2800     cmp     r0,0h
0800EBB4 D000     beq     800EBB8h
0800EBB6 E3A3     b       800F300h
0800EBB8 9805     ldr     r0,[sp,14h]
0800EBBA 3818     sub     r0,18h
0800EBBC 42A8     cmp     r0,r5
0800EBBE DB00     blt     800EBC2h
0800EBC0 E39E     b       800F300h
0800EBC2 4810     ldr     r0,=3001588h
0800EBC4 3070     add     r0,70h
0800EBC6 2100     mov     r1,0h
0800EBC8 5E40     ldsh    r0,[r0,r1]
0800EBCA 3001     add     r0,1h
0800EBCC 1828     add     r0,r5,r0
0800EBCE 9906     ldr     r1,[sp,18h]
0800EBD0 F000FD5A bl      800F688h
0800EBD4 480C     ldr     r0,=30007F1h
0800EBD6 7800     ldrb    r0,[r0]
0800EBD8 2800     cmp     r0,0h
0800EBDA D000     beq     800EBDEh
0800EBDC E390     b       800F300h
0800EBDE 4652     mov     r2,r10
0800EBE0 2318     mov     r3,18h
0800EBE2 5ED0     ldsh    r0,[r2,r3]
0800EBE4 2800     cmp     r0,0h
0800EBE6 DD00     ble     800EBEAh
0800EBE8 E38A     b       800F300h
0800EBEA 1C68     add     r0,r5,1
0800EBEC 8290     strh    r0,[r2,14h]
0800EBEE 8831     ldrh    r1,[r6]
0800EBF0 2280     mov     r2,80h
0800EBF2 0152     lsl     r2,r2,5h
0800EBF4 1C10     mov     r0,r2
0800EBF6 4308     orr     r0,r1
0800EBF8 8030     strh    r0,[r6]
0800EBFA 1C31     mov     r1,r6
0800EBFC 3131     add     r1,31h
0800EBFE 2002     mov     r0,2h
0800EC00 E37D     b       800F2FEh
0800EC02 0000     lsl     r0,r0,0h
0800EC04 1588     asr     r0,r1,16h
0800EC06 0300     lsl     r0,r0,0Ch
0800EC08 07F1     lsl     r1,r6,1Fh
0800EC0A 0300     lsl     r0,r0,0Ch
0800EC0C 1C30     mov     r0,r6
0800EC0E 4651     mov     r1,r10
0800EC10 F001FC72 bl      80104F8h
0800EC14 2800     cmp     r0,0h
0800EC16 D000     beq     800EC1Ah
0800EC18 E372     b       800F300h
0800EC1A 9805     ldr     r0,[sp,14h]
0800EC1C 3818     sub     r0,18h
0800EC1E 42A8     cmp     r0,r5
0800EC20 DA2E     bge     800EC80h
0800EC22 F001FD41 bl      80106A8h
0800EC26 2800     cmp     r0,0h
0800EC28 D000     beq     800EC2Ch
0800EC2A E369     b       800F300h
0800EC2C 4653     mov     r3,r10
0800EC2E 7998     ldrb    r0,[r3,6h]
0800EC30 2827     cmp     r0,27h
0800EC32 D900     bls     800EC36h
0800EC34 E364     b       800F300h
0800EC36 4810     ldr     r0,=3001588h
0800EC38 3070     add     r0,70h
0800EC3A 2100     mov     r1,0h
0800EC3C 5E40     ldsh    r0,[r0,r1]
0800EC3E 3001     add     r0,1h
0800EC40 1828     add     r0,r5,r0
0800EC42 9906     ldr     r1,[sp,18h]
0800EC44 F000FD20 bl      800F688h
0800EC48 480C     ldr     r0,=30007F1h
0800EC4A 7800     ldrb    r0,[r0]
0800EC4C 2800     cmp     r0,0h
0800EC4E D000     beq     800EC52h
0800EC50 E356     b       800F300h
0800EC52 4652     mov     r2,r10
0800EC54 2318     mov     r3,18h
0800EC56 5ED0     ldsh    r0,[r2,r3]
0800EC58 2800     cmp     r0,0h
0800EC5A DD00     ble     800EC5Eh
0800EC5C E350     b       800F300h
0800EC5E 1C68     add     r0,r5,1
0800EC60 8290     strh    r0,[r2,14h]
0800EC62 8831     ldrh    r1,[r6]
0800EC64 2280     mov     r2,80h
0800EC66 0152     lsl     r2,r2,5h
0800EC68 1C10     mov     r0,r2
0800EC6A 4308     orr     r0,r1
0800EC6C 8030     strh    r0,[r6]
0800EC6E 1C31     mov     r1,r6
0800EC70 3131     add     r1,31h
0800EC72 2002     mov     r0,2h
0800EC74 E343     b       800F2FEh
0800EC76 0000     lsl     r0,r0,0h
0800EC78 1588     asr     r0,r1,16h
0800EC7A 0300     lsl     r0,r0,0Ch
0800EC7C 07F1     lsl     r1,r6,1Fh
0800EC7E 0300     lsl     r0,r0,0Ch
0800EC80 4653     mov     r3,r10
0800EC82 7998     ldrb    r0,[r3,6h]
0800EC84 2800     cmp     r0,0h
0800EC86 D000     beq     800EC8Ah
0800EC88 E334     b       800F2F4h
0800EC8A 2001     mov     r0,1h
0800EC8C 1C31     mov     r1,r6
0800EC8E 2201     mov     r2,1h
0800EC90 F7FFFCD0 bl      800E634h
0800EC94 0600     lsl     r0,r0,18h
0800EC96 2800     cmp     r0,0h
0800EC98 D100     bne     800EC9Ch
0800EC9A E32B     b       800F2F4h
0800EC9C 2004     mov     r0,4h
0800EC9E 4004     and     r4,r0
0800ECA0 2C00     cmp     r4,0h
0800ECA2 D100     bne     800ECA6h
0800ECA4 E13F     b       800EF26h
0800ECA6 4802     ldr     r0,=0FFC0h
0800ECA8 4651     mov     r1,r10
0800ECAA 82C8     strh    r0,[r1,16h]
0800ECAC E322     b       800F2F4h
0800ECAE 0000     lsl     r0,r0,0h
0800ECB0 FFC00000 ????
0800ECB2 0000     lsl     r0,r0,0h
0800ECB4 9806     ldr     r0,[sp,18h]
0800ECB6 42B8     cmp     r0,r7
0800ECB8 D91D     bls     800ECF6h
0800ECBA 4651     mov     r1,r10
0800ECBC 7988     ldrb    r0,[r1,6h]
0800ECBE 2800     cmp     r0,0h
0800ECC0 D115     bne     800ECEEh
0800ECC2 2001     mov     r0,1h
0800ECC4 1C31     mov     r1,r6
0800ECC6 2201     mov     r2,1h
0800ECC8 F7FFFCB4 bl      800E634h
0800ECCC 0600     lsl     r0,r0,18h
0800ECCE 2800     cmp     r0,0h
0800ECD0 D00D     beq     800ECEEh
0800ECD2 2004     mov     r0,4h
0800ECD4 4004     and     r4,r0
0800ECD6 2C00     cmp     r4,0h
0800ECD8 D006     beq     800ECE8h
0800ECDA 4802     ldr     r0,=0FFC0h
0800ECDC 4652     mov     r2,r10
0800ECDE 82D0     strh    r0,[r2,16h]
0800ECE0 E005     b       800ECEEh
0800ECE2 0000     lsl     r0,r0,0h
0800ECE4 FFC00000 ????
0800ECE6 0000     lsl     r0,r0,0h
0800ECE8 2040     mov     r0,40h
0800ECEA 4653     mov     r3,r10
0800ECEC 82D8     strh    r0,[r3,16h]
0800ECEE 200F     mov     r0,0Fh
0800ECF0 990F     ldr     r1,[sp,3Ch]
0800ECF2 7008     strb    r0,[r1]
0800ECF4 E301     b       800F2FAh
0800ECF6 9805     ldr     r0,[sp,14h]
0800ECF8 3818     sub     r0,18h
0800ECFA 42A8     cmp     r0,r5
0800ECFC DB00     blt     800ED00h
0800ECFE E2FF     b       800F300h
0800ED00 F001FCD2 bl      80106A8h
0800ED04 2800     cmp     r0,0h
0800ED06 D000     beq     800ED0Ah
0800ED08 E2FA     b       800F300h
0800ED0A 4652     mov     r2,r10
0800ED0C 7990     ldrb    r0,[r2,6h]
0800ED0E 2825     cmp     r0,25h
0800ED10 D900     bls     800ED14h
0800ED12 E2F5     b       800F300h
0800ED14 480F     ldr     r0,=3001588h
0800ED16 3070     add     r0,70h
0800ED18 2300     mov     r3,0h
0800ED1A 5EC0     ldsh    r0,[r0,r3]
0800ED1C 3001     add     r0,1h
0800ED1E 1828     add     r0,r5,r0
0800ED20 9906     ldr     r1,[sp,18h]
0800ED22 F000FCB1 bl      800F688h
0800ED26 480C     ldr     r0,=30007F1h
0800ED28 7800     ldrb    r0,[r0]
0800ED2A 2800     cmp     r0,0h
0800ED2C D000     beq     800ED30h
0800ED2E E2E7     b       800F300h
0800ED30 4651     mov     r1,r10
0800ED32 2218     mov     r2,18h
0800ED34 5E88     ldsh    r0,[r1,r2]
0800ED36 2800     cmp     r0,0h
0800ED38 DD00     ble     800ED3Ch
0800ED3A E2E1     b       800F300h
0800ED3C 1C68     add     r0,r5,1
0800ED3E 8288     strh    r0,[r1,14h]
0800ED40 8831     ldrh    r1,[r6]
0800ED42 2380     mov     r3,80h
0800ED44 015B     lsl     r3,r3,5h
0800ED46 1C18     mov     r0,r3
0800ED48 4308     orr     r0,r1
0800ED4A 8030     strh    r0,[r6]
0800ED4C 1C31     mov     r1,r6
0800ED4E 3131     add     r1,31h
0800ED50 2002     mov     r0,2h
0800ED52 E2D4     b       800F2FEh
0800ED54 1588     asr     r0,r1,16h
0800ED56 0300     lsl     r0,r0,0Ch
0800ED58 07F1     lsl     r1,r6,1Fh
0800ED5A 0300     lsl     r0,r0,0Ch
0800ED5C 8831     ldrh    r1,[r6]
0800ED5E 2280     mov     r2,80h
0800ED60 0112     lsl     r2,r2,4h
0800ED62 1C10     mov     r0,r2
0800ED64 4308     orr     r0,r1
0800ED66 8030     strh    r0,[r6]
0800ED68 E2C7     b       800F2FAh
0800ED6A 1C30     mov     r0,r6
0800ED6C 3024     add     r0,24h
0800ED6E 7800     ldrb    r0,[r0]
0800ED70 280F     cmp     r0,0Fh
0800ED72 D001     beq     800ED78h
0800ED74 2825     cmp     r0,25h
0800ED76 D141     bne     800EDFCh
0800ED78 8831     ldrh    r1,[r6]
0800ED7A 2080     mov     r0,80h
0800ED7C 0080     lsl     r0,r0,2h
0800ED7E 4008     and     r0,r1
0800ED80 2800     cmp     r0,0h
0800ED82 D01F     beq     800EDC4h
0800ED84 1C30     mov     r0,r6
0800ED86 302A     add     r0,2Ah
0800ED88 7800     ldrb    r0,[r0]
0800ED8A 3821     sub     r0,21h
0800ED8C 0600     lsl     r0,r0,18h
0800ED8E 0E00     lsr     r0,r0,18h
0800ED90 281E     cmp     r0,1Eh
0800ED92 D833     bhi     800EDFCh
0800ED94 2380     mov     r3,80h
0800ED96 011B     lsl     r3,r3,4h
0800ED98 1C18     mov     r0,r3
0800ED9A 2400     mov     r4,0h
0800ED9C 4308     orr     r0,r1
0800ED9E 8030     strh    r0,[r6]
0800EDA0 2001     mov     r0,1h
0800EDA2 1C31     mov     r1,r6
0800EDA4 2201     mov     r2,1h
0800EDA6 F7FFFC45 bl      800E634h
0800EDAA 0600     lsl     r0,r0,18h
0800EDAC 2800     cmp     r0,0h
0800EDAE D002     beq     800EDB6h
0800EDB0 4803     ldr     r0,=0FFA0h
0800EDB2 4651     mov     r1,r10
0800EDB4 82C8     strh    r0,[r1,16h]
0800EDB6 200F     mov     r0,0Fh
0800EDB8 9A0F     ldr     r2,[sp,3Ch]
0800EDBA 7010     strb    r0,[r2]
0800EDBC E29D     b       800F2FAh
0800EDBE 0000     lsl     r0,r0,0h
0800EDC0 FFA00000 ????
0800EDC2 0000     lsl     r0,r0,0h
0800EDC4 1C30     mov     r0,r6
0800EDC6 302A     add     r0,2Ah
0800EDC8 7800     ldrb    r0,[r0]
0800EDCA 303F     add     r0,3Fh
0800EDCC 0600     lsl     r0,r0,18h
0800EDCE 0E00     lsr     r0,r0,18h
0800EDD0 281E     cmp     r0,1Eh
0800EDD2 D813     bhi     800EDFCh
0800EDD4 2380     mov     r3,80h
0800EDD6 011B     lsl     r3,r3,4h
0800EDD8 1C18     mov     r0,r3
0800EDDA 4308     orr     r0,r1
0800EDDC 8030     strh    r0,[r6]
0800EDDE 2001     mov     r0,1h
0800EDE0 1C31     mov     r1,r6
0800EDE2 2201     mov     r2,1h
0800EDE4 F7FFFC26 bl      800E634h
0800EDE8 0600     lsl     r0,r0,18h
0800EDEA 2800     cmp     r0,0h
0800EDEC D002     beq     800EDF4h
0800EDEE 2060     mov     r0,60h
0800EDF0 4651     mov     r1,r10
0800EDF2 82C8     strh    r0,[r1,16h]
0800EDF4 200F     mov     r0,0Fh
0800EDF6 9A0F     ldr     r2,[sp,3Ch]
0800EDF8 7010     strb    r0,[r2]
0800EDFA E27E     b       800F2FAh
0800EDFC 2001     mov     r0,1h
0800EDFE 1C31     mov     r1,r6
0800EE00 2201     mov     r2,1h
0800EE02 F7FFFC17 bl      800E634h
0800EE06 0600     lsl     r0,r0,18h
0800EE08 2800     cmp     r0,0h
0800EE0A D00C     beq     800EE26h
0800EE0C 2004     mov     r0,4h
0800EE0E 4004     and     r4,r0
0800EE10 2C00     cmp     r4,0h
0800EE12 D005     beq     800EE20h
0800EE14 4801     ldr     r0,=0FFC0h
0800EE16 4653     mov     r3,r10
0800EE18 82D8     strh    r0,[r3,16h]
0800EE1A E004     b       800EE26h
0800EE1C FFC00000 ????
0800EE1E 0000     lsl     r0,r0,0h
0800EE20 2040     mov     r0,40h
0800EE22 4651     mov     r1,r10
0800EE24 82C8     strh    r0,[r1,16h]
0800EE26 200F     mov     r0,0Fh
0800EE28 9A0F     ldr     r2,[sp,3Ch]
0800EE2A 7010     strb    r0,[r2]
0800EE2C E265     b       800F2FAh
0800EE2E 1C31     mov     r1,r6
0800EE30 3124     add     r1,24h
0800EE32 2042     mov     r0,42h
0800EE34 7008     strb    r0,[r1]
0800EE36 1C30     mov     r0,r6
0800EE38 4651     mov     r1,r10
0800EE3A F001FB5D bl      80104F8h
0800EE3E 2800     cmp     r0,0h
0800EE40 D000     beq     800EE44h
0800EE42 E25D     b       800F300h
0800EE44 4653     mov     r3,r10
0800EE46 7998     ldrb    r0,[r3,6h]
0800EE48 2800     cmp     r0,0h
0800EE4A D000     beq     800EE4Eh
0800EE4C E252     b       800F2F4h
0800EE4E 2001     mov     r0,1h
0800EE50 1C31     mov     r1,r6
0800EE52 2201     mov     r2,1h
0800EE54 F7FFFBEE bl      800E634h
0800EE58 0600     lsl     r0,r0,18h
0800EE5A 2800     cmp     r0,0h
0800EE5C D100     bne     800EE60h
0800EE5E E249     b       800F2F4h
0800EE60 2004     mov     r0,4h
0800EE62 4004     and     r4,r0
0800EE64 2C00     cmp     r4,0h
0800EE66 D000     beq     800EE6Ah
0800EE68 E71D     b       800ECA6h
0800EE6A E05C     b       800EF26h
0800EE6C 1C30     mov     r0,r6
0800EE6E 4651     mov     r1,r10
0800EE70 F001FB42 bl      80104F8h
0800EE74 2800     cmp     r0,0h
0800EE76 D000     beq     800EE7Ah
0800EE78 E242     b       800F300h
0800EE7A E7E8     b       800EE4Eh
0800EE7C 1C31     mov     r1,r6
0800EE7E 3124     add     r1,24h
0800EE80 2042     mov     r0,42h
0800EE82 7008     strb    r0,[r1]
0800EE84 1C30     mov     r0,r6
0800EE86 4651     mov     r1,r10
0800EE88 F001FB36 bl      80104F8h
0800EE8C 2800     cmp     r0,0h
0800EE8E D000     beq     800EE92h
0800EE90 E236     b       800F300h
0800EE92 4651     mov     r1,r10
0800EE94 7988     ldrb    r0,[r1,6h]
0800EE96 2800     cmp     r0,0h
0800EE98 D115     bne     800EEC6h
0800EE9A 2001     mov     r0,1h
0800EE9C 1C31     mov     r1,r6
0800EE9E 2201     mov     r2,1h
0800EEA0 F7FFFBC8 bl      800E634h
0800EEA4 0600     lsl     r0,r0,18h
0800EEA6 2800     cmp     r0,0h
0800EEA8 D00D     beq     800EEC6h
0800EEAA 2004     mov     r0,4h
0800EEAC 4004     and     r4,r0
0800EEAE 2C00     cmp     r4,0h
0800EEB0 D006     beq     800EEC0h
0800EEB2 4802     ldr     r0,=0FF80h
0800EEB4 4652     mov     r2,r10
0800EEB6 82D0     strh    r0,[r2,16h]
0800EEB8 E005     b       800EEC6h
0800EEBA 0000     lsl     r0,r0,0h
0800EEBC FF800000 ????
0800EEBE 0000     lsl     r0,r0,0h
0800EEC0 2080     mov     r0,80h
0800EEC2 4653     mov     r3,r10
0800EEC4 82D8     strh    r0,[r3,16h]
0800EEC6 200F     mov     r0,0Fh
0800EEC8 990F     ldr     r1,[sp,3Ch]
0800EECA 7008     strb    r0,[r1]
0800EECC E215     b       800F2FAh
0800EECE 1C30     mov     r0,r6
0800EED0 4651     mov     r1,r10
0800EED2 F001FB11 bl      80104F8h
0800EED6 2800     cmp     r0,0h
0800EED8 D000     beq     800EEDCh
0800EEDA E211     b       800F300h
0800EEDC 4652     mov     r2,r10
0800EEDE 7990     ldrb    r0,[r2,6h]
0800EEE0 2800     cmp     r0,0h
0800EEE2 D114     bne     800EF0Eh
0800EEE4 2001     mov     r0,1h
0800EEE6 1C31     mov     r1,r6
0800EEE8 2205     mov     r2,5h
0800EEEA F7FFFBA3 bl      800E634h
0800EEEE 0600     lsl     r0,r0,18h
0800EEF0 2800     cmp     r0,0h
0800EEF2 D00C     beq     800EF0Eh
0800EEF4 2004     mov     r0,4h
0800EEF6 4004     and     r4,r0
0800EEF8 2C00     cmp     r4,0h
0800EEFA D005     beq     800EF08h
0800EEFC 4801     ldr     r0,=0FFB8h
0800EEFE 4653     mov     r3,r10
0800EF00 82D8     strh    r0,[r3,16h]
0800EF02 E004     b       800EF0Eh
0800EF04 FFB80000 ????
0800EF06 0000     lsl     r0,r0,0h
0800EF08 2048     mov     r0,48h
0800EF0A 4651     mov     r1,r10
0800EF0C 82C8     strh    r0,[r1,16h]
0800EF0E 200F     mov     r0,0Fh
0800EF10 9A0F     ldr     r2,[sp,3Ch]
0800EF12 7010     strb    r0,[r2]
0800EF14 E1F1     b       800F2FAh
0800EF16 1C30     mov     r0,r6
0800EF18 4651     mov     r1,r10
0800EF1A F001FAED bl      80104F8h
0800EF1E 2800     cmp     r0,0h
0800EF20 D000     beq     800EF24h
0800EF22 E1ED     b       800F300h
0800EF24 E6AC     b       800EC80h
0800EF26 2040     mov     r0,40h
0800EF28 4652     mov     r2,r10
0800EF2A 82D0     strh    r0,[r2,16h]
0800EF2C E1E2     b       800F2F4h
0800EF2E 8830     ldrh    r0,[r6]
0800EF30 2280     mov     r2,80h
0800EF32 0112     lsl     r2,r2,4h
0800EF34 1C11     mov     r1,r2
0800EF36 4301     orr     r1,r0
0800EF38 8031     strh    r1,[r6]
0800EF3A 4653     mov     r3,r10
0800EF3C 7998     ldrb    r0,[r3,6h]
0800EF3E 2807     cmp     r0,7h
0800EF40 D80B     bhi     800EF5Ah
0800EF42 2000     mov     r0,0h
0800EF44 1C31     mov     r1,r6
0800EF46 2201     mov     r2,1h
0800EF48 F7FFFB74 bl      800E634h
0800EF4C 4805     ldr     r0,=3001530h
0800EF4E 88C0     ldrh    r0,[r0,6h]
0800EF50 2800     cmp     r0,0h
0800EF52 D002     beq     800EF5Ah
0800EF54 2008     mov     r0,8h
0800EF56 4651     mov     r1,r10
0800EF58 7188     strb    r0,[r1,6h]
0800EF5A 200F     mov     r0,0Fh
0800EF5C 9A0F     ldr     r2,[sp,3Ch]
0800EF5E 7010     strb    r0,[r2]
0800EF60 E1CB     b       800F2FAh
0800EF62 0000     lsl     r0,r0,0h
0800EF64 1530     asr     r0,r6,14h
0800EF66 0300     lsl     r0,r0,0Ch
0800EF68 1C31     mov     r1,r6
0800EF6A 3124     add     r1,24h
0800EF6C 2042     mov     r0,42h
0800EF6E 7008     strb    r0,[r1]
0800EF70 2000     mov     r0,0h
0800EF72 1C31     mov     r1,r6
0800EF74 2201     mov     r2,1h
0800EF76 F7FFFB5D bl      800E634h
0800EF7A 200F     mov     r0,0Fh
0800EF7C 9B0F     ldr     r3,[sp,3Ch]
0800EF7E 7018     strb    r0,[r3]
0800EF80 4651     mov     r1,r10
0800EF82 7988     ldrb    r0,[r1,6h]
