
;导弹使用减少的例程
08051B74 B500     push    r14                                     
08051B76 1C03     mov     r3,r0                                   
08051B78 490A     ldr     r1,=3001530h                            
08051B7A 8908     ldrh    r0,[r1,8h]    ;读取当前的导弹值                          
08051B7C 2800     cmp     r0,0h                                   
08051B7E D009     beq     @@Pass                                
08051B80 3801     sub     r0,1h         ;如果当前导弹的值不为0减1                          
08051B82 8108     strh    r0,[r1,8h]    ;再次写入导弹的值                          
08051B84 0400     lsl     r0,r0,10h                               
08051B86 2800     cmp     r0,0h                                   
08051B88 D104     bne     @@Pass   
;---------------------------------------导弹减1为0后                             
08051B8A 4807     ldr     r0,=3001414h                            
08051B8C 7881     ldrb    r1,[r0,2h]    ;读取导弹选中值                         
08051B8E 2201     mov     r2,1h                                   
08051B90 4051     eor     r1,r2         ;把数字去掉再写入                          
08051B92 7081     strb    r1,[r0,2h] 

@@Pass:                             
08051B94 2040     mov     r0,40h        ;R3=3000a2c 弹丸数据                          
08051B96 7498     strb    r0,[r3,12h]                             
08051B98 7819     ldrb    r1,[r3]                                 
08051B9A 20FB     mov     r0,0FBh                                 
08051B9C 4008     and     r0,r1                                   
08051B9E 7018     strb    r0,[r3]                                 
08051BA0 BC01     pop     r0                                      
08051BA2 4700     bx      r0                                      

                             
08051BAC B510     push    r4,r14                                  
08051BAE 1C04     mov     r4,r0                                   
08051BB0 7C60     ldrb    r0,[r4,11h]                             
08051BB2 2802     cmp     r0,2h                                   
08051BB4 D11A     bne     8051BECh                                
08051BB6 480C     ldr     r0,=3000079h                            
08051BB8 2109     mov     r1,9h                                   
08051BBA 7001     strb    r1,[r0]                                 
08051BBC 1C20     mov     r0,r4                                   
08051BBE F7FDFF3D bl      804FA3Ch                                
08051BC2 2800     cmp     r0,0h                                   
08051BC4 D11C     bne     8051C00h                                
08051BC6 7CE1     ldrb    r1,[r4,13h]                             
08051BC8 3108     add     r1,8h                                   
08051BCA 1C20     mov     r0,r4                                   
08051BCC F7FDFEC2 bl      804F954h                                
08051BD0 7CE0     ldrb    r0,[r4,13h]                             
08051BD2 280B     cmp     r0,0Bh                                  
08051BD4 D801     bhi     8051BDAh                                
08051BD6 3001     add     r0,1h                                   
08051BD8 74E0     strb    r0,[r4,13h]                             
08051BDA 1C20     mov     r0,r4                                   
08051BDC 2114     mov     r1,14h                                  
08051BDE 2207     mov     r2,7h                                   
08051BE0 F7FEF82A bl      804FC38h                                
08051BE4 E06B     b       8051CBEh                                
08051BE6 0000     lsl     r0,r0,0h                                
08051BE8 0079     lsl     r1,r7,1h                                
08051BEA 0300     lsl     r0,r0,0Ch                               
08051BEC 2801     cmp     r0,1h                                   
08051BEE D119     bne     8051C24h                                
08051BF0 4807     ldr     r0,=3000079h                            
08051BF2 2109     mov     r1,9h                                   
08051BF4 7001     strb    r1,[r0]                                 
08051BF6 1C20     mov     r0,r4                                   
08051BF8 F7FDFF20 bl      804FA3Ch                                
08051BFC 2800     cmp     r0,0h                                   
08051BFE D009     beq     8051C14h                                
08051C00 2000     mov     r0,0h                                   
08051C02 7020     strb    r0,[r4]                                 
08051C04 8920     ldrh    r0,[r4,8h]                              
08051C06 8961     ldrh    r1,[r4,0Ah]                             
08051C08 2230     mov     r2,30h                                  
08051C0A F002FA6F bl      80540ECh                                
08051C0E E056     b       8051CBEh                                
08051C10 0079     lsl     r1,r7,1h                                
08051C12 0300     lsl     r0,r0,0Ch                               
08051C14 7C60     ldrb    r0,[r4,11h]                             
08051C16 3001     add     r0,1h                                   
08051C18 7460     strb    r0,[r4,11h]                             
08051C1A 1C20     mov     r0,r4                                   
08051C1C 2130     mov     r1,30h                                  
08051C1E F7FDFE99 bl      804F954h                                
08051C22 E04C     b       8051CBEh                                
08051C24 2800     cmp     r0,0h                                   
08051C26 D13F     bne     8051CA8h                                
08051C28 7C20     ldrb    r0,[r4,10h]                             
08051C2A 2804     cmp     r0,4h                                   
08051C2C D820     bhi     8051C70h                                
08051C2E 0080     lsl     r0,r0,2h                                
08051C30 4901     ldr     r1,=8051C3Ch                            
08051C32 1840     add     r0,r0,r1                                
08051C34 6800     ldr     r0,[r0]                                 
08051C36 4687     mov     r15,r0                                  
08051C38 1C3C     mov     r4,r7                                   
08051C3A 0805     lsr     r5,r0,20h                               
08051C3C 1C70     add     r0,r6,1                                 
08051C3E 0805     lsr     r5,r0,20h                               
08051C40 1C58     add     r0,r3,1                                 
08051C42 0805     lsr     r5,r0,20h                               
08051C44 1C50     add     r0,r2,1                                 
08051C46 0805     lsr     r5,r0,20h                               
08051C48 1C68     add     r0,r5,1                                 
08051C4A 0805     lsr     r5,r0,20h                               
08051C4C 1C60     add     r0,r4,1                                 
08051C4E 0805     lsr     r5,r0,20h                               
08051C50 7821     ldrb    r1,[r4]                                 
08051C52 2020     mov     r0,20h                                  
08051C54 4308     orr     r0,r1                                   
08051C56 7020     strb    r0,[r4]                                 
08051C58 4800     ldr     r0,=8326F58h                            
08051C5A E00A     b       8051C72h                                
08051C5C 6F58     ldr     r0,[r3,74h]                             
08051C5E 0832     lsr     r2,r6,20h                               
08051C60 7821     ldrb    r1,[r4]                                 
08051C62 2020     mov     r0,20h                                  
08051C64 4308     orr     r0,r1                                   
08051C66 7020     strb    r0,[r4]                                 
08051C68 4800     ldr     r0,=8326F70h                            
08051C6A E002     b       8051C72h                                
08051C6C 6F70     ldr     r0,[r6,74h]                             
08051C6E 0832     lsr     r2,r6,20h                               
08051C70 480B     ldr     r0,=8326F40h                            
08051C72 6060     str     r0,[r4,4h]                              
08051C74 1C20     mov     r0,r4                                   
08051C76 F7FFFF7D bl      8051B74h                                
08051C7A 2000     mov     r0,0h                                   
08051C7C 73A0     strb    r0,[r4,0Eh]                             
08051C7E 81A0     strh    r0,[r4,0Ch]                             
08051C80 4908     ldr     r1,=0FFF8h                              
08051C82 82A1     strh    r1,[r4,14h]                             
08051C84 2008     mov     r0,8h                                   
08051C86 82E0     strh    r0,[r4,16h]                             
08051C88 8321     strh    r1,[r4,18h]                             
08051C8A 8360     strh    r0,[r4,1Ah]                             
08051C8C 7C60     ldrb    r0,[r4,11h]                             
08051C8E 3001     add     r0,1h                                   
08051C90 7460     strb    r0,[r4,11h]                             
08051C92 1C20     mov     r0,r4                                   
08051C94 2109     mov     r1,9h                                   
08051C96 2230     mov     r2,30h                                  
08051C98 F7FEF856 bl      804FD48h                                
08051C9C E00F     b       8051CBEh                                
08051C9E 0000     lsl     r0,r0,0h                                
08051CA0 6F40     ldr     r0,[r0,74h]                             
08051CA2 0832     lsr     r2,r6,20h                               
08051CA4 FFF8     bl      lr+0FF0h                                
08051CA6 0000     lsl     r0,r0,0h                                
08051CA8 7821     ldrb    r1,[r4]                                 
08051CAA 2004     mov     r0,4h                                   
08051CAC 4008     and     r0,r1                                   
08051CAE 2800     cmp     r0,0h                                   
08051CB0 D002     beq     8051CB8h                                
08051CB2 1C20     mov     r0,r4                                   
08051CB4 F7FFFF5E bl      8051B74h                                
08051CB8 1C20     mov     r0,r4                                   
08051CBA F7FEF811 bl      804FCE0h                                
08051CBE BC10     pop     r4                                      
08051CC0 BC01     pop     r0                                      
08051CC2 4700     bx      r0                                      
08051CC4 B500     push    r14                                     
08051CC6 1C03     mov     r3,r0                                   
08051CC8 490A     ldr     r1,=3001530h                            
08051CCA 7A88     ldrb    r0,[r1,0Ah]                             
08051CCC 2800     cmp     r0,0h                                   
08051CCE D009     beq     8051CE4h                                
08051CD0 3801     sub     r0,1h                                   
08051CD2 7288     strb    r0,[r1,0Ah]                             
08051CD4 0600     lsl     r0,r0,18h                               
08051CD6 2800     cmp     r0,0h                                   
08051CD8 D104     bne     8051CE4h                                
08051CDA 4807     ldr     r0,=3001414h                            
08051CDC 7881     ldrb    r1,[r0,2h]                              
08051CDE 2202     mov     r2,2h                                   
08051CE0 4051     eor     r1,r2                                   
08051CE2 7081     strb    r1,[r0,2h]                              
08051CE4 2040     mov     r0,40h                                  
08051CE6 7498     strb    r0,[r3,12h]                             
08051CE8 7819     ldrb    r1,[r3]                                 
08051CEA 20FB     mov     r0,0FBh                                 
08051CEC 4008     and     r0,r1                                   
08051CEE 7018     strb    r0,[r3]                                 
08051CF0 BC01     pop     r0                                      
08051CF2 4700     bx      r0                                      
08051CF4 1530     asr     r0,r6,14h                               
08051CF6 0300     lsl     r0,r0,0Ch                               
08051CF8 1414     asr     r4,r2,10h                               
08051CFA 0300     lsl     r0,r0,0Ch                               
08051CFC B510     push    r4,r14                                  
08051CFE 1C04     mov     r4,r0                                   
08051D00 7C60     ldrb    r0,[r4,11h]                             
08051D02 2802     cmp     r0,2h                                   
08051D04 D11A     bne     8051D3Ch                                
08051D06 480C     ldr     r0,=3000079h                            
08051D08 210A     mov     r1,0Ah                                  
08051D0A 7001     strb    r1,[r0]                                 
08051D0C 1C20     mov     r0,r4                                   
08051D0E F7FDFE95 bl      804FA3Ch                                
08051D12 2800     cmp     r0,0h                                   
08051D14 D11C     bne     8051D50h                                
08051D16 7CE1     ldrb    r1,[r4,13h]                             
08051D18 310C     add     r1,0Ch                                  
08051D1A 1C20     mov     r0,r4                                   
08051D1C F7FDFE1A bl      804F954h                                
08051D20 7CE0     ldrb    r0,[r4,13h]                             
08051D22 280F     cmp     r0,0Fh                                  
08051D24 D801     bhi     8051D2Ah                                
08051D26 3001     add     r0,1h                                   
08051D28 74E0     strb    r0,[r4,13h]                             
08051D2A 1C20     mov     r0,r4                                   
08051D2C 2115     mov     r1,15h                                  
08051D2E 2203     mov     r2,3h                                   
08051D30 F7FDFF82 bl      804FC38h                                
08051D34 E06B     b       8051E0Eh                                
08051D36 0000     lsl     r0,r0,0h                                
08051D38 0079     lsl     r1,r7,1h                                
08051D3A 0300     lsl     r0,r0,0Ch                               
08051D3C 2801     cmp     r0,1h                                   
08051D3E D119     bne     8051D74h                                
08051D40 4807     ldr     r0,=3000079h                            
08051D42 210A     mov     r1,0Ah                                  
08051D44 7001     strb    r1,[r0]                                 
08051D46 1C20     mov     r0,r4                                   
08051D48 F7FDFE78 bl      804FA3Ch                                
08051D4C 2800     cmp     r0,0h                                   
08051D4E D009     beq     8051D64h                                
08051D50 2000     mov     r0,0h                                   
08051D52 7020     strb    r0,[r4]                                 
08051D54 8920     ldrh    r0,[r4,8h]                              
08051D56 8961     ldrh    r1,[r4,0Ah]                             
08051D58 2231     mov     r2,31h                                  
08051D5A F002F9C7 bl      80540ECh                                
08051D5E E056     b       8051E0Eh                                
08051D60 0079     lsl     r1,r7,1h                                
08051D62 0300     lsl     r0,r0,0Ch                               
08051D64 7C60     ldrb    r0,[r4,11h]                             
08051D66 3001     add     r0,1h                                   
08051D68 7460     strb    r0,[r4,11h]                             
08051D6A 1C20     mov     r0,r4                                   
08051D6C 2130     mov     r1,30h                                  
08051D6E F7FDFDF1 bl      804F954h                                
08051D72 E04C     b       8051E0Eh                                
08051D74 2800     cmp     r0,0h                                   
08051D76 D13F     bne     8051DF8h                                
08051D78 7C20     ldrb    r0,[r4,10h]                             
08051D7A 2804     cmp     r0,4h                                   
08051D7C D820     bhi     8051DC0h                                
08051D7E 0080     lsl     r0,r0,2h                                
08051D80 4901     ldr     r1,=8051D8Ch                            
08051D82 1840     add     r0,r0,r1                                
08051D84 6800     ldr     r0,[r0]                                 
08051D86 4687     mov     r15,r0                                  
08051D88 1D8C     add     r4,r1,6                                 
08051D8A 0805     lsr     r5,r0,20h                               
08051D8C 1DC0     add     r0,r0,7                                 
08051D8E 0805     lsr     r5,r0,20h                               
08051D90 1DA8     add     r0,r5,6                                 
08051D92 0805     lsr     r5,r0,20h                               
08051D94 1DA0     add     r0,r4,6                                 
08051D96 0805     lsr     r5,r0,20h                               
08051D98 1DB8     add     r0,r7,6                                 
08051D9A 0805     lsr     r5,r0,20h                               
08051D9C 1DB0     add     r0,r6,6                                 
08051D9E 0805     lsr     r5,r0,20h                               
08051DA0 7821     ldrb    r1,[r4]                                 
08051DA2 2020     mov     r0,20h                                  
08051DA4 4308     orr     r0,r1                                   
08051DA6 7020     strb    r0,[r4]                                 
08051DA8 4800     ldr     r0,=8326FA0h                            
08051DAA E00A     b       8051DC2h                                
08051DAC 6FA0     ldr     r0,[r4,78h]                             
08051DAE 0832     lsr     r2,r6,20h                               
08051DB0 7821     ldrb    r1,[r4]                                 
08051DB2 2020     mov     r0,20h                                  
08051DB4 4308     orr     r0,r1                                   
08051DB6 7020     strb    r0,[r4]                                 
08051DB8 4800     ldr     r0,=8326FB8h                            
08051DBA E002     b       8051DC2h                                
08051DBC 6FB8     ldr     r0,[r7,78h]                             
08051DBE 0832     lsr     r2,r6,20h                               
08051DC0 480B     ldr     r0,=8326F88h                            
08051DC2 6060     str     r0,[r4,4h]                              
08051DC4 1C20     mov     r0,r4                                   
08051DC6 F7FFFF7D bl      8051CC4h                                
08051DCA 2000     mov     r0,0h                                   
08051DCC 73A0     strb    r0,[r4,0Eh]                             
08051DCE 81A0     strh    r0,[r4,0Ch]                             
08051DD0 4908     ldr     r1,=0FFF4h                              
08051DD2 82A1     strh    r1,[r4,14h]                             
08051DD4 200C     mov     r0,0Ch                                  
08051DD6 82E0     strh    r0,[r4,16h]                             
08051DD8 8321     strh    r1,[r4,18h]                             
08051DDA 8360     strh    r0,[r4,1Ah]                             
08051DDC 7C60     ldrb    r0,[r4,11h]                             
08051DDE 3001     add     r0,1h                                   
08051DE0 7460     strb    r0,[r4,11h]                             
08051DE2 1C20     mov     r0,r4                                   
08051DE4 210A     mov     r1,0Ah                                  
08051DE6 2231     mov     r2,31h                                  
08051DE8 F7FDFFAE bl      804FD48h                                
08051DEC E00F     b       8051E0Eh                                
08051DEE 0000     lsl     r0,r0,0h                                
08051DF0 6F88     ldr     r0,[r1,78h]                             
08051DF2 0832     lsr     r2,r6,20h                               
08051DF4 FFF4     bl      lr+0FE8h                                
08051DF6 0000     lsl     r0,r0,0h                                
08051DF8 7821     ldrb    r1,[r4]                                 
08051DFA 2004     mov     r0,4h                                   
08051DFC 4008     and     r0,r1                                   
08051DFE 2800     cmp     r0,0h                                   
08051E00 D002     beq     8051E08h                                
08051E02 1C20     mov     r0,r4                                   
08051E04 F7FFFF5E bl      8051CC4h                                
08051E08 1C20     mov     r0,r4                                   
08051E0A F7FDFF69 bl      804FCE0h                                
08051E0E BC10     pop     r4                                      
08051E10 BC01     pop     r0                                      
08051E12 4700     bx      r0                                      
08051E14 B5F0     push    r4-r7,r14                               
08051E16 464F     mov     r7,r9                                   
08051E18 4646     mov     r6,r8                                   
08051E1A B4C0     push    r6,r7                                   
08051E1C B084     add     sp,-10h                                 
08051E1E 1C05     mov     r5,r0                                   
08051E20 4F28     ldr     r7,=30013D4h                            
08051E22 8AB9     ldrh    r1,[r7,14h]                             
08051E24 8A7B     ldrh    r3,[r7,12h]                             
08051E26 4C28     ldr     r4,=3001588h                            
08051E28 1C20     mov     r0,r4                                   
08051E2A 3070     add     r0,70h                                  
08051E2C 8800     ldrh    r0,[r0]                                 
08051E2E 1808     add     r0,r1,r0                                
08051E30 0400     lsl     r0,r0,10h                               
08051E32 0C00     lsr     r0,r0,10h                               
08051E34 1C22     mov     r2,r4                                   
08051E36 3274     add     r2,74h                                  
08051E38 8812     ldrh    r2,[r2]                                 
08051E3A 1889     add     r1,r1,r2                                
08051E3C 0409     lsl     r1,r1,10h                               
08051E3E 0C09     lsr     r1,r1,10h                               
08051E40 1C22     mov     r2,r4                                   
08051E42 326E     add     r2,6Eh                                  
08051E44 8812     ldrh    r2,[r2]                                 
08051E46 189A     add     r2,r3,r2                                
08051E48 0412     lsl     r2,r2,10h                               
08051E4A 0C12     lsr     r2,r2,10h                               
08051E4C 3472     add     r4,72h                                  
08051E4E 8824     ldrh    r4,[r4]                                 
08051E50 191B     add     r3,r3,r4                                
08051E52 041B     lsl     r3,r3,10h                               
08051E54 0C1B     lsr     r3,r3,10h                               
08051E56 892C     ldrh    r4,[r5,8h]                              
08051E58 46A0     mov     r8,r4                                   
08051E5A 896C     ldrh    r4,[r5,0Ah]                             
08051E5C 46A1     mov     r9,r4                                   
08051E5E 8AAE     ldrh    r6,[r5,14h]                             
08051E60 4446     add     r6,r8                                   
08051E62 0436     lsl     r6,r6,10h                               
08051E64 0C36     lsr     r6,r6,10h                               
08051E66 8AEC     ldrh    r4,[r5,16h]                             
08051E68 44A0     add     r8,r4                                   
08051E6A 4644     mov     r4,r8                                   
08051E6C 0424     lsl     r4,r4,10h                               
08051E6E 0C24     lsr     r4,r4,10h                               
08051E70 46A0     mov     r8,r4                                   
08051E72 8B2C     ldrh    r4,[r5,18h]                             
08051E74 444C     add     r4,r9                                   
08051E76 0424     lsl     r4,r4,10h                               
08051E78 0C24     lsr     r4,r4,10h                               
08051E7A 8B6D     ldrh    r5,[r5,1Ah]                             
08051E7C 44A9     add     r9,r5                                   
08051E7E 464D     mov     r5,r9                                   
08051E80 042D     lsl     r5,r5,10h                               
08051E82 0C2D     lsr     r5,r5,10h                               
08051E84 46A9     mov     r9,r5                                   
08051E86 9600     str     r6,[sp]                                 
08051E88 4645     mov     r5,r8                                   
08051E8A 9501     str     r5,[sp,4h]                              
08051E8C 9402     str     r4,[sp,8h]                              
08051E8E 464C     mov     r4,r9                                   
08051E90 9403     str     r4,[sp,0Ch]                             
08051E92 F7BCFC31 bl      800E6F8h                                
08051E96 2800     cmp     r0,0h                                   
08051E98 D00C     beq     8051EB4h                                
08051E9A 79B8     ldrb    r0,[r7,6h]                              
08051E9C 2800     cmp     r0,0h                                   
08051E9E D109     bne     8051EB4h                                
08051EA0 7838     ldrb    r0,[r7]                                 
08051EA2 2812     cmp     r0,12h                                  
08051EA4 DC06     bgt     8051EB4h                                
08051EA6 2811     cmp     r0,11h                                  
08051EA8 DB04     blt     8051EB4h                                
08051EAA 20F0     mov     r0,0F0h                                 
08051EAC 7138     strb    r0,[r7,4h]                              
08051EAE 2025     mov     r0,25h                                  
08051EB0 F7B5FB1A bl      80074E8h                                
08051EB4 B004     add     sp,10h                                  
08051EB6 BC18     pop     r3,r4                                   
08051EB8 4698     mov     r8,r3                                   
08051EBA 46A1     mov     r9,r4                                   
08051EBC BCF0     pop     r4-r7                                   
08051EBE BC01     pop     r0                                      
08051EC0 4700     bx      r0                                      
08051EC2 0000     lsl     r0,r0,0h                                
08051EC4 13D4     asr     r4,r2,0Fh                               
08051EC6 0300     lsl     r0,r0,0Ch                               
08051EC8 1588     asr     r0,r1,16h                               
08051ECA 0300     lsl     r0,r0,0Ch                               
08051ECC B5F0     push    r4-r7,r14                               
08051ECE 4657     mov     r7,r10                                  
08051ED0 464E     mov     r6,r9                                   
08051ED2 4645     mov     r5,r8                                   
08051ED4 B4E0     push    r5-r7                                   
08051ED6 B087     add     sp,-1Ch                                 
08051ED8 4680     mov     r8,r0                                   
08051EDA 483A     ldr     r0,=30013D4h                            
08051EDC 8A84     ldrh    r4,[r0,14h]                             
08051EDE 9404     str     r4,[sp,10h]                             
08051EE0 8A45     ldrh    r5,[r0,12h]                             
08051EE2 9505     str     r5,[sp,14h]                             
08051EE4 1C20     mov     r0,r4                                   
08051EE6 3020     add     r0,20h                                  
08051EE8 1C29     mov     r1,r5                                   
08051EEA F005FFC7 bl      8057E7Ch                                
08051EEE 2680     mov     r6,80h                                  
08051EF0 0476     lsl     r6,r6,11h                               
08051EF2 4030     and     r0,r6                                   
08051EF4 2800     cmp     r0,0h                                   
08051EF6 D007     beq     8051F08h                                
08051EF8 1C20     mov     r0,r4                                   
08051EFA 3860     sub     r0,60h                                  
08051EFC 1C29     mov     r1,r5                                   
08051EFE F005FFBD bl      8057E7Ch                                
08051F02 4030     and     r0,r6                                   
08051F04 2800     cmp     r0,0h                                   
08051F06 D16F     bne     8051FE8h                                
08051F08 482F     ldr     r0,=3001600h                            
08051F0A 8800     ldrh    r0,[r0]                                 
08051F0C 9006     str     r0,[sp,18h]                             
08051F0E 4B2F     ldr     r3,=3001588h                            
08051F10 1C18     mov     r0,r3                                   
08051F12 3070     add     r0,70h                                  
08051F14 8800     ldrh    r0,[r0]                                 
08051F16 9904     ldr     r1,[sp,10h]                             
08051F18 1808     add     r0,r1,r0                                
08051F1A 0400     lsl     r0,r0,10h                               
08051F1C 0C00     lsr     r0,r0,10h                               
08051F1E 1C19     mov     r1,r3                                   
08051F20 3174     add     r1,74h                                  
08051F22 8809     ldrh    r1,[r1]                                 
08051F24 9A04     ldr     r2,[sp,10h]                             
08051F26 1851     add     r1,r2,r1                                
08051F28 0409     lsl     r1,r1,10h                               
08051F2A 0C09     lsr     r1,r1,10h                               
08051F2C 1C1A     mov     r2,r3                                   
08051F2E 326E     add     r2,6Eh                                  
08051F30 8812     ldrh    r2,[r2]                                 
08051F32 18AA     add     r2,r5,r2                                
08051F34 0412     lsl     r2,r2,10h                               
08051F36 0C12     lsr     r2,r2,10h                               
08051F38 3372     add     r3,72h                                  
08051F3A 881B     ldrh    r3,[r3]                                 
08051F3C 18EB     add     r3,r5,r3                                
08051F3E 041B     lsl     r3,r3,10h                               
08051F40 0C1B     lsr     r3,r3,10h                               
08051F42 4644     mov     r4,r8                                   
08051F44 8924     ldrh    r4,[r4,8h]                              
08051F46 46A2     mov     r10,r4                                  
08051F48 4646     mov     r6,r8                                   
08051F4A 8976     ldrh    r6,[r6,0Ah]                             
08051F4C 46B1     mov     r9,r6                                   
08051F4E 4644     mov     r4,r8                                   
08051F50 8AA6     ldrh    r6,[r4,14h]                             
08051F52 4456     add     r6,r10                                  
08051F54 0436     lsl     r6,r6,10h                               
08051F56 0C36     lsr     r6,r6,10h                               
08051F58 46B4     mov     r12,r6                                  
08051F5A 8AE5     ldrh    r5,[r4,16h]                             
08051F5C 4455     add     r5,r10                                  
08051F5E 042D     lsl     r5,r5,10h                               
08051F60 0C2D     lsr     r5,r5,10h                               
08051F62 8B24     ldrh    r4,[r4,18h]                             
08051F64 444C     add     r4,r9                                   
08051F66 0424     lsl     r4,r4,10h                               
08051F68 0C27     lsr     r7,r4,10h                               
08051F6A 4646     mov     r6,r8                                   
08051F6C 8B74     ldrh    r4,[r6,1Ah]                             
08051F6E 444C     add     r4,r9                                   
08051F70 0424     lsl     r4,r4,10h                               
08051F72 0C24     lsr     r4,r4,10h                               
08051F74 4666     mov     r6,r12                                  
08051F76 9600     str     r6,[sp]                                 
08051F78 9501     str     r5,[sp,4h]                              
08051F7A 9702     str     r7,[sp,8h]                              
08051F7C 9403     str     r4,[sp,0Ch]                             
08051F7E F7BCFBBB bl      800E6F8h                                
08051F82 2800     cmp     r0,0h                                   
08051F84 D030     beq     8051FE8h                                
08051F86 1BE0     sub     r0,r4,r7                                
08051F88 0FC1     lsr     r1,r0,1Fh                               
08051F8A 1840     add     r0,r0,r1                                
08051F8C 1040     asr     r0,r0,1h                                
08051F8E 1838     add     r0,r7,r0                                
08051F90 0400     lsl     r0,r0,10h                               
08051F92 0C04     lsr     r4,r0,10h                               
08051F94 490B     ldr     r1,=30013D4h                            
08051F96 7988     ldrb    r0,[r1,6h]                              
08051F98 2800     cmp     r0,0h                                   
08051F9A D125     bne     8051FE8h                                
08051F9C 9804     ldr     r0,[sp,10h]                             
08051F9E 3820     sub     r0,20h                                  
08051FA0 2100     mov     r1,0h                                   
08051FA2 4550     cmp     r0,r10                                  
08051FA4 DD00     ble     8051FA8h                                
08051FA6 2180     mov     r1,80h                                  
08051FA8 4648     mov     r0,r9                                   
08051FAA 3005     add     r0,5h                                   
08051FAC 9A05     ldr     r2,[sp,14h]                             
08051FAE 4282     cmp     r2,r0                                   
08051FB0 DA0E     bge     8051FD0h                                
08051FB2 380A     sub     r0,0Ah                                  
08051FB4 4282     cmp     r2,r0                                   
08051FB6 DD0B     ble     8051FD0h                                
08051FB8 1C08     mov     r0,r1                                   
08051FBA 300B     add     r0,0Bh                                  
08051FBC F7B5FCC4 bl      8007948h                                
08051FC0 E012     b       8051FE8h                                
08051FC2 0000     lsl     r0,r0,0h                                
08051FC4 13D4     asr     r4,r2,0Fh                               
08051FC6 0300     lsl     r0,r0,0Ch                               
08051FC8 1600     asr     r0,r0,18h                               
08051FCA 0300     lsl     r0,r0,0Ch                               
08051FCC 1588     asr     r0,r1,16h                               
08051FCE 0300     lsl     r0,r0,0Ch                               
08051FD0 9E06     ldr     r6,[sp,18h]                             
08051FD2 42B4     cmp     r4,r6                                   
08051FD4 D304     bcc     8051FE0h                                
08051FD6 1C08     mov     r0,r1                                   
08051FD8 300C     add     r0,0Ch                                  
08051FDA F7B5FCB5 bl      8007948h                                
08051FDE E003     b       8051FE8h                                
08051FE0 1C08     mov     r0,r1                                   
08051FE2 300A     add     r0,0Ah                                  
08051FE4 F7B5FCB0 bl      8007948h                                
08051FE8 B007     add     sp,1Ch                                  
08051FEA BC38     pop     r3-r5                                   
08051FEC 4698     mov     r8,r3                                   
08051FEE 46A1     mov     r9,r4                                   
08051FF0 46AA     mov     r10,r5                                  
08051FF2 BCF0     pop     r4-r7                                   
08051FF4 BC01     pop     r0                                      
08051FF6 4700     bx      r0                                      
08051FF8 B510     push    r4,r14                                  
08051FFA 1C04     mov     r4,r0                                   
08051FFC 7C60     ldrb    r0,[r4,11h]                             
08051FFE 2807     cmp     r0,7h                                   
08052000 D900     bls     8052004h                                
08052002 E0F2     b       80521EAh                                
08052004 0080     lsl     r0,r0,2h                                
08052006 4902     ldr     r1,=8052014h                            
08052008 1840     add     r0,r0,r1                                
0805200A 6800     ldr     r0,[r0]                                 
0805200C 4687     mov     r15,r0                                  
0805200E 0000     lsl     r0,r0,0h                                
08052010 2014     mov     r0,14h                                  
08052012 0805     lsr     r5,r0,20h                               
08052014 2034     mov     r0,34h                                  
08052016 0805     lsr     r5,r0,20h                               
08052018 218C     mov     r1,8Ch                                  
0805201A 0805     lsr     r5,r0,20h                               
0805201C 21B4     mov     r1,0B4h                                 
0805201E 0805     lsr     r5,r0,20h                               
08052020 2078     mov     r0,78h                                  
08052022 0805     lsr     r5,r0,20h                               
08052024 217C     mov     r1,7Ch                                  
08052026 0805     lsr     r5,r0,20h                               
08052028 218C     mov     r1,8Ch                                  
0805202A 0805     lsr     r5,r0,20h                               
0805202C 21B4     mov     r1,0B4h                                 
0805202E 0805     lsr     r5,r0,20h                               
08052030 21E0     mov     r1,0E0h                                 
08052032 0805     lsr     r5,r0,20h                               
08052034 480E     ldr     r0,=8326D40h                            
08052036 6060     str     r0,[r4,4h]                              
08052038 2000     mov     r0,0h                                   
0805203A 73A0     strb    r0,[r4,0Eh]                             
0805203C 81A0     strh    r0,[r4,0Ch]                             
0805203E 2020     mov     r0,20h                                  
08052040 74A0     strb    r0,[r4,12h]                             
08052042 480C     ldr     r0,=0FFC4h                              
08052044 82A0     strh    r0,[r4,14h]                             
08052046 2130     mov     r1,30h                                  
08052048 82E1     strh    r1,[r4,16h]                             
0805204A 300C     add     r0,0Ch                                  
0805204C 8320     strh    r0,[r4,18h]                             
0805204E 8361     strh    r1,[r4,1Ah]                             
08052050 7821     ldrb    r1,[r4]                                 
08052052 20BB     mov     r0,0BBh                                 
08052054 4008     and     r0,r1                                   
08052056 2108     mov     r1,8h                                   
08052058 4308     orr     r0,r1                                   
0805205A 7020     strb    r0,[r4]                                 
0805205C 2010     mov     r0,10h                                  
0805205E 74E0     strb    r0,[r4,13h]                             
08052060 7C60     ldrb    r0,[r4,11h]                             
08052062 3001     add     r0,1h                                   
08052064 7460     strb    r0,[r4,11h]                             
08052066 20FE     mov     r0,0FEh                                 
08052068 F7B0FCD6 bl      8002A18h                                
0805206C E0BD     b       80521EAh                                
0805206E 0000     lsl     r0,r0,0h                                
08052070 6D40     ldr     r0,[r0,54h]                             
08052072 0832     lsr     r2,r6,20h                               
08052074 FFC4     bl      lr+0F88h                                
08052076 0000     lsl     r0,r0,0h                                
08052078 7CE0     ldrb    r0,[r4,13h]                             
0805207A 1E41     sub     r1,r0,1                                 
0805207C 74E1     strb    r1,[r4,13h]                             
0805207E 0608     lsl     r0,r1,18h                               
08052080 0E00     lsr     r0,r0,18h                               
08052082 2800     cmp     r0,0h                                   
08052084 D100     bne     8052088h                                
08052086 E0AF     b       80521E8h                                
08052088 0608     lsl     r0,r1,18h                               
0805208A 0E01     lsr     r1,r0,18h                               
0805208C 290F     cmp     r1,0Fh                                  
0805208E D111     bne     80520B4h                                
08052090 4907     ldr     r1,=3000079h                            
08052092 2008     mov     r0,8h                                   
08052094 7008     strb    r0,[r1]                                 
08052096 8920     ldrh    r0,[r4,8h]                              
08052098 3808     sub     r0,8h                                   
0805209A 8961     ldrh    r1,[r4,0Ah]                             
0805209C F005FEEE bl      8057E7Ch                                
080520A0 1C20     mov     r0,r4                                   
080520A2 F7FFFF13 bl      8051ECCh                                
080520A6 7821     ldrb    r1,[r4]                                 
080520A8 20EF     mov     r0,0EFh                                 
080520AA 4008     and     r0,r1                                   
080520AC E09C     b       80521E8h                                
080520AE 0000     lsl     r0,r0,0h                                
080520B0 0079     lsl     r1,r7,1h                                
080520B2 0300     lsl     r0,r0,0Ch                               
080520B4 290E     cmp     r1,0Eh                                  
080520B6 D107     bne     80520C8h                                
080520B8 4902     ldr     r1,=3000079h                            
080520BA 2008     mov     r0,8h                                   
080520BC 7008     strb    r0,[r1]                                 
080520BE 8920     ldrh    r0,[r4,8h]                              
080520C0 3038     add     r0,38h                                  
080520C2 E038     b       8052136h                                
080520C4 0079     lsl     r1,r7,1h                                
080520C6 0300     lsl     r0,r0,0Ch                               
080520C8 290D     cmp     r1,0Dh                                  
080520CA D10B     bne     80520E4h                                
080520CC 4904     ldr     r1,=3000079h                            
080520CE 2008     mov     r0,8h                                   
080520D0 7008     strb    r0,[r1]                                 
080520D2 8920     ldrh    r0,[r4,8h]                              
080520D4 3808     sub     r0,8h                                   
080520D6 8961     ldrh    r1,[r4,0Ah]                             
080520D8 3130     add     r1,30h                                  
080520DA F005FECF bl      8057E7Ch                                
080520DE E084     b       80521EAh                                
080520E0 0079     lsl     r1,r7,1h                                
080520E2 0300     lsl     r0,r0,0Ch                               
080520E4 290C     cmp     r1,0Ch                                  
080520E6 D10B     bne     8052100h                                
080520E8 4904     ldr     r1,=3000079h                            
080520EA 2008     mov     r0,8h                                   
080520EC 7008     strb    r0,[r1]                                 
080520EE 8920     ldrh    r0,[r4,8h]                              
080520F0 3808     sub     r0,8h                                   
080520F2 8961     ldrh    r1,[r4,0Ah]                             
080520F4 3930     sub     r1,30h                                  
080520F6 F005FEC1 bl      8057E7Ch                                
080520FA E076     b       80521EAh                                
080520FC 0079     lsl     r1,r7,1h                                
080520FE 0300     lsl     r0,r0,0Ch                               
08052100 290B     cmp     r1,0Bh                                  
08052102 D107     bne     8052114h                                
08052104 4902     ldr     r1,=3000079h                            
08052106 2008     mov     r0,8h                                   
08052108 7008     strb    r0,[r1]                                 
0805210A 8920     ldrh    r0,[r4,8h]                              
0805210C 3038     add     r0,38h                                  
0805210E E01F     b       8052150h                                
08052110 0079     lsl     r1,r7,1h                                
08052112 0300     lsl     r0,r0,0Ch                               
08052114 290A     cmp     r1,0Ah                                  
08052116 D107     bne     8052128h                                
08052118 4902     ldr     r1,=3000079h                            
0805211A 2008     mov     r0,8h                                   
0805211C 7008     strb    r0,[r1]                                 
0805211E 8920     ldrh    r0,[r4,8h]                              
08052120 3038     add     r0,38h                                  
08052122 E024     b       805216Eh                                
08052124 0079     lsl     r1,r7,1h                                
08052126 0300     lsl     r0,r0,0Ch                               
08052128 2909     cmp     r1,9h                                   
0805212A D10B     bne     8052144h                                
0805212C 4904     ldr     r1,=3000079h                            
0805212E 2008     mov     r0,8h                                   
08052130 7008     strb    r0,[r1]                                 
08052132 8920     ldrh    r0,[r4,8h]                              
08052134 3848     sub     r0,48h                                  
08052136 8961     ldrh    r1,[r4,0Ah]                             
08052138 F005FEA0 bl      8057E7Ch                                
0805213C E055     b       80521EAh                                
0805213E 0000     lsl     r0,r0,0h                                
08052140 0079     lsl     r1,r7,1h                                
08052142 0300     lsl     r0,r0,0Ch                               
08052144 2908     cmp     r1,8h                                   
08052146 D10B     bne     8052160h                                
08052148 4804     ldr     r0,=3000079h                            
0805214A 7001     strb    r1,[r0]                                 
0805214C 8920     ldrh    r0,[r4,8h]                              
0805214E 3848     sub     r0,48h                                  
08052150 8961     ldrh    r1,[r4,0Ah]                             
08052152 3124     add     r1,24h                                  
08052154 F005FE92 bl      8057E7Ch                                
08052158 E047     b       80521EAh                                
0805215A 0000     lsl     r0,r0,0h                                
0805215C 0079     lsl     r1,r7,1h                                
0805215E 0300     lsl     r0,r0,0Ch                               
08052160 2907     cmp     r1,7h                                   
08052162 D142     bne     80521EAh                                
08052164 4904     ldr     r1,=3000079h                            
08052166 2008     mov     r0,8h                                   
08052168 7008     strb    r0,[r1]                                 
0805216A 8920     ldrh    r0,[r4,8h]                              
0805216C 3848     sub     r0,48h                                  
0805216E 8961     ldrh    r1,[r4,0Ah]                             
08052170 3924     sub     r1,24h                                  
08052172 F005FE83 bl      8057E7Ch                                
08052176 E038     b       80521EAh                                
08052178 0079     lsl     r1,r7,1h                                
0805217A 0300     lsl     r0,r0,0Ch                               
0805217C 4802     ldr     r0,=8326D40h                            
0805217E 6060     str     r0,[r4,4h]                              
08052180 2000     mov     r0,0h                                   
08052182 73A0     strb    r0,[r4,0Eh]                             
08052184 81A0     strh    r0,[r4,0Ch]                             
08052186 E00C     b       80521A2h                                
08052188 6D40     ldr     r0,[r0,54h]                             
0805218A 0832     lsr     r2,r6,20h                               
0805218C 7CE0     ldrb    r0,[r4,13h]                             
0805218E 3801     sub     r0,1h                                   
08052190 74E0     strb    r0,[r4,13h]                             
08052192 0600     lsl     r0,r0,18h                               
08052194 0E01     lsr     r1,r0,18h                               
08052196 2900     cmp     r1,0h                                   
08052198 D127     bne     80521EAh                                
0805219A 4805     ldr     r0,=8326D68h                            
0805219C 6060     str     r0,[r4,4h]                              
0805219E 73A1     strb    r1,[r4,0Eh]                             
080521A0 81A1     strh    r1,[r4,0Ch]                             
080521A2 2010     mov     r0,10h                                  
080521A4 74E0     strb    r0,[r4,13h]                             
080521A6 7C60     ldrb    r0,[r4,11h]                             
080521A8 3001     add     r0,1h                                   
080521AA 7460     strb    r0,[r4,11h]                             
080521AC E01D     b       80521EAh                                
080521AE 0000     lsl     r0,r0,0h                                
080521B0 6D68     ldr     r0,[r5,54h]                             
080521B2 0832     lsr     r2,r6,20h                               
080521B4 7CE0     ldrb    r0,[r4,13h]                             
080521B6 3801     sub     r0,1h                                   
080521B8 74E0     strb    r0,[r4,13h]                             
080521BA 0600     lsl     r0,r0,18h                               
080521BC 2800     cmp     r0,0h                                   
080521BE D114     bne     80521EAh                                
080521C0 2010     mov     r0,10h                                  
080521C2 74E0     strb    r0,[r4,13h]                             
080521C4 7C60     ldrb    r0,[r4,11h]                             
080521C6 3001     add     r0,1h                                   
080521C8 7460     strb    r0,[r4,11h]                             
080521CA 7820     ldrb    r0,[r4]                                 
080521CC 2114     mov     r1,14h                                  
080521CE 4308     orr     r0,r1                                   
080521D0 7020     strb    r0,[r4]                                 
080521D2 8920     ldrh    r0,[r4,8h]                              
080521D4 3810     sub     r0,10h                                  
080521D6 8961     ldrh    r1,[r4,0Ah]                             
080521D8 2213     mov     r2,13h                                  
080521DA F001FF87 bl      80540ECh                                
080521DE E004     b       80521EAh                                
080521E0 1C20     mov     r0,r4                                   
080521E2 F7FFFE17 bl      8051E14h                                
080521E6 2000     mov     r0,0h                                   
080521E8 7020     strb    r0,[r4]                                 
080521EA BC10     pop     r4                                      
080521EC BC01     pop     r0                                      
080521EE 4700     bx      r0                                      
080521F0 4770     bx      r14                                     
080521F2 0000     lsl     r0,r0,0h                                
080521F4 B570     push    r4-r6,r14                               
080521F6 1C04     mov     r4,r0                                   
080521F8 7C60     ldrb    r0,[r4,11h]                             
080521FA 2801     cmp     r0,1h                                   
080521FC D058     beq     80522B0h                                
080521FE 2801     cmp     r0,1h                                   
08052200 DC02     bgt     8052208h                                
08052202 2800     cmp     r0,0h                                   
08052204 D003     beq     805220Eh                                
08052206 E079     b       80522FCh                                
08052208 2802     cmp     r0,2h                                   
0805220A D065     beq     80522D8h                                
0805220C E076     b       80522FCh                                
0805220E 4922     ldr     r1,=3001530h                            
08052210 7AC8     ldrb    r0,[r1,0Bh]                             
08052212 2800     cmp     r0,0h                                   
08052214 D009     beq     805222Ah                                
08052216 3801     sub     r0,1h                                   
08052218 72C8     strb    r0,[r1,0Bh]                             
0805221A 0600     lsl     r0,r0,18h                               
0805221C 2800     cmp     r0,0h                                   
0805221E D104     bne     805222Ah                                
08052220 481E     ldr     r0,=3001414h                            
08052222 7881     ldrb    r1,[r0,2h]                              
08052224 2204     mov     r2,4h                                   
08052226 4051     eor     r1,r2                                   
08052228 7081     strb    r1,[r0,2h]                              
0805222A 481D     ldr     r0,=8326D90h                            
0805222C 6060     str     r0,[r4,4h]                              
0805222E 2000     mov     r0,0h                                   
08052230 73A0     strb    r0,[r4,0Eh]                             
08052232 81A0     strh    r0,[r4,0Ch]                             
08052234 2020     mov     r0,20h                                  
08052236 74A0     strb    r0,[r4,12h]                             
08052238 491A     ldr     r1,=0FFF0h                              
0805223A 82A1     strh    r1,[r4,14h]                             
0805223C 2010     mov     r0,10h                                  
0805223E 82E0     strh    r0,[r4,16h]                             
08052240 8321     strh    r1,[r4,18h]                             
08052242 8360     strh    r0,[r4,1Ah]                             
08052244 7821     ldrb    r1,[r4]                                 
08052246 20BB     mov     r0,0BBh                                 
08052248 4008     and     r0,r1                                   
0805224A 2108     mov     r1,8h                                   
0805224C 4308     orr     r0,r1                                   
0805224E 7020     strb    r0,[r4]                                 
08052250 2036     mov     r0,36h                                  
08052252 74E0     strb    r0,[r4,13h]                             
08052254 7C60     ldrb    r0,[r4,11h]                             
08052256 3001     add     r0,1h                                   
08052258 7460     strb    r0,[r4,11h]                             
0805225A 4B13     ldr     r3,=30001ACh                            
0805225C 21A8     mov     r1,0A8h                                 
0805225E 00C9     lsl     r1,r1,3h                                
08052260 1858     add     r0,r3,r1                                
08052262 4283     cmp     r3,r0                                   
08052264 D210     bcs     8052288h                                
08052266 2601     mov     r6,1h                                   
08052268 257F     mov     r5,7Fh                                  
0805226A 1C04     mov     r4,r0                                   
0805226C 8819     ldrh    r1,[r3]                                 
0805226E 1C30     mov     r0,r6                                   
08052270 4008     and     r0,r1                                   
08052272 2800     cmp     r0,0h                                   
08052274 D005     beq     8052282h                                
08052276 1C1A     mov     r2,r3                                   
08052278 322B     add     r2,2Bh                                  
0805227A 7811     ldrb    r1,[r2]                                 
0805227C 1C28     mov     r0,r5                                   
0805227E 4008     and     r0,r1                                   
08052280 7010     strb    r0,[r2]                                 
08052282 3338     add     r3,38h                                  
08052284 42A3     cmp     r3,r4                                   
08052286 D3F1     bcc     805226Ch                                
08052288 2080     mov     r0,80h                                  
0805228A 0040     lsl     r0,r0,1h                                
0805228C F7B0FBC4 bl      8002A18h                                
08052290 4906     ldr     r1,=3000130h                            
08052292 2001     mov     r0,1h                                   
08052294 7408     strb    r0,[r1,10h]                             
08052296 E031     b       80522FCh                                
08052298 1530     asr     r0,r6,14h                               
0805229A 0300     lsl     r0,r0,0Ch                               
0805229C 1414     asr     r4,r2,10h                               
0805229E 0300     lsl     r0,r0,0Ch                               
080522A0 6D90     ldr     r0,[r2,58h]                             
080522A2 0832     lsr     r2,r6,20h                               
080522A4 FFF0     bl      lr+0FE0h                                
080522A6 0000     lsl     r0,r0,0h                                
080522A8 01AC     lsl     r4,r5,6h                                
080522AA 0300     lsl     r0,r0,0Ch                               
080522AC 0130     lsl     r0,r6,4h                                
080522AE 0300     lsl     r0,r0,0Ch                               
080522B0 7CE0     ldrb    r0,[r4,13h]                             
080522B2 3801     sub     r0,1h                                   
080522B4 74E0     strb    r0,[r4,13h]                             
080522B6 0600     lsl     r0,r0,18h                               
080522B8 0E01     lsr     r1,r0,18h                               
080522BA 2900     cmp     r1,0h                                   
080522BC D11E     bne     80522FCh                                
080522BE 4805     ldr     r0,=8326DB0h                            
080522C0 6060     str     r0,[r4,4h]                              
080522C2 73A1     strb    r1,[r4,0Eh]                             
080522C4 81A1     strh    r1,[r4,0Ch]                             
080522C6 2028     mov     r0,28h                                  
080522C8 74E0     strb    r0,[r4,13h]                             
080522CA 7C60     ldrb    r0,[r4,11h]                             
080522CC 3001     add     r0,1h                                   
080522CE 7460     strb    r0,[r4,11h]                             
080522D0 E014     b       80522FCh                                
080522D2 0000     lsl     r0,r0,0h                                
080522D4 6DB0     ldr     r0,[r6,58h]                             
080522D6 0832     lsr     r2,r6,20h                               
080522D8 480A     ldr     r0,=3000C72h                            
080522DA 2100     mov     r1,0h                                   
080522DC 5E40     ldsh    r0,[r0,r1]                              
080522DE 2802     cmp     r0,2h                                   
080522E0 D10C     bne     80522FCh                                
080522E2 7CE0     ldrb    r0,[r4,13h]                             
080522E4 3801     sub     r0,1h                                   
080522E6 74E0     strb    r0,[r4,13h]                             
080522E8 0600     lsl     r0,r0,18h                               
080522EA 0E05     lsr     r5,r0,18h                               
080522EC 2D00     cmp     r5,0h                                   
080522EE D105     bne     80522FCh                                
080522F0 8960     ldrh    r0,[r4,0Ah]                             
080522F2 8921     ldrh    r1,[r4,8h]                              
080522F4 2200     mov     r2,0h                                   
080522F6 F005F9F9 bl      80576ECh                                
080522FA 7025     strb    r5,[r4]                                 
080522FC BC70     pop     r4-r6                                   
080522FE BC01     pop     r0                                      
08052300 4700     bx      r0                                      
08052302 0000     lsl     r0,r0,0h                                
08052304 0C72     lsr     r2,r6,11h                               
08052306 0300     lsl     r0,r0,0Ch                               
08052308 B5F0     push    r4-r7,r14                               
0805230A 4657     mov     r7,r10                                  
0805230C 464E     mov     r6,r9                                   
0805230E 4645     mov     r5,r8                                   
08052310 B4E0     push    r5-r7                                   
08052312 2600     mov     r6,0h                                   
08052314 4852     ldr     r0,=300004Ah                            
08052316 7804     ldrb    r4,[r0]                                 
08052318 2C00     cmp     r4,0h                                   
0805231A D000     beq     805231Eh                                
0805231C E192     b       8052644h                                
0805231E 4F51     ldr     r7,=3000E7Ch                            
08052320 803E     strh    r6,[r7]                                 
08052322 3702     add     r7,2h                                   
08052324 4B4F     ldr     r3,=3000E7Ch                            
08052326 2002     mov     r0,2h                                   
08052328 7018     strb    r0,[r3]                                 
0805232A 7859     ldrb    r1,[r3,1h]                              
0805232C 223F     mov     r2,3Fh                                  
0805232E 4694     mov     r12,r2                                  
08052330 4660     mov     r0,r12                                  
08052332 4008     and     r0,r1                                   
08052334 2540     mov     r5,40h                                  
08052336 4328     orr     r0,r5                                   
08052338 7058     strb    r0,[r3,1h]                              
0805233A 803E     strh    r6,[r7]                                 
0805233C 3702     add     r7,2h                                   
0805233E 8859     ldrh    r1,[r3,2h]                              
08052340 4849     ldr     r0,=0FFFFFE00h                          
08052342 4681     mov     r9,r0                                   
08052344 4008     and     r0,r1                                   
08052346 8058     strh    r0,[r3,2h]                              
08052348 78D9     ldrb    r1,[r3,3h]                              
0805234A 4660     mov     r0,r12                                  
0805234C 4008     and     r0,r1                                   
0805234E 4328     orr     r0,r5                                   
08052350 70D8     strb    r0,[r3,3h]                              
08052352 803E     strh    r6,[r7]                                 
08052354 8899     ldrh    r1,[r3,4h]                              
08052356 4A45     ldr     r2,=0FFFFFC00h                          
08052358 4692     mov     r10,r2                                  
0805235A 4650     mov     r0,r10                                  
0805235C 4008     and     r0,r1                                   
0805235E 2150     mov     r1,50h                                  
08052360 4308     orr     r0,r1                                   
08052362 8098     strh    r0,[r3,4h]                              
08052364 7959     ldrb    r1,[r3,5h]                              
08052366 200F     mov     r0,0Fh                                  
08052368 4008     and     r0,r1                                   
0805236A 4328     orr     r0,r5                                   
0805236C 7158     strb    r0,[r3,5h]                              
0805236E 3704     add     r7,4h                                   
08052370 803C     strh    r4,[r7]                                 
08052372 3702     add     r7,2h                                   
08052374 1C1A     mov     r2,r3                                   
08052376 3208     add     r2,8h                                   
08052378 2002     mov     r0,2h                                   
0805237A 7218     strb    r0,[r3,8h]                              
0805237C 7851     ldrb    r1,[r2,1h]                              
0805237E 4660     mov     r0,r12                                  
08052380 4008     and     r0,r1                                   
08052382 4328     orr     r0,r5                                   
08052384 7050     strb    r0,[r2,1h]                              
08052386 803C     strh    r4,[r7]                                 
08052388 3702     add     r7,2h                                   
0805238A 8851     ldrh    r1,[r2,2h]                              
0805238C 4648     mov     r0,r9                                   
0805238E 4008     and     r0,r1                                   
08052390 2120     mov     r1,20h                                  
08052392 4308     orr     r0,r1                                   
08052394 8050     strh    r0,[r2,2h]                              
08052396 78D1     ldrb    r1,[r2,3h]                              
08052398 4660     mov     r0,r12                                  
0805239A 4008     and     r0,r1                                   
0805239C 4328     orr     r0,r5                                   
0805239E 70D0     strb    r0,[r2,3h]                              
080523A0 803C     strh    r4,[r7]                                 
080523A2 8891     ldrh    r1,[r2,4h]                              
080523A4 4650     mov     r0,r10                                  
080523A6 4008     and     r0,r1                                   
080523A8 2154     mov     r1,54h                                  
080523AA 4308     orr     r0,r1                                   
080523AC 8090     strh    r0,[r2,4h]                              
080523AE 7951     ldrb    r1,[r2,5h]                              
080523B0 200F     mov     r0,0Fh                                  
080523B2 4008     and     r0,r1                                   
080523B4 4328     orr     r0,r5                                   
080523B6 7150     strb    r0,[r2,5h]                              
080523B8 3704     add     r7,4h                                   
080523BA 2602     mov     r6,2h                                   
080523BC 492C     ldr     r1,=3001530h                            
080523BE 7C88     ldrb    r0,[r1,12h]                             
080523C0 4698     mov     r8,r3                                   
080523C2 2802     cmp     r0,2h                                   
080523C4 D156     bne     8052474h                                
080523C6 803C     strh    r4,[r7]                                 
080523C8 3702     add     r7,2h                                   
080523CA 4642     mov     r2,r8                                   
080523CC 3210     add     r2,10h                                  
080523CE 230A     mov     r3,0Ah                                  
080523D0 4640     mov     r0,r8                                   
080523D2 7403     strb    r3,[r0,10h]                             
080523D4 7851     ldrb    r1,[r2,1h]                              
080523D6 4660     mov     r0,r12                                  
080523D8 4008     and     r0,r1                                   
080523DA 4328     orr     r0,r5                                   
080523DC 7050     strb    r0,[r2,1h]                              
080523DE 803C     strh    r4,[r7]                                 
080523E0 3702     add     r7,2h                                   
080523E2 8851     ldrh    r1,[r2,2h]                              
080523E4 4648     mov     r0,r9                                   
080523E6 4008     and     r0,r1                                   
080523E8 2101     mov     r1,1h                                   
080523EA 4308     orr     r0,r1                                   
080523EC 8050     strh    r0,[r2,2h]                              
080523EE 78D1     ldrb    r1,[r2,3h]                              
080523F0 4660     mov     r0,r12                                  
080523F2 4008     and     r0,r1                                   
080523F4 4328     orr     r0,r5                                   
080523F6 70D0     strb    r0,[r2,3h]                              
080523F8 803C     strh    r4,[r7]                                 
080523FA 8891     ldrh    r1,[r2,4h]                              
080523FC 4650     mov     r0,r10                                  
080523FE 4008     and     r0,r1                                   
08052400 2188     mov     r1,88h                                  
08052402 4308     orr     r0,r1                                   
08052404 8090     strh    r0,[r2,4h]                              
08052406 7951     ldrb    r1,[r2,5h]                              
08052408 200F     mov     r0,0Fh                                  
0805240A 4008     and     r0,r1                                   
0805240C 4328     orr     r0,r5                                   
0805240E 7150     strb    r0,[r2,5h]                              
08052410 3704     add     r7,4h                                   
08052412 803C     strh    r4,[r7]                                 
08052414 3702     add     r7,2h                                   
08052416 3208     add     r2,8h                                   
08052418 4641     mov     r1,r8                                   
0805241A 760B     strb    r3,[r1,18h]                             
0805241C 7851     ldrb    r1,[r2,1h]                              
0805241E 4660     mov     r0,r12                                  
08052420 4008     and     r0,r1                                   
08052422 4328     orr     r0,r5                                   
08052424 7050     strb    r0,[r2,1h]                              
08052426 803C     strh    r4,[r7]                                 
08052428 3702     add     r7,2h                                   
0805242A 8851     ldrh    r1,[r2,2h]                              
0805242C 4648     mov     r0,r9                                   
0805242E 4008     and     r0,r1                                   
08052430 2121     mov     r1,21h                                  
08052432 4308     orr     r0,r1                                   
08052434 8050     strh    r0,[r2,2h]                              
08052436 78D1     ldrb    r1,[r2,3h]                              
08052438 4660     mov     r0,r12                                  
0805243A 4008     and     r0,r1                                   
0805243C 4328     orr     r0,r5                                   
0805243E 70D0     strb    r0,[r2,3h]                              
08052440 803C     strh    r4,[r7]                                 
08052442 8891     ldrh    r1,[r2,4h]                              
08052444 4650     mov     r0,r10                                  
08052446 4008     and     r0,r1                                   
08052448 218C     mov     r1,8Ch                                  
0805244A 4308     orr     r0,r1                                   
0805244C 8090     strh    r0,[r2,4h]                              
0805244E 7951     ldrb    r1,[r2,5h]                              
08052450 200F     mov     r0,0Fh                                  
08052452 4008     and     r0,r1                                   
08052454 4328     orr     r0,r5                                   
08052456 7150     strb    r0,[r2,5h]                              
08052458 3704     add     r7,4h                                   
0805245A 2604     mov     r6,4h                                   
0805245C E088     b       8052570h                                
0805245E 0000     lsl     r0,r0,0h                                
08052460 004A     lsl     r2,r1,1h                                
08052462 0300     lsl     r0,r0,0Ch                               
08052464 0E7C     lsr     r4,r7,19h                               
08052466 0300     lsl     r0,r0,0Ch                               
08052468 FE00     bl      lr+0C00h                                
0805246A FFFF     bl      lr+0FFEh                                
0805246C FC00     bl      lr+800h                                 
0805246E FFFF     bl      lr+0FFEh                                
08052470 1530     asr     r0,r6,14h                               
08052472 0300     lsl     r0,r0,0Ch                               
08052474 4A51     ldr     r2,=3001530h                            
08052476 8850     ldrh    r0,[r2,2h]                              
08052478 2800     cmp     r0,0h                                   
0805247A D025     beq     80524C8h                                
0805247C 803C     strh    r4,[r7]                                 
0805247E 3702     add     r7,2h                                   
08052480 4642     mov     r2,r8                                   
08052482 3210     add     r2,10h                                  
08052484 4640     mov     r0,r8                                   
08052486 7406     strb    r6,[r0,10h]                             
08052488 7851     ldrb    r1,[r2,1h]                              
0805248A 4660     mov     r0,r12                                  
0805248C 4008     and     r0,r1                                   
0805248E 4328     orr     r0,r5                                   
08052490 7050     strb    r0,[r2,1h]                              
08052492 803C     strh    r4,[r7]                                 
08052494 3702     add     r7,2h                                   
08052496 8851     ldrh    r1,[r2,2h]                              
08052498 4648     mov     r0,r9                                   
0805249A 4008     and     r0,r1                                   
0805249C 2136     mov     r1,36h                                  
0805249E 4308     orr     r0,r1                                   
080524A0 8050     strh    r0,[r2,2h]                              
080524A2 78D1     ldrb    r1,[r2,3h]                              
080524A4 4660     mov     r0,r12                                  
080524A6 4008     and     r0,r1                                   
080524A8 4328     orr     r0,r5                                   
080524AA 70D0     strb    r0,[r2,3h]                              
080524AC 803C     strh    r4,[r7]                                 
080524AE 8891     ldrh    r1,[r2,4h]                              
080524B0 4650     mov     r0,r10                                  
080524B2 4008     and     r0,r1                                   
080524B4 2170     mov     r1,70h                                  
080524B6 4308     orr     r0,r1                                   
080524B8 8090     strh    r0,[r2,4h]                              
080524BA 7951     ldrb    r1,[r2,5h]                              
080524BC 200F     mov     r0,0Fh                                  
080524BE 4008     and     r0,r1                                   
080524C0 4328     orr     r0,r5                                   
080524C2 7150     strb    r0,[r2,5h]                              
080524C4 3704     add     r7,4h                                   
080524C6 2603     mov     r6,3h                                   
080524C8 493C     ldr     r1,=3001530h                            
080524CA 7908     ldrb    r0,[r1,4h]                              
080524CC 2800     cmp     r0,0h                                   
080524CE D025     beq     805251Ch                                
080524D0 803C     strh    r4,[r7]                                 
080524D2 3702     add     r7,2h                                   
080524D4 00F2     lsl     r2,r6,3h                                
080524D6 4442     add     r2,r8                                   
080524D8 2002     mov     r0,2h                                   
080524DA 7010     strb    r0,[r2]                                 
080524DC 7851     ldrb    r1,[r2,1h]                              
080524DE 4660     mov     r0,r12                                  
080524E0 4008     and     r0,r1                                   
080524E2 4328     orr     r0,r5                                   
080524E4 7050     strb    r0,[r2,1h]                              
080524E6 803C     strh    r4,[r7]                                 
080524E8 3702     add     r7,2h                                   
080524EA 8851     ldrh    r1,[r2,2h]                              
080524EC 4648     mov     r0,r9                                   
080524EE 4008     and     r0,r1                                   
080524F0 2150     mov     r1,50h                                  
080524F2 4308     orr     r0,r1                                   
080524F4 8050     strh    r0,[r2,2h]                              
080524F6 78D1     ldrb    r1,[r2,3h]                              
080524F8 4660     mov     r0,r12                                  
080524FA 4008     and     r0,r1                                   
080524FC 4328     orr     r0,r5                                   
080524FE 70D0     strb    r0,[r2,3h]                              
08052500 803C     strh    r4,[r7]                                 
08052502 8891     ldrh    r1,[r2,4h]                              
08052504 4650     mov     r0,r10                                  
08052506 4008     and     r0,r1                                   
08052508 2174     mov     r1,74h                                  
0805250A 4308     orr     r0,r1                                   
0805250C 8090     strh    r0,[r2,4h]                              
0805250E 7951     ldrb    r1,[r2,5h]                              
08052510 200F     mov     r0,0Fh                                  
08052512 4008     and     r0,r1                                   
08052514 4328     orr     r0,r5                                   
08052516 7150     strb    r0,[r2,5h]                              
08052518 3704     add     r7,4h                                   
0805251A 3601     add     r6,1h                                   
0805251C 4A27     ldr     r2,=3001530h                            
0805251E 7950     ldrb    r0,[r2,5h]                              
08052520 2800     cmp     r0,0h                                   
08052522 D025     beq     8052570h                                
08052524 803C     strh    r4,[r7]                                 
08052526 3702     add     r7,2h                                   
08052528 00F2     lsl     r2,r6,3h                                
0805252A 4442     add     r2,r8                                   
0805252C 2002     mov     r0,2h                                   
0805252E 7010     strb    r0,[r2]                                 
08052530 7851     ldrb    r1,[r2,1h]                              
08052532 4660     mov     r0,r12                                  
08052534 4008     and     r0,r1                                   
08052536 4328     orr     r0,r5                                   
08052538 7050     strb    r0,[r2,1h]                              
0805253A 803C     strh    r4,[r7]                                 
0805253C 3702     add     r7,2h                                   
0805253E 8851     ldrh    r1,[r2,2h]                              
08052540 4648     mov     r0,r9                                   
08052542 4008     and     r0,r1                                   
08052544 216A     mov     r1,6Ah                                  
08052546 4308     orr     r0,r1                                   
08052548 8050     strh    r0,[r2,2h]                              
0805254A 78D1     ldrb    r1,[r2,3h]                              
0805254C 4660     mov     r0,r12                                  
0805254E 4008     and     r0,r1                                   
08052550 4328     orr     r0,r5                                   
08052552 70D0     strb    r0,[r2,3h]                              
08052554 803C     strh    r4,[r7]                                 
08052556 8891     ldrh    r1,[r2,4h]                              
08052558 4650     mov     r0,r10                                  
0805255A 4008     and     r0,r1                                   
0805255C 2158     mov     r1,58h                                  
0805255E 4308     orr     r0,r1                                   
08052560 8090     strh    r0,[r2,4h]                              
08052562 7951     ldrb    r1,[r2,5h]                              
08052564 200F     mov     r0,0Fh                                  
08052566 4008     and     r0,r1                                   
08052568 4328     orr     r0,r5                                   
0805256A 7150     strb    r0,[r2,5h]                              
0805256C 3704     add     r7,4h                                   
0805256E 3601     add     r6,1h                                   
08052570 2000     mov     r0,0h                                   
08052572 8038     strh    r0,[r7]                                 
08052574 3702     add     r7,2h                                   
08052576 00F4     lsl     r4,r6,3h                                
08052578 4641     mov     r1,r8                                   
0805257A 1865     add     r5,r4,r1                                
0805257C 2300     mov     r3,0h                                   
0805257E 200A     mov     r0,0Ah                                  
08052580 7028     strb    r0,[r5]                                 
08052582 7869     ldrb    r1,[r5,1h]                              
08052584 223F     mov     r2,3Fh                                  
08052586 1C10     mov     r0,r2                                   
08052588 4008     and     r0,r1                                   
0805258A 7068     strb    r0,[r5,1h]                              
0805258C 803B     strh    r3,[r7]                                 
0805258E 3702     add     r7,2h                                   
08052590 8869     ldrh    r1,[r5,2h]                              
08052592 480B     ldr     r0,=0FFFFFE00h                          
08052594 4008     and     r0,r1                                   
08052596 21DE     mov     r1,0DEh                                 
08052598 4308     orr     r0,r1                                   
0805259A 8068     strh    r0,[r5,2h]                              
0805259C 78E8     ldrb    r0,[r5,3h]                              
0805259E 4002     and     r2,r0                                   
080525A0 70EA     strb    r2,[r5,3h]                              
080525A2 803B     strh    r3,[r7]                                 
080525A4 3702     add     r7,2h                                   
080525A6 4807     ldr     r0,=3000C77h                            
080525A8 7801     ldrb    r1,[r0]                                 
080525AA 2008     mov     r0,8h                                   
080525AC 4008     and     r0,r1                                   
080525AE 2800     cmp     r0,0h                                   
080525B0 D00C     beq     80525CCh                                
080525B2 88A8     ldrh    r0,[r5,4h]                              
080525B4 4904     ldr     r1,=0FFFFFC00h                          
080525B6 4001     and     r1,r0                                   
080525B8 20BF     mov     r0,0BFh                                 
080525BA E00D     b       80525D8h                                
080525BC 1530     asr     r0,r6,14h                               
080525BE 0300     lsl     r0,r0,0Ch                               
080525C0 FE00     bl      lr+0C00h                                
080525C2 FFFF     bl      lr+0FFEh                                
080525C4 0C77     lsr     r7,r6,11h                               
080525C6 0300     lsl     r0,r0,0Ch                               
080525C8 FC00     bl      lr+800h                                 
080525CA FFFF     bl      lr+0FFEh                                
080525CC 88A8     ldrh    r0,[r5,4h]                              
080525CE 4922     ldr     r1,=0FFFFFC00h                          
080525D0 4001     and     r1,r0                                   
080525D2 22A0     mov     r2,0A0h                                 
080525D4 0052     lsl     r2,r2,1h                                
080525D6 1C10     mov     r0,r2                                   
080525D8 4301     orr     r1,r0                                   
080525DA 80A9     strh    r1,[r5,4h]                              
080525DC 4640     mov     r0,r8                                   
080525DE 1822     add     r2,r4,r0                                
080525E0 7951     ldrb    r1,[r2,5h]                              
080525E2 240F     mov     r4,0Fh                                  
080525E4 1C20     mov     r0,r4                                   
080525E6 4008     and     r0,r1                                   
080525E8 2150     mov     r1,50h                                  
080525EA 4689     mov     r9,r1                                   
080525EC 4649     mov     r1,r9                                   
080525EE 4308     orr     r0,r1                                   
080525F0 7150     strb    r0,[r2,5h]                              
080525F2 3702     add     r7,2h                                   
080525F4 3601     add     r6,1h                                   
080525F6 2000     mov     r0,0h                                   
080525F8 8038     strh    r0,[r7]                                 
080525FA 3702     add     r7,2h                                   
080525FC 00F3     lsl     r3,r6,3h                                
080525FE 4443     add     r3,r8                                   
08052600 2500     mov     r5,0h                                   
08052602 20FA     mov     r0,0FAh                                 
08052604 7018     strb    r0,[r3]                                 
08052606 7859     ldrb    r1,[r3,1h]                              
08052608 223F     mov     r2,3Fh                                  
0805260A 1C10     mov     r0,r2                                   
0805260C 4008     and     r0,r1                                   
0805260E 7058     strb    r0,[r3,1h]                              
08052610 803D     strh    r5,[r7]                                 
08052612 3702     add     r7,2h                                   
08052614 8859     ldrh    r1,[r3,2h]                              
08052616 4811     ldr     r0,=0FFFFFE00h                          
08052618 4008     and     r0,r1                                   
0805261A 21D6     mov     r1,0D6h                                 
0805261C 4308     orr     r0,r1                                   
0805261E 8058     strh    r0,[r3,2h]                              
08052620 78D8     ldrb    r0,[r3,3h]                              
08052622 4002     and     r2,r0                                   
08052624 2080     mov     r0,80h                                  
08052626 4302     orr     r2,r0                                   
08052628 70DA     strb    r2,[r3,3h]                              
0805262A 803D     strh    r5,[r7]                                 
0805262C 8899     ldrh    r1,[r3,4h]                              
0805262E 480A     ldr     r0,=0FFFFFC00h                          
08052630 4008     and     r0,r1                                   
08052632 21DC     mov     r1,0DCh                                 
08052634 4308     orr     r0,r1                                   
08052636 8098     strh    r0,[r3,4h]                              
08052638 7958     ldrb    r0,[r3,5h]                              
0805263A 4004     and     r4,r0                                   
0805263C 464A     mov     r2,r9                                   
0805263E 4314     orr     r4,r2                                   
08052640 715C     strb    r4,[r3,5h]                              
08052642 3601     add     r6,1h                                   
08052644 4806     ldr     r0,=3001382h                            
08052646 7006     strb    r6,[r0]                                 
08052648 BC38     pop     r3-r5                                   
0805264A 4698     mov     r8,r3                                   
0805264C 46A1     mov     r9,r4                                   
0805264E 46AA     mov     r10,r5                                  
08052650 BCF0     pop     r4-r7                                   
08052652 BC01     pop     r0                                      
08052654 4700     bx      r0                                      
08052656 0000     lsl     r0,r0,0h                                
08052658 FC00     bl      lr+800h                                 
0805265A FFFF     bl      lr+0FFEh                                
0805265C FE00     bl      lr+0C00h                                
0805265E FFFF     bl      lr+0FFEh                                
08052660 1382     asr     r2,r0,0Eh                               
08052662 0300     lsl     r0,r0,0Ch                               
08052664 B530     push    r4,r5,r14                               
08052666 1C04     mov     r4,r0                                   
08052668 1C0D     mov     r5,r1                                   
0805266A 9803     ldr     r0,[sp,0Ch]                             
0805266C 061B     lsl     r3,r3,18h                               
0805266E 0E1B     lsr     r3,r3,18h                               
08052670 0600     lsl     r0,r0,18h                               
08052672 0E00     lsr     r0,r0,18h                               
08052674 1C01     mov     r1,r0                                   
08052676 2800     cmp     r0,0h                                   
08052678 D104     bne     8052684h                                
0805267A 4901     ldr     r1,=40000D4h                            
0805267C 600A     str     r2,[r1]                                 
0805267E E01B     b       80526B8h                                
08052680 00D4     lsl     r4,r2,3h                                
08052682 0400     lsl     r0,r0,10h                               
08052684 2801     cmp     r0,1h                                   
08052686 D105     bne     8052694h                                
08052688 4901     ldr     r1,=40000D4h                            
0805268A 1C10     mov     r0,r2                                   
0805268C 30A0     add     r0,0A0h                                 
0805268E E012     b       80526B6h                                
08052690 00D4     lsl     r4,r2,3h                                
08052692 0400     lsl     r0,r0,10h                               
08052694 2802     cmp     r0,2h                                   
08052696 D107     bne     80526A8h                                
08052698 4902     ldr     r1,=40000D4h                            
0805269A 23A0     mov     r3,0A0h                                 
0805269C 005B     lsl     r3,r3,1h                                
0805269E 18D0     add     r0,r2,r3                                
080526A0 E009     b       80526B6h                                
080526A2 0000     lsl     r0,r0,0h                                
080526A4 00D4     lsl     r4,r2,3h                                
080526A6 0400     lsl     r0,r0,10h                               
080526A8 2903     cmp     r1,3h                                   
080526AA D10B     bne     80526C4h                                
080526AC 4907     ldr     r1,=40000D4h                            
080526AE 0098     lsl     r0,r3,2h                                
080526B0 18C0     add     r0,r0,r3                                
080526B2 0140     lsl     r0,r0,5h                                
080526B4 1828     add     r0,r5,r0                                
080526B6 6008     str     r0,[r1]                                 
080526B8 1C20     mov     r0,r4                                   
080526BA 3040     add     r0,40h                                  
080526BC 6048     str     r0,[r1,4h]                              
080526BE 4804     ldr     r0,=80000050h                           
080526C0 6088     str     r0,[r1,8h]                              
080526C2 6888     ldr     r0,[r1,8h]                              
080526C4 BC30     pop     r4,r5                                   
080526C6 BC01     pop     r0                                      
080526C8 4700     bx      r0                                      
080526CA 0000     lsl     r0,r0,0h                                
080526CC 00D4     lsl     r4,r2,3h                                
080526CE 0400     lsl     r0,r0,10h                               
080526D0 0050     lsl     r0,r2,1h                                
080526D2 8000     strh    r0,[r0]                                 
080526D4 B5F0     push    r4-r7,r14                               
080526D6 4657     mov     r7,r10                                  
080526D8 464E     mov     r6,r9                                   
080526DA 4645     mov     r5,r8                                   
080526DC B4E0     push    r5-r7                                   
080526DE B081     add     sp,-4h                                  
080526E0 0600     lsl     r0,r0,18h                               
080526E2 0E01     lsr     r1,r0,18h                               
080526E4 2900     cmp     r1,0h                                   
080526E6 D021     beq     805272Ch                                
080526E8 2903     cmp     r1,3h                                   
080526EA D900     bls     80526EEh                                
080526EC E2B1     b       8052C52h                                
080526EE 4C0B     ldr     r4,=3000996h                            
080526F0 2000     mov     r0,0h                                   
080526F2 7020     strb    r0,[r4]                                 
080526F4 4B0A     ldr     r3,=3000904h                            
080526F6 200F     mov     r0,0Fh                                  
080526F8 7018     strb    r0,[r3]                                 
080526FA 7058     strb    r0,[r3,1h]                              
080526FC 7098     strb    r0,[r3,2h]                              
080526FE 70D8     strb    r0,[r3,3h]                              
08052700 4A08     ldr     r2,=3000908h                            
08052702 7010     strb    r0,[r2]                                 
08052704 7050     strb    r0,[r2,1h]                              
08052706 7090     strb    r0,[r2,2h]                              
08052708 70D0     strb    r0,[r2,3h]                              
0805270A 3901     sub     r1,1h                                   
0805270C 00C8     lsl     r0,r1,3h                                
0805270E 1A40     sub     r0,r0,r1                                
08052710 0140     lsl     r0,r0,5h                                
08052712 4905     ldr     r1,=6000020h                            
08052714 1846     add     r6,r0,r1                                
08052716 4699     mov     r9,r3                                   
08052718 E00B     b       8052732h                                
0805271A 0000     lsl     r0,r0,0h                                
0805271C 0996     lsr     r6,r2,6h                                
0805271E 0300     lsl     r0,r0,0Ch                               
08052720 0904     lsr     r4,r0,4h                                
08052722 0300     lsl     r0,r0,0Ch                               
08052724 0908     lsr     r0,r1,4h                                
08052726 0300     lsl     r0,r0,0Ch                               
08052728 0020     lsl     r0,r4,0h                                
0805272A 0600     lsl     r0,r0,18h                               
0805272C 4E59     ldr     r6,=6010A00h                            
0805272E 4A5A     ldr     r2,=3000904h                            
08052730 4691     mov     r9,r2                                   
08052732 2500     mov     r5,0h                                   
08052734 4859     ldr     r0,=3001530h                            
08052736 8804     ldrh    r4,[r0]                                 
08052738 46A2     mov     r10,r4                                  
0805273A 1C20     mov     r0,r4                                   
0805273C 21FA     mov     r1,0FAh                                 
0805273E 0089     lsl     r1,r1,2h                                
08052740 F038FB4E bl      808ADE0h                                
08052744 0600     lsl     r0,r0,18h                               
08052746 0E00     lsr     r0,r0,18h                               
08052748 210A     mov     r1,0Ah                                  
0805274A F038FB85 bl      808AE58h                                
0805274E 0600     lsl     r0,r0,18h                               
08052750 0E01     lsr     r1,r0,18h                               
08052752 4F53     ldr     r7,=3000908h                            
08052754 78F8     ldrb    r0,[r7,3h]                              
08052756 4288     cmp     r0,r1                                   
08052758 D001     beq     805275Eh                                
0805275A 70F9     strb    r1,[r7,3h]                              
0805275C 2501     mov     r5,1h                                   
0805275E 1C20     mov     r0,r4                                   
08052760 2164     mov     r1,64h                                  
08052762 F038FB3D bl      808ADE0h                                
08052766 0600     lsl     r0,r0,18h                               
08052768 0E00     lsr     r0,r0,18h                               
0805276A 4680     mov     r8,r0                                   
0805276C 210A     mov     r1,0Ah                                  
0805276E F038FB73 bl      808AE58h                                
08052772 0600     lsl     r0,r0,18h                               
08052774 0E01     lsr     r1,r0,18h                               
08052776 78B8     ldrb    r0,[r7,2h]                              
08052778 4288     cmp     r0,r1                                   
0805277A D003     beq     8052784h                                
0805277C 70B9     strb    r1,[r7,2h]                              
0805277E 1C68     add     r0,r5,1                                 
08052780 0600     lsl     r0,r0,18h                               
08052782 0E05     lsr     r5,r0,18h                               
08052784 1C20     mov     r0,r4                                   
08052786 210A     mov     r1,0Ah                                  
08052788 F038FB2A bl      808ADE0h                                
0805278C 0600     lsl     r0,r0,18h                               
0805278E 0E00     lsr     r0,r0,18h                               
08052790 210A     mov     r1,0Ah                                  
08052792 F038FB61 bl      808AE58h                                
08052796 0600     lsl     r0,r0,18h                               
08052798 0E01     lsr     r1,r0,18h                               
0805279A 7878     ldrb    r0,[r7,1h]                              
0805279C 4288     cmp     r0,r1                                   
0805279E D003     beq     80527A8h                                
080527A0 7079     strb    r1,[r7,1h]                              
080527A2 1C68     add     r0,r5,1                                 
080527A4 0600     lsl     r0,r0,18h                               
080527A6 0E05     lsr     r5,r0,18h                               
080527A8 4650     mov     r0,r10                                  
080527AA 210A     mov     r1,0Ah                                  
080527AC F038FB54 bl      808AE58h                                
080527B0 0600     lsl     r0,r0,18h                               
080527B2 0E01     lsr     r1,r0,18h                               
080527B4 4A3A     ldr     r2,=3000908h                            
080527B6 7810     ldrb    r0,[r2]                                 
080527B8 4288     cmp     r0,r1                                   
080527BA D003     beq     80527C4h                                
080527BC 7011     strb    r1,[r2]                                 
080527BE 1C68     add     r0,r5,1                                 
080527C0 0600     lsl     r0,r0,18h                               
080527C2 0E05     lsr     r5,r0,18h                               
080527C4 4C35     ldr     r4,=3001530h                            
080527C6 88E7     ldrh    r7,[r4,6h]                              
080527C8 1C38     mov     r0,r7                                   
080527CA 21FA     mov     r1,0FAh                                 
080527CC 0089     lsl     r1,r1,2h                                
080527CE F038FB07 bl      808ADE0h                                
080527D2 0600     lsl     r0,r0,18h                               
080527D4 0E00     lsr     r0,r0,18h                               
080527D6 210A     mov     r1,0Ah                                  
080527D8 F038FB3E bl      808AE58h                                
080527DC 0600     lsl     r0,r0,18h                               
080527DE 0E01     lsr     r1,r0,18h                               
080527E0 464A     mov     r2,r9                                   
080527E2 78D0     ldrb    r0,[r2,3h]                              
080527E4 4288     cmp     r0,r1                                   
080527E6 D003     beq     80527F0h                                
080527E8 70D1     strb    r1,[r2,3h]                              
080527EA 1C68     add     r0,r5,1                                 
080527EC 0600     lsl     r0,r0,18h                               
080527EE 0E05     lsr     r5,r0,18h                               
080527F0 1C38     mov     r0,r7                                   
080527F2 2164     mov     r1,64h                                  
080527F4 F038FAF4 bl      808ADE0h                                
080527F8 0600     lsl     r0,r0,18h                               
080527FA 0E04     lsr     r4,r0,18h                               
080527FC 1C20     mov     r0,r4                                   
080527FE 210A     mov     r1,0Ah                                  
08052800 F038FB2A bl      808AE58h                                
08052804 0600     lsl     r0,r0,18h                               
08052806 0E01     lsr     r1,r0,18h                               
08052808 464A     mov     r2,r9                                   
0805280A 7890     ldrb    r0,[r2,2h]                              
0805280C 4288     cmp     r0,r1                                   
0805280E D003     beq     8052818h                                
08052810 7091     strb    r1,[r2,2h]                              
08052812 1C68     add     r0,r5,1                                 
08052814 0600     lsl     r0,r0,18h                               
08052816 0E05     lsr     r5,r0,18h                               
08052818 1C38     mov     r0,r7                                   
0805281A 210A     mov     r1,0Ah                                  
0805281C F038FAE0 bl      808ADE0h                                
08052820 0600     lsl     r0,r0,18h                               
08052822 0E00     lsr     r0,r0,18h                               
08052824 210A     mov     r1,0Ah                                  
08052826 F038FB17 bl      808AE58h                                
0805282A 0600     lsl     r0,r0,18h                               
0805282C 0E01     lsr     r1,r0,18h                               
0805282E 464A     mov     r2,r9                                   
08052830 7850     ldrb    r0,[r2,1h]                              
08052832 4288     cmp     r0,r1                                   
08052834 D00C     beq     8052850h                                
08052836 7051     strb    r1,[r2,1h]                              
08052838 1C68     add     r0,r5,1                                 
0805283A 0600     lsl     r0,r0,18h                               
0805283C 0E05     lsr     r5,r0,18h                               
0805283E 4A19     ldr     r2,=40000D4h                            
08052840 0148     lsl     r0,r1,5h                                
08052842 4919     ldr     r1,=8330948h                            
08052844 1840     add     r0,r0,r1                                
08052846 6010     str     r0,[r2]                                 
08052848 6056     str     r6,[r2,4h]                              
0805284A 4818     ldr     r0,=80000010h                           
0805284C 6090     str     r0,[r2,8h]                              
0805284E 6890     ldr     r0,[r2,8h]                              
08052850 1C38     mov     r0,r7                                   
08052852 210A     mov     r1,0Ah                                  
08052854 F038FB00 bl      808AE58h                                
08052858 0600     lsl     r0,r0,18h                               
0805285A 0E01     lsr     r1,r0,18h                               
0805285C 464A     mov     r2,r9                                   
0805285E 7810     ldrb    r0,[r2]                                 
08052860 4288     cmp     r0,r1                                   
08052862 D00E     beq     8052882h                                
08052864 7011     strb    r1,[r2]                                 
08052866 1C68     add     r0,r5,1                                 
08052868 0600     lsl     r0,r0,18h                               
0805286A 0E05     lsr     r5,r0,18h                               
0805286C 4A0D     ldr     r2,=40000D4h                            
0805286E 0148     lsl     r0,r1,5h                                
08052870 490F     ldr     r1,=8330A88h                            
08052872 1840     add     r0,r0,r1                                
08052874 6010     str     r0,[r2]                                 
08052876 1C30     mov     r0,r6                                   
08052878 3020     add     r0,20h                                  
0805287A 6050     str     r0,[r2,4h]                              
0805287C 480B     ldr     r0,=80000010h                           
0805287E 6090     str     r0,[r2,8h]                              
08052880 6890     ldr     r0,[r2,8h]                              
08052882 2D00     cmp     r5,0h                                   
08052884 D100     bne     8052888h                                
08052886 E0CA     b       8052A1Eh                                
08052888 2F1D     cmp     r7,1Dh                                  
0805288A D813     bhi     80528B4h                                
0805288C 2001     mov     r0,1h                                   
0805288E 4903     ldr     r1,=3001530h                            
08052890 7448     strb    r0,[r1,11h]                             
08052892 E012     b       80528BAh                                
08052894 0A00     lsr     r0,r0,8h                                
08052896 0601     lsl     r1,r0,18h                               
08052898 0904     lsr     r4,r0,4h                                
0805289A 0300     lsl     r0,r0,0Ch                               
0805289C 1530     asr     r0,r6,14h                               
0805289E 0300     lsl     r0,r0,0Ch                               
080528A0 0908     lsr     r0,r1,4h                                
080528A2 0300     lsl     r0,r0,0Ch                               
080528A4 00D4     lsl     r4,r2,3h                                
080528A6 0400     lsl     r0,r0,10h                               
080528A8 0948     lsr     r0,r1,5h                                
080528AA 0833     lsr     r3,r6,20h                               
080528AC 0010     lsl     r0,r2,0h                                
080528AE 8000     strh    r0,[r0]                                 
080528B0 0A88     lsr     r0,r1,0Ah                               
080528B2 0833     lsr     r3,r6,20h                               
080528B4 2000     mov     r0,0h                                   
080528B6 4A05     ldr     r2,=3001530h                            
080528B8 7450     strb    r0,[r2,11h]                             
080528BA 4640     mov     r0,r8                                   
080528BC 280C     cmp     r0,0Ch                                  
080528BE D900     bls     80528C2h                                
080528C0 E0AD     b       8052A1Eh                                
080528C2 0080     lsl     r0,r0,2h                                
080528C4 4902     ldr     r1,=80528D4h                            
080528C6 1840     add     r0,r0,r1                                
080528C8 6800     ldr     r0,[r0]                                 
080528CA 4687     mov     r15,r0                                  
080528CC 1530     asr     r0,r6,14h                               
080528CE 0300     lsl     r0,r0,0Ch                               
080528D0 28D4     cmp     r0,0D4h                                 
080528D2 0805     lsr     r5,r0,20h                               
080528D4 2908     cmp     r1,8h                                   
080528D6 0805     lsr     r5,r0,20h                               
080528D8 2928     cmp     r1,28h                                  
080528DA 0805     lsr     r5,r0,20h                               
080528DC 293C     cmp     r1,3Ch                                  
080528DE 0805     lsr     r5,r0,20h                               
080528E0 2950     cmp     r1,50h                                  
080528E2 0805     lsr     r5,r0,20h                               
080528E4 2964     cmp     r1,64h                                  
080528E6 0805     lsr     r5,r0,20h                               
080528E8 2978     cmp     r1,78h                                  
080528EA 0805     lsr     r5,r0,20h                               
080528EC 298C     cmp     r1,8Ch                                  
080528EE 0805     lsr     r5,r0,20h                               
080528F0 29A0     cmp     r1,0A0h                                 
080528F2 0805     lsr     r5,r0,20h                               
080528F4 29B4     cmp     r1,0B4h                                 
080528F6 0805     lsr     r5,r0,20h                               
080528F8 29C8     cmp     r1,0C8h                                 
080528FA 0805     lsr     r5,r0,20h                               
080528FC 29DC     cmp     r1,0DCh                                 
080528FE 0805     lsr     r5,r0,20h                               
08052900 29F0     cmp     r1,0F0h                                 
08052902 0805     lsr     r5,r0,20h                               
08052904 2A04     cmp     r2,4h                                   
08052906 0805     lsr     r5,r0,20h                               
08052908 4904     ldr     r1,=40000D4h                            
0805290A 4805     ldr     r0,=8331348h                            
0805290C 6008     str     r0,[r1]                                 
0805290E 1C30     mov     r0,r6                                   
08052910 3040     add     r0,40h                                  
08052912 6048     str     r0,[r1,4h]                              
08052914 4803     ldr     r0,=80000050h                           
08052916 6088     str     r0,[r1,8h]                              
08052918 6888     ldr     r0,[r1,8h]                              
0805291A E080     b       8052A1Eh                                
0805291C 00D4     lsl     r4,r2,3h                                
0805291E 0400     lsl     r0,r0,10h                               
08052920 1348     asr     r0,r1,0Dh                               
08052922 0833     lsr     r3,r6,20h                               
08052924 0050     lsl     r0,r2,1h                                
08052926 8000     strh    r0,[r0]                                 
08052928 4A02     ldr     r2,=40000D4h                            
0805292A 00A0     lsl     r0,r4,2h                                
0805292C 1900     add     r0,r0,r4                                
0805292E 0140     lsl     r0,r0,5h                                
08052930 4901     ldr     r1,=83313E8h                            
08052932 E06C     b       8052A0Eh                                
08052934 00D4     lsl     r4,r2,3h                                
08052936 0400     lsl     r0,r0,10h                               
08052938 13E8     asr     r0,r5,0Fh                               
0805293A 0833     lsr     r3,r6,20h                               
0805293C 4A02     ldr     r2,=40000D4h                            
0805293E 00A0     lsl     r0,r4,2h                                
08052940 1900     add     r0,r0,r4                                
08052942 0140     lsl     r0,r0,5h                                
08052944 4901     ldr     r1,=8331528h                            
08052946 E062     b       8052A0Eh                                
08052948 00D4     lsl     r4,r2,3h                                
0805294A 0400     lsl     r0,r0,10h                               
0805294C 1528     asr     r0,r5,14h                               
0805294E 0833     lsr     r3,r6,20h                               
08052950 4A02     ldr     r2,=40000D4h                            
08052952 00A0     lsl     r0,r4,2h                                
08052954 1900     add     r0,r0,r4                                
08052956 0140     lsl     r0,r0,5h                                
08052958 4901     ldr     r1,=8331708h                            
0805295A E058     b       8052A0Eh                                
0805295C 00D4     lsl     r4,r2,3h                                
0805295E 0400     lsl     r0,r0,10h                               
08052960 1708     asr     r0,r1,1Ch                               
08052962 0833     lsr     r3,r6,20h                               
08052964 4A02     ldr     r2,=40000D4h                            
08052966 00A0     lsl     r0,r4,2h                                
08052968 1900     add     r0,r0,r4                                
0805296A 0140     lsl     r0,r0,5h                                
0805296C 4901     ldr     r1,=8331988h                            
0805296E E04E     b       8052A0Eh                                
08052970 00D4     lsl     r4,r2,3h                                
08052972 0400     lsl     r0,r0,10h                               
08052974 1988     add     r0,r1,r6                                
08052976 0833     lsr     r3,r6,20h                               
08052978 4A02     ldr     r2,=40000D4h                            
0805297A 00A0     lsl     r0,r4,2h                                
0805297C 1900     add     r0,r0,r4                                
0805297E 0140     lsl     r0,r0,5h                                
08052980 4901     ldr     r1,=8331CA8h                            
08052982 E044     b       8052A0Eh                                
08052984 00D4     lsl     r4,r2,3h                                
08052986 0400     lsl     r0,r0,10h                               
08052988 1CA8     add     r0,r5,2                                 
0805298A 0833     lsr     r3,r6,20h                               
0805298C 4A02     ldr     r2,=40000D4h                            
0805298E 00A0     lsl     r0,r4,2h                                
08052990 1900     add     r0,r0,r4                                
08052992 0140     lsl     r0,r0,5h                                
08052994 4901     ldr     r1,=8332068h                            
08052996 E03A     b       8052A0Eh                                
08052998 00D4     lsl     r4,r2,3h                                
0805299A 0400     lsl     r0,r0,10h                               
0805299C 2068     mov     r0,68h                                  
0805299E 0833     lsr     r3,r6,20h                               
080529A0 4A02     ldr     r2,=40000D4h                            
080529A2 00A0     lsl     r0,r4,2h                                
080529A4 1900     add     r0,r0,r4                                
080529A6 0140     lsl     r0,r0,5h                                
080529A8 4901     ldr     r1,=83324C8h                            
080529AA E030     b       8052A0Eh                                
080529AC 00D4     lsl     r4,r2,3h                                
080529AE 0400     lsl     r0,r0,10h                               
080529B0 24C8     mov     r4,0C8h                                 
080529B2 0833     lsr     r3,r6,20h                               
080529B4 4A02     ldr     r2,=40000D4h                            
080529B6 00A0     lsl     r0,r4,2h                                
080529B8 1900     add     r0,r0,r4                                
080529BA 0140     lsl     r0,r0,5h                                
080529BC 4901     ldr     r1,=83329C8h                            
080529BE E026     b       8052A0Eh                                
080529C0 00D4     lsl     r4,r2,3h                                
080529C2 0400     lsl     r0,r0,10h                               
080529C4 29C8     cmp     r1,0C8h                                 
080529C6 0833     lsr     r3,r6,20h                               
080529C8 4A02     ldr     r2,=40000D4h                            
080529CA 00A0     lsl     r0,r4,2h                                
080529CC 1900     add     r0,r0,r4                                
080529CE 0140     lsl     r0,r0,5h                                
080529D0 4901     ldr     r1,=8332F68h                            
080529D2 E01C     b       8052A0Eh                                
080529D4 00D4     lsl     r4,r2,3h                                
080529D6 0400     lsl     r0,r0,10h                               
080529D8 2F68     cmp     r7,68h                                  
080529DA 0833     lsr     r3,r6,20h                               
080529DC 4A02     ldr     r2,=40000D4h                            
080529DE 00A0     lsl     r0,r4,2h                                
080529E0 1900     add     r0,r0,r4                                
080529E2 0140     lsl     r0,r0,5h                                
080529E4 4901     ldr     r1,=83335A8h                            
080529E6 E012     b       8052A0Eh                                
080529E8 00D4     lsl     r4,r2,3h                                
080529EA 0400     lsl     r0,r0,10h                               
080529EC 35A8     add     r5,0A8h                                 
080529EE 0833     lsr     r3,r6,20h                               
080529F0 4A02     ldr     r2,=40000D4h                            
080529F2 00A0     lsl     r0,r4,2h                                
080529F4 1900     add     r0,r0,r4                                
080529F6 0140     lsl     r0,r0,5h                                
080529F8 4901     ldr     r1,=8333C88h                            
080529FA E008     b       8052A0Eh                                
080529FC 00D4     lsl     r4,r2,3h                                
080529FE 0400     lsl     r0,r0,10h                               
08052A00 3C88     sub     r4,88h                                  
08052A02 0833     lsr     r3,r6,20h                               
08052A04 4A16     ldr     r2,=40000D4h                            
08052A06 00A0     lsl     r0,r4,2h                                
08052A08 1900     add     r0,r0,r4                                
08052A0A 0140     lsl     r0,r0,5h                                
08052A0C 4915     ldr     r1,=8334408h                            
08052A0E 1840     add     r0,r0,r1                                
08052A10 6010     str     r0,[r2]                                 
08052A12 1C30     mov     r0,r6                                   
08052A14 3040     add     r0,40h                                  
08052A16 6050     str     r0,[r2,4h]                              
08052A18 4813     ldr     r0,=80000050h                           
08052A1A 6090     str     r0,[r2,8h]                              
08052A1C 6890     ldr     r0,[r2,8h]                              
08052A1E 4913     ldr     r1,=3000996h                            
08052A20 780C     ldrb    r4,[r1]                                 
08052A22 2C00     cmp     r4,0h                                   
08052A24 D100     bne     8052A28h                                
08052A26 E114     b       8052C52h                                
08052A28 2C0D     cmp     r4,0Dh                                  
08052A2A D125     bne     8052A78h                                
08052A2C 490C     ldr     r1,=40000D4h                            
08052A2E 464A     mov     r2,r9                                   
08052A30 7850     ldrb    r0,[r2,1h]                              
08052A32 0140     lsl     r0,r0,5h                                
08052A34 4A0E     ldr     r2,=8330BC8h                            
08052A36 1880     add     r0,r0,r2                                
08052A38 6008     str     r0,[r1]                                 
08052A3A 604E     str     r6,[r1,4h]                              
08052A3C 4B0D     ldr     r3,=80000010h                           
08052A3E 608B     str     r3,[r1,8h]                              
08052A40 6888     ldr     r0,[r1,8h]                              
08052A42 464C     mov     r4,r9                                   
08052A44 7820     ldrb    r0,[r4]                                 
08052A46 0140     lsl     r0,r0,5h                                
08052A48 24A0     mov     r4,0A0h                                 
08052A4A 0064     lsl     r4,r4,1h                                
08052A4C 1912     add     r2,r2,r4                                
08052A4E 1880     add     r0,r0,r2                                
08052A50 6008     str     r0,[r1]                                 
08052A52 1C30     mov     r0,r6                                   
08052A54 3020     add     r0,20h                                  
08052A56 6048     str     r0,[r1,4h]                              
08052A58 608B     str     r3,[r1,8h]                              
08052A5A 6888     ldr     r0,[r1,8h]                              
08052A5C 2500     mov     r5,0h                                   
08052A5E E06B     b       8052B38h                                
08052A60 00D4     lsl     r4,r2,3h                                
08052A62 0400     lsl     r0,r0,10h                               
08052A64 4408     add_??? r0,r1                                   
08052A66 0833     lsr     r3,r6,20h                               
08052A68 0050     lsl     r0,r2,1h                                
08052A6A 8000     strh    r0,[r0]                                 
08052A6C 0996     lsr     r6,r2,6h                                
08052A6E 0300     lsl     r0,r0,0Ch                               
08052A70 0BC8     lsr     r0,r1,0Fh                               
08052A72 0833     lsr     r3,r6,20h                               
08052A74 0010     lsl     r0,r2,0h                                
08052A76 8000     strh    r0,[r0]                                 
08052A78 2C0A     cmp     r4,0Ah                                  
08052A7A D11F     bne     8052ABCh                                
08052A7C 490C     ldr     r1,=40000D4h                            
08052A7E 464A     mov     r2,r9                                   
08052A80 7850     ldrb    r0,[r2,1h]                              
08052A82 0140     lsl     r0,r0,5h                                
08052A84 4A0B     ldr     r2,=8330E48h                            
08052A86 1880     add     r0,r0,r2                                
08052A88 6008     str     r0,[r1]                                 
08052A8A 604E     str     r6,[r1,4h]                              
08052A8C 4B0A     ldr     r3,=80000010h                           
08052A8E 608B     str     r3,[r1,8h]                              
08052A90 6888     ldr     r0,[r1,8h]                              
08052A92 464C     mov     r4,r9                                   
08052A94 7820     ldrb    r0,[r4]                                 
08052A96 0140     lsl     r0,r0,5h                                
08052A98 24A0     mov     r4,0A0h                                 
08052A9A 0064     lsl     r4,r4,1h                                
08052A9C 1912     add     r2,r2,r4                                
08052A9E 1880     add     r0,r0,r2                                
08052AA0 6008     str     r0,[r1]                                 
08052AA2 1C30     mov     r0,r6                                   
08052AA4 3020     add     r0,20h                                  
08052AA6 6048     str     r0,[r1,4h]                              
08052AA8 608B     str     r3,[r1,8h]                              
08052AAA 6888     ldr     r0,[r1,8h]                              
08052AAC 2501     mov     r5,1h                                   
08052AAE E043     b       8052B38h                                
08052AB0 00D4     lsl     r4,r2,3h                                
08052AB2 0400     lsl     r0,r0,10h                               
08052AB4 0E48     lsr     r0,r1,19h                               
08052AB6 0833     lsr     r3,r6,20h                               
08052AB8 0010     lsl     r0,r2,0h                                
08052ABA 8000     strh    r0,[r0]                                 
08052ABC 2C04     cmp     r4,4h                                   
08052ABE D11F     bne     8052B00h                                
08052AC0 490C     ldr     r1,=40000D4h                            
08052AC2 464A     mov     r2,r9                                   
08052AC4 7850     ldrb    r0,[r2,1h]                              
08052AC6 0140     lsl     r0,r0,5h                                
08052AC8 4A0B     ldr     r2,=83310C8h                            
08052ACA 1880     add     r0,r0,r2                                
08052ACC 6008     str     r0,[r1]                                 
08052ACE 604E     str     r6,[r1,4h]                              
08052AD0 4B0A     ldr     r3,=80000010h                           
08052AD2 608B     str     r3,[r1,8h]                              
08052AD4 6888     ldr     r0,[r1,8h]                              
08052AD6 464C     mov     r4,r9                                   
08052AD8 7820     ldrb    r0,[r4]                                 
08052ADA 0140     lsl     r0,r0,5h                                
08052ADC 24A0     mov     r4,0A0h                                 
08052ADE 0064     lsl     r4,r4,1h                                
08052AE0 1912     add     r2,r2,r4                                
08052AE2 1880     add     r0,r0,r2                                
08052AE4 6008     str     r0,[r1]                                 
08052AE6 1C30     mov     r0,r6                                   
08052AE8 3020     add     r0,20h                                  
08052AEA 6048     str     r0,[r1,4h]                              
08052AEC 608B     str     r3,[r1,8h]                              
08052AEE 6888     ldr     r0,[r1,8h]                              
08052AF0 2502     mov     r5,2h                                   
08052AF2 E021     b       8052B38h                                
08052AF4 00D4     lsl     r4,r2,3h                                
08052AF6 0400     lsl     r0,r0,10h                               
08052AF8 10C8     asr     r0,r1,3h                                
08052AFA 0833     lsr     r3,r6,20h                               
08052AFC 0010     lsl     r0,r2,0h                                
08052AFE 8000     strh    r0,[r0]                                 
08052B00 2C01     cmp     r4,1h                                   
08052B02 D000     beq     8052B06h                                
08052B04 E0A5     b       8052C52h                                
08052B06 4911     ldr     r1,=40000D4h                            
08052B08 464A     mov     r2,r9                                   
08052B0A 7850     ldrb    r0,[r2,1h]                              
08052B0C 0140     lsl     r0,r0,5h                                
08052B0E 4A10     ldr     r2,=8330948h                            
08052B10 1880     add     r0,r0,r2                                
08052B12 6008     str     r0,[r1]                                 
08052B14 604E     str     r6,[r1,4h]                              
08052B16 4B0F     ldr     r3,=80000010h                           
08052B18 608B     str     r3,[r1,8h]                              
08052B1A 6888     ldr     r0,[r1,8h]                              
08052B1C 464C     mov     r4,r9                                   
08052B1E 7820     ldrb    r0,[r4]                                 
08052B20 0140     lsl     r0,r0,5h                                
08052B22 24A0     mov     r4,0A0h                                 
08052B24 0064     lsl     r4,r4,1h                                
08052B26 1912     add     r2,r2,r4                                
08052B28 1880     add     r0,r0,r2                                
08052B2A 6008     str     r0,[r1]                                 
08052B2C 1C30     mov     r0,r6                                   
08052B2E 3020     add     r0,20h                                  
08052B30 6048     str     r0,[r1,4h]                              
08052B32 608B     str     r3,[r1,8h]                              
08052B34 6888     ldr     r0,[r1,8h]                              
08052B36 2503     mov     r5,3h                                   
08052B38 4640     mov     r0,r8                                   
08052B3A 3801     sub     r0,1h                                   
08052B3C 280B     cmp     r0,0Bh                                  
08052B3E D900     bls     8052B42h                                
08052B40 E087     b       8052C52h                                
08052B42 0080     lsl     r0,r0,2h                                
08052B44 4904     ldr     r1,=8052B5Ch                            
08052B46 1840     add     r0,r0,r1                                
08052B48 6800     ldr     r0,[r0]                                 
08052B4A 4687     mov     r15,r0                                  
08052B4C 00D4     lsl     r4,r2,3h                                
08052B4E 0400     lsl     r0,r0,10h                               
08052B50 0948     lsr     r0,r1,5h                                
08052B52 0833     lsr     r3,r6,20h                               
08052B54 0010     lsl     r0,r2,0h                                
08052B56 8000     strh    r0,[r0]                                 
08052B58 2B5C     cmp     r3,5Ch                                  
08052B5A 0805     lsr     r5,r0,20h                               
08052B5C 2B8C     cmp     r3,8Ch                                  
08052B5E 0805     lsr     r5,r0,20h                               
08052B60 2B9C     cmp     r3,9Ch                                  
08052B62 0805     lsr     r5,r0,20h                               
08052B64 2BAC     cmp     r3,0ACh                                 
08052B66 0805     lsr     r5,r0,20h                               
08052B68 2BBC     cmp     r3,0BCh                                 
08052B6A 0805     lsr     r5,r0,20h                               
08052B6C 2BCC     cmp     r3,0CCh                                 
08052B6E 0805     lsr     r5,r0,20h                               
08052B70 2BDC     cmp     r3,0DCh                                 
08052B72 0805     lsr     r5,r0,20h                               

