0805EBF0 B5F0     push    r4-r7,lr
0805EBF2 4657     mov     r7,r10
0805EBF4 464E     mov     r6,r9
0805EBF6 4645     mov     r5,r8
0805EBF8 B4E0     push    r5-r7
0805EBFA 0400     lsl     r0,r0,10h
0805EBFC 0C07     lsr     r7,r0,10h
0805EBFE 0409     lsl     r1,r1,10h
0805EC00 0C0E     lsr     r6,r1,10h
0805EC02 4803     ldr     r0,=3000C72h
0805EC04 2100     mov     r1,0h
0805EC06 5E40     ldsh    r0,[r0,r1]
0805EC08 2802     cmp     r0,2h
0805EC0A D003     beq     @@Pass
0805EC0C 2000     mov     r0,0h
0805EC0E E0B9     b       @@end

@@Pass:
0805EC14 2500     mov     r5,0h
0805EC16 46AC     mov     r12,r5
0805EC18 4820     ldr     r0,=300545Ch
0805EC1A 4A21     ldr     r2,=3000054h
0805EC1C 4692     mov     r10,r2
0805EC1E 1DC3     add     r3,r0,7
0805EC20 46A9     mov     r9,r5
0805EC22 4820     ldr     r0,=3000056h
0805EC24 4680     mov     r8,r0
0805EC26 7818     ldrb    r0,[r3]
0805EC28 491F     ldr     r1,=8345868h
0805EC2A 79C9     ldrb    r1,[r1,7h]
0805EC2C 4288     cmp     r0,r1
0805EC2E D100     bne     @@Pass2
0805EC30 E09E     b       @@Goto

@@Pass2:
0805EC32 4650     mov     r0,r10
0805EC34 7802     ldrb    r2,[r0]				;读取区号
0805EC36 0092     lsl     r2,r2,2h				;四倍
0805EC38 491C     ldr     r1,=875FAA8h
0805EC3A 1852     add     r2,r2,r1				;加上门数据偏移指针数组
0805EC3C 7819     ldrb    r1,[r3]	
0805EC3E 0048     lsl     r0,r1,1h
0805EC40 1840     add     r0,r0,r1
0805EC42 0080     lsl     r0,r0,2h
0805EC44 6811     ldr     r1,[r2]
0805EC46 180C     add     r4,r1,r0
0805EC48 7821     ldrb    r1,[r4]
0805EC4A 200F     mov     r0,0Fh
0805EC4C 4008     and     r0,r1
0805EC4E 2801     cmp     r0,1h
0805EC50 D800     bhi     805EC54h
0805EC52 E08D     b       @@Goto
0805EC54 78A0     ldrb    r0,[r4,2h]
0805EC56 42B0     cmp     r0,r6
0805EC58 D900     bls     805EC5Ch
0805EC5A E089     b       @@Goto
0805EC5C 78E2     ldrb    r2,[r4,3h]
0805EC5E 4296     cmp     r6,r2
0805EC60 D900     bls     805EC64h
0805EC62 E085     b       @@Goto
0805EC64 7920     ldrb    r0,[r4,4h]
0805EC66 42B8     cmp     r0,r7
0805EC68 D900     bls     805EC6Ch
0805EC6A E081     b       @@Goto
0805EC6C 7960     ldrb    r0,[r4,5h]
0805EC6E 4287     cmp     r7,r0
0805EC70 D900     bls     805EC74h
0805EC72 E07D     b       @@Goto
0805EC74 490E     ldr     r1,=30054E0h
0805EC76 2000     mov     r0,0h
0805EC78 8008     strh    r0,[r1]
0805EC7A 8048     strh    r0,[r1,2h]
0805EC7C 7821     ldrb    r1,[r4]
0805EC7E 2020     mov     r0,20h
0805EC80 4008     and     r0,r1
0805EC82 2800     cmp     r0,0h
0805EC84 D01A     beq     805ECBCh
0805EC86 7818     ldrb    r0,[r3]
0805EC88 F000F98E bl      805EFA8h
0805EC8C 0600     lsl     r0,r0,18h
0805EC8E 0E05     lsr     r5,r0,18h
0805EC90 2DFF     cmp     r5,0FFh
0805EC92 D00F     beq     805ECB4h
0805EC94 4641     mov     r1,r8
0805EC96 700D     strb    r5,[r1]
0805EC98 E013     b       805ECC2h
0805EC9A 0000     lsl     r0,r0,0h
0805EC9C 545C     strb    r4,[r3,r1]
0805EC9E 0300     lsl     r0,r0,0Ch
0805ECA0 0054     lsl     r4,r2,1h
0805ECA2 0300     lsl     r0,r0,0Ch
0805ECA4 0056     lsl     r6,r2,1h
0805ECA6 0300     lsl     r0,r0,0Ch
0805ECA8 5868     ldr     r0,[r5,r1]
0805ECAA 0834     lsr     r4,r6,20h
0805ECAC FAA80875 ????
0805ECAE 0875     lsr     r5,r6,1h
0805ECB0 54E0     strb    r0,[r4,r3]
0805ECB2 0300     lsl     r0,r0,0Ch
0805ECB4 79A0     ldrb    r0,[r4,6h]
0805ECB6 4642     mov     r2,r8
0805ECB8 7010     strb    r0,[r2]
0805ECBA E002     b       805ECC2h
0805ECBC 79A0     ldrb    r0,[r4,6h]
0805ECBE 4641     mov     r1,r8
0805ECC0 7008     strb    r0,[r1]
0805ECC2 7821     ldrb    r1,[r4]
0805ECC4 200F     mov     r0,0Fh
0805ECC6 4008     and     r0,r1
0805ECC8 2802     cmp     r0,2h
0805ECCA D90B     bls     805ECE4h
0805ECCC 78A1     ldrb    r1,[r4,2h]
0805ECCE 4821     ldr     r0,=30013B8h
0805ECD0 8800     ldrh    r0,[r0]
0805ECD2 0980     lsr     r0,r0,6h
0805ECD4 3008     add     r0,8h
0805ECD6 4A20     ldr     r2,=30054E0h
0805ECD8 4281     cmp     r1,r0
0805ECDA DD01     ble     805ECE0h
0805ECDC 2001     mov     r0,1h
0805ECDE 8010     strh    r0,[r2]
0805ECE0 7920     ldrb    r0,[r4,4h]
0805ECE2 8050     strh    r0,[r2,2h]
0805ECE4 4A1D     ldr     r2,=300550Ch
0805ECE6 7960     ldrb    r0,[r4,5h]		;y格数最下	
0805ECE8 3001     add     r0,1h				;加一
0805ECEA 0180     lsl     r0,r0,6h			;得到确切的坐标
0805ECEC 491C     ldr     r1,=30013D4h		
0805ECEE 8A89     ldrh    r1,[r1,14h]		;人物的Y坐标
0805ECF0 1A40     sub     r0,r0,r1			;减去y格数+1最下坐标
0805ECF2 3801     sub     r0,1h				;再减1
0805ECF4 8010     strh    r0,[r2]			;进门Y高度备份处
0805ECF6 7820     ldrb    r0,[r4]
0805ECF8 F000F924 bl      805EF44h
0805ECFC 4919     ldr     r1,=3000C72h
0805ECFE 2003     mov     r0,3h
0805ED00 8008     strh    r0,[r1]
0805ED02 4819     ldr     r0,=300545Ch
0805ED04 464A     mov     r2,r9
0805ED06 1811     add     r1,r2,r0
0805ED08 780A     ldrb    r2,[r1]
0805ED0A 07D0     lsl     r0,r2,1Fh
0805ED0C 2800     cmp     r0,0h
0805ED0E D007     beq     805ED20h
0805ED10 7848     ldrb    r0,[r1,1h]
0805ED12 0780     lsl     r0,r0,1Eh
0805ED14 0F80     lsr     r0,r0,1Eh
0805ED16 2801     cmp     r0,1h
0805ED18 D102     bne     805ED20h
0805ED1A 200E     mov     r0,0Eh
0805ED1C 4310     orr     r0,r2
0805ED1E 7008     strb    r0,[r1]
0805ED20 4651     mov     r1,r10
0805ED22 7808     ldrb    r0,[r1]
0805ED24 0083     lsl     r3,r0,2h
0805ED26 4A11     ldr     r2,=875FAA8h
0805ED28 189B     add     r3,r3,r2
0805ED2A 4641     mov     r1,r8
0805ED2C 780A     ldrb    r2,[r1]
0805ED2E 0051     lsl     r1,r2,1h
0805ED30 1889     add     r1,r1,r2
0805ED32 0089     lsl     r1,r1,2h
0805ED34 681A     ldr     r2,[r3]
0805ED36 1854     add     r4,r2,r1
0805ED38 7861     ldrb    r1,[r4,1h]
0805ED3A 3101     add     r1,1h
0805ED3C 0609     lsl     r1,r1,18h
0805ED3E 0E09     lsr     r1,r1,18h
0805ED40 F000FD00 bl      805F744h
0805ED44 4652     mov     r2,r10
0805ED46 7810     ldrb    r0,[r2]
0805ED48 7861     ldrb    r1,[r4,1h]
0805ED4A F001FDED bl      8060928h
0805ED4E 2501     mov     r5,1h
0805ED50 E017     b       805ED82h
0805ED52 0000     lsl     r0,r0,0h
0805ED54 13B8     asr     r0,r7,0Eh
0805ED56 0300     lsl     r0,r0,0Ch
0805ED58 54E0     strb    r0,[r4,r3]
0805ED5A 0300     lsl     r0,r0,0Ch
0805ED5C 550C     strb    r4,[r1,r4]
0805ED5E 0300     lsl     r0,r0,0Ch
0805ED60 13D4     asr     r4,r2,0Fh
0805ED62 0300     lsl     r0,r0,0Ch
0805ED64 0C72     lsr     r2,r6,11h
0805ED66 0300     lsl     r0,r0,0Ch
0805ED68 545C     strb    r4,[r3,r1]
0805ED6A 0300     lsl     r0,r0,0Ch
0805ED6C FAA80875 ????
0805ED6E 0875     lsr     r5,r6,1h

@@Goto:
0805ED70 3308     add     r3,8h
0805ED72 2008     mov     r0,8h
0805ED74 4481     add     r9,r0
0805ED76 2101     mov     r1,1h
0805ED78 448C     add     r12,r1
0805ED7A 4662     mov     r2,r12
0805ED7C 2A0F     cmp     r2,0Fh
0805ED7E DC00     bgt     805ED82h
0805ED80 E751     b       805EC26h
0805ED82 1C28     mov     r0,r5

@@end:
0805ED84 BC38     pop     r3-r5
0805ED86 4698     mov     r8,r3
0805ED88 46A1     mov     r9,r4
0805ED8A 46AA     mov     r10,r5
0805ED8C BCF0     pop     r4-r7
0805ED8E BC02     pop     r1
0805ED90 4708     bx      r1
0805ED92 0000     lsl     r0,r0,0h
0805ED94 B5F0     push    r4-r7,lr
0805ED96 4657     mov     r7,r10
0805ED98 464E     mov     r6,r9
0805ED9A 4645     mov     r5,r8
0805ED9C B4E0     push    r5-r7
0805ED9E 0400     lsl     r0,r0,10h
0805EDA0 0C07     lsr     r7,r0,10h
0805EDA2 0409     lsl     r1,r1,10h
0805EDA4 0C0E     lsr     r6,r1,10h
0805EDA6 481E     ldr     r0,=3000C72h
0805EDA8 2100     mov     r1,0h
0805EDAA 5E40     ldsh    r0,[r0,r1]
0805EDAC 2802     cmp     r0,2h
0805EDAE D000     beq     805EDB2h
0805EDB0 E080     b       805EEB4h
0805EDB2 2400     mov     r4,0h
0805EDB4 46A0     mov     r8,r4
0805EDB6 491B     ldr     r1,=300545Ch
0805EDB8 481B     ldr     r0,=8345868h
0805EDBA 79C0     ldrb    r0,[r0,7h]
0805EDBC 4684     mov     r12,r0
0805EDBE 1DCB     add     r3,r1,7
0805EDC0 4A1A     ldr     r2,=3000056h
0805EDC2 4691     mov     r9,r2
0805EDC4 7818     ldrb    r0,[r3]
0805EDC6 4560     cmp     r0,r12
0805EDC8 D03F     beq     805EE4Ah
0805EDCA 4A19     ldr     r2,=875FAA8h
0805EDCC 4819     ldr     r0,=3000054h
0805EDCE 7801     ldrb    r1,[r0]
0805EDD0 0089     lsl     r1,r1,2h
0805EDD2 1889     add     r1,r1,r2
0805EDD4 781A     ldrb    r2,[r3]
0805EDD6 0050     lsl     r0,r2,1h
0805EDD8 1880     add     r0,r0,r2
0805EDDA 0080     lsl     r0,r0,2h
0805EDDC 6809     ldr     r1,[r1]
0805EDDE 180D     add     r5,r1,r0
0805EDE0 7829     ldrb    r1,[r5]
0805EDE2 200F     mov     r0,0Fh
0805EDE4 4008     and     r0,r1
0805EDE6 2801     cmp     r0,1h
0805EDE8 D12F     bne     805EE4Ah
0805EDEA 78A8     ldrb    r0,[r5,2h]
0805EDEC 42B0     cmp     r0,r6
0805EDEE D82C     bhi     805EE4Ah
0805EDF0 78E8     ldrb    r0,[r5,3h]
0805EDF2 4286     cmp     r6,r0
0805EDF4 D829     bhi     805EE4Ah
0805EDF6 7928     ldrb    r0,[r5,4h]
0805EDF8 42B8     cmp     r0,r7
0805EDFA D826     bhi     805EE4Ah
0805EDFC 7968     ldrb    r0,[r5,5h]
0805EDFE 4287     cmp     r7,r0
0805EE00 D823     bhi     805EE4Ah
0805EE02 2020     mov     r0,20h
0805EE04 4008     and     r0,r1
0805EE06 2800     cmp     r0,0h
0805EE08 D01A     beq     805EE40h
0805EE0A 1C10     mov     r0,r2
0805EE0C F000F8CC bl      805EFA8h
0805EE10 0600     lsl     r0,r0,18h
0805EE12 0E04     lsr     r4,r0,18h
0805EE14 2CFF     cmp     r4,0FFh
0805EE16 D00F     beq     805EE38h
0805EE18 4649     mov     r1,r9
0805EE1A 700C     strb    r4,[r1]
0805EE1C E013     b       805EE46h
0805EE1E 0000     lsl     r0,r0,0h
0805EE20 0C72     lsr     r2,r6,11h
0805EE22 0300     lsl     r0,r0,0Ch
0805EE24 545C     strb    r4,[r3,r1]
0805EE26 0300     lsl     r0,r0,0Ch
0805EE28 5868     ldr     r0,[r5,r1]
0805EE2A 0834     lsr     r4,r6,20h
0805EE2C 0056     lsl     r6,r2,1h
0805EE2E 0300     lsl     r0,r0,0Ch
0805EE30 FAA80875 ????
0805EE32 0875     lsr     r5,r6,1h
0805EE34 0054     lsl     r4,r2,1h
0805EE36 0300     lsl     r0,r0,0Ch
0805EE38 79A8     ldrb    r0,[r5,6h]
0805EE3A 464A     mov     r2,r9
0805EE3C 7010     strb    r0,[r2]
0805EE3E E002     b       805EE46h
0805EE40 79A8     ldrb    r0,[r5,6h]
0805EE42 464B     mov     r3,r9
0805EE44 7018     strb    r0,[r3]
0805EE46 2401     mov     r4,1h
0805EE48 E010     b       805EE6Ch
0805EE4A 3308     add     r3,8h
0805EE4C 2001     mov     r0,1h
0805EE4E 4480     add     r8,r0
0805EE50 4641     mov     r1,r8
0805EE52 290F     cmp     r1,0Fh
0805EE54 DDB6     ble     805EDC4h
0805EE56 2C00     cmp     r4,0h
0805EE58 D108     bne     805EE6Ch
0805EE5A E02B     b       805EEB4h
0805EE5C 4650     mov     r0,r10
0805EE5E 3002     add     r0,2h
0805EE60 1808     add     r0,r1,r0
0805EE62 7800     ldrb    r0,[r0]
0805EE64 464A     mov     r2,r9
0805EE66 7010     strb    r0,[r2]
0805EE68 2402     mov     r4,2h
0805EE6A E01E     b       805EEAAh
0805EE6C 4A12     ldr     r2,=8360274h
0805EE6E 7810     ldrb    r0,[r2]
0805EE70 4694     mov     r12,r2
0805EE72 28FF     cmp     r0,0FFh
0805EE74 D019     beq     805EEAAh
0805EE76 4692     mov     r10,r2
0805EE78 4B10     ldr     r3,=3000054h
0805EE7A 4699     mov     r9,r3
0805EE7C 781F     ldrb    r7,[r3]
0805EE7E 4910     ldr     r1,=300545Ch
0805EE80 4643     mov     r3,r8
0805EE82 00D8     lsl     r0,r3,3h
0805EE84 1846     add     r6,r0,r1
0805EE86 2100     mov     r1,0h
0805EE88 1C13     mov     r3,r2
0805EE8A 7818     ldrb    r0,[r3]
0805EE8C 42B8     cmp     r0,r7
0805EE8E D105     bne     805EE9Ch
0805EE90 1C50     add     r0,r2,1
0805EE92 1808     add     r0,r1,r0
0805EE94 7800     ldrb    r0,[r0]
0805EE96 79F2     ldrb    r2,[r6,7h]
0805EE98 4290     cmp     r0,r2
0805EE9A D0DF     beq     805EE5Ch
0805EE9C 3103     add     r1,3h
0805EE9E 3303     add     r3,3h
0805EEA0 4662     mov     r2,r12
0805EEA2 1888     add     r0,r1,r2
0805EEA4 7800     ldrb    r0,[r0]
0805EEA6 28FF     cmp     r0,0FFh
0805EEA8 D1EF     bne     805EE8Ah
0805EEAA 2C02     cmp     r4,2h
0805EEAC D00C     beq     805EEC8h
0805EEAE 4905     ldr     r1,=3000056h
0805EEB0 2000     mov     r0,0h
0805EEB2 7008     strb    r0,[r1]
0805EEB4 2000     mov     r0,0h
0805EEB6 E034     b       805EF22h
0805EEB8 0274     lsl     r4,r6,9h
0805EEBA 0836     lsr     r6,r6,20h
0805EEBC 0054     lsl     r4,r2,1h
0805EEBE 0300     lsl     r0,r0,0Ch
0805EEC0 545C     strb    r4,[r3,r1]
0805EEC2 0300     lsl     r0,r0,0Ch
0805EEC4 0056     lsl     r6,r2,1h
0805EEC6 0300     lsl     r0,r0,0Ch
0805EEC8 4A03     ldr     r2,=30013D4h
0805EECA 7810     ldrb    r0,[r2]
0805EECC 281D     cmp     r0,1Dh
0805EECE D107     bne     805EEE0h
0805EED0 4902     ldr     r1,=300550Ch
0805EED2 2000     mov     r0,0h
0805EED4 8008     strh    r0,[r1]
0805EED6 E00B     b       805EEF0h
0805EED8 13D4     asr     r4,r2,0Fh
0805EEDA 0300     lsl     r0,r0,0Ch
0805EEDC 550C     strb    r4,[r1,r4]
0805EEDE 0300     lsl     r0,r0,0Ch
0805EEE0 4813     ldr     r0,=300550Ch
0805EEE2 7969     ldrb    r1,[r5,5h]
0805EEE4 3101     add     r1,1h
0805EEE6 0189     lsl     r1,r1,6h
0805EEE8 8A92     ldrh    r2,[r2,14h]
0805EEEA 1A89     sub     r1,r1,r2
0805EEEC 3901     sub     r1,1h
0805EEEE 8001     strh    r1,[r0]
0805EEF0 2006     mov     r0,6h
0805EEF2 F7FDF8BF bl      805C074h
0805EEF6 490F     ldr     r1,=3000C72h
0805EEF8 2003     mov     r0,3h
0805EEFA 8008     strh    r0,[r1]
0805EEFC 480E     ldr     r0,=875FAA8h
0805EEFE 4C0F     ldr     r4,=3000054h
0805EF00 7821     ldrb    r1,[r4]
0805EF02 0089     lsl     r1,r1,2h
0805EF04 1809     add     r1,r1,r0
0805EF06 480E     ldr     r0,=3000056h
0805EF08 7802     ldrb    r2,[r0]
0805EF0A 0050     lsl     r0,r2,1h
0805EF0C 1880     add     r0,r0,r2
0805EF0E 0080     lsl     r0,r0,2h
0805EF10 6809     ldr     r1,[r1]
0805EF12 180D     add     r5,r1,r0
0805EF14 F000FC72 bl      805F7FCh
0805EF18 7820     ldrb    r0,[r4]
0805EF1A 7869     ldrb    r1,[r5,1h]
0805EF1C F001FD04 bl      8060928h
0805EF20 2001     mov     r0,1h
0805EF22 BC38     pop     r3-r5
0805EF24 4698     mov     r8,r3
0805EF26 46A1     mov     r9,r4
0805EF28 46AA     mov     r10,r5
0805EF2A BCF0     pop     r4-r7
0805EF2C BC02     pop     r1
0805EF2E 4708     bx      r1
0805EF30 550C     strb    r4,[r1,r4]
0805EF32 0300     lsl     r0,r0,0Ch
0805EF34 0C72     lsr     r2,r6,11h
0805EF36 0300     lsl     r0,r0,0Ch
0805EF38 FAA80875 ????
0805EF3A 0875     lsr     r5,r6,1h
0805EF3C 0054     lsl     r4,r2,1h
0805EF3E 0300     lsl     r0,r0,0Ch
0805EF40 0056     lsl     r6,r2,1h
0805EF42 0300     lsl     r0,r0,0Ch
0805EF44 B500     push    lr
0805EF46 0600     lsl     r0,r0,18h
0805EF48 2206     mov     r2,6h
0805EF4A 21F0     mov     r1,0F0h
0805EF4C 0509     lsl     r1,r1,14h
0805EF4E 4001     and     r1,r0
0805EF50 0E09     lsr     r1,r1,18h
0805EF52 2905     cmp     r1,5h
0805EF54 D009     beq     805EF6Ah
0805EF56 2905     cmp     r1,5h
0805EF58 DC04     bgt     805EF64h
0805EF5A 2902     cmp     r1,2h
0805EF5C DC12     bgt     805EF84h
0805EF5E 2901     cmp     r1,1h
0805EF60 DB10     blt     805EF84h
0805EF62 E017     b       805EF94h
0805EF64 2906     cmp     r1,6h
0805EF66 D007     beq     805EF78h
0805EF68 E00C     b       805EF84h
0805EF6A 4902     ldr     r1,=300002Dh
0805EF6C 2000     mov     r0,0h
0805EF6E 7008     strb    r0,[r1]
0805EF70 E010     b       805EF94h
0805EF72 0000     lsl     r0,r0,0h
0805EF74 002D     lsl     r5,r5,0h
0805EF76 0300     lsl     r0,r0,0Ch
0805EF78 4901     ldr     r1,=300002Dh
0805EF7A 2001     mov     r0,1h
0805EF7C 7008     strb    r0,[r1]
0805EF7E E009     b       805EF94h
0805EF80 002D     lsl     r5,r5,0h
0805EF82 0300     lsl     r0,r0,0Ch
0805EF84 4906     ldr     r1,=300002Ah
0805EF86 2004     mov     r0,4h
0805EF88 7008     strb    r0,[r1]
0805EF8A 4806     ldr     r0,=3000042h
0805EF8C 7800     ldrb    r0,[r0]
0805EF8E 2800     cmp     r0,0h
0805EF90 D100     bne     805EF94h
0805EF92 2204     mov     r2,4h
0805EF94 1C10     mov     r0,r2
0805EF96 F7FDF86D bl      805C074h
0805EF9A BC01     pop     r0
0805EF9C 4700     bx      r0
0805EF9E 0000     lsl     r0,r0,0h
0805EFA0 002A     lsl     r2,r5,0h
0805EFA2 0300     lsl     r0,r0,0Ch
0805EFA4 0042     lsl     r2,r0,1h
0805EFA6 0300     lsl     r0,r0,0Ch
0805EFA8 B5F0     push    r4-r7,lr
0805EFAA 4647     mov     r7,r8
0805EFAC B480     push    r7
0805EFAE 0600     lsl     r0,r0,18h
0805EFB0 0E07     lsr     r7,r0,18h
0805EFB2 2528     mov     r5,28h
0805EFB4 480C     ldr     r0,=3000054h
0805EFB6 4680     mov     r8,r0
0805EFB8 4E0C     ldr     r6,=83601D0h
0805EFBA 1C34     mov     r4,r6
0805EFBC 34A0     add     r4,0A0h
0805EFBE 00A9     lsl     r1,r5,2h
0805EFC0 4642     mov     r2,r8
0805EFC2 7810     ldrb    r0,[r2]
0805EFC4 7822     ldrb    r2,[r4]
0805EFC6 4290     cmp     r0,r2
0805EFC8 D112     bne     805EFF0h
0805EFCA 1C70     add     r0,r6,1
0805EFCC 1808     add     r0,r1,r0
0805EFCE 7800     ldrb    r0,[r0]
0805EFD0 4287     cmp     r7,r0
0805EFD2 D10D     bne     805EFF0h
0805EFD4 1CB0     add     r0,r6,2
0805EFD6 1808     add     r0,r1,r0
0805EFD8 7801     ldrb    r1,[r0]
0805EFDA 2003     mov     r0,3h
0805EFDC F001FC6E bl      80608BCh
0805EFE0 2800     cmp     r0,0h
0805EFE2 D005     beq     805EFF0h
0805EFE4 78E0     ldrb    r0,[r4,3h]
0805EFE6 E008     b       805EFFAh
0805EFE8 0054     lsl     r4,r2,1h
0805EFEA 0300     lsl     r0,r0,0Ch
0805EFEC 01D0     lsl     r0,r2,7h
0805EFEE 0836     lsr     r6,r6,20h
0805EFF0 3C04     sub     r4,4h
0805EFF2 3D01     sub     r5,1h
0805EFF4 2D00     cmp     r5,0h
0805EFF6 DAE2     bge     805EFBEh
0805EFF8 20FF     mov     r0,0FFh
0805EFFA BC08     pop     r3
0805EFFC 4698     mov     r8,r3
0805EFFE BCF0     pop     r4-r7
0805F000 BC02     pop     r1
0805F002 4708     bx      r1
0805F004 B5F0     push    r4-r7,lr
0805F006 4647     mov     r7,r8
0805F008 B480     push    r7
0805F00A B083     add     sp,-0Ch
0805F00C 0600     lsl     r0,r0,18h
0805F00E 0E06     lsr     r6,r0,18h
0805F010 0609     lsl     r1,r1,18h
0805F012 0E0C     lsr     r4,r1,18h
0805F014 4818     ldr     r0,=3000054h
0805F016 4684     mov     r12,r0
0805F018 7800     ldrb    r0,[r0]
0805F01A 0140     lsl     r0,r0,5h
0805F01C 4A17     ldr     r2,=2037C00h
0805F01E 1885     add     r5,r0,r2
0805F020 2700     mov     r7,0h
0805F022 0F49     lsr     r1,r1,1Dh
0805F024 231F     mov     r3,1Fh
0805F026 4698     mov     r8,r3
0805F028 1C23     mov     r3,r4
0805F02A 4640     mov     r0,r8
0805F02C 4003     and     r3,r0
0805F02E 2E00     cmp     r6,0h
0805F030 D028     beq     805F084h
0805F032 008A     lsl     r2,r1,2h
0805F034 1952     add     r2,r2,r5
0805F036 2101     mov     r1,1h
0805F038 4099     lsl     r1,r3
0805F03A 6810     ldr     r0,[r2]
0805F03C 4388     bic     r0,r1
0805F03E 6010     str     r0,[r2]
0805F040 2E01     cmp     r6,1h
0805F042 D128     bne     805F096h
0805F044 490E     ldr     r1,=875FAA8h
0805F046 4662     mov     r2,r12
0805F048 7810     ldrb    r0,[r2]
0805F04A 0080     lsl     r0,r0,2h
0805F04C 1840     add     r0,r0,r1
0805F04E 6802     ldr     r2,[r0]
0805F050 0060     lsl     r0,r4,1h
0805F052 1900     add     r0,r0,r4
0805F054 0080     lsl     r0,r0,2h
0805F056 4669     mov     r1,r13
0805F058 1880     add     r0,r0,r2
0805F05A C81C     ldmia   [r0]!,r2-r4
0805F05C C11C     stmia   [r1]!,r2-r4
0805F05E 4668     mov     r0,r13
0805F060 7980     ldrb    r0,[r0,6h]
0805F062 0941     lsr     r1,r0,5h
0805F064 4643     mov     r3,r8
0805F066 4018     and     r0,r3
0805F068 008A     lsl     r2,r1,2h
0805F06A 1952     add     r2,r2,r5
0805F06C 1C31     mov     r1,r6
0805F06E 4081     lsl     r1,r0
0805F070 6810     ldr     r0,[r2]
0805F072 4388     bic     r0,r1
0805F074 6010     str     r0,[r2]
0805F076 E00E     b       805F096h
0805F078 0054     lsl     r4,r2,1h
0805F07A 0300     lsl     r0,r0,0Ch
0805F07C 7C00     ldrb    r0,[r0,10h]
0805F07E 0203     lsl     r3,r0,8h
0805F080 FAA80875 ????
0805F082 0875     lsr     r5,r6,1h
0805F084 0089     lsl     r1,r1,2h
0805F086 1949     add     r1,r1,r5
0805F088 2001     mov     r0,1h
0805F08A 4098     lsl     r0,r3
0805F08C 680F     ldr     r7,[r1]
0805F08E 4007     and     r7,r0
0805F090 2F00     cmp     r7,0h
0805F092 D000     beq     805F096h
0805F094 2701     mov     r7,1h
0805F096 1C38     mov     r0,r7
0805F098 B003     add     sp,0Ch
0805F09A BC08     pop     r3
0805F09C 4698     mov     r8,r3
0805F09E BCF0     pop     r4-r7
0805F0A0 BC02     pop     r1
0805F0A2 4708     bx      r1
0805F0A4 B510     push    r4,lr
0805F0A6 490D     ldr     r1,=300007Bh
0805F0A8 780A     ldrb    r2,[r1]
0805F0AA 2000     mov     r0,0h
0805F0AC 5608     ldsb    r0,[r1,r0]
0805F0AE 2800     cmp     r0,0h
0805F0B0 DA11     bge     805F0D6h
0805F0B2 1C50     add     r0,r2,1
0805F0B4 7008     strb    r0,[r1]
0805F0B6 0600     lsl     r0,r0,18h
0805F0B8 2800     cmp     r0,0h
0805F0BA D10C     bne     805F0D6h
0805F0BC 4C08     ldr     r4,=30054E4h
0805F0BE 8860     ldrh    r0,[r4,2h]
0805F0C0 2800     cmp     r0,0h
0805F0C2 D102     bne     805F0CAh
0805F0C4 88E0     ldrh    r0,[r4,6h]
0805F0C6 2800     cmp     r0,0h
0805F0C8 D005     beq     805F0D6h
0805F0CA 208B     mov     r0,8Bh
0805F0CC 0040     lsl     r0,r0,1h
0805F0CE F7A3FCA3 bl      8002A18h
0805F0D2 2001     mov     r0,1h
0805F0D4 7020     strb    r0,[r4]
0805F0D6 BC10     pop     r4
0805F0D8 BC01     pop     r0
0805F0DA 4700     bx      r0
0805F0DC 007B     lsl     r3,r7,1h
0805F0DE 0300     lsl     r0,r0,0Ch
0805F0E0 54E4     strb    r4,[r4,r3]
0805F0E2 0300     lsl     r0,r0,0Ch
0805F0E4 B530     push    r4,r5,lr
0805F0E6 0600     lsl     r0,r0,18h
0805F0E8 0E00     lsr     r0,r0,18h
0805F0EA 0609     lsl     r1,r1,18h
0805F0EC 0E09     lsr     r1,r1,18h
0805F0EE 0612     lsl     r2,r2,18h
0805F0F0 0E12     lsr     r2,r2,18h
0805F0F2 4B0A     ldr     r3,=300545Ch
0805F0F4 00CC     lsl     r4,r1,3h
0805F0F6 18E4     add     r4,r4,r3
0805F0F8 2303     mov     r3,3h
0805F0FA 401A     and     r2,r3
0805F0FC 7865     ldrb    r5,[r4,1h]
0805F0FE 3B07     sub     r3,7h
0805F100 402B     and     r3,r5
0805F102 4313     orr     r3,r2
0805F104 7063     strb    r3,[r4,1h]
0805F106 7823     ldrb    r3,[r4]
0805F108 220F     mov     r2,0Fh
0805F10A 4252     neg     r2,r2
0805F10C 401A     and     r2,r3
0805F10E 7022     strb    r2,[r4]
0805F110 F7FFFBF2 bl      805E8F8h
0805F114 BC30     pop     r4,r5
0805F116 BC01     pop     r0
0805F118 4700     bx      r0
0805F11A 0000     lsl     r0,r0,0h
0805F11C 545C     strb    r4,[r3,r1]
0805F11E 0300     lsl     r0,r0,0Ch
0805F120 B5F0     push    r4-r7,lr
0805F122 4657     mov     r7,r10
0805F124 464E     mov     r6,r9
0805F126 4645     mov     r5,r8
0805F128 B4E0     push    r5-r7
0805F12A 0600     lsl     r0,r0,18h
0805F12C 0E04     lsr     r4,r0,18h
0805F12E 2500     mov     r5,0h
0805F130 2700     mov     r7,0h
0805F132 4A0B     ldr     r2,=30054E4h
0805F134 2301     mov     r3,1h
0805F136 490B     ldr     r1,=300545Ch
0805F138 7808     ldrb    r0,[r1]
0805F13A 07C0     lsl     r0,r0,1Fh
0805F13C 2800     cmp     r0,0h
0805F13E D004     beq     805F14Ah
0805F140 1C18     mov     r0,r3
0805F142 40A8     lsl     r0,r5
0805F144 4338     orr     r0,r7
0805F146 0400     lsl     r0,r0,10h
0805F148 0C07     lsr     r7,r0,10h
0805F14A 3108     add     r1,8h
0805F14C 3501     add     r5,1h
0805F14E 2D0F     cmp     r5,0Fh
0805F150 DDF2     ble     805F138h
0805F152 2C00     cmp     r4,0h
0805F154 D108     bne     805F168h
0805F156 8850     ldrh    r0,[r2,2h]
0805F158 4038     and     r0,r7
0805F15A 8050     strh    r0,[r2,2h]
0805F15C E00A     b       805F174h
0805F15E 0000     lsl     r0,r0,0h
0805F160 54E4     strb    r4,[r4,r3]
0805F162 0300     lsl     r0,r0,0Ch
0805F164 545C     strb    r4,[r3,r1]
0805F166 0300     lsl     r0,r0,0Ch
0805F168 8890     ldrh    r0,[r2,4h]
0805F16A 4038     and     r0,r7
0805F16C 8090     strh    r0,[r2,4h]
0805F16E 88D0     ldrh    r0,[r2,6h]
0805F170 4038     and     r0,r7
0805F172 80D0     strh    r0,[r2,6h]
0805F174 2C00     cmp     r4,0h
0805F176 D137     bne     805F1E8h
0805F178 8890     ldrh    r0,[r2,4h]
0805F17A 88D1     ldrh    r1,[r2,6h]
0805F17C 4308     orr     r0,r1
0805F17E 8851     ldrh    r1,[r2,2h]
0805F180 4381     bic     r1,r0
0805F182 8051     strh    r1,[r2,2h]
0805F184 1C0F     mov     r7,r1
0805F186 2500     mov     r5,0h
0805F188 2400     mov     r4,0h
0805F18A 1C38     mov     r0,r7
0805F18C 4128     asr     r0,r5
0805F18E 2101     mov     r1,1h
0805F190 4008     and     r0,r1
0805F192 2800     cmp     r0,0h
0805F194 D021     beq     805F1DAh
0805F196 480C     ldr     r0,=300545Ch
0805F198 00EA     lsl     r2,r5,3h
0805F19A 1812     add     r2,r2,r0
0805F19C 7851     ldrb    r1,[r2,1h]
0805F19E 230D     mov     r3,0Dh
0805F1A0 425B     neg     r3,r3
0805F1A2 1C18     mov     r0,r3
0805F1A4 4001     and     r1,r0
0805F1A6 2004     mov     r0,4h
0805F1A8 4301     orr     r1,r0
0805F1AA 7051     strb    r1,[r2,1h]
0805F1AC 2006     mov     r0,6h
0805F1AE 70D0     strb    r0,[r2,3h]
0805F1B0 4906     ldr     r1,=3000056h
0805F1B2 79D0     ldrb    r0,[r2,7h]
0805F1B4 7809     ldrb    r1,[r1]
0805F1B6 4288     cmp     r0,r1
0805F1B8 D00A     beq     805F1D0h
0805F1BA 0E21     lsr     r1,r4,18h
0805F1BC 2001     mov     r0,1h
0805F1BE 2200     mov     r2,0h
0805F1C0 F7FFFF90 bl      805F0E4h
0805F1C4 E009     b       805F1DAh
0805F1C6 0000     lsl     r0,r0,0h
0805F1C8 545C     strb    r4,[r3,r1]
0805F1CA 0300     lsl     r0,r0,0Ch
0805F1CC 0056     lsl     r6,r2,1h
0805F1CE 0300     lsl     r0,r0,0Ch
0805F1D0 0E21     lsr     r1,r4,18h
0805F1D2 2001     mov     r0,1h
0805F1D4 2203     mov     r2,3h
0805F1D6 F7FFFF85 bl      805F0E4h
0805F1DA 2080     mov     r0,80h
0805F1DC 0440     lsl     r0,r0,11h
0805F1DE 1824     add     r4,r4,r0
0805F1E0 3501     add     r5,1h
0805F1E2 2D0F     cmp     r5,0Fh
0805F1E4 DDD1     ble     805F18Ah
0805F1E6 E04D     b       805F284h
0805F1E8 8891     ldrh    r1,[r2,4h]
0805F1EA 88D0     ldrh    r0,[r2,6h]
0805F1EC 1C07     mov     r7,r0
0805F1EE 430F     orr     r7,r1
0805F1F0 2500     mov     r5,0h
0805F1F2 2101     mov     r1,1h
0805F1F4 468A     mov     r10,r1
0805F1F6 46A8     mov     r8,r5
0805F1F8 4C0C     ldr     r4,=300545Ch
0805F1FA 230D     mov     r3,0Dh
0805F1FC 425B     neg     r3,r3
0805F1FE 4699     mov     r9,r3
0805F200 2600     mov     r6,0h
0805F202 1C38     mov     r0,r7
0805F204 4128     asr     r0,r5
0805F206 4651     mov     r1,r10
0805F208 4008     and     r0,r1
0805F20A 2800     cmp     r0,0h
0805F20C D031     beq     805F272h
0805F20E 4808     ldr     r0,=30054E4h
0805F210 88C0     ldrh    r0,[r0,6h]
0805F212 4128     asr     r0,r5
0805F214 4008     and     r0,r1
0805F216 2800     cmp     r0,0h
0805F218 D00C     beq     805F234h
0805F21A 7860     ldrb    r0,[r4,1h]
0805F21C 464B     mov     r3,r9
0805F21E 4018     and     r0,r3
0805F220 2104     mov     r1,4h
0805F222 4308     orr     r0,r1
0805F224 7060     strb    r0,[r4,1h]
0805F226 2006     mov     r0,6h
0805F228 E00B     b       805F242h
0805F22A 0000     lsl     r0,r0,0h
0805F22C 545C     strb    r4,[r3,r1]
0805F22E 0300     lsl     r0,r0,0Ch
0805F230 54E4     strb    r4,[r4,r3]
0805F232 0300     lsl     r0,r0,0Ch
0805F234 7860     ldrb    r0,[r4,1h]
0805F236 4649     mov     r1,r9
0805F238 4008     and     r0,r1
0805F23A 2108     mov     r1,8h
0805F23C 4308     orr     r0,r1
0805F23E 7060     strb    r0,[r4,1h]
0805F240 2007     mov     r0,7h
0805F242 70E0     strb    r0,[r4,3h]
0805F244 4806     ldr     r0,=300545Ch
0805F246 4440     add     r0,r8
0805F248 4906     ldr     r1,=3000056h
0805F24A 79C0     ldrb    r0,[r0,7h]
0805F24C 7809     ldrb    r1,[r1]
0805F24E 4288     cmp     r0,r1
0805F250 D00A     beq     805F268h
0805F252 0E31     lsr     r1,r6,18h
0805F254 2001     mov     r0,1h
0805F256 2200     mov     r2,0h
0805F258 F7FFFF44 bl      805F0E4h
0805F25C E009     b       805F272h
0805F25E 0000     lsl     r0,r0,0h
0805F260 545C     strb    r4,[r3,r1]
0805F262 0300     lsl     r0,r0,0Ch
0805F264 0056     lsl     r6,r2,1h
0805F266 0300     lsl     r0,r0,0Ch
0805F268 0E31     lsr     r1,r6,18h
0805F26A 2001     mov     r0,1h
0805F26C 2203     mov     r2,3h
0805F26E F7FFFF39 bl      805F0E4h
0805F272 2308     mov     r3,8h
0805F274 4498     add     r8,r3
0805F276 3408     add     r4,8h
0805F278 2080     mov     r0,80h
0805F27A 0440     lsl     r0,r0,11h
0805F27C 1836     add     r6,r6,r0
0805F27E 3501     add     r5,1h
0805F280 2D0F     cmp     r5,0Fh
0805F282 DDBE     ble     805F202h
0805F284 BC38     pop     r3-r5
0805F286 4698     mov     r8,r3
0805F288 46A1     mov     r9,r4
0805F28A 46AA     mov     r10,r5
0805F28C BCF0     pop     r4-r7
0805F28E BC01     pop     r0
0805F290 4700     bx      r0
0805F292 0000     lsl     r0,r0,0h
0805F294 B5F0     push    r4-r7,lr
0805F296 4657     mov     r7,r10
0805F298 464E     mov     r6,r9
0805F29A 4645     mov     r5,r8
0805F29C B4E0     push    r5-r7
0805F29E B081     add     sp,-4h
0805F2A0 4845     ldr     r0,=3000BF0h
0805F2A2 7800     ldrb    r0,[r0]
0805F2A4 0600     lsl     r0,r0,18h
0805F2A6 1600     asr     r0,r0,18h
0805F2A8 2800     cmp     r0,0h
0805F2AA D000     beq     805F2AEh
0805F2AC E170     b       805F590h
0805F2AE 4943     ldr     r1,=300545Ch
0805F2B0 4E43     ldr     r6,=875FAA8h
0805F2B2 4D44     ldr     r5,=3000054h
0805F2B4 4844     ldr     r0,=8345868h
0805F2B6 6803     ldr     r3,[r0]
0805F2B8 6844     ldr     r4,[r0,4h]
0805F2BA 1C0A     mov     r2,r1
0805F2BC 3278     add     r2,78h
0805F2BE 6013     str     r3,[r2]
0805F2C0 6054     str     r4,[r2,4h]
0805F2C2 3A08     sub     r2,8h
0805F2C4 428A     cmp     r2,r1
0805F2C6 DAFA     bge     805F2BEh
0805F2C8 20FF     mov     r0,0FFh
0805F2CA 4682     mov     r10,r0
0805F2CC 2000     mov     r0,0h
0805F2CE 493F     ldr     r1,=30054DCh
0805F2D0 7008     strb    r0,[r1]
0805F2D2 7828     ldrb    r0,[r5]
0805F2D4 0080     lsl     r0,r0,2h
0805F2D6 1980     add     r0,r0,r6
0805F2D8 6806     ldr     r6,[r0]
0805F2DA 2200     mov     r2,0h
0805F2DC 9200     str     r2,[sp]
0805F2DE 4690     mov     r8,r2
0805F2E0 7831     ldrb    r1,[r6]
0805F2E2 2900     cmp     r1,0h
0805F2E4 D100     bne     805F2E8h
0805F2E6 E0E2     b       805F4AEh
0805F2E8 4C39     ldr     r4,=30054E4h
0805F2EA 46A1     mov     r9,r4
0805F2EC 4839     ldr     r0,=3000055h
0805F2EE 7800     ldrb    r0,[r0]
0805F2F0 7872     ldrb    r2,[r6,1h]
0805F2F2 4290     cmp     r0,r2
0805F2F4 D000     beq     805F2F8h
0805F2F6 E0D3     b       805F4A0h
0805F2F8 200F     mov     r0,0Fh
0805F2FA 4008     and     r0,r1
0805F2FC 3803     sub     r0,3h
0805F2FE 2801     cmp     r0,1h
0805F300 D900     bls     805F304h
0805F302 E0BC     b       805F47Eh
0805F304 4A34     ldr     r2,=300009Ch
0805F306 8B91     ldrh    r1,[r2,1Ch]
0805F308 7930     ldrb    r0,[r6,4h]
0805F30A 4348     mul     r0,r1
0805F30C 78B4     ldrb    r4,[r6,2h]
0805F30E 1900     add     r0,r0,r4
0805F310 6991     ldr     r1,[r2,18h]
0805F312 0040     lsl     r0,r0,1h
0805F314 1842     add     r2,r0,r1
0805F316 8851     ldrh    r1,[r2,2h]
0805F318 4B30     ldr     r3,=3005450h
0805F31A 6858     ldr     r0,[r3,4h]
0805F31C 1840     add     r0,r0,r1
0805F31E 7800     ldrb    r0,[r0]
0805F320 2401     mov     r4,1h
0805F322 46A4     mov     r12,r4
0805F324 280B     cmp     r0,0Bh
0805F326 D003     beq     805F330h
0805F328 2000     mov     r0,0h
0805F32A 4684     mov     r12,r0
0805F32C 1E90     sub     r0,r2,2
0805F32E 8801     ldrh    r1,[r0]
0805F330 6898     ldr     r0,[r3,8h]
0805F332 0049     lsl     r1,r1,1h
0805F334 1809     add     r1,r1,r0
0805F336 8809     ldrh    r1,[r1]
0805F338 1C08     mov     r0,r1
0805F33A 3880     sub     r0,80h
0805F33C 0400     lsl     r0,r0,10h
0805F33E 0C00     lsr     r0,r0,10h
0805F340 2700     mov     r7,0h
0805F342 2804     cmp     r0,4h
0805F344 D801     bhi     805F34Ah
0805F346 1C0F     mov     r7,r1
0805F348 3F7F     sub     r7,7Fh
0805F34A 4825     ldr     r0,=8360130h
0805F34C 1838     add     r0,r7,r0
0805F34E 7807     ldrb    r7,[r0]
0805F350 491E     ldr     r1,=30054DCh
0805F352 780C     ldrb    r4,[r1]
0805F354 2C0F     cmp     r4,0Fh
0805F356 DD00     ble     805F35Ah
0805F358 E083     b       805F462h
0805F35A 00E0     lsl     r0,r4,3h
0805F35C 4A17     ldr     r2,=300545Ch
0805F35E 1881     add     r1,r0,r2
0805F360 7809     ldrb    r1,[r1]
0805F362 07C9     lsl     r1,r1,1Fh
0805F364 1C05     mov     r5,r0
0805F366 2900     cmp     r1,0h
0805F368 D00C     beq     805F384h
0805F36A 1C10     mov     r0,r2
0805F36C 1C29     mov     r1,r5
0805F36E 180A     add     r2,r1,r0
0805F370 3108     add     r1,8h
0805F372 3208     add     r2,8h
0805F374 3401     add     r4,1h
0805F376 2C0F     cmp     r4,0Fh
0805F378 DC73     bgt     805F462h
0805F37A 7810     ldrb    r0,[r2]
0805F37C 07C0     lsl     r0,r0,1Fh
0805F37E 1C0D     mov     r5,r1
0805F380 2800     cmp     r0,0h
0805F382 D1F5     bne     805F370h
0805F384 2C0F     cmp     r4,0Fh
0805F386 DC6C     bgt     805F462h
0805F388 480C     ldr     r0,=300545Ch
0805F38A 182B     add     r3,r5,r0
0805F38C 70DF     strb    r7,[r3,3h]
0805F38E 2F01     cmp     r7,1h
0805F390 DD4B     ble     805F42Ah
0805F392 4661     mov     r1,r12
0805F394 2201     mov     r2,1h
0805F396 4011     and     r1,r2
0805F398 0109     lsl     r1,r1,4h
0805F39A 781A     ldrb    r2,[r3]
0805F39C 2011     mov     r0,11h
0805F39E 4240     neg     r0,r0
0805F3A0 4010     and     r0,r2
0805F3A2 4308     orr     r0,r1
0805F3A4 7018     strb    r0,[r3]
0805F3A6 7930     ldrb    r0,[r6,4h]
0805F3A8 7198     strb    r0,[r3,6h]
0805F3AA 78B0     ldrb    r0,[r6,2h]
0805F3AC 7158     strb    r0,[r3,5h]
0805F3AE 4661     mov     r1,r12
0805F3B0 2900     cmp     r1,0h
0805F3B2 D017     beq     805F3E4h
0805F3B4 3001     add     r0,1h
0805F3B6 E016     b       805F3E6h
0805F3B8 0BF0     lsr     r0,r6,0Fh
0805F3BA 0300     lsl     r0,r0,0Ch
0805F3BC 545C     strb    r4,[r3,r1]
0805F3BE 0300     lsl     r0,r0,0Ch
0805F3C0 FAA80875 ????
0805F3C2 0875     lsr     r5,r6,1h
0805F3C4 0054     lsl     r4,r2,1h
0805F3C6 0300     lsl     r0,r0,0Ch
0805F3C8 5868     ldr     r0,[r5,r1]
0805F3CA 0834     lsr     r4,r6,20h
0805F3CC 54DC     strb    r4,[r3,r3]
0805F3CE 0300     lsl     r0,r0,0Ch
0805F3D0 54E4     strb    r4,[r4,r3]
0805F3D2 0300     lsl     r0,r0,0Ch
0805F3D4 0055     lsl     r5,r2,1h
0805F3D6 0300     lsl     r0,r0,0Ch
0805F3D8 009C     lsl     r4,r3,2h
0805F3DA 0300     lsl     r0,r0,0Ch
0805F3DC 5450     strb    r0,[r2,r1]
0805F3DE 0300     lsl     r0,r0,0Ch
0805F3E0 0130     lsl     r0,r6,4h
0805F3E2 0836     lsr     r6,r6,20h
0805F3E4 3801     sub     r0,1h
0805F3E6 7158     strb    r0,[r3,5h]
0805F3E8 4A09     ldr     r2,=300545Ch
0805F3EA 18A8     add     r0,r5,r2
0805F3EC 7801     ldrb    r1,[r0]
0805F3EE 2201     mov     r2,1h
0805F3F0 4311     orr     r1,r2
0805F3F2 7001     strb    r1,[r0]
0805F3F4 4641     mov     r1,r8
0805F3F6 71C1     strb    r1,[r0,7h]
0805F3F8 1C60     add     r0,r4,1
0805F3FA 4A06     ldr     r2,=30054DCh
0805F3FC 7010     strb    r0,[r2]
0805F3FE 2F06     cmp     r7,6h
0805F400 D10A     bne     805F418h
0805F402 2001     mov     r0,1h
0805F404 40A0     lsl     r0,r4
0805F406 464A     mov     r2,r9
0805F408 8851     ldrh    r1,[r2,2h]
0805F40A 4308     orr     r0,r1
0805F40C 8050     strh    r0,[r2,2h]
0805F40E E025     b       805F45Ch
0805F410 545C     strb    r4,[r3,r1]
0805F412 0300     lsl     r0,r0,0Ch
0805F414 54DC     strb    r4,[r3,r3]
0805F416 0300     lsl     r0,r0,0Ch
0805F418 2F07     cmp     r7,7h
0805F41A D11F     bne     805F45Ch
0805F41C 2001     mov     r0,1h
0805F41E 40A0     lsl     r0,r4
0805F420 464A     mov     r2,r9
0805F422 8891     ldrh    r1,[r2,4h]
0805F424 4308     orr     r0,r1
0805F426 8090     strh    r0,[r2,4h]
0805F428 E018     b       805F45Ch
0805F42A 7930     ldrb    r0,[r6,4h]
0805F42C 7198     strb    r0,[r3,6h]
0805F42E 78B2     ldrb    r2,[r6,2h]
0805F430 715A     strb    r2,[r3,5h]
0805F432 7818     ldrb    r0,[r3]
0805F434 2101     mov     r1,1h
0805F436 4301     orr     r1,r0
0805F438 7019     strb    r1,[r3]
0805F43A 4640     mov     r0,r8
0805F43C 71D8     strb    r0,[r3,7h]
0805F43E 2007     mov     r0,7h
0805F440 5630     ldsb    r0,[r6,r0]
0805F442 2800     cmp     r0,0h
0805F444 DD04     ble     805F450h
0805F446 1C50     add     r0,r2,1
0805F448 7158     strb    r0,[r3,5h]
0805F44A 2010     mov     r0,10h
0805F44C 4301     orr     r1,r0
0805F44E E004     b       805F45Ah
0805F450 1E50     sub     r0,r2,1
0805F452 7158     strb    r0,[r3,5h]
0805F454 2211     mov     r2,11h
0805F456 4252     neg     r2,r2
0805F458 4011     and     r1,r2
0805F45A 7019     strb    r1,[r3]
0805F45C 9800     ldr     r0,[sp]
0805F45E 3001     add     r0,1h
0805F460 9000     str     r0,[sp]
0805F462 4651     mov     r1,r10
0805F464 29FF     cmp     r1,0FFh
0805F466 D118     bne     805F49Ah
0805F468 4802     ldr     r0,=3000056h
0805F46A 7800     ldrb    r0,[r0]
0805F46C 4580     cmp     r8,r0
0805F46E D114     bne     805F49Ah
0805F470 46A2     mov     r10,r4
0805F472 E012     b       805F49Ah
0805F474 0056     lsl     r6,r2,1h
0805F476 0300     lsl     r0,r0,0Ch
0805F478 4642     mov     r2,r8
0805F47A 71CA     strb    r2,[r1,7h]
0805F47C E00D     b       805F49Ah
0805F47E 240F     mov     r4,0Fh
0805F480 492A     ldr     r1,=300545Ch
0805F482 482B     ldr     r0,=8345868h
0805F484 79C2     ldrb    r2,[r0,7h]
0805F486 3178     add     r1,78h
0805F488 2301     mov     r3,1h
0805F48A 425B     neg     r3,r3
0805F48C 79C8     ldrb    r0,[r1,7h]
0805F48E 4290     cmp     r0,r2
0805F490 D0F2     beq     805F478h
0805F492 3908     sub     r1,8h
0805F494 3C01     sub     r4,1h
0805F496 429C     cmp     r4,r3
0805F498 DCF8     bgt     805F48Ch
0805F49A 9C00     ldr     r4,[sp]
0805F49C 2C0F     cmp     r4,0Fh
0805F49E DC06     bgt     805F4AEh
0805F4A0 360C     add     r6,0Ch
0805F4A2 2001     mov     r0,1h
0805F4A4 4480     add     r8,r0
0805F4A6 7831     ldrb    r1,[r6]
0805F4A8 2900     cmp     r1,0h
0805F4AA D000     beq     805F4AEh
0805F4AC E71E     b       805F2ECh
0805F4AE 2400     mov     r4,0h
0805F4B0 491E     ldr     r1,=300545Ch
0805F4B2 00E0     lsl     r0,r4,3h
0805F4B4 1841     add     r1,r0,r1
0805F4B6 7808     ldrb    r0,[r1]
0805F4B8 07C0     lsl     r0,r0,1Fh
0805F4BA 2800     cmp     r0,0h
0805F4BC D00D     beq     805F4DAh
0805F4BE 78C8     ldrb    r0,[r1,3h]
0805F4C0 2801     cmp     r0,1h
0805F4C2 D90A     bls     805F4DAh
0805F4C4 79C9     ldrb    r1,[r1,7h]
0805F4C6 2000     mov     r0,0h
0805F4C8 F7FFFD9C bl      805F004h
0805F4CC 2800     cmp     r0,0h
0805F4CE D104     bne     805F4DAh
0805F4D0 0620     lsl     r0,r4,18h
0805F4D2 0E00     lsr     r0,r0,18h
0805F4D4 2102     mov     r1,2h
0805F4D6 F7FFFB1F bl      805EB18h
0805F4DA 3401     add     r4,1h
0805F4DC 2C0F     cmp     r4,0Fh
0805F4DE DDE7     ble     805F4B0h
0805F4E0 4651     mov     r1,r10
0805F4E2 29FF     cmp     r1,0FFh
0805F4E4 D054     beq     805F590h
0805F4E6 4813     ldr     r0,=3000C75h
0805F4E8 7800     ldrb    r0,[r0]
0805F4EA 0600     lsl     r0,r0,18h
0805F4EC 1600     asr     r0,r0,18h
0805F4EE 2800     cmp     r0,0h
0805F4F0 D04E     beq     805F590h
0805F4F2 480E     ldr     r0,=300545Ch
0805F4F4 00C9     lsl     r1,r1,3h
0805F4F6 180A     add     r2,r1,r0
0805F4F8 7810     ldrb    r0,[r2]
0805F4FA 07C0     lsl     r0,r0,1Fh
0805F4FC 1C0C     mov     r4,r1
0805F4FE 2800     cmp     r0,0h
0805F500 D009     beq     805F516h
0805F502 78D0     ldrb    r0,[r2,3h]
0805F504 2800     cmp     r0,0h
0805F506 D006     beq     805F516h
0805F508 4652     mov     r2,r10
0805F50A 0611     lsl     r1,r2,18h
0805F50C 0E09     lsr     r1,r1,18h
0805F50E 2000     mov     r0,0h
0805F510 2203     mov     r2,3h
0805F512 F7FFFDE7 bl      805F0E4h
0805F516 4905     ldr     r1,=300545Ch
0805F518 1860     add     r0,r4,r1
0805F51A 7942     ldrb    r2,[r0,5h]
0805F51C 4690     mov     r8,r2
0805F51E 7800     ldrb    r0,[r0]
0805F520 06C0     lsl     r0,r0,1Bh
0805F522 2800     cmp     r0,0h
0805F524 DA08     bge     805F538h
0805F526 2001     mov     r0,1h
0805F528 4480     add     r8,r0
0805F52A E008     b       805F53Eh
0805F52C 545C     strb    r4,[r3,r1]
0805F52E 0300     lsl     r0,r0,0Ch
0805F530 5868     ldr     r0,[r5,r1]
0805F532 0834     lsr     r4,r6,20h
0805F534 0C75     lsr     r5,r6,11h
0805F536 0300     lsl     r0,r0,0Ch
0805F538 2201     mov     r2,1h
0805F53A 4252     neg     r2,r2
0805F53C 4490     add     r8,r2
0805F53E 1860     add     r0,r4,r1
0805F540 7984     ldrb    r4,[r0,6h]
0805F542 4A17     ldr     r2,=3005450h
0805F544 4917     ldr     r1,=300009Ch
0805F546 8B88     ldrh    r0,[r1,1Ch]
0805F548 4360     mul     r0,r4
0805F54A 4440     add     r0,r8
0805F54C 6989     ldr     r1,[r1,18h]
0805F54E 0040     lsl     r0,r0,1h
0805F550 1840     add     r0,r0,r1
0805F552 8800     ldrh    r0,[r0]
0805F554 6891     ldr     r1,[r2,8h]
0805F556 0040     lsl     r0,r0,1h
0805F558 1840     add     r0,r0,r1
0805F55A 8801     ldrh    r1,[r0]
0805F55C 1C08     mov     r0,r1
0805F55E F7FBF907 bl      805A770h
0805F562 0400     lsl     r0,r0,10h
0805F564 0C01     lsr     r1,r0,10h
0805F566 2900     cmp     r1,0h
0805F568 D012     beq     805F590h
0805F56A 20FF     mov     r0,0FFh
0805F56C 4008     and     r0,r1
0805F56E 0A09     lsr     r1,r1,8h
0805F570 2201     mov     r2,1h
0805F572 2301     mov     r3,1h
0805F574 F7F6FB2C bl      8055BD0h
0805F578 4A0B     ldr     r2,=3000088h
0805F57A 490C     ldr     r1,=30056CCh
0805F57C 78C8     ldrb    r0,[r1,3h]
0805F57E 7150     strb    r0,[r2,5h]
0805F580 7908     ldrb    r0,[r1,4h]
0805F582 7110     strb    r0,[r2,4h]
0805F584 4B0A     ldr     r3,=4000052h
0805F586 7951     ldrb    r1,[r2,5h]
0805F588 0209     lsl     r1,r1,8h
0805F58A 7910     ldrb    r0,[r2,4h]
0805F58C 4308     orr     r0,r1
0805F58E 8018     strh    r0,[r3]
0805F590 B001     add     sp,4h
0805F592 BC38     pop     r3-r5
0805F594 4698     mov     r8,r3
0805F596 46A1     mov     r9,r4
0805F598 46AA     mov     r10,r5
0805F59A BCF0     pop     r4-r7
0805F59C BC01     pop     r0
0805F59E 4700     bx      r0
0805F5A0 5450     strb    r0,[r2,r1]
0805F5A2 0300     lsl     r0,r0,0Ch
0805F5A4 009C     lsl     r4,r3,2h
0805F5A6 0300     lsl     r0,r0,0Ch
0805F5A8 0088     lsl     r0,r1,2h
0805F5AA 0300     lsl     r0,r0,0Ch
0805F5AC 56CC     ldsb    r4,[r1,r3]
0805F5AE 0300     lsl     r0,r0,0Ch
0805F5B0 0052     lsl     r2,r2,1h
0805F5B2 0400     lsl     r0,r0,10h
0805F5B4 B500     push    lr
0805F5B6 4905     ldr     r1,=30054E4h
0805F5B8 4805     ldr     r0,=0FFFFh
0805F5BA 8048     strh    r0,[r1,2h]
0805F5BC 2000     mov     r0,0h
0805F5BE F7FFFDAF bl      805F120h
0805F5C2 4904     ldr     r1,=300007Bh
0805F5C4 2002     mov     r0,2h
0805F5C6 7008     strb    r0,[r1]
0805F5C8 BC01     pop     r0
0805F5CA 4700     bx      r0
0805F5CC 54E4     strb    r4,[r4,r3]
0805F5CE 0300     lsl     r0,r0,0Ch
0805F5D0 FFFF0000 ????
0805F5D2 0000     lsl     r0,r0,0h
0805F5D4 007B     lsl     r3,r7,1h
0805F5D6 0300     lsl     r0,r0,0Ch
0805F5D8 B5F0     push    r4-r7,lr
0805F5DA 4848     ldr     r0,=3000BF0h
0805F5DC 7800     ldrb    r0,[r0]
0805F5DE 0600     lsl     r0,r0,18h
0805F5E0 1600     asr     r0,r0,18h
0805F5E2 2800     cmp     r0,0h
0805F5E4 D000     beq     805F5E8h
0805F5E6 E0A8     b       805F73Ah
0805F5E8 4B45     ldr     r3,=30054E4h
0805F5EA 8098     strh    r0,[r3,4h]
0805F5EC 80D8     strh    r0,[r3,6h]
0805F5EE 4945     ldr     r1,=3000054h
0805F5F0 7808     ldrb    r0,[r1]
0805F5F2 2806     cmp     r0,6h
0805F5F4 D900     bls     805F5F8h
0805F5F6 E0A0     b       805F73Ah
0805F5F8 4A43     ldr     r2,=83602D8h
0805F5FA 1C01     mov     r1,r0
0805F5FC 0048     lsl     r0,r1,1h
0805F5FE 1880     add     r0,r0,r2
0805F600 8802     ldrh    r2,[r0]
0805F602 4842     ldr     r0,=875FDE0h
0805F604 0089     lsl     r1,r1,2h
0805F606 1809     add     r1,r1,r0
0805F608 680D     ldr     r5,[r1]
0805F60A 2A00     cmp     r2,0h
0805F60C D100     bne     805F610h
0805F60E E08D     b       805F72Ch
0805F610 1C1E     mov     r6,r3
0805F612 1C17     mov     r7,r2
0805F614 2400     mov     r4,0h
0805F616 493E     ldr     r1,=3000055h
0805F618 7828     ldrb    r0,[r5]
0805F61A 7809     ldrb    r1,[r1]
0805F61C 4288     cmp     r0,r1
0805F61E D164     bne     805F6EAh
0805F620 7869     ldrb    r1,[r5,1h]
0805F622 2003     mov     r0,3h
0805F624 F001F94A bl      80608BCh
0805F628 1C01     mov     r1,r0
0805F62A 78A8     ldrb    r0,[r5,2h]
0805F62C 2801     cmp     r0,1h
0805F62E D002     beq     805F636h
0805F630 2803     cmp     r0,3h
0805F632 D101     bne     805F638h
0805F634 2001     mov     r0,1h
0805F636 4041     eor     r1,r0
0805F638 2900     cmp     r1,0h
0805F63A D056     beq     805F6EAh
0805F63C 78E9     ldrb    r1,[r5,3h]
0805F63E 07C8     lsl     r0,r1,1Fh
0805F640 0FC0     lsr     r0,r0,1Fh
0805F642 4304     orr     r4,r0
0805F644 2002     mov     r0,2h
0805F646 4008     and     r0,r1
0805F648 4304     orr     r4,r0
0805F64A 0420     lsl     r0,r4,10h
0805F64C 0C04     lsr     r4,r0,10h
0805F64E 2004     mov     r0,4h
0805F650 4008     and     r0,r1
0805F652 4304     orr     r4,r0
0805F654 0420     lsl     r0,r4,10h
0805F656 0C04     lsr     r4,r0,10h
0805F658 2008     mov     r0,8h
0805F65A 4008     and     r0,r1
0805F65C 4304     orr     r4,r0
0805F65E 0420     lsl     r0,r4,10h
0805F660 0C04     lsr     r4,r0,10h
0805F662 2010     mov     r0,10h
0805F664 4008     and     r0,r1
0805F666 4304     orr     r4,r0
0805F668 0420     lsl     r0,r4,10h
0805F66A 0C04     lsr     r4,r0,10h
0805F66C 2020     mov     r0,20h
0805F66E 4008     and     r0,r1
0805F670 4304     orr     r4,r0
0805F672 0420     lsl     r0,r4,10h
0805F674 0C04     lsr     r4,r0,10h
0805F676 2040     mov     r0,40h
0805F678 4008     and     r0,r1
0805F67A 4304     orr     r4,r0
0805F67C 0420     lsl     r0,r4,10h
0805F67E 0C04     lsr     r4,r0,10h
0805F680 09C9     lsr     r1,r1,7h
0805F682 01C9     lsl     r1,r1,7h
0805F684 430C     orr     r4,r1
0805F686 0420     lsl     r0,r4,10h
0805F688 0C04     lsr     r4,r0,10h
0805F68A 7929     ldrb    r1,[r5,4h]
0805F68C 07C8     lsl     r0,r1,1Fh
0805F68E 0FC0     lsr     r0,r0,1Fh
0805F690 0200     lsl     r0,r0,8h
0805F692 4304     orr     r4,r0
0805F694 0420     lsl     r0,r4,10h
0805F696 0C04     lsr     r4,r0,10h
0805F698 0788     lsl     r0,r1,1Eh
0805F69A 0FC0     lsr     r0,r0,1Fh
0805F69C 0240     lsl     r0,r0,9h
0805F69E 4304     orr     r4,r0
0805F6A0 0420     lsl     r0,r4,10h
0805F6A2 0C04     lsr     r4,r0,10h
0805F6A4 0748     lsl     r0,r1,1Dh
0805F6A6 0FC0     lsr     r0,r0,1Fh
0805F6A8 0280     lsl     r0,r0,0Ah
0805F6AA 4304     orr     r4,r0
0805F6AC 0420     lsl     r0,r4,10h
0805F6AE 0C04     lsr     r4,r0,10h
0805F6B0 0708     lsl     r0,r1,1Ch
0805F6B2 0FC0     lsr     r0,r0,1Fh
0805F6B4 02C0     lsl     r0,r0,0Bh
0805F6B6 4304     orr     r4,r0
0805F6B8 0420     lsl     r0,r4,10h
0805F6BA 0C04     lsr     r4,r0,10h
0805F6BC 06C8     lsl     r0,r1,1Bh
0805F6BE 0FC0     lsr     r0,r0,1Fh
0805F6C0 0300     lsl     r0,r0,0Ch
0805F6C2 4304     orr     r4,r0
0805F6C4 0420     lsl     r0,r4,10h
0805F6C6 0C04     lsr     r4,r0,10h
0805F6C8 0688     lsl     r0,r1,1Ah
0805F6CA 0FC0     lsr     r0,r0,1Fh
0805F6CC 0340     lsl     r0,r0,0Dh
0805F6CE 4304     orr     r4,r0
0805F6D0 0420     lsl     r0,r4,10h
0805F6D2 0C04     lsr     r4,r0,10h
0805F6D4 0648     lsl     r0,r1,19h
0805F6D6 0FC0     lsr     r0,r0,1Fh
0805F6D8 0380     lsl     r0,r0,0Eh
0805F6DA 4304     orr     r4,r0
0805F6DC 0420     lsl     r0,r4,10h
0805F6DE 0C04     lsr     r4,r0,10h
0805F6E0 09C9     lsr     r1,r1,7h
0805F6E2 03C9     lsl     r1,r1,0Fh
0805F6E4 430C     orr     r4,r1
0805F6E6 0420     lsl     r0,r4,10h
0805F6E8 0C04     lsr     r4,r0,10h
0805F6EA 78A8     ldrb    r0,[r5,2h]
0805F6EC 2800     cmp     r0,0h
0805F6EE D001     beq     805F6F4h
0805F6F0 2801     cmp     r0,1h
0805F6F2 D10F     bne     805F714h
0805F6F4 88B0     ldrh    r0,[r6,4h]
0805F6F6 4304     orr     r4,r0
0805F6F8 80B4     strh    r4,[r6,4h]
0805F6FA E012     b       805F722h
0805F6FC 0BF0     lsr     r0,r6,0Fh
0805F6FE 0300     lsl     r0,r0,0Ch
0805F700 54E4     strb    r4,[r4,r3]
0805F702 0300     lsl     r0,r0,0Ch
0805F704 0054     lsl     r4,r2,1h
0805F706 0300     lsl     r0,r0,0Ch
0805F708 02D8     lsl     r0,r3,0Bh
0805F70A 0836     lsr     r6,r6,20h
0805F70C FDE00875 ????
0805F70E 0875     lsr     r5,r6,1h
0805F710 0055     lsl     r5,r2,1h
0805F712 0300     lsl     r0,r0,0Ch
0805F714 2802     cmp     r0,2h
0805F716 D001     beq     805F71Ch
0805F718 2803     cmp     r0,3h
0805F71A D102     bne     805F722h
0805F71C 88F0     ldrh    r0,[r6,6h]
0805F71E 4304     orr     r4,r0
0805F720 80F4     strh    r4,[r6,6h]
0805F722 3F01     sub     r7,1h
0805F724 3508     add     r5,8h
0805F726 2F00     cmp     r7,0h
0805F728 D000     beq     805F72Ch
0805F72A E773     b       805F614h
0805F72C 4804     ldr     r0,=30054E4h
0805F72E 6840     ldr     r0,[r0,4h]
0805F730 2800     cmp     r0,0h
0805F732 D002     beq     805F73Ah
0805F734 2001     mov     r0,1h
0805F736 F7FFFCF3 bl      805F120h
0805F73A BCF0     pop     r4-r7
0805F73C BC01     pop     r0
0805F73E 4700     bx      r0
0805F740 54E4     strb    r4,[r4,r3]
0805F742 0300     lsl     r0,r0,0Ch
0805F744 B500     push    lr
0805F746 0600     lsl     r0,r0,18h
0805F748 0E00     lsr     r0,r0,18h
0805F74A 0609     lsl     r1,r1,18h
0805F74C 0E0A     lsr     r2,r1,18h
0805F74E 2806     cmp     r0,6h
0805F750 D84B     bhi     805F7EAh
0805F752 0080     lsl     r0,r0,2h
0805F754 4901     ldr     r1,=805F760h
0805F756 1840     add     r0,r0,r1
0805F758 6800     ldr     r0,[r0]
0805F75A 4687     mov     r15,r0
0805F75C F7600805 ????
0805F75E 0805     lsr     r5,r0,20h
0805F760 F7EA0805 ????
0805F762 0805     lsr     r5,r0,20h
0805F764 F77C0805 ????
0805F766 0805     lsr     r5,r0,20h
0805F768 F7EA0805 ????
0805F76A 0805     lsr     r5,r0,20h
0805F76C F7EA0805 ????
0805F76E 0805     lsr     r5,r0,20h
0805F770 F7EA0805 ????
0805F772 0805     lsr     r5,r0,20h
0805F774 F7EA0805 ????
0805F776 0805     lsr     r5,r0,20h
0805F778 F7A40805 ????
0805F77A 0805     lsr     r5,r0,20h
0805F77C 2A1F     cmp     r2,1Fh
0805F77E D134     bne     805F7EAh
0805F780 2003     mov     r0,3h
0805F782 211E     mov     r1,1Eh
0805F784 F001F89A bl      80608BCh
0805F788 2800     cmp     r0,0h
0805F78A D12E     bne     805F7EAh
0805F78C 200A     mov     r0,0Ah
0805F78E F7A4F983 bl      8003A98h
0805F792 200A     mov     r0,0Ah
0805F794 F7A3F99A bl      8002ACCh
0805F798 4901     ldr     r1,=300007Dh
0805F79A 2005     mov     r0,5h
0805F79C E024     b       805F7E8h
0805F79E 0000     lsl     r0,r0,0h
0805F7A0 007D     lsl     r5,r7,1h
0805F7A2 0300     lsl     r0,r0,0Ch
0805F7A4 2A2B     cmp     r2,2Bh
0805F7A6 D10B     bne     805F7C0h
0805F7A8 2003     mov     r0,3h
0805F7AA 2143     mov     r1,43h
0805F7AC F001F886 bl      80608BCh
0805F7B0 2800     cmp     r0,0h
0805F7B2 D11A     bne     805F7EAh
0805F7B4 4901     ldr     r1,=300007Dh
0805F7B6 200B     mov     r0,0Bh
0805F7B8 E016     b       805F7E8h
0805F7BA 0000     lsl     r0,r0,0h
0805F7BC 007D     lsl     r5,r7,1h
0805F7BE 0300     lsl     r0,r0,0Ch
0805F7C0 2A0B     cmp     r2,0Bh
0805F7C2 D112     bne     805F7EAh
0805F7C4 2003     mov     r0,3h
0805F7C6 2106     mov     r1,6h
0805F7C8 F001F878 bl      80608BCh
0805F7CC 2800     cmp     r0,0h
0805F7CE D10C     bne     805F7EAh
0805F7D0 4807     ldr     r0,=3005518h
0805F7D2 8801     ldrh    r1,[r0]
0805F7D4 2002     mov     r0,2h
0805F7D6 4008     and     r0,r1
0805F7D8 2800     cmp     r0,0h
0805F7DA D003     beq     805F7E4h
0805F7DC 4805     ldr     r0,=121h
0805F7DE 210A     mov     r1,0Ah
0805F7E0 F7A3FA4E bl      8002C80h
0805F7E4 4904     ldr     r1,=300007Dh
0805F7E6 200D     mov     r0,0Dh
0805F7E8 7008     strb    r0,[r1]
0805F7EA BC01     pop     r0
0805F7EC 4700     bx      r0
0805F7EE 0000     lsl     r0,r0,0h
0805F7F0 5518     strb    r0,[r3,r4]
0805F7F2 0300     lsl     r0,r0,0Ch
0805F7F4 0121     lsl     r1,r4,4h
0805F7F6 0000     lsl     r0,r0,0h
0805F7F8 007D     lsl     r5,r7,1h
0805F7FA 0300     lsl     r0,r0,0Ch
0805F7FC B500     push    lr
0805F7FE 4805     ldr     r0,=3000198h
0805F800 7881     ldrb    r1,[r0,2h]
0805F802 1C02     mov     r2,r0
0805F804 2905     cmp     r1,5h
0805F806 D871     bhi     805F8ECh
0805F808 0088     lsl     r0,r1,2h
0805F80A 4903     ldr     r1,=805F81Ch
0805F80C 1840     add     r0,r0,r1
0805F80E 6800     ldr     r0,[r0]
0805F810 4687     mov     r15,r0
0805F812 0000     lsl     r0,r0,0h
0805F814 0198     lsl     r0,r3,6h
0805F816 0300     lsl     r0,r0,0Ch
0805F818 F81C0805 ????
0805F81A 0805     lsr     r5,r0,20h
0805F81C F8EC0805 ????
0805F81E 0805     lsr     r5,r0,20h
0805F820 F8EC0805 ????
0805F822 0805     lsr     r5,r0,20h
0805F824 F8340805 ????
0805F826 0805     lsr     r5,r0,20h
0805F828 F8540805 ????
0805F82A 0805     lsr     r5,r0,20h
0805F82C F8840805 ????
0805F82E 0805     lsr     r5,r0,20h
0805F830 F8BC0805 ????
0805F832 0805     lsr     r5,r0,20h
0805F834 2003     mov     r0,3h
0805F836 5610     ldsb    r0,[r2,r0]
0805F838 2801     cmp     r0,1h
0805F83A D157     bne     805F8ECh
0805F83C 2003     mov     r0,3h
0805F83E 2103     mov     r1,3h
0805F840 F001F83C bl      80608BCh
0805F844 2800     cmp     r0,0h
0805F846 D151     bne     805F8ECh
0805F848 4801     ldr     r0,=300007Dh
0805F84A 2104     mov     r1,4h
0805F84C E026     b       805F89Ch
0805F84E 0000     lsl     r0,r0,0h
0805F850 007D     lsl     r5,r7,1h
0805F852 0300     lsl     r0,r0,0Ch
0805F854 2103     mov     r1,3h
0805F856 5651     ldsb    r1,[r2,r1]
0805F858 2001     mov     r0,1h
0805F85A 4240     neg     r0,r0
0805F85C 4281     cmp     r1,r0
0805F85E D145     bne     805F8ECh
0805F860 2003     mov     r0,3h
0805F862 211E     mov     r1,1Eh
0805F864 F001F82A bl      80608BCh
0805F868 2800     cmp     r0,0h
0805F86A D03F     beq     805F8ECh
0805F86C 2003     mov     r0,3h
0805F86E 2104     mov     r1,4h
0805F870 F001F824 bl      80608BCh
0805F874 2800     cmp     r0,0h
0805F876 D139     bne     805F8ECh
0805F878 4801     ldr     r0,=300007Dh
0805F87A 2107     mov     r1,7h
0805F87C E00E     b       805F89Ch
0805F87E 0000     lsl     r0,r0,0h
0805F880 007D     lsl     r5,r7,1h
0805F882 0300     lsl     r0,r0,0Ch
0805F884 2003     mov     r0,3h
0805F886 5610     ldsb    r0,[r2,r0]
0805F888 2801     cmp     r0,1h
0805F88A D12F     bne     805F8ECh
0805F88C 2003     mov     r0,3h
0805F88E 2105     mov     r1,5h
0805F890 F001F814 bl      80608BCh
0805F894 2800     cmp     r0,0h
0805F896 D129     bne     805F8ECh
0805F898 4807     ldr     r0,=300007Dh
0805F89A 2108     mov     r1,8h
0805F89C 7001     strb    r1,[r0]
0805F89E 2002     mov     r0,2h
0805F8A0 F7FCFBE8 bl      805C074h
0805F8A4 2087     mov     r0,87h
0805F8A6 0040     lsl     r0,r0,1h
0805F8A8 210A     mov     r1,0Ah
0805F8AA F7A3F9E9 bl      8002C80h
0805F8AE 200A     mov     r0,0Ah
0805F8B0 F7A4F8F2 bl      8003A98h
0805F8B4 E01A     b       805F8ECh
0805F8B6 0000     lsl     r0,r0,0h
0805F8B8 007D     lsl     r5,r7,1h
0805F8BA 0300     lsl     r0,r0,0Ch
0805F8BC 2003     mov     r0,3h
0805F8BE 5610     ldsb    r0,[r2,r0]
0805F8C0 2801     cmp     r0,1h
0805F8C2 D113     bne     805F8ECh
0805F8C4 2003     mov     r0,3h
0805F8C6 2107     mov     r1,7h
0805F8C8 F000FFF8 bl      80608BCh
0805F8CC 2800     cmp     r0,0h
0805F8CE D10D     bne     805F8ECh
0805F8D0 4807     ldr     r0,=300007Dh
0805F8D2 210A     mov     r1,0Ah
0805F8D4 7001     strb    r1,[r0]
0805F8D6 2002     mov     r0,2h
0805F8D8 F7FCFBCC bl      805C074h
0805F8DC 2087     mov     r0,87h
0805F8DE 0040     lsl     r0,r0,1h
0805F8E0 210A     mov     r1,0Ah
0805F8E2 F7A3F9CD bl      8002C80h
0805F8E6 200A     mov     r0,0Ah
0805F8E8 F7A4F8D6 bl      8003A98h
0805F8EC BC01     pop     r0
0805F8EE 4700     bx      r0
0805F8F0 007D     lsl     r5,r7,1h
0805F8F2 0300     lsl     r0,r0,0Ch
0805F8F4 B570     push    r4-r6,lr
0805F8F6 464E     mov     r6,r9
0805F8F8 4645     mov     r5,r8
0805F8FA B460     push    r5,r6
0805F8FC B081     add     sp,-4h
0805F8FE 2500     mov     r5,0h
0805F900 4805     ldr     r0,=300019Ch
0805F902 7881     ldrb    r1,[r0,2h]
0805F904 1C02     mov     r2,r0
0805F906 290E     cmp     r1,0Eh
0805F908 D900     bls     805F90Ch
0805F90A E218     b       805FD3Eh
0805F90C 0088     lsl     r0,r1,2h
0805F90E 4903     ldr     r1,=805F920h
0805F910 1840     add     r0,r0,r1
0805F912 6800     ldr     r0,[r0]
0805F914 4687     mov     r15,r0
0805F916 0000     lsl     r0,r0,0h
0805F918 019C     lsl     r4,r3,6h
0805F91A 0300     lsl     r0,r0,0Ch
0805F91C F9200805 ????
0805F91E 0805     lsr     r5,r0,20h
0805F920 F95C0805 ????
0805F922 0805     lsr     r5,r0,20h
0805F924 F9700805 ????
0805F926 0805     lsr     r5,r0,20h
0805F928 F97A0805 ????
0805F92A 0805     lsr     r5,r0,20h
0805F92C F9980805 ????
0805F92E 0805     lsr     r5,r0,20h
0805F930 F9A40805 ????
0805F932 0805     lsr     r5,r0,20h
0805F934 F98C0805 ????
0805F936 0805     lsr     r5,r0,20h
0805F938 FAA80805 ????
0805F93A 0805     lsr     r5,r0,20h
0805F93C F98C0805 ????
0805F93E 0805     lsr     r5,r0,20h
0805F940 FBAC0805 ????
0805F942 0805     lsr     r5,r0,20h
0805F944 F9980805 ????
0805F946 0805     lsr     r5,r0,20h
0805F948 FCC40805 ????
0805F94A 0805     lsr     r5,r0,20h
0805F94C FCD40805 ????
0805F94E 0805     lsr     r5,r0,20h
0805F950 FCEC0805 ????
0805F952 0805     lsr     r5,r0,20h
0805F954 FD140805 ????
0805F956 0805     lsr     r5,r0,20h
0805F958 FD240805 ????
0805F95A 0805     lsr     r5,r0,20h
0805F95C 8810     ldrh    r0,[r2]
0805F95E 2800     cmp     r0,0h
0805F960 D100     bne     805F964h
0805F962 E1EC     b       805FD3Eh
0805F964 2501     mov     r5,1h
0805F966 2001     mov     r0,1h
0805F968 2104     mov     r1,4h
0805F96A F000FF87 bl      806087Ch
0805F96E E1E6     b       805FD3Eh
0805F970 2010     mov     r0,10h
0805F972 2100     mov     r1,0h
0805F974 2207     mov     r2,7h
0805F976 2301     mov     r3,1h
0805F978 E1A8     b       805FCCCh
0805F97A 4803     ldr     r0,=3000088h
0805F97C 8880     ldrh    r0,[r0,4h]
0805F97E 2810     cmp     r0,10h
0805F980 D000     beq     805F984h
0805F982 E1DC     b       805FD3Eh
0805F984 2501     mov     r5,1h
0805F986 E1DA     b       805FD3Eh
0805F988 0088     lsl     r0,r1,2h
0805F98A 0300     lsl     r0,r0,0Ch
0805F98C 8810     ldrh    r0,[r2]
0805F98E 2802     cmp     r0,2h
0805F990 D800     bhi     805F994h
0805F992 E1D4     b       805FD3Eh
0805F994 2501     mov     r5,1h
0805F996 E1D2     b       805FD3Eh
0805F998 8810     ldrh    r0,[r2]
0805F99A 2866     cmp     r0,66h
0805F99C D800     bhi     805F9A0h
0805F99E E1CE     b       805FD3Eh
0805F9A0 2501     mov     r5,1h
0805F9A2 E1CC     b       805FD3Eh
0805F9A4 4D2E     ldr     r5,=8369E20h
0805F9A6 4A2F     ldr     r2,=600B940h
0805F9A8 26A0     mov     r6,0A0h
0805F9AA 0076     lsl     r6,r6,1h
0805F9AC 2410     mov     r4,10h
0805F9AE 9400     str     r4,[sp]
0805F9B0 2003     mov     r0,3h
0805F9B2 1C29     mov     r1,r5
0805F9B4 1C33     mov     r3,r6
0805F9B6 F7A3FC15 bl      80031E4h
0805F9BA 492B     ldr     r1,=202B000h
0805F9BC 4A2B     ldr     r2,=6000294h
0805F9BE 9400     str     r4,[sp]
0805F9C0 2003     mov     r0,3h
0805F9C2 2314     mov     r3,14h
0805F9C4 F7A3FC0E bl      80031E4h
0805F9C8 2080     mov     r0,80h
0805F9CA 00C0     lsl     r0,r0,3h
0805F9CC 1829     add     r1,r5,r0
0805F9CE 4A28     ldr     r2,=600BD40h
0805F9D0 9400     str     r4,[sp]
0805F9D2 2003     mov     r0,3h
0805F9D4 1C33     mov     r3,r6
0805F9D6 F7A3FC05 bl      80031E4h
0805F9DA 4926     ldr     r1,=202B040h
0805F9DC 4A26     ldr     r2,=60002D4h
0805F9DE 9400     str     r4,[sp]
0805F9E0 2003     mov     r0,3h
0805F9E2 2314     mov     r3,14h
0805F9E4 F7A3FBFE bl      80031E4h
0805F9E8 2080     mov     r0,80h
0805F9EA 0100     lsl     r0,r0,4h
0805F9EC 1829     add     r1,r5,r0
0805F9EE 4A23     ldr     r2,=600C140h
0805F9F0 9400     str     r4,[sp]
0805F9F2 2003     mov     r0,3h
0805F9F4 1C33     mov     r3,r6
0805F9F6 F7A3FBF5 bl      80031E4h
0805F9FA 4921     ldr     r1,=202B080h
0805F9FC 4A21     ldr     r2,=6000314h
0805F9FE 9400     str     r4,[sp]
0805FA00 2003     mov     r0,3h
0805FA02 2314     mov     r3,14h
0805FA04 F7A3FBEE bl      80031E4h
0805FA08 20C0     mov     r0,0C0h
0805FA0A 0100     lsl     r0,r0,4h
0805FA0C 1829     add     r1,r5,r0
0805FA0E 4A1E     ldr     r2,=600C540h
0805FA10 9400     str     r4,[sp]
0805FA12 2003     mov     r0,3h
0805FA14 1C33     mov     r3,r6
0805FA16 F7A3FBE5 bl      80031E4h
0805FA1A 491C     ldr     r1,=202B0C0h
0805FA1C 4A1C     ldr     r2,=6000354h
0805FA1E 9400     str     r4,[sp]
0805FA20 2003     mov     r0,3h
0805FA22 2314     mov     r3,14h
0805FA24 F7A3FBDE bl      80031E4h
0805FA28 2080     mov     r0,80h
0805FA2A 0140     lsl     r0,r0,5h
0805FA2C 1829     add     r1,r5,r0
0805FA2E 4A19     ldr     r2,=600C940h
0805FA30 9400     str     r4,[sp]
0805FA32 2003     mov     r0,3h
0805FA34 1C33     mov     r3,r6
0805FA36 F7A3FBD5 bl      80031E4h
0805FA3A 4917     ldr     r1,=202B100h
0805FA3C 4A17     ldr     r2,=6000394h
0805FA3E 9400     str     r4,[sp]
0805FA40 2003     mov     r0,3h
0805FA42 2314     mov     r3,14h
0805FA44 F7A3FBCE bl      80031E4h
0805FA48 20A0     mov     r0,0A0h
0805FA4A 0140     lsl     r0,r0,5h
0805FA4C 182D     add     r5,r5,r0
0805FA4E 4A14     ldr     r2,=600CD40h
0805FA50 9400     str     r4,[sp]
0805FA52 2003     mov     r0,3h
0805FA54 1C29     mov     r1,r5
0805FA56 1C33     mov     r3,r6
0805FA58 F7A3FBC4 bl      80031E4h
0805FA5C 4911     ldr     r1,=202B140h
0805FA5E E102     b       805FC66h
0805FA60 9E20     ldr     r6,[sp,80h]
0805FA62 0836     lsr     r6,r6,20h
0805FA64 B940     ????
0805FA66 0600     lsl     r0,r0,18h
0805FA68 B000     add     sp,0h
0805FA6A 0202     lsl     r2,r0,8h
0805FA6C 0294     lsl     r4,r2,0Ah
0805FA6E 0600     lsl     r0,r0,18h
0805FA70 BD40     pop     r6,pc
0805FA72 0600     lsl     r0,r0,18h
0805FA74 B040     add     sp,100h
0805FA76 0202     lsl     r2,r0,8h
0805FA78 02D4     lsl     r4,r2,0Bh
0805FA7A 0600     lsl     r0,r0,18h
0805FA7C C140     stmia   [r1]!,r6
0805FA7E 0600     lsl     r0,r0,18h
0805FA80 B080     add     sp,-0h
0805FA82 0202     lsl     r2,r0,8h
0805FA84 0314     lsl     r4,r2,0Ch
0805FA86 0600     lsl     r0,r0,18h
0805FA88 C540     stmia   [r5]!,r6
0805FA8A 0600     lsl     r0,r0,18h
0805FA8C B0C0     add     sp,-100h
0805FA8E 0202     lsl     r2,r0,8h
0805FA90 0354     lsl     r4,r2,0Dh
0805FA92 0600     lsl     r0,r0,18h
0805FA94 C940     ldmia   [r1]!,r6
0805FA96 0600     lsl     r0,r0,18h
0805FA98 B100     ????
0805FA9A 0202     lsl     r2,r0,8h
0805FA9C 0394     lsl     r4,r2,0Eh
0805FA9E 0600     lsl     r0,r0,18h
0805FAA0 CD40     ldmia   [r5]!,r6
0805FAA2 0600     lsl     r0,r0,18h
0805FAA4 B140     ????
0805FAA6 0202     lsl     r2,r0,8h
0805FAA8 4D30     ldr     r5,=8369F60h
0805FAAA 4A31     ldr     r2,=600B940h
0805FAAC 26A0     mov     r6,0A0h
0805FAAE 0076     lsl     r6,r6,1h
0805FAB0 2410     mov     r4,10h
0805FAB2 9400     str     r4,[sp]
0805FAB4 2003     mov     r0,3h
0805FAB6 1C29     mov     r1,r5
0805FAB8 1C33     mov     r3,r6
0805FABA F7A3FB93 bl      80031E4h
0805FABE 482D     ldr     r0,=202B014h
0805FAC0 4680     mov     r8,r0
0805FAC2 482D     ldr     r0,=6000294h
0805FAC4 4681     mov     r9,r0
0805FAC6 9400     str     r4,[sp]
0805FAC8 2003     mov     r0,3h
0805FACA 4641     mov     r1,r8
0805FACC 464A     mov     r2,r9
0805FACE 2314     mov     r3,14h
0805FAD0 F7A3FB88 bl      80031E4h
0805FAD4 2080     mov     r0,80h
0805FAD6 00C0     lsl     r0,r0,3h
0805FAD8 1829     add     r1,r5,r0
0805FADA 4A28     ldr     r2,=600BD40h
0805FADC 9400     str     r4,[sp]
0805FADE 2003     mov     r0,3h
0805FAE0 1C33     mov     r3,r6
0805FAE2 F7A3FB7F bl      80031E4h
0805FAE6 9400     str     r4,[sp]
0805FAE8 2003     mov     r0,3h
0805FAEA 4641     mov     r1,r8
0805FAEC 464A     mov     r2,r9
0805FAEE 2314     mov     r3,14h
0805FAF0 F7A3FB78 bl      80031E4h
0805FAF4 2080     mov     r0,80h
0805FAF6 0100     lsl     r0,r0,4h
0805FAF8 1829     add     r1,r5,r0
0805FAFA 4A21     ldr     r2,=600C140h
0805FAFC 9400     str     r4,[sp]
0805FAFE 2003     mov     r0,3h
0805FB00 1C33     mov     r3,r6
0805FB02 F7A3FB6F bl      80031E4h
0805FB06 491F     ldr     r1,=202B094h
0805FB08 4A1F     ldr     r2,=6000314h
0805FB0A 9400     str     r4,[sp]
0805FB0C 2003     mov     r0,3h
0805FB0E 2314     mov     r3,14h
0805FB10 F7A3FB68 bl      80031E4h
0805FB14 20C0     mov     r0,0C0h
0805FB16 0100     lsl     r0,r0,4h
0805FB18 1829     add     r1,r5,r0
0805FB1A 4A1C     ldr     r2,=600C540h
0805FB1C 9400     str     r4,[sp]
0805FB1E 2003     mov     r0,3h
0805FB20 1C33     mov     r3,r6
0805FB22 F7A3FB5F bl      80031E4h
0805FB26 491A     ldr     r1,=202B0D4h
0805FB28 4A1A     ldr     r2,=6000354h
0805FB2A 9400     str     r4,[sp]
0805FB2C 2003     mov     r0,3h
0805FB2E 2314     mov     r3,14h
0805FB30 F7A3FB58 bl      80031E4h
0805FB34 2080     mov     r0,80h
0805FB36 0140     lsl     r0,r0,5h
0805FB38 1829     add     r1,r5,r0
0805FB3A 4A17     ldr     r2,=600C940h
0805FB3C 9400     str     r4,[sp]
0805FB3E 2003     mov     r0,3h
0805FB40 1C33     mov     r3,r6
0805FB42 F7A3FB4F bl      80031E4h
0805FB46 4915     ldr     r1,=202B114h
0805FB48 4A15     ldr     r2,=6000394h
0805FB4A 9400     str     r4,[sp]
0805FB4C 2003     mov     r0,3h
0805FB4E 2314     mov     r3,14h
0805FB50 F7A3FB48 bl      80031E4h
0805FB54 20A0     mov     r0,0A0h
0805FB56 0140     lsl     r0,r0,5h
0805FB58 182D     add     r5,r5,r0
0805FB5A 4A12     ldr     r2,=600CD40h
0805FB5C 9400     str     r4,[sp]
0805FB5E 2003     mov     r0,3h
0805FB60 1C29     mov     r1,r5
0805FB62 1C33     mov     r3,r6
0805FB64 F7A3FB3E bl      80031E4h
0805FB68 490F     ldr     r1,=202B154h
0805FB6A E07C     b       805FC66h
0805FB6C 9F60     ldr     r7,[sp,180h]
0805FB6E 0836     lsr     r6,r6,20h
0805FB70 B940     ????
0805FB72 0600     lsl     r0,r0,18h
0805FB74 B014     add     sp,50h
0805FB76 0202     lsl     r2,r0,8h
0805FB78 0294     lsl     r4,r2,0Ah
0805FB7A 0600     lsl     r0,r0,18h
0805FB7C BD40     pop     r6,pc
0805FB7E 0600     lsl     r0,r0,18h
0805FB80 C140     stmia   [r1]!,r6
0805FB82 0600     lsl     r0,r0,18h
0805FB84 B094     add     sp,-50h
0805FB86 0202     lsl     r2,r0,8h
0805FB88 0314     lsl     r4,r2,0Ch
0805FB8A 0600     lsl     r0,r0,18h
0805FB8C C540     stmia   [r5]!,r6
0805FB8E 0600     lsl     r0,r0,18h
0805FB90 B0D4     add     sp,-150h
0805FB92 0202     lsl     r2,r0,8h
0805FB94 0354     lsl     r4,r2,0Dh
0805FB96 0600     lsl     r0,r0,18h
0805FB98 C940     ldmia   [r1]!,r6
0805FB9A 0600     lsl     r0,r0,18h
0805FB9C B114     ????
0805FB9E 0202     lsl     r2,r0,8h
0805FBA0 0394     lsl     r4,r2,0Eh
0805FBA2 0600     lsl     r0,r0,18h
0805FBA4 CD40     ldmia   [r5]!,r6
0805FBA6 0600     lsl     r0,r0,18h
0805FBA8 B154     ????
0805FBAA 0202     lsl     r2,r0,8h
0805FBAC 4D32     ldr     r5,=836A0A0h
0805FBAE 4A33     ldr     r2,=600B940h
0805FBB0 26A0     mov     r6,0A0h
0805FBB2 0076     lsl     r6,r6,1h
0805FBB4 2410     mov     r4,10h
0805FBB6 9400     str     r4,[sp]
0805FBB8 2003     mov     r0,3h
0805FBBA 1C29     mov     r1,r5
0805FBBC 1C33     mov     r3,r6
0805FBBE F7A3FB11 bl      80031E4h
0805FBC2 492F     ldr     r1,=202B028h
0805FBC4 4A2F     ldr     r2,=6000294h
0805FBC6 9400     str     r4,[sp]
0805FBC8 2003     mov     r0,3h
0805FBCA 2314     mov     r3,14h
0805FBCC F7A3FB0A bl      80031E4h
0805FBD0 2080     mov     r0,80h
0805FBD2 00C0     lsl     r0,r0,3h
0805FBD4 1829     add     r1,r5,r0
0805FBD6 4A2C     ldr     r2,=600BD40h
0805FBD8 9400     str     r4,[sp]
0805FBDA 2003     mov     r0,3h
0805FBDC 1C33     mov     r3,r6
0805FBDE F7A3FB01 bl      80031E4h
0805FBE2 492A     ldr     r1,=202B068h
0805FBE4 4A2A     ldr     r2,=60002D4h
0805FBE6 9400     str     r4,[sp]
0805FBE8 2003     mov     r0,3h
0805FBEA 2314     mov     r3,14h
0805FBEC F7A3FAFA bl      80031E4h
