080566D4 B5F0     push    r4-r7,lr
080566D6 4657     mov     r7,r10
080566D8 464E     mov     r6,r9
080566DA 4645     mov     r5,r8
080566DC B4E0     push    r5-r7
080566DE 4891     ldr     r0,=3005520h
080566E0 2200     mov     r2,0h
080566E2 70C2     strb    r2,[r0,3h]
080566E4 7082     strb    r2,[r0,2h]
080566E6 7102     strb    r2,[r0,4h]
080566E8 7042     strb    r2,[r0,1h]
080566EA 2300     mov     r3,0h
080566EC 80C2     strh    r2,[r0,6h]
080566EE 4C8E     ldr     r4,=3000130h
080566F0 7820     ldrb    r0,[r4]
080566F2 2800     cmp     r0,0h
080566F4 D003     beq     80566FEh
080566F6 488D     ldr     r0,=3000114h
080566F8 498D     ldr     r1,=83458A4h
080566FA 6809     ldr     r1,[r1]
080566FC 6001     str     r1,[r0]
080566FE 1C21     mov     r1,r4
08056700 488C     ldr     r0,=8345890h
08056702 C870     ldmia   [r0]!,r4-r6
08056704 C170     stmia   [r1]!,r4-r6
08056706 C830     ldmia   [r0]!,r4,r5
08056708 C130     stmia   [r1]!,r4,r5
0805670A 488B     ldr     r0,=3000008h
0805670C 8002     strh    r2,[r0]
0805670E 488B     ldr     r0,=3005700h
08056710 7003     strb    r3,[r0]
08056712 498B     ldr     r1,=3000030h
08056714 70CB     strb    r3,[r1,3h]
08056716 488B     ldr     r0,=3000C75h
08056718 2200     mov     r2,0h
0805671A 5682     ldsb    r2,[r0,r2]
0805671C 2A00     cmp     r2,0h
0805671E D129     bne     8056774h
08056720 800A     strh    r2,[r1]
08056722 710B     strb    r3,[r1,4h]
08056724 708B     strb    r3,[r1,2h]
08056726 4888     ldr     r0,=3000079h
08056728 7003     strb    r3,[r0]
0805672A 4988     ldr     r1,=3000BF1h
0805672C 20FF     mov     r0,0FFh
0805672E 7008     strb    r0,[r1]
08056730 4887     ldr     r0,=3000048h
08056732 7003     strb    r3,[r0]
08056734 4887     ldr     r0,=300007Dh
08056736 7003     strb    r3,[r0]
08056738 4987     ldr     r1,=3000198h
0805673A 4888     ldr     r0,=83458C8h
0805673C 6800     ldr     r0,[r0]
0805673E 6008     str     r0,[r1]
08056740 4887     ldr     r0,=3005518h
08056742 8002     strh    r2,[r0]
08056744 4887     ldr     r0,=3000C1Dh
08056746 7800     ldrb    r0,[r0]
08056748 0600     lsl     r0,r0,18h
0805674A 1600     asr     r0,r0,18h
0805674C 2800     cmp     r0,0h
0805674E D108     bne     8056762h
08056750 4885     ldr     r0,=3000038h
08056752 7881     ldrb    r1,[r0,2h]
08056754 20F0     mov     r0,0F0h
08056756 4008     and     r0,r1
08056758 2800     cmp     r0,0h
0805675A D002     beq     8056762h
0805675C 2000     mov     r0,0h
0805675E F00AFAAD bl      8060CBCh
08056762 4982     ldr     r1,=30054E0h
08056764 2200     mov     r2,0h
08056766 2000     mov     r0,0h
08056768 8008     strh    r0,[r1]
0805676A 8048     strh    r0,[r1,2h]
0805676C 4880     ldr     r0,=3000BF2h
0805676E 7002     strb    r2,[r0]
08056770 F01EF938 bl      80749E4h
08056774 F005FCF0 bl      805C158h
08056778 487E     ldr     r0,=3000BF0h
0805677A 2300     mov     r3,0h
0805677C 56C3     ldsb    r3,[r0,r3]
0805677E 2B00     cmp     r3,0h
08056780 D000     beq     8056784h
08056782 E18D     b       8056AA0h
08056784 487C     ldr     r0,=300003Dh
08056786 7003     strb    r3,[r0]
08056788 487C     ldr     r0,=300003Eh
0805678A 2100     mov     r1,0h
0805678C 8003     strh    r3,[r0]
0805678E 487C     ldr     r0,=3000044h
08056790 7001     strb    r1,[r0]
08056792 487C     ldr     r0,=3000074h
08056794 8003     strh    r3,[r0]
08056796 487C     ldr     r0,=3000049h
08056798 7001     strb    r1,[r0]
0805679A 487C     ldr     r0,=300004Ch
0805679C 7001     strb    r1,[r0]
0805679E 487C     ldr     r0,=3000010h
080567A0 8003     strh    r3,[r0]
080567A2 487C     ldr     r0,=3005515h
080567A4 7001     strb    r1,[r0]
080567A6 487C     ldr     r0,=3005516h
080567A8 8003     strh    r3,[r0]
080567AA 487C     ldr     r0,=3000076h
080567AC 8003     strh    r3,[r0]
080567AE 487C     ldr     r0,=300019Ch
080567B0 70C1     strb    r1,[r0,3h]
080567B2 7101     strb    r1,[r0,4h]
080567B4 487B     ldr     r0,=300006Ch
080567B6 8003     strh    r3,[r0]
080567B8 487B     ldr     r0,=30054E4h
080567BA 7001     strb    r1,[r0]
080567BC 8043     strh    r3,[r0,2h]
080567BE 7041     strb    r1,[r0,1h]
080567C0 8083     strh    r3,[r0,4h]
080567C2 80C3     strh    r3,[r0,6h]
080567C4 4879     ldr     r0,=300007Bh
080567C6 7001     strb    r1,[r0]
080567C8 4979     ldr     r1,=875FAA8h
080567CA 487A     ldr     r0,=3000054h
080567CC 7800     ldrb    r0,[r0]
080567CE 0080     lsl     r0,r0,2h
080567D0 1840     add     r0,r0,r1
080567D2 6805     ldr     r5,[r0]
080567D4 4878     ldr     r0,=3000056h
080567D6 7801     ldrb    r1,[r0]
080567D8 0048     lsl     r0,r1,1h
080567DA 1840     add     r0,r0,r1
080567DC 0080     lsl     r0,r0,2h
080567DE 182D     add     r5,r5,r0
080567E0 4976     ldr     r1,=3000055h
080567E2 7868     ldrb    r0,[r5,1h]
080567E4 7008     strb    r0,[r1]
080567E6 4976     ldr     r1,=3000057h
080567E8 7828     ldrb    r0,[r5]
080567EA 7008     strb    r0,[r1]
080567EC 4A75     ldr     r2,=3000058h
080567EE 7828     ldrb    r0,[r5]
080567F0 0980     lsr     r0,r0,6h
080567F2 2101     mov     r1,1h
080567F4 4008     and     r0,r1
080567F6 7010     strb    r0,[r2]
080567F8 495C     ldr     r1,=30054E0h
080567FA 78A8     ldrb    r0,[r5,2h]
080567FC 8008     strh    r0,[r1]
080567FE 7928     ldrb    r0,[r5,4h]
08056800 8048     strh    r0,[r1,2h]
08056802 4971     ldr     r1,=30000F8h
08056804 4871     ldr     r0,=8345870h
08056806 6800     ldr     r0,[r0]
08056808 6008     str     r0,[r1]
0805680A 4A71     ldr     r2,=3000100h
0805680C 4871     ldr     r0,=8345874h
0805680E 6841     ldr     r1,[r0,4h]
08056810 6800     ldr     r0,[r0]
08056812 6010     str     r0,[r2]
08056814 6051     str     r1,[r2,4h]
08056816 4A70     ldr     r2,=30056F8h
08056818 4870     ldr     r0,=834587Ch
0805681A 6841     ldr     r1,[r0,4h]
0805681C 6800     ldr     r0,[r0]
0805681E 6010     str     r0,[r2]
08056820 6051     str     r1,[r2,4h]
08056822 496F     ldr     r1,=300551Ch
08056824 486F     ldr     r0,=83458C0h
08056826 6800     ldr     r0,[r0]
08056828 6008     str     r0,[r1]
0805682A 486F     ldr     r0,=300006Eh
0805682C 8003     strh    r3,[r0]
0805682E 4A6F     ldr     r2,=3005504h
08056830 486F     ldr     r0,=83458B8h
08056832 6841     ldr     r1,[r0,4h]
08056834 6800     ldr     r0,[r0]
08056836 6010     str     r0,[r2]
08056838 6051     str     r1,[r2,4h]
0805683A 4A6E     ldr     r2,=30054F4h
0805683C 486E     ldr     r0,=83458A8h
0805683E 6841     ldr     r1,[r0,4h]
08056840 6800     ldr     r0,[r0]
08056842 6010     str     r0,[r2]
08056844 6051     str     r1,[r2,4h]
08056846 486D     ldr     r0,=30000FCh
08056848 8003     strh    r3,[r0]
0805684A 8043     strh    r3,[r0,2h]
0805684C 4E38     ldr     r6,=83458A4h
0805684E 46B2     mov     r10,r6
08056850 4E6B     ldr     r6,=30056BCh
08056852 4F6C     ldr     r7,=3000045h
08056854 486C     ldr     r0,=3000110h
08056856 4684     mov     r12,r0
08056858 496C     ldr     r1,=3000071h
0805685A 4688     mov     r8,r1
0805685C 4C6C     ldr     r4,=3000072h
0805685E 46A1     mov     r9,r4
08056860 4C6C     ldr     r4,=3005528h
08056862 486D     ldr     r0,=8345884h
08056864 6802     ldr     r2,[r0]
08056866 6843     ldr     r3,[r0,4h]
08056868 20BC     mov     r0,0BCh
0805686A 0040     lsl     r0,r0,1h
0805686C 1821     add     r1,r4,r0
0805686E 600A     str     r2,[r1]
08056870 604B     str     r3,[r1,4h]
08056872 3908     sub     r1,8h
08056874 42A1     cmp     r1,r4
08056876 DAFA     bge     805686Eh
08056878 4A68     ldr     r2,=30056ACh
0805687A 4869     ldr     r0,=834588Ch
0805687C 6800     ldr     r0,[r0]
0805687E 1C11     mov     r1,r2
08056880 310C     add     r1,0Ch
08056882 6008     str     r0,[r1]
08056884 3904     sub     r1,4h
08056886 4291     cmp     r1,r2
08056888 DAFB     bge     8056882h
0805688A 2000     mov     r0,0h
0805688C 7030     strb    r0,[r6]
0805688E 7038     strb    r0,[r7]
08056890 4B64     ldr     r3,=2027780h
08056892 2240     mov     r2,40h
08056894 2100     mov     r1,0h
08056896 0050     lsl     r0,r2,1h
08056898 18C0     add     r0,r0,r3
0805689A 3802     sub     r0,2h
0805689C 8001     strh    r1,[r0]
0805689E 1E50     sub     r0,r2,1
080568A0 0400     lsl     r0,r0,10h
080568A2 0C02     lsr     r2,r0,10h
080568A4 2A00     cmp     r2,0h
080568A6 D1F6     bne     8056896h
080568A8 4651     mov     r1,r10
080568AA 6808     ldr     r0,[r1]
080568AC 4664     mov     r4,r12
080568AE 6020     str     r0,[r4]
080568B0 4E1E     ldr     r6,=3000114h
080568B2 6030     str     r0,[r6]
080568B4 4640     mov     r0,r8
080568B6 7002     strb    r2,[r0]
080568B8 4649     mov     r1,r9
080568BA 700A     strb    r2,[r1]
080568BC 4C29     ldr     r4,=3000C1Dh
080568BE 2000     mov     r0,0h
080568C0 5620     ldsb    r0,[r4,r0]
080568C2 2800     cmp     r0,0h
080568C4 D000     beq     80568C8h
080568C6 E0EB     b       8056AA0h
080568C8 4857     ldr     r0,=3000144h
080568CA 2100     mov     r1,0h
080568CC 8002     strh    r2,[r0]
080568CE 8042     strh    r2,[r0,2h]
080568D0 7101     strb    r1,[r0,4h]
080568D2 7141     strb    r1,[r0,5h]
080568D4 78AA     ldrb    r2,[r5,2h]		;门X格数起始
080568D6 7968     ldrb    r0,[r5,5h]		;门Y格数结尾
080568D8 1C43     add     r3,r0,1			;加1给r3
080568DA 4C54     ldr     r4,=30013D4h
080568DC 0191     lsl     r1,r2,6h			;确切的x坐标
080568DE 2007     mov     r0,7h
080568E0 5628     ldsb    r0,[r5,r0]		;出门x偏移
080568E2 3008     add     r0,8h				;加上8,相当于半格
080568E4 0080     lsl     r0,r0,2h			;然后乘以4,相当于正常的坐标
080568E6 1809     add     r1,r1,r0			;加上坐标
080568E8 8261     strh    r1,[r4,12h]		;写入samus的坐标
080568EA 0199     lsl     r1,r3,6h			;Y确切的最低坐标
080568EC 2008     mov     r0,8h
080568EE 5628     ldsb    r0,[r5,r0]		;出门Y偏移
080568F0 0080     lsl     r0,r0,2h			;正常的距离
080568F2 1809     add     r1,r1,r0			;加上Y最低部
080568F4 3901     sub     r1,1h				;纠正
080568F6 82A1     strh    r1,[r4,14h]		;写入
080568F8 481B     ldr     r0,=3000038h
080568FA 7881     ldrb    r1,[r0,2h]
080568FC 20F0     mov     r0,0F0h
080568FE 4008     and     r0,r1
08056900 2800     cmp     r0,0h
08056902 D002     beq     805690Ah
08056904 2001     mov     r0,1h
08056906 F00AF9D9 bl      8060CBCh
0805690A 4A2F     ldr     r2,=30000F8h
0805690C 8A61     ldrh    r1,[r4,12h]
0805690E 8011     strh    r1,[r2]
08056910 8AA0     ldrh    r0,[r4,14h]
08056912 8050     strh    r0,[r2,2h]
08056914 2007     mov     r0,7h
08056916 5628     ldsb    r0,[r5,r0]
08056918 2800     cmp     r0,0h
0805691A DC00     bgt     805691Eh
0805691C E088     b       8056A30h
0805691E 1C08     mov     r0,r1
08056920 3820     sub     r0,20h
08056922 E089     b       8056A38h
08056924 5520     strb    r0,[r4,r4]
08056926 0300     lsl     r0,r0,0Ch
08056928 0130     lsl     r0,r6,4h
0805692A 0300     lsl     r0,r0,0Ch
0805692C 0114     lsl     r4,r2,4h
0805692E 0300     lsl     r0,r0,0Ch
08056930 58A4     ldr     r4,[r4,r2]
08056932 0834     lsr     r4,r6,20h
08056934 5890     ldr     r0,[r2,r2]
08056936 0834     lsr     r4,r6,20h
08056938 0008     lsl     r0,r1,0h
0805693A 0300     lsl     r0,r0,0Ch
0805693C 5700     ldsb    r0,[r0,r4]
0805693E 0300     lsl     r0,r0,0Ch
08056940 0030     lsl     r0,r6,0h
08056942 0300     lsl     r0,r0,0Ch
08056944 0C75     lsr     r5,r6,11h
08056946 0300     lsl     r0,r0,0Ch
08056948 0079     lsl     r1,r7,1h
0805694A 0300     lsl     r0,r0,0Ch
0805694C 0BF1     lsr     r1,r6,0Fh
0805694E 0300     lsl     r0,r0,0Ch
08056950 0048     lsl     r0,r1,1h
08056952 0300     lsl     r0,r0,0Ch
08056954 007D     lsl     r5,r7,1h
08056956 0300     lsl     r0,r0,0Ch
08056958 0198     lsl     r0,r3,6h
0805695A 0300     lsl     r0,r0,0Ch
0805695C 58C8     ldr     r0,[r1,r3]
0805695E 0834     lsr     r4,r6,20h
08056960 5518     strb    r0,[r3,r4]
08056962 0300     lsl     r0,r0,0Ch
08056964 0C1D     lsr     r5,r3,10h
08056966 0300     lsl     r0,r0,0Ch
08056968 0038     lsl     r0,r7,0h
0805696A 0300     lsl     r0,r0,0Ch
0805696C 54E0     strb    r0,[r4,r3]
0805696E 0300     lsl     r0,r0,0Ch
08056970 0BF2     lsr     r2,r6,0Fh
08056972 0300     lsl     r0,r0,0Ch
08056974 0BF0     lsr     r0,r6,0Fh
08056976 0300     lsl     r0,r0,0Ch
08056978 003D     lsl     r5,r7,0h
0805697A 0300     lsl     r0,r0,0Ch
0805697C 003E     lsl     r6,r7,0h
0805697E 0300     lsl     r0,r0,0Ch
08056980 0044     lsl     r4,r0,1h
08056982 0300     lsl     r0,r0,0Ch
08056984 0074     lsl     r4,r6,1h
08056986 0300     lsl     r0,r0,0Ch
08056988 0049     lsl     r1,r1,1h
0805698A 0300     lsl     r0,r0,0Ch
0805698C 004C     lsl     r4,r1,1h
0805698E 0300     lsl     r0,r0,0Ch
08056990 0010     lsl     r0,r2,0h
08056992 0300     lsl     r0,r0,0Ch
08056994 5515     strb    r5,[r2,r4]
08056996 0300     lsl     r0,r0,0Ch
08056998 5516     strb    r6,[r2,r4]
0805699A 0300     lsl     r0,r0,0Ch
0805699C 0076     lsl     r6,r6,1h
0805699E 0300     lsl     r0,r0,0Ch
080569A0 019C     lsl     r4,r3,6h
080569A2 0300     lsl     r0,r0,0Ch
080569A4 006C     lsl     r4,r5,1h
080569A6 0300     lsl     r0,r0,0Ch
080569A8 54E4     strb    r4,[r4,r3]
080569AA 0300     lsl     r0,r0,0Ch
080569AC 007B     lsl     r3,r7,1h
080569AE 0300     lsl     r0,r0,0Ch
080569B0 FAA80875 ????
080569B2 0875     lsr     r5,r6,1h
080569B4 0054     lsl     r4,r2,1h
080569B6 0300     lsl     r0,r0,0Ch
080569B8 0056     lsl     r6,r2,1h
080569BA 0300     lsl     r0,r0,0Ch
080569BC 0055     lsl     r5,r2,1h
080569BE 0300     lsl     r0,r0,0Ch
080569C0 0057     lsl     r7,r2,1h
080569C2 0300     lsl     r0,r0,0Ch
080569C4 0058     lsl     r0,r3,1h
080569C6 0300     lsl     r0,r0,0Ch
080569C8 00F8     lsl     r0,r7,3h
080569CA 0300     lsl     r0,r0,0Ch
080569CC 5870     ldr     r0,[r6,r1]
080569CE 0834     lsr     r4,r6,20h
080569D0 0100     lsl     r0,r0,4h
080569D2 0300     lsl     r0,r0,0Ch
080569D4 5874     ldr     r4,[r6,r1]
080569D6 0834     lsr     r4,r6,20h
080569D8 56F8     ldsb    r0,[r7,r3]
080569DA 0300     lsl     r0,r0,0Ch
080569DC 587C     ldr     r4,[r7,r1]
080569DE 0834     lsr     r4,r6,20h
080569E0 551C     strb    r4,[r3,r4]
080569E2 0300     lsl     r0,r0,0Ch
080569E4 58C0     ldr     r0,[r0,r3]
080569E6 0834     lsr     r4,r6,20h
080569E8 006E     lsl     r6,r5,1h
080569EA 0300     lsl     r0,r0,0Ch
080569EC 5504     strb    r4,[r0,r4]
080569EE 0300     lsl     r0,r0,0Ch
080569F0 58B8     ldr     r0,[r7,r2]
080569F2 0834     lsr     r4,r6,20h
080569F4 54F4     strb    r4,[r6,r3]
080569F6 0300     lsl     r0,r0,0Ch
080569F8 58A8     ldr     r0,[r5,r2]
080569FA 0834     lsr     r4,r6,20h
080569FC 00FC     lsl     r4,r7,3h
080569FE 0300     lsl     r0,r0,0Ch
08056A00 56BC     ldsb    r4,[r7,r2]
08056A02 0300     lsl     r0,r0,0Ch
08056A04 0045     lsl     r5,r0,1h
08056A06 0300     lsl     r0,r0,0Ch
08056A08 0110     lsl     r0,r2,4h
08056A0A 0300     lsl     r0,r0,0Ch
08056A0C 0071     lsl     r1,r6,1h
08056A0E 0300     lsl     r0,r0,0Ch
08056A10 0072     lsl     r2,r6,1h
08056A12 0300     lsl     r0,r0,0Ch
08056A14 5528     strb    r0,[r5,r4]
08056A16 0300     lsl     r0,r0,0Ch
08056A18 5884     ldr     r4,[r0,r2]
08056A1A 0834     lsr     r4,r6,20h
08056A1C 56AC     ldsb    r4,[r5,r2]
08056A1E 0300     lsl     r0,r0,0Ch
08056A20 588C     ldr     r4,[r1,r2]
08056A22 0834     lsr     r4,r6,20h
08056A24 7780     strb    r0,[r0,1Eh]
08056A26 0202     lsl     r2,r0,8h
08056A28 0144     lsl     r4,r0,5h
08056A2A 0300     lsl     r0,r0,0Ch
08056A2C 13D4     asr     r4,r2,0Fh
08056A2E 0300     lsl     r0,r0,0Ch
08056A30 2800     cmp     r0,0h
08056A32 DA02     bge     8056A3Ah
08056A34 1C08     mov     r0,r1
08056A36 3020     add     r0,20h
08056A38 8010     strh    r0,[r2]
08056A3A 4805     ldr     r0,=300550Ch
08056A3C 2500     mov     r5,0h
08056A3E 5F43     ldsh    r3,[r0,r5]
08056A40 4A04     ldr     r2,=30013D4h
08056A42 1C04     mov     r4,r0
08056A44 2B00     cmp     r3,0h
08056A46 D01D     beq     8056A84h
08056A48 2B00     cmp     r3,0h
08056A4A DA05     bge     8056A58h
08056A4C 2000     mov     r0,0h
08056A4E E011     b       8056A74h
08056A50 550C     strb    r4,[r1,r4]
08056A52 0300     lsl     r0,r0,0Ch
08056A54 13D4     asr     r4,r2,0Fh
08056A56 0300     lsl     r0,r0,0Ch
08056A58 4815     ldr     r0,=3001588h
08056A5A 3070     add     r0,70h
08056A5C 2600     mov     r6,0h
08056A5E 5F80     ldsh    r0,[r0,r6]
08056A60 4240     neg     r0,r0
08056A62 0400     lsl     r0,r0,10h
08056A64 0C03     lsr     r3,r0,10h
08056A66 2100     mov     r1,0h
08056A68 5E60     ldsh    r0,[r4,r1]
08056A6A 1818     add     r0,r3,r0
08056A6C 28FF     cmp     r0,0FFh
08056A6E DD02     ble     8056A76h
08056A70 20FF     mov     r0,0FFh
08056A72 1AC0     sub     r0,r0,r3
08056A74 8020     strh    r0,[r4]
08056A76 4A0F     ldr     r2,=30013D4h
08056A78 8A90     ldrh    r0,[r2,14h]
08056A7A 8821     ldrh    r1,[r4]
08056A7C 1A40     sub     r0,r0,r1
08056A7E 2100     mov     r1,0h
08056A80 8290     strh    r0,[r2,14h]		;Y坐标纠正
08056A82 8021     strh    r1,[r4]
08056A84 7850     ldrb    r0,[r2,1h]
08056A86 2801     cmp     r0,1h
08056A88 D101     bne     8056A8Eh
08056A8A 2002     mov     r0,2h
08056A8C 7050     strb    r0,[r2,1h]
08056A8E 480A     ldr     r0,=30013BAh
08056A90 2100     mov     r1,0h
08056A92 8001     strh    r1,[r0]
08056A94 4809     ldr     r0,=30013B8h
08056A96 8001     strh    r1,[r0]
08056A98 4809     ldr     r0,=30013B4h
08056A9A 8001     strh    r1,[r0]
08056A9C 4809     ldr     r0,=30013B6h
08056A9E 8001     strh    r1,[r0]
08056AA0 BC38     pop     r3-r5
08056AA2 4698     mov     r8,r3
08056AA4 46A1     mov     r9,r4
08056AA6 46AA     mov     r10,r5
08056AA8 BCF0     pop     r4-r7
08056AAA BC01     pop     r0
08056AAC 4700     bx      r0
08056AAE 0000     lsl     r0,r0,0h
08056AB0 1588     asr     r0,r1,16h
08056AB2 0300     lsl     r0,r0,0Ch
08056AB4 13D4     asr     r4,r2,0Fh
08056AB6 0300     lsl     r0,r0,0Ch
08056AB8 13BA     asr     r2,r7,0Eh
08056ABA 0300     lsl     r0,r0,0Ch
08056ABC 13B8     asr     r0,r7,0Eh
08056ABE 0300     lsl     r0,r0,0Ch
08056AC0 13B4     asr     r4,r6,0Eh
08056AC2 0300     lsl     r0,r0,0Ch
08056AC4 13B6     asr     r6,r6,0Eh
08056AC6 0300     lsl     r0,r0,0Ch
08056AC8 B500     push    lr
08056ACA 4A0B     ldr     r2,=30054ECh
08056ACC 480B     ldr     r0,=83458B0h
08056ACE 6841     ldr     r1,[r0,4h]
08056AD0 6800     ldr     r0,[r0]
08056AD2 6010     str     r0,[r2]
08056AD4 6051     str     r1,[r2,4h]
08056AD6 480A     ldr     r0,=30000BCh
08056AD8 7981     ldrb    r1,[r0,6h]
08056ADA 1C03     mov     r3,r0
08056ADC 2907     cmp     r1,7h
08056ADE DB05     blt     8056AECh
08056AE0 2908     cmp     r1,8h
08056AE2 DD01     ble     8056AE8h
08056AE4 290A     cmp     r1,0Ah
08056AE6 D101     bne     8056AECh
08056AE8 2001     mov     r0,1h
08056AEA 7010     strb    r0,[r2]
08056AEC 7C19     ldrb    r1,[r3,10h]
08056AEE 2901     cmp     r1,1h
08056AF0 D10A     bne     8056B08h
08056AF2 4804     ldr     r0,=30054F4h
08056AF4 7001     strb    r1,[r0]
08056AF6 E00E     b       8056B16h
08056AF8 54EC     strb    r4,[r5,r3]
08056AFA 0300     lsl     r0,r0,0Ch
08056AFC 58B0     ldr     r0,[r6,r2]
08056AFE 0834     lsr     r4,r6,20h
08056B00 00BC     lsl     r4,r7,2h
08056B02 0300     lsl     r0,r0,0Ch
08056B04 54F4     strb    r4,[r6,r3]
08056B06 0300     lsl     r0,r0,0Ch
08056B08 2906     cmp     r1,6h
08056B0A D001     beq     8056B10h
08056B0C 2907     cmp     r1,7h
08056B0E D102     bne     8056B16h
08056B10 4903     ldr     r1,=30054F4h
08056B12 2004     mov     r0,4h
08056B14 7008     strb    r0,[r1]
08056B16 4903     ldr     r1,=300019Ch
08056B18 2000     mov     r0,0h
08056B1A 7108     strb    r0,[r1,4h]
08056B1C BC01     pop     r0
08056B1E 4700     bx      r0
08056B20 54F4     strb    r4,[r6,r3]
08056B22 0300     lsl     r0,r0,0Ch
08056B24 019C     lsl     r4,r3,6h
08056B26 0300     lsl     r0,r0,0Ch
08056B28 B5F0     push    r4-r7,lr
08056B2A 4657     mov     r7,r10
08056B2C 464E     mov     r6,r9
08056B2E 4645     mov     r5,r8
08056B30 B4E0     push    r5-r7
08056B32 B087     add     sp,-1Ch
08056B34 0600     lsl     r0,r0,18h
08056B36 0E00     lsr     r0,r0,18h
08056B38 4681     mov     r9,r0
08056B3A 2800     cmp     r0,0h
08056B3C D10C     bne     8056B58h
08056B3E 4903     ldr     r1,=30000BCh
08056B40 784A     ldrb    r2,[r1,1h]
08056B42 4803     ldr     r0,=30013B6h
08056B44 8800     ldrh    r0,[r0]
08056B46 0986     lsr     r6,r0,6h
08056B48 4802     ldr     r0,=30013B4h
08056B4A E01B     b       8056B84h
08056B4C 00BC     lsl     r4,r7,2h
08056B4E 0300     lsl     r0,r0,0Ch
08056B50 13B6     asr     r6,r6,0Eh
08056B52 0300     lsl     r0,r0,0Ch
08056B54 13B4     asr     r4,r6,0Eh
08056B56 0300     lsl     r0,r0,0Ch
08056B58 4648     mov     r0,r9
08056B5A 2801     cmp     r0,1h
08056B5C D10C     bne     8056B78h
08056B5E 4903     ldr     r1,=30000BCh
08056B60 788A     ldrb    r2,[r1,2h]
08056B62 4803     ldr     r0,=30013BAh
08056B64 8800     ldrh    r0,[r0]
08056B66 0986     lsr     r6,r0,6h
08056B68 4802     ldr     r0,=30013B8h
08056B6A E00B     b       8056B84h
08056B6C 00BC     lsl     r4,r7,2h
08056B6E 0300     lsl     r0,r0,0Ch
08056B70 13BA     asr     r2,r7,0Eh
08056B72 0300     lsl     r0,r0,0Ch
08056B74 13B8     asr     r0,r7,0Eh
08056B76 0300     lsl     r0,r0,0Ch
08056B78 4946     ldr     r1,=30000BCh
08056B7A 78CA     ldrb    r2,[r1,3h]
08056B7C 4846     ldr     r0,=30013BEh
08056B7E 8800     ldrh    r0,[r0]
08056B80 0986     lsr     r6,r0,6h
08056B82 4846     ldr     r0,=30013BCh
08056B84 8800     ldrh    r0,[r0]
08056B86 0983     lsr     r3,r0,6h
08056B88 2710     mov     r7,10h
08056B8A 1C10     mov     r0,r2
08056B8C 4038     and     r0,r7
08056B8E 2800     cmp     r0,0h
08056B90 D100     bne     8056B94h
08056B92 E08B     b       8056CACh
08056B94 2115     mov     r1,15h
08056B96 9103     str     r1,[sp,0Ch]
08056B98 1EDC     sub     r4,r3,3
08056B9A 2C00     cmp     r4,0h
08056B9C DA00     bge     8056BA0h
08056B9E 2400     mov     r4,0h
08056BA0 493F     ldr     r1,=300009Ch
08056BA2 464A     mov     r2,r9
08056BA4 00D0     lsl     r0,r2,3h
08056BA6 1845     add     r5,r0,r1
08056BA8 88A9     ldrh    r1,[r5,4h]
08056BAA 1B08     sub     r0,r1,r4
08056BAC 9B03     ldr     r3,[sp,0Ch]
08056BAE 4283     cmp     r3,r0
08056BB0 DD02     ble     8056BB8h
08056BB2 0400     lsl     r0,r0,10h
08056BB4 0C00     lsr     r0,r0,10h
08056BB6 9003     str     r0,[sp,0Ch]
08056BB8 0420     lsl     r0,r4,10h
08056BBA 0C00     lsr     r0,r0,10h
08056BBC 9002     str     r0,[sp,8h]
08056BBE 2010     mov     r0,10h
08056BC0 9004     str     r0,[sp,10h]
08056BC2 1EF4     sub     r4,r6,3
08056BC4 2C00     cmp     r4,0h
08056BC6 DA00     bge     8056BCAh
08056BC8 2400     mov     r4,0h
08056BCA 88E8     ldrh    r0,[r5,6h]
08056BCC 1B00     sub     r0,r0,r4
08056BCE 4287     cmp     r7,r0
08056BD0 DD02     ble     8056BD8h
08056BD2 0400     lsl     r0,r0,10h
08056BD4 0C00     lsr     r0,r0,10h
08056BD6 9004     str     r0,[sp,10h]
08056BD8 0420     lsl     r0,r4,10h
08056BDA 0C00     lsr     r0,r0,10h
08056BDC 4341     mul     r1,r0
08056BDE 9A02     ldr     r2,[sp,8h]
08056BE0 1851     add     r1,r2,r1
08056BE2 0049     lsl     r1,r1,1h
08056BE4 682A     ldr     r2,[r5]
08056BE6 1852     add     r2,r2,r1
08056BE8 9201     str     r2,[sp,4h]
08056BEA 1C01     mov     r1,r0
08056BEC 2200     mov     r2,0h
08056BEE 9B04     ldr     r3,[sp,10h]
08056BF0 429A     cmp     r2,r3
08056BF2 DB00     blt     8056BF6h
08056BF4 E085     b       8056D02h
08056BF6 9505     str     r5,[sp,14h]
08056BF8 9B05     ldr     r3,[sp,14h]
08056BFA 8898     ldrh    r0,[r3,4h]
08056BFC 4350     mul     r0,r2
08056BFE 0400     lsl     r0,r0,10h
08056C00 0C07     lsr     r7,r0,10h
08056C02 9D02     ldr     r5,[sp,8h]
08056C04 3201     add     r2,1h
08056C06 9206     str     r2,[sp,18h]
08056C08 1C48     add     r0,r1,1
08056C0A 4682     mov     r10,r0
08056C0C 9A03     ldr     r2,[sp,0Ch]
08056C0E 2A00     cmp     r2,0h
08056C10 D037     beq     8056C82h
08056C12 464B     mov     r3,r9
08056C14 031B     lsl     r3,r3,0Ch
08056C16 469C     mov     r12,r3
08056C18 200F     mov     r0,0Fh
08056C1A 4001     and     r1,r0
08056C1C 0189     lsl     r1,r1,6h
08056C1E 4688     mov     r8,r1
08056C20 1C16     mov     r6,r2
08056C22 20C0     mov     r0,0C0h
08056C24 04C0     lsl     r0,r0,13h
08056C26 4661     mov     r1,r12
08056C28 180B     add     r3,r1,r0
08056C2A 2010     mov     r0,10h
08056C2C 4028     and     r0,r5
08056C2E 2800     cmp     r0,0h
08056C30 D001     beq     8056C36h
08056C32 4B1C     ldr     r3,=6000800h
08056C34 4463     add     r3,r12
08056C36 1C28     mov     r0,r5
08056C38 220F     mov     r2,0Fh
08056C3A 4010     and     r0,r2
08056C3C 0040     lsl     r0,r0,1h
08056C3E 4440     add     r0,r8
08056C40 0040     lsl     r0,r0,1h
08056C42 181B     add     r3,r3,r0
08056C44 0078     lsl     r0,r7,1h
08056C46 9901     ldr     r1,[sp,4h]
08056C48 1840     add     r0,r0,r1
08056C4A 8804     ldrh    r4,[r0]
08056C4C 00E1     lsl     r1,r4,3h
08056C4E 4A16     ldr     r2,=3005450h
08056C50 6810     ldr     r0,[r2]
08056C52 1840     add     r0,r0,r1
08056C54 8801     ldrh    r1,[r0]
08056C56 8019     strh    r1,[r3]
08056C58 3002     add     r0,2h
08056C5A 8801     ldrh    r1,[r0]
08056C5C 8059     strh    r1,[r3,2h]
08056C5E 3002     add     r0,2h
08056C60 1C1A     mov     r2,r3
08056C62 3240     add     r2,40h
08056C64 8801     ldrh    r1,[r0]
08056C66 8011     strh    r1,[r2]
08056C68 1C19     mov     r1,r3
08056C6A 3142     add     r1,42h
08056C6C 8840     ldrh    r0,[r0,2h]
08056C6E 8008     strh    r0,[r1]
08056C70 1C78     add     r0,r7,1
08056C72 0400     lsl     r0,r0,10h
08056C74 0C07     lsr     r7,r0,10h
08056C76 3E01     sub     r6,1h
08056C78 1C68     add     r0,r5,1
08056C7A 0400     lsl     r0,r0,10h
08056C7C 0C05     lsr     r5,r0,10h
08056C7E 2E00     cmp     r6,0h
08056C80 D1CF     bne     8056C22h
08056C82 9A06     ldr     r2,[sp,18h]
08056C84 4653     mov     r3,r10
08056C86 0418     lsl     r0,r3,10h
08056C88 0C01     lsr     r1,r0,10h
08056C8A 9804     ldr     r0,[sp,10h]
08056C8C 4282     cmp     r2,r0
08056C8E DBB3     blt     8056BF8h
08056C90 E037     b       8056D02h
08056C92 0000     lsl     r0,r0,0h
08056C94 00BC     lsl     r4,r7,2h
08056C96 0300     lsl     r0,r0,0Ch
08056C98 13BE     asr     r6,r7,0Eh
08056C9A 0300     lsl     r0,r0,0Ch
08056C9C 13BC     asr     r4,r7,0Eh
08056C9E 0300     lsl     r0,r0,0Ch
08056CA0 009C     lsl     r4,r3,2h
08056CA2 0300     lsl     r0,r0,0Ch
08056CA4 0800     lsr     r0,r0,20h
08056CA6 0600     lsl     r0,r0,18h
08056CA8 5450     strb    r0,[r2,r1]
08056CAA 0300     lsl     r0,r0,0Ch
08056CAC 2A00     cmp     r2,0h
08056CAE D10C     bne     8056CCAh
08056CB0 4649     mov     r1,r9
08056CB2 030A     lsl     r2,r1,0Ch
08056CB4 20C0     mov     r0,0C0h
08056CB6 04C0     lsl     r0,r0,13h
08056CB8 1812     add     r2,r2,r0
08056CBA 2380     mov     r3,80h
08056CBC 015B     lsl     r3,r3,5h
08056CBE 9700     str     r7,[sp]
08056CC0 2003     mov     r0,3h
08056CC2 2140     mov     r1,40h
08056CC4 F7ACFAF6 bl      80032B4h
08056CC8 E01B     b       8056D02h
08056CCA 2040     mov     r0,40h
08056CCC 4002     and     r2,r0
08056CCE 2A00     cmp     r2,0h
08056CD0 D017     beq     8056D02h
08056CD2 464A     mov     r2,r9
08056CD4 2A00     cmp     r2,0h
08056CD6 D114     bne     8056D02h
08056CD8 2480     mov     r4,80h
08056CDA 0124     lsl     r4,r4,4h
08056CDC 7E09     ldrb    r1,[r1,18h]
08056CDE 2001     mov     r0,1h
08056CE0 4008     and     r0,r1
08056CE2 2800     cmp     r0,0h
08056CE4 D000     beq     8056CE8h
08056CE6 0064     lsl     r4,r4,1h
08056CE8 2002     mov     r0,2h
08056CEA 4008     and     r0,r1
08056CEC 2800     cmp     r0,0h
08056CEE D000     beq     8056CF2h
08056CF0 0064     lsl     r4,r4,1h
08056CF2 4908     ldr     r1,=202A800h
08056CF4 22C0     mov     r2,0C0h
08056CF6 04D2     lsl     r2,r2,13h
08056CF8 9700     str     r7,[sp]
08056CFA 2003     mov     r0,3h
08056CFC 1C23     mov     r3,r4
08056CFE F7ACFA71 bl      80031E4h
08056D02 B007     add     sp,1Ch
08056D04 BC38     pop     r3-r5
08056D06 4698     mov     r8,r3
08056D08 46A1     mov     r9,r4
08056D0A 46AA     mov     r10,r5
08056D0C BCF0     pop     r4-r7
08056D0E BC01     pop     r0
08056D10 4700     bx      r0
08056D12 0000     lsl     r0,r0,0h
08056D14 A800     add     r0,sp,0h
08056D16 0202     lsl     r2,r0,8h
08056D18 B570     push    r4-r6,lr
08056D1A B081     add     sp,-4h
08056D1C 1C0C     mov     r4,r1
08056D1E 1C15     mov     r5,r2
08056D20 0600     lsl     r0,r0,18h
08056D22 2600     mov     r6,0h
08056D24 23C0     mov     r3,0C0h
08056D26 019B     lsl     r3,r3,6h
08056D28 2800     cmp     r0,0h
08056D2A D10D     bne     8056D48h
08056D2C 7820     ldrb    r0,[r4]
08056D2E 2680     mov     r6,80h
08056D30 0136     lsl     r6,r6,4h
08056D32 2800     cmp     r0,0h
08056D34 D005     beq     8056D42h
08056D36 2680     mov     r6,80h
08056D38 0176     lsl     r6,r6,5h
08056D3A 2803     cmp     r0,3h
08056D3C D101     bne     8056D42h
08056D3E 2680     mov     r6,80h
08056D40 01B6     lsl     r6,r6,6h
08056D42 3401     add     r4,1h
08056D44 2380     mov     r3,80h
08056D46 019B     lsl     r3,r3,6h
08056D48 2010     mov     r0,10h
08056D4A 9000     str     r0,[sp]
08056D4C 2003     mov     r0,3h
08056D4E 2100     mov     r1,0h
08056D50 1C2A     mov     r2,r5
08056D52 F7ACFAAF bl      80032B4h
08056D56 2300     mov     r3,0h
08056D58 1C2A     mov     r2,r5
08056D5A 2B00     cmp     r3,0h
08056D5C D000     beq     8056D60h
08056D5E 3201     add     r2,1h
08056D60 7820     ldrb    r0,[r4]
08056D62 3401     add     r4,1h
08056D64 2801     cmp     r0,1h
08056D66 D126     bne     8056DB6h
08056D68 7821     ldrb    r1,[r4]
08056D6A 3401     add     r4,1h
08056D6C 3301     add     r3,1h
08056D6E 2900     cmp     r1,0h
08056D70 D053     beq     8056E1Ah
08056D72 2080     mov     r0,80h
08056D74 4008     and     r0,r1
08056D76 2800     cmp     r0,0h
08056D78 D016     beq     8056DA8h
08056D7A 207F     mov     r0,7Fh
08056D7C 4001     and     r1,r0
08056D7E 7820     ldrb    r0,[r4]
08056D80 2800     cmp     r0,0h
08056D82 D008     beq     8056D96h
08056D84 2900     cmp     r1,0h
08056D86 D008     beq     8056D9Ah
08056D88 7820     ldrb    r0,[r4]
08056D8A 7010     strb    r0,[r2]
08056D8C 3202     add     r2,2h
08056D8E 3901     sub     r1,1h
08056D90 2900     cmp     r1,0h
08056D92 D1F9     bne     8056D88h
08056D94 E001     b       8056D9Ah
08056D96 0048     lsl     r0,r1,1h
08056D98 1812     add     r2,r2,r0
08056D9A 3401     add     r4,1h
08056D9C E006     b       8056DACh
08056D9E 7820     ldrb    r0,[r4]
08056DA0 7010     strb    r0,[r2]
08056DA2 3401     add     r4,1h
08056DA4 3202     add     r2,2h
08056DA6 3901     sub     r1,1h
08056DA8 2900     cmp     r1,0h
08056DAA D1F8     bne     8056D9Eh
08056DAC 7821     ldrb    r1,[r4]
08056DAE 3401     add     r4,1h
08056DB0 2900     cmp     r1,0h
08056DB2 D1DE     bne     8056D72h
08056DB4 E031     b       8056E1Ah
08056DB6 7821     ldrb    r1,[r4]
08056DB8 3401     add     r4,1h
08056DBA 0209     lsl     r1,r1,8h
08056DBC 7820     ldrb    r0,[r4]
08056DBE 4301     orr     r1,r0
08056DC0 3401     add     r4,1h
08056DC2 3301     add     r3,1h
08056DC4 2900     cmp     r1,0h
08056DC6 D028     beq     8056E1Ah
08056DC8 2080     mov     r0,80h
08056DCA 0200     lsl     r0,r0,8h
08056DCC 4008     and     r0,r1
08056DCE 2800     cmp     r0,0h
08056DD0 D019     beq     8056E06h
08056DD2 4807     ldr     r0,=7FFFh
08056DD4 4001     and     r1,r0
08056DD6 7820     ldrb    r0,[r4]
08056DD8 2800     cmp     r0,0h
08056DDA D00B     beq     8056DF4h
08056DDC 2900     cmp     r1,0h
08056DDE D00B     beq     8056DF8h
08056DE0 7820     ldrb    r0,[r4]
08056DE2 7010     strb    r0,[r2]
08056DE4 3202     add     r2,2h
08056DE6 3901     sub     r1,1h
08056DE8 2900     cmp     r1,0h
08056DEA D1F9     bne     8056DE0h
08056DEC E004     b       8056DF8h
08056DEE 0000     lsl     r0,r0,0h
08056DF0 7FFF     ldrb    r7,[r7,1Fh]
08056DF2 0000     lsl     r0,r0,0h
08056DF4 0048     lsl     r0,r1,1h
08056DF6 1812     add     r2,r2,r0
08056DF8 3401     add     r4,1h
08056DFA E006     b       8056E0Ah
08056DFC 7820     ldrb    r0,[r4]
08056DFE 7010     strb    r0,[r2]
08056E00 3401     add     r4,1h
08056E02 3202     add     r2,2h
08056E04 3901     sub     r1,1h
08056E06 2900     cmp     r1,0h
08056E08 D1F8     bne     8056DFCh
08056E0A 7821     ldrb    r1,[r4]
08056E0C 3401     add     r4,1h
08056E0E 0209     lsl     r1,r1,8h
08056E10 7820     ldrb    r0,[r4]
08056E12 4301     orr     r1,r0
08056E14 3401     add     r4,1h
08056E16 2900     cmp     r1,0h
08056E18 D1D6     bne     8056DC8h
08056E1A 2B01     cmp     r3,1h
08056E1C DD9C     ble     8056D58h
08056E1E 1C30     mov     r0,r6
08056E20 B001     add     sp,4h
08056E22 BC70     pop     r4-r6
08056E24 BC02     pop     r1
08056E26 4708     bx      r1
08056E28 B500     push    lr
08056E2A 4805     ldr     r0,=30013D4h
08056E2C 7800     ldrb    r0,[r0]
08056E2E 281D     cmp     r0,1Dh
08056E30 D00A     beq     8056E48h
08056E32 4A04     ldr     r2,=3000048h
08056E34 7811     ldrb    r1,[r2]
08056E36 207F     mov     r0,7Fh
08056E38 4008     and     r0,r1
08056E3A 7010     strb    r0,[r2]
08056E3C E009     b       8056E52h
08056E3E 0000     lsl     r0,r0,0h
08056E40 13D4     asr     r4,r2,0Fh
08056E42 0300     lsl     r0,r0,0Ch
08056E44 0048     lsl     r0,r1,1h
08056E46 0300     lsl     r0,r0,0Ch
08056E48 4805     ldr     r0,=3000048h
08056E4A 7801     ldrb    r1,[r0]
08056E4C 2280     mov     r2,80h
08056E4E 4311     orr     r1,r2
08056E50 7001     strb    r1,[r0]
08056E52 4804     ldr     r0,=3000029h
08056E54 7800     ldrb    r0,[r0]
08056E56 2800     cmp     r0,0h
08056E58 D006     beq     8056E68h
08056E5A F006F877 bl      805CF4Ch
08056E5E E007     b       8056E70h
08056E60 0048     lsl     r0,r1,1h
08056E62 0300     lsl     r0,r0,0Ch
08056E64 0029     lsl     r1,r5,0h
08056E66 0300     lsl     r0,r0,0Ch
08056E68 F015F974 bl      806C154h
08056E6C F7FEFEDA bl      8055C24h
08056E70 BC01     pop     r0
08056E72 4700     bx      r0
08056E74 B510     push    r4,lr
08056E76 2200     mov     r2,0h
08056E78 2400     mov     r4,0h
08056E7A 4804     ldr     r0,=3000C72h
08056E7C 2100     mov     r1,0h
08056E7E 5E40     ldsh    r0,[r0,r1]
08056E80 2801     cmp     r0,1h
08056E82 D001     beq     8056E88h
08056E84 2803     cmp     r0,3h
08056E86 D103     bne     8056E90h
08056E88 2201     mov     r2,1h
08056E8A E005     b       8056E98h
08056E8C 0C72     lsr     r2,r6,11h
08056E8E 0300     lsl     r0,r0,0Ch
08056E90 2802     cmp     r0,2h
08056E92 D001     beq     8056E98h
08056E94 2201     mov     r2,1h
08056E96 2401     mov     r4,1h
08056E98 4812     ldr     r0,=3001606h
08056E9A 8800     ldrh    r0,[r0]
08056E9C 2800     cmp     r0,0h
08056E9E D000     beq     8056EA2h
08056EA0 2401     mov     r4,1h
08056EA2 4911     ldr     r1,=3000045h
08056EA4 7808     ldrb    r0,[r1]
08056EA6 2800     cmp     r0,0h
08056EA8 D003     beq     8056EB2h
08056EAA 3801     sub     r0,1h
08056EAC 7008     strb    r0,[r1]
08056EAE 2201     mov     r2,1h
08056EB0 2401     mov     r4,1h
08056EB2 2A00     cmp     r2,0h
08056EB4 D109     bne     8056ECAh
08056EB6 480D     ldr     r0,=30056F8h
08056EB8 7940     ldrb    r0,[r0,5h]
08056EBA 2800     cmp     r0,0h
08056EBC D005     beq     8056ECAh
08056EBE 480C     ldr     r0,=3000130h
08056EC0 7800     ldrb    r0,[r0]
08056EC2 2800     cmp     r0,0h
08056EC4 D101     bne     8056ECAh
08056EC6 F007FB3F bl      805E548h
08056ECA 2C00     cmp     r4,0h
08056ECC D107     bne     8056EDEh
08056ECE F007F87D bl      805DFCCh
08056ED2 F007F9B9 bl      805E248h
08056ED6 F007F9ED bl      805E2B4h
08056EDA F000F80B bl      8056EF4h
08056EDE BC10     pop     r4
08056EE0 BC01     pop     r0
08056EE2 4700     bx      r0
08056EE4 1606     asr     r6,r0,18h
08056EE6 0300     lsl     r0,r0,0Ch
08056EE8 0045     lsl     r5,r0,1h
08056EEA 0300     lsl     r0,r0,0Ch
08056EEC 56F8     ldsb    r0,[r7,r3]
08056EEE 0300     lsl     r0,r0,0Ch
08056EF0 0130     lsl     r0,r6,4h
08056EF2 0300     lsl     r0,r0,0Ch
08056EF4 B510     push    r4,lr
08056EF6 B081     add     sp,-4h
08056EF8 482B     ldr     r0,=3000C72h
08056EFA 2100     mov     r1,0h
08056EFC 5E40     ldsh    r0,[r0,r1]
08056EFE 2802     cmp     r0,2h
08056F00 D14E     bne     8056FA0h
08056F02 482A     ldr     r0,=300002Dh
08056F04 7800     ldrb    r0,[r0]
08056F06 4C2A     ldr     r4,=85E0420h
08056F08 2800     cmp     r0,0h
08056F0A D000     beq     8056F0Eh
08056F0C 4C29     ldr     r4,=85E0220h
08056F0E 482A     ldr     r0,=30054E4h
08056F10 7800     ldrb    r0,[r0]
08056F12 0600     lsl     r0,r0,18h
08056F14 1600     asr     r0,r0,18h
08056F16 2800     cmp     r0,0h
08056F18 D01E     beq     8056F58h
08056F1A 4928     ldr     r1,=30056F0h
08056F1C 7808     ldrb    r0,[r1]
08056F1E 3001     add     r0,1h
08056F20 2200     mov     r2,0h
08056F22 7008     strb    r0,[r1]
08056F24 0600     lsl     r0,r0,18h
08056F26 0E00     lsr     r0,r0,18h
08056F28 2807     cmp     r0,7h
08056F2A D915     bls     8056F58h
08056F2C 700A     strb    r2,[r1]
08056F2E 7848     ldrb    r0,[r1,1h]
08056F30 3001     add     r0,1h
08056F32 7048     strb    r0,[r1,1h]
08056F34 0600     lsl     r0,r0,18h
08056F36 1600     asr     r0,r0,18h
08056F38 2805     cmp     r0,5h
08056F3A DD00     ble     8056F3Eh
08056F3C 704A     strb    r2,[r1,1h]
08056F3E 7849     ldrb    r1,[r1,1h]
08056F40 0609     lsl     r1,r1,18h
08056F42 1609     asr     r1,r1,18h
08056F44 0149     lsl     r1,r1,5h
08056F46 310C     add     r1,0Ch
08056F48 1861     add     r1,r4,r1
08056F4A 4A1D     ldr     r2,=500002Ch
08056F4C 2010     mov     r0,10h
08056F4E 9000     str     r0,[sp]
08056F50 2003     mov     r0,3h
08056F52 2304     mov     r3,4h
08056F54 F7ACF946 bl      80031E4h
08056F58 4817     ldr     r0,=30054E4h
08056F5A 7840     ldrb    r0,[r0,1h]
08056F5C 0600     lsl     r0,r0,18h
08056F5E 1600     asr     r0,r0,18h
08056F60 2800     cmp     r0,0h
08056F62 D01D     beq     8056FA0h
08056F64 4A15     ldr     r2,=30056F0h
08056F66 7890     ldrb    r0,[r2,2h]
08056F68 3001     add     r0,1h
08056F6A 2100     mov     r1,0h
08056F6C 7090     strb    r0,[r2,2h]
08056F6E 0600     lsl     r0,r0,18h
08056F70 0E00     lsr     r0,r0,18h
08056F72 2807     cmp     r0,7h
08056F74 D914     bls     8056FA0h
08056F76 7091     strb    r1,[r2,2h]
08056F78 78D0     ldrb    r0,[r2,3h]
08056F7A 3001     add     r0,1h
08056F7C 70D0     strb    r0,[r2,3h]
08056F7E 0600     lsl     r0,r0,18h
08056F80 1600     asr     r0,r0,18h
08056F82 2805     cmp     r0,5h
08056F84 DD00     ble     8056F88h
08056F86 70D1     strb    r1,[r2,3h]
08056F88 490E     ldr     r1,=40000D4h
08056F8A 2003     mov     r0,3h
08056F8C 5610     ldsb    r0,[r2,r0]
08056F8E 0140     lsl     r0,r0,5h
08056F90 300C     add     r0,0Ch
08056F92 1820     add     r0,r4,r0
08056F94 6008     str     r0,[r1]
08056F96 480C     ldr     r0,=500004Ch
08056F98 6048     str     r0,[r1,4h]
08056F9A 480C     ldr     r0,=80000002h
08056F9C 6088     str     r0,[r1,8h]
08056F9E 6888     ldr     r0,[r1,8h]
08056FA0 B001     add     sp,4h
08056FA2 BC10     pop     r4
08056FA4 BC01     pop     r0
08056FA6 4700     bx      r0
08056FA8 0C72     lsr     r2,r6,11h
08056FAA 0300     lsl     r0,r0,0Ch
08056FAC 002D     lsl     r5,r5,0h
08056FAE 0300     lsl     r0,r0,0Ch
08056FB0 0420     lsl     r0,r4,10h
08056FB2 085E     lsr     r6,r3,1h
08056FB4 0220     lsl     r0,r4,8h
08056FB6 085E     lsr     r6,r3,1h
08056FB8 54E4     strb    r4,[r4,r3]
08056FBA 0300     lsl     r0,r0,0Ch
08056FBC 56F0     ldsb    r0,[r6,r3]
08056FBE 0300     lsl     r0,r0,0Ch
08056FC0 002C     lsl     r4,r5,0h
08056FC2 0500     lsl     r0,r0,14h
08056FC4 00D4     lsl     r4,r2,3h
08056FC6 0400     lsl     r0,r0,10h
08056FC8 004C     lsl     r4,r1,1h
08056FCA 0500     lsl     r0,r0,14h
08056FCC 0002     lsl     r2,r0,0h
08056FCE 8000     strh    r0,[r0]
08056FD0 B510     push    r4,lr
08056FD2 4830     ldr     r0,=300003Dh
08056FD4 7800     ldrb    r0,[r0]
08056FD6 2800     cmp     r0,0h
08056FD8 D133     bne     8057042h
08056FDA 482F     ldr     r0,=3005520h
08056FDC 7840     ldrb    r0,[r0,1h]
08056FDE 2800     cmp     r0,0h
08056FE0 D12F     bne     8057042h
08056FE2 F000F863 bl      80570ACh
08056FE6 482D     ldr     r0,=3005700h
08056FE8 7801     ldrb    r1,[r0]
08056FEA 3101     add     r1,1h
08056FEC 7001     strb    r1,[r0]
08056FEE 2001     mov     r0,1h
08056FF0 4001     and     r1,r0
08056FF2 2900     cmp     r1,0h
08056FF4 D108     bne     8057008h
08056FF6 482A     ldr     r0,=3000144h
08056FF8 2104     mov     r1,4h
08056FFA 5641     ldsb    r1,[r0,r1]
08056FFC 201C     mov     r0,1Ch
08056FFE 4240     neg     r0,r0
08057000 4281     cmp     r1,r0
08057002 DB01     blt     8057008h
08057004 291C     cmp     r1,1Ch
08057006 DD06     ble     8057016h
08057008 2010     mov     r0,10h
0805700A F000F975 bl      80572F8h
0805700E 2002     mov     r0,2h
08057010 4240     neg     r0,r0
08057012 F000F971 bl      80572F8h
08057016 4821     ldr     r0,=3005700h
08057018 7801     ldrb    r1,[r0]
0805701A 2001     mov     r0,1h
0805701C 4008     and     r0,r1
0805701E 2800     cmp     r0,0h
08057020 D008     beq     8057034h
08057022 481F     ldr     r0,=3000144h
08057024 2105     mov     r1,5h
08057026 5641     ldsb    r1,[r0,r1]
08057028 201C     mov     r0,1Ch
0805702A 4240     neg     r0,r0
0805702C 4281     cmp     r1,r0
0805702E DB01     blt     8057034h
08057030 291C     cmp     r1,1Ch
08057032 DD06     ble     8057042h
08057034 200B     mov     r0,0Bh
08057036 F000F8CD bl      80571D4h
0805703A 2002     mov     r0,2h
0805703C 4240     neg     r0,r0
0805703E F000F8C9 bl      80571D4h
08057042 4C18     ldr     r4,=3000C72h
08057044 2100     mov     r1,0h
08057046 5E60     ldsh    r0,[r4,r1]
08057048 2802     cmp     r0,2h
0805704A D10F     bne     805706Ch
0805704C F003FB10 bl      805A670h
08057050 2100     mov     r1,0h
08057052 5E60     ldsh    r0,[r4,r1]
08057054 2802     cmp     r0,2h
08057056 D109     bne     805706Ch
08057058 F002FD7C bl      8059B54h
0805705C F003F81C bl      805A098h
08057060 F009F9E8 bl      8060434h
08057064 F008F81E bl      805F0A4h
08057068 F007FB7A bl      805E760h
0805706C F006FAA6 bl      805D5BCh
08057070 2800     cmp     r0,0h
08057072 D00A     beq     805708Ah
08057074 F006FAA2 bl      805D5BCh
08057078 4A0B     ldr     r2,=3000080h
0805707A 79D1     ldrb    r1,[r2,7h]
0805707C 207F     mov     r0,7Fh
0805707E 4008     and     r0,r1
08057080 2800     cmp     r0,0h
08057082 D002     beq     805708Ah
08057084 2080     mov     r0,80h
08057086 4308     orr     r0,r1
08057088 71D0     strb    r0,[r2,7h]
0805708A F000F9E7 bl      805745Ch
0805708E BC10     pop     r4
08057090 BC01     pop     r0
08057092 4700     bx      r0
08057094 003D     lsl     r5,r7,0h
08057096 0300     lsl     r0,r0,0Ch
08057098 5520     strb    r0,[r4,r4]
0805709A 0300     lsl     r0,r0,0Ch
0805709C 5700     ldsb    r0,[r0,r4]
0805709E 0300     lsl     r0,r0,0Ch
080570A0 0144     lsl     r4,r0,5h
080570A2 0300     lsl     r0,r0,0Ch
080570A4 0C72     lsr     r2,r6,11h
080570A6 0300     lsl     r0,r0,0Ch
080570A8 0080     lsl     r0,r0,2h
080570AA 0300     lsl     r0,r0,0Ch
080570AC B570     push    r4-r6,lr
080570AE F7FEF995 bl      80553DCh
080570B2 1C05     mov     r5,r0
080570B4 F7FEF9C6 bl      8055444h
080570B8 1C04     mov     r4,r0
080570BA 4818     ldr     r0,=30013B8h
080570BC 8801     ldrh    r1,[r0]
080570BE 0889     lsr     r1,r1,2h
080570C0 4817     ldr     r0,=1FFh
080570C2 1C03     mov     r3,r0
080570C4 4019     and     r1,r3
080570C6 4817     ldr     r0,=30013BAh
080570C8 8800     ldrh    r0,[r0]
080570CA 0880     lsr     r0,r0,2h
080570CC 4018     and     r0,r3
080570CE 4A16     ldr     r2,=30000E4h
080570D0 1909     add     r1,r1,r4
080570D2 8091     strh    r1,[r2,4h]
080570D4 1940     add     r0,r0,r5
080570D6 80D0     strh    r0,[r2,6h]
080570D8 4814     ldr     r0,=30013BCh
080570DA 8800     ldrh    r0,[r0]
080570DC 0880     lsr     r0,r0,2h
080570DE 4018     and     r0,r3
080570E0 1900     add     r0,r0,r4
080570E2 8110     strh    r0,[r2,8h]
080570E4 4812     ldr     r0,=30013BEh
080570E6 8800     ldrh    r0,[r0]
080570E8 0880     lsr     r0,r0,2h
080570EA 4018     and     r0,r3
080570EC 1940     add     r0,r0,r5
080570EE 8150     strh    r0,[r2,0Ah]
080570F0 4810     ldr     r0,=3000074h
080570F2 8801     ldrh    r1,[r0]
080570F4 2080     mov     r0,80h
080570F6 0040     lsl     r0,r0,1h
080570F8 4008     and     r0,r1
080570FA 2800     cmp     r0,0h
080570FC D022     beq     8057144h
080570FE 480E     ldr     r0,=30013B4h
08057100 8800     ldrh    r0,[r0]
08057102 490E     ldr     r1,=30054F4h
08057104 0880     lsr     r0,r0,2h
08057106 888E     ldrh    r6,[r1,4h]
08057108 1980     add     r0,r0,r6
0805710A 4018     and     r0,r3
0805710C 8010     strh    r0,[r2]
0805710E 480C     ldr     r0,=30013B6h
08057110 8800     ldrh    r0,[r0]
08057112 0880     lsr     r0,r0,2h
08057114 88C9     ldrh    r1,[r1,6h]
08057116 1840     add     r0,r0,r1
08057118 4018     and     r0,r3
0805711A E023     b       8057164h
0805711C 13B8     asr     r0,r7,0Eh
0805711E 0300     lsl     r0,r0,0Ch
08057120 01FF     lsl     r7,r7,7h
08057122 0000     lsl     r0,r0,0h
08057124 13BA     asr     r2,r7,0Eh
08057126 0300     lsl     r0,r0,0Ch
08057128 00E4     lsl     r4,r4,3h
0805712A 0300     lsl     r0,r0,0Ch
0805712C 13BC     asr     r4,r7,0Eh
0805712E 0300     lsl     r0,r0,0Ch
08057130 13BE     asr     r6,r7,0Eh
08057132 0300     lsl     r0,r0,0Ch
08057134 0074     lsl     r4,r6,1h
08057136 0300     lsl     r0,r0,0Ch
08057138 13B4     asr     r4,r6,0Eh
0805713A 0300     lsl     r0,r0,0Ch
0805713C 54F4     strb    r4,[r6,r3]
0805713E 0300     lsl     r0,r0,0Ch
08057140 13B6     asr     r6,r6,0Eh
08057142 0300     lsl     r0,r0,0Ch
08057144 4814     ldr     r0,=30013B4h
08057146 8800     ldrh    r0,[r0]
08057148 4914     ldr     r1,=30054F4h
0805714A 0880     lsr     r0,r0,2h
0805714C 888E     ldrh    r6,[r1,4h]
0805714E 1980     add     r0,r0,r6
08057150 4018     and     r0,r3
08057152 1900     add     r0,r0,r4
08057154 8010     strh    r0,[r2]
08057156 4812     ldr     r0,=30013B6h
08057158 8800     ldrh    r0,[r0]
0805715A 0880     lsr     r0,r0,2h
0805715C 88C9     ldrh    r1,[r1,6h]
0805715E 1840     add     r0,r0,r1
08057160 4018     and     r0,r3
08057162 1940     add     r0,r0,r5
08057164 8050     strh    r0,[r2,2h]
08057166 480F     ldr     r0,=30013C0h
08057168 8800     ldrh    r0,[r0]
0805716A 490F     ldr     r1,=30054ECh
0805716C 0880     lsr     r0,r0,2h
0805716E 8889     ldrh    r1,[r1,4h]
08057170 1843     add     r3,r0,r1
08057172 480E     ldr     r0,=1FFh
08057174 1C01     mov     r1,r0
08057176 400B     and     r3,r1
08057178 480D     ldr     r0,=30013C2h
0805717A 8800     ldrh    r0,[r0]
0805717C 0882     lsr     r2,r0,2h
0805717E 400A     and     r2,r1
08057180 480C     ldr     r0,=3000074h
08057182 8801     ldrh    r1,[r0]
08057184 2080     mov     r0,80h
08057186 0100     lsl     r0,r0,4h
08057188 4008     and     r0,r1
0805718A 2800     cmp     r0,0h
0805718C D016     beq     80571BCh
0805718E 480A     ldr     r0,=30000E4h
08057190 8183     strh    r3,[r0,0Ch]
08057192 81C2     strh    r2,[r0,0Eh]
08057194 E019     b       80571CAh
08057196 0000     lsl     r0,r0,0h
08057198 13B4     asr     r4,r6,0Eh
0805719A 0300     lsl     r0,r0,0Ch
0805719C 54F4     strb    r4,[r6,r3]
0805719E 0300     lsl     r0,r0,0Ch
080571A0 13B6     asr     r6,r6,0Eh
080571A2 0300     lsl     r0,r0,0Ch
080571A4 13C0     asr     r0,r0,0Fh
080571A6 0300     lsl     r0,r0,0Ch
080571A8 54EC     strb    r4,[r5,r3]
080571AA 0300     lsl     r0,r0,0Ch
080571AC 01FF     lsl     r7,r7,7h
080571AE 0000     lsl     r0,r0,0h
080571B0 13C2     asr     r2,r0,0Fh
080571B2 0300     lsl     r0,r0,0Ch
080571B4 0074     lsl     r4,r6,1h
080571B6 0300     lsl     r0,r0,0Ch
080571B8 00E4     lsl     r4,r4,3h
080571BA 0300     lsl     r0,r0,0Ch
080571BC 4804     ldr     r0,=30000E4h
080571BE 1061     asr     r1,r4,1h
080571C0 1859     add     r1,r3,r1
080571C2 8181     strh    r1,[r0,0Ch]
080571C4 1069     asr     r1,r5,1h
080571C6 1851     add     r1,r2,r1
080571C8 81C1     strh    r1,[r0,0Eh]
080571CA BC70     pop     r4-r6
080571CC BC01     pop     r0
080571CE 4700     bx      r0
080571D0 00E4     lsl     r4,r4,3h
080571D2 0300     lsl     r0,r0,0Ch
080571D4 B5F0     push    r4-r7,lr
080571D6 4657     mov     r7,r10
080571D8 464E     mov     r6,r9
080571DA 4645     mov     r5,r8
080571DC B4E0     push    r5-r7
080571DE 0600     lsl     r0,r0,18h
080571E0 1600     asr     r0,r0,18h
080571E2 4682     mov     r10,r0
080571E4 2700     mov     r7,0h
080571E6 4805     ldr     r0,=30000BCh
080571E8 4681     mov     r9,r0
080571EA 2F00     cmp     r7,0h
080571EC D10C     bne     8057208h
080571EE 4649     mov     r1,r9
080571F0 784C     ldrb    r4,[r1,1h]
080571F2 4803     ldr     r0,=30013B6h
080571F4 8800     ldrh    r0,[r0]
080571F6 0982     lsr     r2,r0,6h
080571F8 4802     ldr     r0,=30013B4h
080571FA E019     b       8057230h
080571FC 00BC     lsl     r4,r7,2h
080571FE 0300     lsl     r0,r0,0Ch
08057200 13B6     asr     r6,r6,0Eh
08057202 0300     lsl     r0,r0,0Ch
08057204 13B4     asr     r4,r6,0Eh
08057206 0300     lsl     r0,r0,0Ch
08057208 2F01     cmp     r7,1h
0805720A D10B     bne     8057224h
0805720C 464A     mov     r2,r9
0805720E 7894     ldrb    r4,[r2,2h]
08057210 4802     ldr     r0,=30013BAh
08057212 8800     ldrh    r0,[r0]
08057214 0982     lsr     r2,r0,6h
08057216 4802     ldr     r0,=30013B8h
08057218 E00A     b       8057230h
0805721A 0000     lsl     r0,r0,0h
0805721C 13BA     asr     r2,r7,0Eh
0805721E 0300     lsl     r0,r0,0Ch
08057220 13B8     asr     r0,r7,0Eh
08057222 0300     lsl     r0,r0,0Ch
08057224 4648     mov     r0,r9
08057226 78C4     ldrb    r4,[r0,3h]
08057228 482F     ldr     r0,=30013BEh
0805722A 8800     ldrh    r0,[r0]
0805722C 0982     lsr     r2,r0,6h
0805722E 482F     ldr     r0,=30013BCh
08057230 8800     ldrh    r0,[r0]
08057232 0985     lsr     r5,r0,6h
08057234 2010     mov     r0,10h
08057236 4020     and     r0,r4
08057238 1C79     add     r1,r7,1
0805723A 4688     mov     r8,r1
0805723C 2800     cmp     r0,0h
0805723E D049     beq     80572D4h
08057240 4650     mov     r0,r10
08057242 1814     add     r4,r2,r0
08057244 2C00     cmp     r4,0h
08057246 DB45     blt     80572D4h
08057248 00F8     lsl     r0,r7,3h
0805724A 4A29     ldr     r2,=300009Ch
0805724C 1881     add     r1,r0,r2
0805724E 88C8     ldrh    r0,[r1,6h]
08057250 4284     cmp     r4,r0
08057252 DC3F     bgt     80572D4h
08057254 0420     lsl     r0,r4,10h
08057256 0C02     lsr     r2,r0,10h
08057258 1EAC     sub     r4,r5,2
0805725A 2C00     cmp     r4,0h
0805725C DA00     bge     8057260h
0805725E 2400     mov     r4,0h
08057260 0420     lsl     r0,r4,10h
08057262 0C05     lsr     r5,r0,10h
08057264 2313     mov     r3,13h
08057266 8888     ldrh    r0,[r1,4h]
08057268 2813     cmp     r0,13h
0805726A DA00     bge     805726Eh
0805726C 1C03     mov     r3,r0
0805726E 4350     mul     r0,r2
08057270 1946     add     r6,r0,r5
08057272 0338     lsl     r0,r7,0Ch
08057274 24C0     mov     r4,0C0h
08057276 04E4     lsl     r4,r4,13h
08057278 1907     add     r7,r0,r4
0805727A 200F     mov     r0,0Fh
0805727C 4002     and     r2,r0
0805727E 01D0     lsl     r0,r2,7h
08057280 183F     add     r7,r7,r0
08057282 2B00     cmp     r3,0h
08057284 D026     beq     80572D4h
08057286 481B     ldr     r0,=3005450h
08057288 6809     ldr     r1,[r1]
0805728A 6800     ldr     r0,[r0]
0805728C 4684     mov     r12,r0
0805728E 1C1C     mov     r4,r3
08057290 0070     lsl     r0,r6,1h
08057292 1846     add     r6,r0,r1
08057294 8830     ldrh    r0,[r6]
08057296 00C0     lsl     r0,r0,3h
08057298 4661     mov     r1,r12
0805729A 180B     add     r3,r1,r0
0805729C 220F     mov     r2,0Fh
0805729E 402A     and     r2,r5
080572A0 2010     mov     r0,10h
080572A2 4028     and     r0,r5
080572A4 2800     cmp     r0,0h
080572A6 D002     beq     80572AEh
080572A8 2080     mov     r0,80h
080572AA 0080     lsl     r0,r0,2h
080572AC 1812     add     r2,r2,r0
080572AE 0092     lsl     r2,r2,2h
080572B0 19D2     add     r2,r2,r7
080572B2 8819     ldrh    r1,[r3]
080572B4 8858     ldrh    r0,[r3,2h]
080572B6 0400     lsl     r0,r0,10h
080572B8 4301     orr     r1,r0
080572BA 6011     str     r1,[r2]
080572BC 8899     ldrh    r1,[r3,4h]
080572BE 88D8     ldrh    r0,[r3,6h]
080572C0 0400     lsl     r0,r0,10h
080572C2 4301     orr     r1,r0
080572C4 6411     str     r1,[r2,40h]
080572C6 3C01     sub     r4,1h
080572C8 1C68     add     r0,r5,1
080572CA 0400     lsl     r0,r0,10h
080572CC 0C05     lsr     r5,r0,10h
080572CE 3602     add     r6,2h
080572D0 2C00     cmp     r4,0h
080572D2 D1DF     bne     8057294h
080572D4 4647     mov     r7,r8
080572D6 2F02     cmp     r7,2h
080572D8 DD87     ble     80571EAh
080572DA BC38     pop     r3-r5
080572DC 4698     mov     r8,r3
080572DE 46A1     mov     r9,r4
080572E0 46AA     mov     r10,r5
080572E2 BCF0     pop     r4-r7
080572E4 BC01     pop     r0
080572E6 4700     bx      r0
080572E8 13BE     asr     r6,r7,0Eh
080572EA 0300     lsl     r0,r0,0Ch
080572EC 13BC     asr     r4,r7,0Eh
080572EE 0300     lsl     r0,r0,0Ch
080572F0 009C     lsl     r4,r3,2h
080572F2 0300     lsl     r0,r0,0Ch
080572F4 5450     strb    r0,[r2,r1]
080572F6 0300     lsl     r0,r0,0Ch
080572F8 B5F0     push    r4-r7,lr
080572FA 4657     mov     r7,r10
080572FC 464E     mov     r6,r9
080572FE 4645     mov     r5,r8
08057300 B4E0     push    r5-r7
08057302 B082     add     sp,-8h
08057304 0600     lsl     r0,r0,18h
08057306 1600     asr     r0,r0,18h
08057308 9000     str     r0,[sp]
0805730A 2600     mov     r6,0h
0805730C 2E00     cmp     r6,0h
0805730E D10D     bne     805732Ch
08057310 4803     ldr     r0,=30000BCh
08057312 7844     ldrb    r4,[r0,1h]
08057314 4803     ldr     r0,=30013B6h
08057316 8800     ldrh    r0,[r0]
08057318 0985     lsr     r5,r0,6h
0805731A 4803     ldr     r0,=30013B4h
0805731C E01C     b       8057358h
0805731E 0000     lsl     r0,r0,0h
08057320 00BC     lsl     r4,r7,2h
08057322 0300     lsl     r0,r0,0Ch
08057324 13B6     asr     r6,r6,0Eh
08057326 0300     lsl     r0,r0,0Ch
08057328 13B4     asr     r4,r6,0Eh
0805732A 0300     lsl     r0,r0,0Ch
0805732C 2E01     cmp     r6,1h
0805732E D10D     bne     805734Ch
08057330 4903     ldr     r1,=30000BCh
08057332 788C     ldrb    r4,[r1,2h]
08057334 4803     ldr     r0,=30013BAh
08057336 8800     ldrh    r0,[r0]
08057338 0985     lsr     r5,r0,6h
0805733A 4803     ldr     r0,=30013B8h
0805733C E00C     b       8057358h
0805733E 0000     lsl     r0,r0,0h
08057340 00BC     lsl     r4,r7,2h
08057342 0300     lsl     r0,r0,0Ch
08057344 13BA     asr     r2,r7,0Eh
08057346 0300     lsl     r0,r0,0Ch
08057348 13B8     asr     r0,r7,0Eh
0805734A 0300     lsl     r0,r0,0Ch
0805734C 4F35     ldr     r7,=30000BCh
0805734E 78FC     ldrb    r4,[r7,3h]
08057350 4835     ldr     r0,=30013BEh
08057352 8800     ldrh    r0,[r0]
08057354 0985     lsr     r5,r0,6h
08057356 4835     ldr     r0,=30013BCh
08057358 8800     ldrh    r0,[r0]
0805735A 0981     lsr     r1,r0,6h
0805735C 2010     mov     r0,10h
0805735E 4680     mov     r8,r0
08057360 4004     and     r4,r0
08057362 1C77     add     r7,r6,1
08057364 46BA     mov     r10,r7
08057366 2C00     cmp     r4,0h
08057368 D04F     beq     805740Ah
0805736A 9800     ldr     r0,[sp]
0805736C 180C     add     r4,r1,r0
0805736E 2C00     cmp     r4,0h
08057370 DB4B     blt     805740Ah
08057372 00F0     lsl     r0,r6,3h
08057374 492E     ldr     r1,=300009Ch
08057376 1843     add     r3,r0,r1
08057378 889A     ldrh    r2,[r3,4h]
0805737A 4294     cmp     r4,r2
0805737C DC45     bgt     805740Ah
0805737E 0420     lsl     r0,r4,10h
08057380 0C01     lsr     r1,r0,10h
08057382 1EAC     sub     r4,r5,2
08057384 2C00     cmp     r4,0h
08057386 DA00     bge     805738Ah
08057388 2400     mov     r4,0h
0805738A 0420     lsl     r0,r4,10h
0805738C 0C05     lsr     r5,r0,10h
0805738E 240E     mov     r4,0Eh
08057390 88D8     ldrh    r0,[r3,6h]
08057392 280E     cmp     r0,0Eh
08057394 DA00     bge     8057398h
08057396 1C04     mov     r4,r0
08057398 1C10     mov     r0,r2
0805739A 4368     mul     r0,r5
0805739C 1840     add     r0,r0,r1
0805739E 9001     str     r0,[sp,4h]
080573A0 0332     lsl     r2,r6,0Ch
080573A2 27C0     mov     r7,0C0h
080573A4 04FF     lsl     r7,r7,13h
080573A6 19D6     add     r6,r2,r7
080573A8 1C08     mov     r0,r1
080573AA 4647     mov     r7,r8
080573AC 4038     and     r0,r7
080573AE 2800     cmp     r0,0h
080573B0 D001     beq     80573B6h
080573B2 4820     ldr     r0,=6000800h
080573B4 1816     add     r6,r2,r0
080573B6 200F     mov     r0,0Fh
080573B8 4001     and     r1,r0
080573BA 0088     lsl     r0,r1,2h
080573BC 1836     add     r6,r6,r0
080573BE 2C00     cmp     r4,0h
080573C0 D023     beq     805740Ah
080573C2 481D     ldr     r0,=3005450h
080573C4 469C     mov     r12,r3
080573C6 6800     ldr     r0,[r0]
080573C8 4681     mov     r9,r0
080573CA 6819     ldr     r1,[r3]
080573CC 4688     mov     r8,r1
080573CE 9F01     ldr     r7,[sp,4h]
080573D0 0078     lsl     r0,r7,1h
080573D2 4440     add     r0,r8
080573D4 8802     ldrh    r2,[r0]
080573D6 00D2     lsl     r2,r2,3h
080573D8 444A     add     r2,r9
080573DA 230F     mov     r3,0Fh
080573DC 402B     and     r3,r5
080573DE 01DB     lsl     r3,r3,7h
080573E0 199B     add     r3,r3,r6
080573E2 8811     ldrh    r1,[r2]
080573E4 8850     ldrh    r0,[r2,2h]
080573E6 0400     lsl     r0,r0,10h
080573E8 4301     orr     r1,r0
080573EA 6019     str     r1,[r3]
080573EC 8891     ldrh    r1,[r2,4h]
080573EE 88D0     ldrh    r0,[r2,6h]
080573F0 0400     lsl     r0,r0,10h
080573F2 4301     orr     r1,r0
080573F4 6419     str     r1,[r3,40h]
080573F6 4661     mov     r1,r12
080573F8 8888     ldrh    r0,[r1,4h]
080573FA 183F     add     r7,r7,r0
080573FC 9701     str     r7,[sp,4h]
080573FE 1C68     add     r0,r5,1
08057400 0400     lsl     r0,r0,10h
08057402 0C05     lsr     r5,r0,10h
08057404 3C01     sub     r4,1h
08057406 2C00     cmp     r4,0h
08057408 D1E1     bne     80573CEh
0805740A 4656     mov     r6,r10
0805740C 2E02     cmp     r6,2h
0805740E DC00     bgt     8057412h
08057410 E77C     b       805730Ch
08057412 B002     add     sp,8h
08057414 BC38     pop     r3-r5
08057416 4698     mov     r8,r3
08057418 46A1     mov     r9,r4
0805741A 46AA     mov     r10,r5
0805741C BCF0     pop     r4-r7
0805741E BC01     pop     r0
08057420 4700     bx      r0
08057422 0000     lsl     r0,r0,0h
08057424 00BC     lsl     r4,r7,2h
08057426 0300     lsl     r0,r0,0Ch
08057428 13BE     asr     r6,r7,0Eh
0805742A 0300     lsl     r0,r0,0Ch
0805742C 13BC     asr     r4,r7,0Eh
0805742E 0300     lsl     r0,r0,0Ch
08057430 009C     lsl     r4,r3,2h
08057432 0300     lsl     r0,r0,0Ch
08057434 0800     lsr     r0,r0,20h
08057436 0600     lsl     r0,r0,18h
08057438 5450     strb    r0,[r2,r1]
0805743A 0300     lsl     r0,r0,0Ch
0805743C B500     push    lr
0805743E 4A06     ldr     r2,=40000D4h
08057440 6890     ldr     r0,[r2,8h]
08057442 2180     mov     r1,80h
08057444 0609     lsl     r1,r1,18h
08057446 2800     cmp     r0,0h
08057448 DA03     bge     8057452h
0805744A 6890     ldr     r0,[r2,8h]
0805744C 4008     and     r0,r1
0805744E 2800     cmp     r0,0h
08057450 D1FB     bne     805744Ah
08057452 BC01     pop     r0
08057454 4700     bx      r0
08057456 0000     lsl     r0,r0,0h
08057458 00D4     lsl     r4,r2,3h
0805745A 0400     lsl     r0,r0,10h
0805745C B510     push    r4,lr
0805745E 4C07     ldr     r4,=3000130h
08057460 7820     ldrb    r0,[r4]
08057462 2801     cmp     r0,1h
08057464 D918     bls     8057498h
08057466 F000F965 bl      8057734h
0805746A 7CA0     ldrb    r0,[r4,12h]
0805746C 2800     cmp     r0,0h
0805746E D113     bne     8057498h
08057470 7820     ldrb    r0,[r4]
08057472 2802     cmp     r0,2h
08057474 D104     bne     8057480h
08057476 F000F963 bl      8057740h
0805747A E00D     b       8057498h
0805747C 0130     lsl     r0,r6,4h
0805747E 0300     lsl     r0,r0,0Ch
08057480 2805     cmp     r0,5h
08057482 D102     bne     805748Ah
08057484 F000F998 bl      80577B8h
08057488 E006     b       8057498h
0805748A 4805     ldr     r0,=3000C72h
0805748C 2100     mov     r1,0h
0805748E 5E40     ldsh    r0,[r0,r1]
08057490 2802     cmp     r0,2h
08057492 D101     bne     8057498h
08057494 F000F806 bl      80574A4h
08057498 BC10     pop     r4
0805749A BC01     pop     r0
0805749C 4700     bx      r0
0805749E 0000     lsl     r0,r0,0h
080574A0 0C72     lsr     r2,r6,11h
080574A2 0300     lsl     r0,r0,0Ch
080574A4 B5F0     push    r4-r7,lr
080574A6 4657     mov     r7,r10
080574A8 464E     mov     r6,r9
080574AA 4645     mov     r5,r8
080574AC B4E0     push    r5-r7
080574AE B083     add     sp,-0Ch
080574B0 484E     ldr     r0,=3000130h
080574B2 4680     mov     r8,r0
080574B4 7880     ldrb    r0,[r0,2h]
080574B6 0087     lsl     r7,r0,2h
080574B8 00C6     lsl     r6,r0,3h
080574BA 1C38     mov     r0,r7
080574BC F034FB38 bl      808BB30h
080574C0 4C4B     ldr     r4,=3FEE6666h
080574C2 4D4C     ldr     r5,=66666666h
080574C4 1C2B     mov     r3,r5
080574C6 1C22     mov     r2,r4
080574C8 F033FFA0 bl      808B40Ch
080574CC F034FB6E bl      808BBACh
080574D0 1C07     mov     r7,r0
080574D2 1C30     mov     r0,r6
080574D4 F034FB2C bl      808BB30h
080574D8 1C2B     mov     r3,r5
080574DA 1C22     mov     r2,r4
080574DC F033FF96 bl      808B40Ch
080574E0 F034FB64 bl      808BBACh
080574E4 1C06     mov     r6,r0
080574E6 4270     neg     r0,r6
080574E8 0400     lsl     r0,r0,10h
080574EA 1400     asr     r0,r0,10h
080574EC 9000     str     r0,[sp]
080574EE 0430     lsl     r0,r6,10h
080574F0 1400     asr     r0,r0,10h
080574F2 9001     str     r0,[sp,4h]
080574F4 4278     neg     r0,r7
080574F6 0400     lsl     r0,r0,10h
080574F8 1400     asr     r0,r0,10h
080574FA 4682     mov     r10,r0
080574FC 0438     lsl     r0,r7,10h
080574FE 1400     asr     r0,r0,10h
08057500 4681     mov     r9,r0
08057502 4641     mov     r1,r8
08057504 888A     ldrh    r2,[r1,4h]
08057506 9E00     ldr     r6,[sp]
08057508 1990     add     r0,r2,r6
0805750A 2800     cmp     r0,0h
0805750C DA03     bge     8057516h
0805750E 4250     neg     r0,r2
08057510 0400     lsl     r0,r0,10h
08057512 1400     asr     r0,r0,10h
08057514 9000     str     r0,[sp]
08057516 4640     mov     r0,r8
08057518 88C4     ldrh    r4,[r0,6h]
0805751A 4651     mov     r1,r10
0805751C 1860     add     r0,r4,r1
0805751E 1C23     mov     r3,r4
08057520 2800     cmp     r0,0h
08057522 DA03     bge     805752Ch
08057524 4258     neg     r0,r3
08057526 0400     lsl     r0,r0,10h
08057528 1400     asr     r0,r0,10h
0805752A 4682     mov     r10,r0
0805752C 4D32     ldr     r5,=300009Ch
0805752E 8BA8     ldrh    r0,[r5,1Ch]
08057530 0181     lsl     r1,r0,6h
08057532 9E01     ldr     r6,[sp,4h]
08057534 1990     add     r0,r2,r6
08057536 4281     cmp     r1,r0
08057538 DA03     bge     8057542h
0805753A 1A88     sub     r0,r1,r2
0805753C 0400     lsl     r0,r0,10h
0805753E 1400     asr     r0,r0,10h
08057540 9001     str     r0,[sp,4h]
08057542 8BE8     ldrh    r0,[r5,1Eh]
08057544 0181     lsl     r1,r0,6h
08057546 464A     mov     r2,r9
08057548 1898     add     r0,r3,r2
0805754A 4281     cmp     r1,r0
0805754C DA03     bge     8057556h
0805754E 1AC8     sub     r0,r1,r3
08057550 0400     lsl     r0,r0,10h
08057552 1400     asr     r0,r0,10h
08057554 4681     mov     r9,r0
08057556 466E     mov     r6,r13
08057558 8830     ldrh    r0,[r6]
0805755A 4646     mov     r6,r8
0805755C 8130     strh    r0,[r6,8h]
0805755E 4669     mov     r1,r13
08057560 8889     ldrh    r1,[r1,4h]
08057562 8171     strh    r1,[r6,0Ah]
08057564 4652     mov     r2,r10
08057566 81B2     strh    r2,[r6,0Ch]
08057568 4648     mov     r0,r9
0805756A 81F0     strh    r0,[r6,0Eh]
0805756C 7830     ldrb    r0,[r6]
0805756E 2803     cmp     r0,3h
08057570 D900     bls     8057574h
08057572 E0B1     b       80576D8h
08057574 88B0     ldrh    r0,[r6,4h]
08057576 9A00     ldr     r2,[sp]
08057578 1811     add     r1,r2,r0
0805757A 1189     asr     r1,r1,6h
0805757C 9100     str     r1,[sp]
0805757E 9E01     ldr     r6,[sp,4h]
08057580 1830     add     r0,r6,r0
08057582 1180     asr     r0,r0,6h
08057584 9001     str     r0,[sp,4h]
08057586 4651     mov     r1,r10
08057588 1908     add     r0,r1,r4
0805758A 1180     asr     r0,r0,6h
0805758C 4682     mov     r10,r0
0805758E 464A     mov     r2,r9
08057590 1910     add     r0,r2,r4
08057592 1180     asr     r0,r0,6h
08057594 4681     mov     r9,r0
08057596 4819     ldr     r0,=3000C77h
08057598 7801     ldrb    r1,[r0]
0805759A 2001     mov     r0,1h
0805759C 4008     and     r0,r1
0805759E 2800     cmp     r0,0h
080575A0 D14D     bne     805763Eh
080575A2 4917     ldr     r1,=3000079h
080575A4 200B     mov     r0,0Bh
080575A6 7008     strb    r0,[r1]
080575A8 2100     mov     r1,0h
080575AA 9E01     ldr     r6,[sp,4h]
080575AC 2900     cmp     r1,0h
080575AE D100     bne     80575B2h
080575B0 9E00     ldr     r6,[sp]
080575B2 480E     ldr     r0,=3000130h
080575B4 88C0     ldrh    r0,[r0,6h]
080575B6 0984     lsr     r4,r0,6h
080575B8 1C25     mov     r5,r4
080575BA 3101     add     r1,1h
080575BC 4688     mov     r8,r1
080575BE 4F0E     ldr     r7,=300009Ch
080575C0 2300     mov     r3,0h
080575C2 4555     cmp     r5,r10
080575C4 DB1E     blt     8057604h
080575C6 8BB8     ldrh    r0,[r7,1Ch]
080575C8 4368     mul     r0,r5
080575CA 1980     add     r0,r0,r6
080575CC 69B9     ldr     r1,[r7,18h]
080575CE 0040     lsl     r0,r0,1h
080575D0 1840     add     r0,r0,r1
080575D2 8802     ldrh    r2,[r0]
080575D4 2A00     cmp     r2,0h
080575D6 D005     beq     80575E4h
080575D8 1C28     mov     r0,r5
080575DA 1C31     mov     r1,r6
080575DC 9302     str     r3,[sp,8h]
080575DE F002F94D bl      805987Ch
080575E2 9B02     ldr     r3,[sp,8h]
080575E4 1E68     sub     r0,r5,1
080575E6 0400     lsl     r0,r0,10h
080575E8 1405     asr     r5,r0,10h
080575EA E00C     b       8057606h
080575EC 0130     lsl     r0,r6,4h
080575EE 0300     lsl     r0,r0,0Ch
080575F0 6666     str     r6,[r4,64h]
080575F2 3FEE     sub     r7,0EEh
080575F4 6666     str     r6,[r4,64h]
080575F6 6666     str     r6,[r4,64h]
080575F8 009C     lsl     r4,r3,2h
080575FA 0300     lsl     r0,r0,0Ch
080575FC 0C77     lsr     r7,r6,11h
080575FE 0300     lsl     r0,r0,0Ch
08057600 0079     lsl     r1,r7,1h
08057602 0300     lsl     r0,r0,0Ch
08057604 2301     mov     r3,1h
08057606 454C     cmp     r4,r9
08057608 DC12     bgt     8057630h
0805760A 8BB8     ldrh    r0,[r7,1Ch]
0805760C 4360     mul     r0,r4
0805760E 1980     add     r0,r0,r6
08057610 69B9     ldr     r1,[r7,18h]
08057612 0040     lsl     r0,r0,1h
08057614 1840     add     r0,r0,r1
08057616 8802     ldrh    r2,[r0]
08057618 2A00     cmp     r2,0h
0805761A D005     beq     8057628h
0805761C 1C20     mov     r0,r4
0805761E 1C31     mov     r1,r6
08057620 9302     str     r3,[sp,8h]
08057622 F002F92B bl      805987Ch
08057626 9B02     ldr     r3,[sp,8h]
08057628 1C60     add     r0,r4,1
0805762A 0400     lsl     r0,r0,10h
0805762C 1404     asr     r4,r0,10h
0805762E E000     b       8057632h
08057630 3301     add     r3,1h
08057632 2B02     cmp     r3,2h
08057634 D1C4     bne     80575C0h
08057636 4641     mov     r1,r8
08057638 2901     cmp     r1,1h
0805763A DDB6     ble     80575AAh
0805763C E049     b       80576D2h
0805763E 4913     ldr     r1,=3000079h
08057640 200B     mov     r0,0Bh
08057642 7008     strb    r0,[r1]
08057644 2100     mov     r1,0h
08057646 464F     mov     r7,r9
08057648 2900     cmp     r1,0h
0805764A D100     bne     805764Eh
0805764C 4657     mov     r7,r10
0805764E 4810     ldr     r0,=3000130h
08057650 8880     ldrh    r0,[r0,4h]
08057652 0984     lsr     r4,r0,6h
08057654 1C25     mov     r5,r4
08057656 3101     add     r1,1h
08057658 4688     mov     r8,r1
0805765A 4E0E     ldr     r6,=300009Ch
0805765C 2300     mov     r3,0h
0805765E 9800     ldr     r0,[sp]
08057660 4285     cmp     r5,r0
08057662 DB19     blt     8057698h
08057664 8BB0     ldrh    r0,[r6,1Ch]
08057666 4378     mul     r0,r7
08057668 1940     add     r0,r0,r5
0805766A 69B1     ldr     r1,[r6,18h]
0805766C 0040     lsl     r0,r0,1h
0805766E 1840     add     r0,r0,r1
08057670 8802     ldrh    r2,[r0]
08057672 2A00     cmp     r2,0h
08057674 D005     beq     8057682h
08057676 1C38     mov     r0,r7
08057678 1C29     mov     r1,r5
0805767A 9302     str     r3,[sp,8h]
0805767C F002F8FE bl      805987Ch
08057680 9B02     ldr     r3,[sp,8h]
08057682 1E68     sub     r0,r5,1
08057684 0400     lsl     r0,r0,10h
08057686 1405     asr     r5,r0,10h
08057688 E007     b       805769Ah
0805768A 0000     lsl     r0,r0,0h
0805768C 0079     lsl     r1,r7,1h
0805768E 0300     lsl     r0,r0,0Ch
08057690 0130     lsl     r0,r6,4h
08057692 0300     lsl     r0,r0,0Ch
08057694 009C     lsl     r4,r3,2h
08057696 0300     lsl     r0,r0,0Ch
08057698 2301     mov     r3,1h
0805769A 9901     ldr     r1,[sp,4h]
0805769C 428C     cmp     r4,r1
0805769E DC12     bgt     80576C6h
080576A0 8BB0     ldrh    r0,[r6,1Ch]
080576A2 4378     mul     r0,r7
080576A4 1900     add     r0,r0,r4
080576A6 69B1     ldr     r1,[r6,18h]
080576A8 0040     lsl     r0,r0,1h
080576AA 1840     add     r0,r0,r1
080576AC 8802     ldrh    r2,[r0]
080576AE 2A00     cmp     r2,0h
080576B0 D005     beq     80576BEh
080576B2 1C38     mov     r0,r7
080576B4 1C21     mov     r1,r4
080576B6 9302     str     r3,[sp,8h]
080576B8 F002F8E0 bl      805987Ch
080576BC 9B02     ldr     r3,[sp,8h]
080576BE 1C60     add     r0,r4,1
080576C0 0400     lsl     r0,r0,10h
080576C2 1404     asr     r4,r0,10h
080576C4 E000     b       80576C8h
080576C6 3301     add     r3,1h
080576C8 2B02     cmp     r3,2h
080576CA D1C7     bne     805765Ch
080576CC 4641     mov     r1,r8
080576CE 2901     cmp     r1,1h
080576D0 DDB9     ble     8057646h
080576D2 4905     ldr     r1,=3000079h
